ARM GAS  C:\Users\Eric\AppData\Local\Temp\ccgAspx4.s 			page 1


   1              		.syntax unified
   2              		.cpu cortex-m3
   3              		.fpu softvfp
   4              		.eabi_attribute 20, 1
   5              		.eabi_attribute 21, 1
   6              		.eabi_attribute 23, 3
   7              		.eabi_attribute 24, 1
   8              		.eabi_attribute 25, 1
   9              		.eabi_attribute 26, 1
  10              		.eabi_attribute 30, 6
  11              		.eabi_attribute 34, 1
  12              		.eabi_attribute 18, 4
  13              		.thumb
  14              		.file	"main.c"
  15              		.text
  16              	.Ltext0:
  17              		.cfi_sections	.debug_frame
  18              		.global	msg_count
  19              		.bss
  20              		.align	2
  21              		.type	msg_count, %object
  22              		.size	msg_count, 4
  23              	msg_count:
  24 0000 00000000 		.space	4
  25              		.comm	sendData,28,4
  26              		.section	.text.ReadSerial,"ax",%progbits
  27              		.align	2
  28              		.global	ReadSerial
  29              		.thumb
  30              		.thumb_func
  31              		.type	ReadSerial, %function
  32              	ReadSerial:
  33              	.LFB56:
  34              		.file 1 ".\\main.c"
   1:.\main.c      **** /* ========================================
   2:.\main.c      ****  *
   3:.\main.c      ****  * Copyright YOUR COMPANY, THE YEAR
   4:.\main.c      ****  * All Rights Reserved
   5:.\main.c      ****  * UNPUBLISHED, LICENSED SOFTWARE.
   6:.\main.c      ****  *
   7:.\main.c      ****  * CONFIDENTIAL AND PROPRIETARY INFORMATION
   8:.\main.c      ****  * WHICH IS THE PROPERTY OF your company.
   9:.\main.c      ****  *
  10:.\main.c      ****  * ========================================
  11:.\main.c      **** */
  12:.\main.c      **** #include <project.h>
  13:.\main.c      **** 
  14:.\main.c      **** #define BEGIN_PAD_SIZE 5
  15:.\main.c      **** 
  16:.\main.c      **** int msg_count = 0;
  17:.\main.c      **** 
  18:.\main.c      **** union data {
  19:.\main.c      ****     struct sensorDataInternals {
  20:.\main.c      ****         char beginPad[BEGIN_PAD_SIZE];
  21:.\main.c      ****         int16_t ax;
  22:.\main.c      ****         char pad0;
  23:.\main.c      ****         int16_t ay;
ARM GAS  C:\Users\Eric\AppData\Local\Temp\ccgAspx4.s 			page 2


  24:.\main.c      ****         char pad1;
  25:.\main.c      ****         int16_t az;
  26:.\main.c      ****         char pad2;
  27:.\main.c      ****         int16_t gx;
  28:.\main.c      ****         char pad3;
  29:.\main.c      ****         int16_t gy;
  30:.\main.c      ****         char pad4;
  31:.\main.c      ****         int16_t gz;
  32:.\main.c      ****     } sensorData;
  33:.\main.c      ****     char buffer[sizeof(struct sensorDataInternals)];
  34:.\main.c      **** } sendData;
  35:.\main.c      **** 
  36:.\main.c      **** void ReadSerial() {
  35              		.loc 1 36 0
  36              		.cfi_startproc
  37              		@ args = 0, pretend = 0, frame = 8
  38              		@ frame_needed = 1, uses_anonymous_args = 0
  39 0000 80B5     		push	{r7, lr}
  40              		.cfi_def_cfa_offset 8
  41              		.cfi_offset 7, -8
  42              		.cfi_offset 14, -4
  43 0002 82B0     		sub	sp, sp, #8
  44              		.cfi_def_cfa_offset 16
  45 0004 00AF     		add	r7, sp, #0
  46              		.cfi_def_cfa_register 7
  37:.\main.c      ****     char rxData;
  38:.\main.c      ****     while (UART_1_GetRxBufferSize() != 0) {
  47              		.loc 1 38 0
  48 0006 30E0     		b	.L2
  49              	.L6:
  39:.\main.c      ****         rxData = UART_1_GetChar();
  50              		.loc 1 39 0
  51 0008 FFF7FEFF 		bl	UART_1_GetChar
  52 000c 0346     		mov	r3, r0
  53 000e FB71     		strb	r3, [r7, #7]
  40:.\main.c      ****         if (msg_count == sizeof(sendData)) msg_count = 0;
  54              		.loc 1 40 0
  55 0010 1A4B     		ldr	r3, .L7
  56 0012 1B68     		ldr	r3, [r3]
  57 0014 1C2B     		cmp	r3, #28
  58 0016 02D1     		bne	.L3
  59              		.loc 1 40 0 is_stmt 0 discriminator 1
  60 0018 184B     		ldr	r3, .L7
  61 001a 0022     		movs	r2, #0
  62 001c 1A60     		str	r2, [r3]
  63              	.L3:
  41:.\main.c      ****         if (msg_count < BEGIN_PAD_SIZE && rxData == msg_count) msg_count++;
  64              		.loc 1 41 0 is_stmt 1
  65 001e 174B     		ldr	r3, .L7
  66 0020 1B68     		ldr	r3, [r3]
  67 0022 042B     		cmp	r3, #4
  68 0024 0ADC     		bgt	.L4
  69              		.loc 1 41 0 is_stmt 0 discriminator 1
  70 0026 FA79     		ldrb	r2, [r7, #7]	@ zero_extendqisi2
  71 0028 144B     		ldr	r3, .L7
  72 002a 1B68     		ldr	r3, [r3]
  73 002c 9A42     		cmp	r2, r3
ARM GAS  C:\Users\Eric\AppData\Local\Temp\ccgAspx4.s 			page 3


  74 002e 05D1     		bne	.L4
  75 0030 124B     		ldr	r3, .L7
  76 0032 1B68     		ldr	r3, [r3]
  77 0034 5A1C     		adds	r2, r3, #1
  78 0036 114B     		ldr	r3, .L7
  79 0038 1A60     		str	r2, [r3]
  80 003a 16E0     		b	.L2
  81              	.L4:
  42:.\main.c      ****         else if (msg_count < BEGIN_PAD_SIZE && rxData != msg_count) msg_count = 0;
  82              		.loc 1 42 0 is_stmt 1
  83 003c 0F4B     		ldr	r3, .L7
  84 003e 1B68     		ldr	r3, [r3]
  85 0040 042B     		cmp	r3, #4
  86 0042 08DC     		bgt	.L5
  87              		.loc 1 42 0 is_stmt 0 discriminator 1
  88 0044 FA79     		ldrb	r2, [r7, #7]	@ zero_extendqisi2
  89 0046 0D4B     		ldr	r3, .L7
  90 0048 1B68     		ldr	r3, [r3]
  91 004a 9A42     		cmp	r2, r3
  92 004c 03D0     		beq	.L5
  93 004e 0B4B     		ldr	r3, .L7
  94 0050 0022     		movs	r2, #0
  95 0052 1A60     		str	r2, [r3]
  96 0054 09E0     		b	.L2
  97              	.L5:
  43:.\main.c      ****         else {
  44:.\main.c      ****             sendData.buffer[msg_count] = rxData;
  98              		.loc 1 44 0 is_stmt 1
  99 0056 094B     		ldr	r3, .L7
 100 0058 1B68     		ldr	r3, [r3]
 101 005a 094A     		ldr	r2, .L7+4
 102 005c F979     		ldrb	r1, [r7, #7]
 103 005e D154     		strb	r1, [r2, r3]
  45:.\main.c      ****             msg_count++;
 104              		.loc 1 45 0
 105 0060 064B     		ldr	r3, .L7
 106 0062 1B68     		ldr	r3, [r3]
 107 0064 5A1C     		adds	r2, r3, #1
 108 0066 054B     		ldr	r3, .L7
 109 0068 1A60     		str	r2, [r3]
 110              	.L2:
  38:.\main.c      ****     while (UART_1_GetRxBufferSize() != 0) {
 111              		.loc 1 38 0 discriminator 1
 112 006a FFF7FEFF 		bl	UART_1_GetRxBufferSize
 113 006e 0346     		mov	r3, r0
 114 0070 002B     		cmp	r3, #0
 115 0072 C9D1     		bne	.L6
  46:.\main.c      ****         }
  47:.\main.c      ****     }
  48:.\main.c      **** }
 116              		.loc 1 48 0
 117 0074 0837     		adds	r7, r7, #8
 118 0076 BD46     		mov	sp, r7
 119              		@ sp needed
 120 0078 80BD     		pop	{r7, pc}
 121              	.L8:
 122 007a 00BF     		.align	2
ARM GAS  C:\Users\Eric\AppData\Local\Temp\ccgAspx4.s 			page 4


 123              	.L7:
 124 007c 00000000 		.word	msg_count
 125 0080 00000000 		.word	sendData
 126              		.cfi_endproc
 127              	.LFE56:
 128              		.size	ReadSerial, .-ReadSerial
 129              		.section	.text.main,"ax",%progbits
 130              		.align	2
 131              		.global	main
 132              		.thumb
 133              		.thumb_func
 134              		.type	main, %function
 135              	main:
 136              	.LFB57:
  49:.\main.c      **** 
  50:.\main.c      **** int main()
  51:.\main.c      **** {
 137              		.loc 1 51 0
 138              		.cfi_startproc
 139              		@ args = 0, pretend = 0, frame = 0
 140              		@ frame_needed = 1, uses_anonymous_args = 0
 141 0000 80B5     		push	{r7, lr}
 142              		.cfi_def_cfa_offset 8
 143              		.cfi_offset 7, -8
 144              		.cfi_offset 14, -4
 145 0002 00AF     		add	r7, sp, #0
 146              		.cfi_def_cfa_register 7
  52:.\main.c      ****     /* Place your initialization/startup code here (e.g. MyInst_Start()) */
  53:.\main.c      ****     UART_1_Start();
 147              		.loc 1 53 0
 148 0004 FFF7FEFF 		bl	UART_1_Start
  54:.\main.c      ****     isr_1_StartEx(*ReadSerial);
 149              		.loc 1 54 0
 150 0008 0248     		ldr	r0, .L11
 151 000a FFF7FEFF 		bl	isr_1_StartEx
  55:.\main.c      ****     
  56:.\main.c      ****     CyGlobalIntEnable; /* Uncomment this line to enable global interrupts. */
 152              		.loc 1 56 0
 153              	@ 56 ".\main.c" 1
 154 000e 62B6     		CPSIE   i
 155              	@ 0 "" 2
 156              		.thumb
 157              	.L10:
  57:.\main.c      ****     for(;;)
  58:.\main.c      ****     {
  59:.\main.c      ****         /* Place your application code here. */
  60:.\main.c      ****     }
 158              		.loc 1 60 0 discriminator 1
 159 0010 FEE7     		b	.L10
 160              	.L12:
 161 0012 00BF     		.align	2
 162              	.L11:
 163 0014 00000000 		.word	ReadSerial
 164              		.cfi_endproc
 165              	.LFE57:
 166              		.size	main, .-main
 167              		.text
ARM GAS  C:\Users\Eric\AppData\Local\Temp\ccgAspx4.s 			page 5


 168              	.Letext0:
 169              		.file 2 "e:\\program files (x86)\\cypress\\psoc creator\\3.1\\psoc creator\\import\\gnu_cs\\arm\\4
 170              		.file 3 "e:\\program files (x86)\\cypress\\psoc creator\\3.1\\psoc creator\\import\\gnu_cs\\arm\\4
 171              		.file 4 ".\\Generated_Source\\PSoC5/core_cm3.h"