ARM GAS  C:\Users\Eric\AppData\Local\Temp\ccTTkU6l.s 			page 1


   1              		.cpu cortex-m0
   2              		.fpu softvfp
   3              		.eabi_attribute 20, 1
   4              		.eabi_attribute 21, 1
   5              		.eabi_attribute 23, 3
   6              		.eabi_attribute 24, 1
   7              		.eabi_attribute 25, 1
   8              		.eabi_attribute 26, 1
   9              		.eabi_attribute 30, 6
  10              		.eabi_attribute 34, 0
  11              		.eabi_attribute 18, 4
  12              		.code	16
  13              		.file	"timer.c"
  14              		.text
  15              	.Ltext0:
  16              		.cfi_sections	.debug_frame
  17              		.section	.text.timer_Start,"ax",%progbits
  18              		.align	2
  19              		.global	timer_Start
  20              		.code	16
  21              		.thumb_func
  22              		.type	timer_Start, %function
  23              	timer_Start:
  24              	.LFB0:
  25              		.file 1 ".\\Generated_Source\\PSoC4\\timer.c"
   1:.\Generated_Source\PSoC4/timer.c **** /*******************************************************************************
   2:.\Generated_Source\PSoC4/timer.c **** * File Name: timer.c  
   3:.\Generated_Source\PSoC4/timer.c **** * Version 1.70
   4:.\Generated_Source\PSoC4/timer.c **** *
   5:.\Generated_Source\PSoC4/timer.c **** *  Description:
   6:.\Generated_Source\PSoC4/timer.c **** *   API for controlling the state of an interrupt.
   7:.\Generated_Source\PSoC4/timer.c **** *
   8:.\Generated_Source\PSoC4/timer.c **** *
   9:.\Generated_Source\PSoC4/timer.c **** *  Note:
  10:.\Generated_Source\PSoC4/timer.c **** *
  11:.\Generated_Source\PSoC4/timer.c **** ********************************************************************************
  12:.\Generated_Source\PSoC4/timer.c **** * Copyright 2008-2015, Cypress Semiconductor Corporation.  All rights reserved.
  13:.\Generated_Source\PSoC4/timer.c **** * You may use this file only in accordance with the license, terms, conditions, 
  14:.\Generated_Source\PSoC4/timer.c **** * disclaimers, and limitations in the end user license agreement accompanying 
  15:.\Generated_Source\PSoC4/timer.c **** * the software package with which this file was provided.
  16:.\Generated_Source\PSoC4/timer.c **** *******************************************************************************/
  17:.\Generated_Source\PSoC4/timer.c **** 
  18:.\Generated_Source\PSoC4/timer.c **** 
  19:.\Generated_Source\PSoC4/timer.c **** #include <cydevice_trm.h>
  20:.\Generated_Source\PSoC4/timer.c **** #include <CyLib.h>
  21:.\Generated_Source\PSoC4/timer.c **** #include <timer.h>
  22:.\Generated_Source\PSoC4/timer.c **** 
  23:.\Generated_Source\PSoC4/timer.c **** #if !defined(timer__REMOVED) /* Check for removal by optimization */
  24:.\Generated_Source\PSoC4/timer.c **** 
  25:.\Generated_Source\PSoC4/timer.c **** /*******************************************************************************
  26:.\Generated_Source\PSoC4/timer.c **** *  Place your includes, defines and code here 
  27:.\Generated_Source\PSoC4/timer.c **** ********************************************************************************/
  28:.\Generated_Source\PSoC4/timer.c **** /* `#START timer_intc` */
  29:.\Generated_Source\PSoC4/timer.c **** 
  30:.\Generated_Source\PSoC4/timer.c **** /* `#END` */
  31:.\Generated_Source\PSoC4/timer.c **** 
  32:.\Generated_Source\PSoC4/timer.c **** extern cyisraddress CyRamVectors[CYINT_IRQ_BASE + CY_NUM_INTERRUPTS];
ARM GAS  C:\Users\Eric\AppData\Local\Temp\ccTTkU6l.s 			page 2


  33:.\Generated_Source\PSoC4/timer.c **** 
  34:.\Generated_Source\PSoC4/timer.c **** /* Declared in startup, used to set unused interrupts to. */
  35:.\Generated_Source\PSoC4/timer.c **** CY_ISR_PROTO(IntDefaultHandler);
  36:.\Generated_Source\PSoC4/timer.c **** 
  37:.\Generated_Source\PSoC4/timer.c **** 
  38:.\Generated_Source\PSoC4/timer.c **** /*******************************************************************************
  39:.\Generated_Source\PSoC4/timer.c **** * Function Name: timer_Start
  40:.\Generated_Source\PSoC4/timer.c **** ********************************************************************************
  41:.\Generated_Source\PSoC4/timer.c **** *
  42:.\Generated_Source\PSoC4/timer.c **** * Summary:
  43:.\Generated_Source\PSoC4/timer.c **** *  Set up the interrupt and enable it. This function disables the interrupt, 
  44:.\Generated_Source\PSoC4/timer.c **** *  sets the default interrupt vector, sets the priority from the value in the
  45:.\Generated_Source\PSoC4/timer.c **** *  Design Wide Resources Interrupt Editor, then enables the interrupt to the 
  46:.\Generated_Source\PSoC4/timer.c **** *  interrupt controller.
  47:.\Generated_Source\PSoC4/timer.c **** *
  48:.\Generated_Source\PSoC4/timer.c **** * Parameters:  
  49:.\Generated_Source\PSoC4/timer.c **** *   None
  50:.\Generated_Source\PSoC4/timer.c **** *
  51:.\Generated_Source\PSoC4/timer.c **** * Return:
  52:.\Generated_Source\PSoC4/timer.c **** *   None
  53:.\Generated_Source\PSoC4/timer.c **** *
  54:.\Generated_Source\PSoC4/timer.c **** *******************************************************************************/
  55:.\Generated_Source\PSoC4/timer.c **** void timer_Start(void)
  56:.\Generated_Source\PSoC4/timer.c **** {
  26              		.loc 1 56 0
  27              		.cfi_startproc
  28 0000 80B5     		push	{r7, lr}
  29              		.cfi_def_cfa_offset 8
  30              		.cfi_offset 7, -8
  31              		.cfi_offset 14, -4
  32 0002 00AF     		add	r7, sp, #0
  33              		.cfi_def_cfa_register 7
  57:.\Generated_Source\PSoC4/timer.c ****     /* For all we know the interrupt is active. */
  58:.\Generated_Source\PSoC4/timer.c ****     timer_Disable();
  34              		.loc 1 58 0
  35 0004 FFF7FEFF 		bl	timer_Disable
  59:.\Generated_Source\PSoC4/timer.c **** 
  60:.\Generated_Source\PSoC4/timer.c ****     /* Set the ISR to point to the timer Interrupt. */
  61:.\Generated_Source\PSoC4/timer.c ****     timer_SetVector(&timer_Interrupt);
  36              		.loc 1 61 0
  37 0008 054B     		ldr	r3, .L2
  38 000a 181C     		mov	r0, r3
  39 000c FFF7FEFF 		bl	timer_SetVector
  62:.\Generated_Source\PSoC4/timer.c **** 
  63:.\Generated_Source\PSoC4/timer.c ****     /* Set the priority. */
  64:.\Generated_Source\PSoC4/timer.c ****     timer_SetPriority((uint8)timer_INTC_PRIOR_NUMBER);
  40              		.loc 1 64 0
  41 0010 0320     		mov	r0, #3
  42 0012 FFF7FEFF 		bl	timer_SetPriority
  65:.\Generated_Source\PSoC4/timer.c **** 
  66:.\Generated_Source\PSoC4/timer.c ****     /* Enable it. */
  67:.\Generated_Source\PSoC4/timer.c ****     timer_Enable();
  43              		.loc 1 67 0
  44 0016 FFF7FEFF 		bl	timer_Enable
  68:.\Generated_Source\PSoC4/timer.c **** }
  45              		.loc 1 68 0
  46 001a BD46     		mov	sp, r7
ARM GAS  C:\Users\Eric\AppData\Local\Temp\ccTTkU6l.s 			page 3


  47              		@ sp needed
  48 001c 80BD     		pop	{r7, pc}
  49              	.L3:
  50 001e C046     		.align	2
  51              	.L2:
  52 0020 00000000 		.word	timer_Interrupt
  53              		.cfi_endproc
  54              	.LFE0:
  55              		.size	timer_Start, .-timer_Start
  56              		.section	.text.timer_StartEx,"ax",%progbits
  57              		.align	2
  58              		.global	timer_StartEx
  59              		.code	16
  60              		.thumb_func
  61              		.type	timer_StartEx, %function
  62              	timer_StartEx:
  63              	.LFB1:
  69:.\Generated_Source\PSoC4/timer.c **** 
  70:.\Generated_Source\PSoC4/timer.c **** 
  71:.\Generated_Source\PSoC4/timer.c **** /*******************************************************************************
  72:.\Generated_Source\PSoC4/timer.c **** * Function Name: timer_StartEx
  73:.\Generated_Source\PSoC4/timer.c **** ********************************************************************************
  74:.\Generated_Source\PSoC4/timer.c **** *
  75:.\Generated_Source\PSoC4/timer.c **** * Summary:
  76:.\Generated_Source\PSoC4/timer.c **** *  Sets up the interrupt and enables it. This function disables the interrupt,
  77:.\Generated_Source\PSoC4/timer.c **** *  sets the interrupt vector based on the address passed in, sets the priority 
  78:.\Generated_Source\PSoC4/timer.c **** *  from the value in the Design Wide Resources Interrupt Editor, then enables 
  79:.\Generated_Source\PSoC4/timer.c **** *  the interrupt to the interrupt controller.
  80:.\Generated_Source\PSoC4/timer.c **** *  
  81:.\Generated_Source\PSoC4/timer.c **** *  When defining ISR functions, the CY_ISR and CY_ISR_PROTO macros should be 
  82:.\Generated_Source\PSoC4/timer.c **** *  used to provide consistent definition across compilers:
  83:.\Generated_Source\PSoC4/timer.c **** *  
  84:.\Generated_Source\PSoC4/timer.c **** *  Function definition example:
  85:.\Generated_Source\PSoC4/timer.c **** *   CY_ISR(MyISR)
  86:.\Generated_Source\PSoC4/timer.c **** *   {
  87:.\Generated_Source\PSoC4/timer.c **** *   }
  88:.\Generated_Source\PSoC4/timer.c **** *   Function prototype example:
  89:.\Generated_Source\PSoC4/timer.c **** *   CY_ISR_PROTO(MyISR);
  90:.\Generated_Source\PSoC4/timer.c **** *
  91:.\Generated_Source\PSoC4/timer.c **** * Parameters:  
  92:.\Generated_Source\PSoC4/timer.c **** *   address: Address of the ISR to set in the interrupt vector table.
  93:.\Generated_Source\PSoC4/timer.c **** *
  94:.\Generated_Source\PSoC4/timer.c **** * Return:
  95:.\Generated_Source\PSoC4/timer.c **** *   None
  96:.\Generated_Source\PSoC4/timer.c **** *
  97:.\Generated_Source\PSoC4/timer.c **** *******************************************************************************/
  98:.\Generated_Source\PSoC4/timer.c **** void timer_StartEx(cyisraddress address)
  99:.\Generated_Source\PSoC4/timer.c **** {
  64              		.loc 1 99 0
  65              		.cfi_startproc
  66 0000 80B5     		push	{r7, lr}
  67              		.cfi_def_cfa_offset 8
  68              		.cfi_offset 7, -8
  69              		.cfi_offset 14, -4
  70 0002 82B0     		sub	sp, sp, #8
  71              		.cfi_def_cfa_offset 16
  72 0004 00AF     		add	r7, sp, #0
ARM GAS  C:\Users\Eric\AppData\Local\Temp\ccTTkU6l.s 			page 4


  73              		.cfi_def_cfa_register 7
  74 0006 7860     		str	r0, [r7, #4]
 100:.\Generated_Source\PSoC4/timer.c ****     /* For all we know the interrupt is active. */
 101:.\Generated_Source\PSoC4/timer.c ****     timer_Disable();
  75              		.loc 1 101 0
  76 0008 FFF7FEFF 		bl	timer_Disable
 102:.\Generated_Source\PSoC4/timer.c **** 
 103:.\Generated_Source\PSoC4/timer.c ****     /* Set the ISR to point to the timer Interrupt. */
 104:.\Generated_Source\PSoC4/timer.c ****     timer_SetVector(address);
  77              		.loc 1 104 0
  78 000c 7B68     		ldr	r3, [r7, #4]
  79 000e 181C     		mov	r0, r3
  80 0010 FFF7FEFF 		bl	timer_SetVector
 105:.\Generated_Source\PSoC4/timer.c **** 
 106:.\Generated_Source\PSoC4/timer.c ****     /* Set the priority. */
 107:.\Generated_Source\PSoC4/timer.c ****     timer_SetPriority((uint8)timer_INTC_PRIOR_NUMBER);
  81              		.loc 1 107 0
  82 0014 0320     		mov	r0, #3
  83 0016 FFF7FEFF 		bl	timer_SetPriority
 108:.\Generated_Source\PSoC4/timer.c **** 
 109:.\Generated_Source\PSoC4/timer.c ****     /* Enable it. */
 110:.\Generated_Source\PSoC4/timer.c ****     timer_Enable();
  84              		.loc 1 110 0
  85 001a FFF7FEFF 		bl	timer_Enable
 111:.\Generated_Source\PSoC4/timer.c **** }
  86              		.loc 1 111 0
  87 001e BD46     		mov	sp, r7
  88 0020 02B0     		add	sp, sp, #8
  89              		@ sp needed
  90 0022 80BD     		pop	{r7, pc}
  91              		.cfi_endproc
  92              	.LFE1:
  93              		.size	timer_StartEx, .-timer_StartEx
  94              		.section	.text.timer_Stop,"ax",%progbits
  95              		.align	2
  96              		.global	timer_Stop
  97              		.code	16
  98              		.thumb_func
  99              		.type	timer_Stop, %function
 100              	timer_Stop:
 101              	.LFB2:
 112:.\Generated_Source\PSoC4/timer.c **** 
 113:.\Generated_Source\PSoC4/timer.c **** 
 114:.\Generated_Source\PSoC4/timer.c **** /*******************************************************************************
 115:.\Generated_Source\PSoC4/timer.c **** * Function Name: timer_Stop
 116:.\Generated_Source\PSoC4/timer.c **** ********************************************************************************
 117:.\Generated_Source\PSoC4/timer.c **** *
 118:.\Generated_Source\PSoC4/timer.c **** * Summary:
 119:.\Generated_Source\PSoC4/timer.c **** *   Disables and removes the interrupt.
 120:.\Generated_Source\PSoC4/timer.c **** *
 121:.\Generated_Source\PSoC4/timer.c **** * Parameters:  
 122:.\Generated_Source\PSoC4/timer.c **** *   None
 123:.\Generated_Source\PSoC4/timer.c **** *
 124:.\Generated_Source\PSoC4/timer.c **** * Return:
 125:.\Generated_Source\PSoC4/timer.c **** *   None
 126:.\Generated_Source\PSoC4/timer.c **** *
 127:.\Generated_Source\PSoC4/timer.c **** *******************************************************************************/
ARM GAS  C:\Users\Eric\AppData\Local\Temp\ccTTkU6l.s 			page 5


 128:.\Generated_Source\PSoC4/timer.c **** void timer_Stop(void)
 129:.\Generated_Source\PSoC4/timer.c **** {
 102              		.loc 1 129 0
 103              		.cfi_startproc
 104 0000 80B5     		push	{r7, lr}
 105              		.cfi_def_cfa_offset 8
 106              		.cfi_offset 7, -8
 107              		.cfi_offset 14, -4
 108 0002 00AF     		add	r7, sp, #0
 109              		.cfi_def_cfa_register 7
 130:.\Generated_Source\PSoC4/timer.c ****     /* Disable this interrupt. */
 131:.\Generated_Source\PSoC4/timer.c ****     timer_Disable();
 110              		.loc 1 131 0
 111 0004 FFF7FEFF 		bl	timer_Disable
 132:.\Generated_Source\PSoC4/timer.c **** 
 133:.\Generated_Source\PSoC4/timer.c ****     /* Set the ISR to point to the passive one. */
 134:.\Generated_Source\PSoC4/timer.c ****     timer_SetVector(&IntDefaultHandler);
 112              		.loc 1 134 0
 113 0008 024B     		ldr	r3, .L6
 114 000a 181C     		mov	r0, r3
 115 000c FFF7FEFF 		bl	timer_SetVector
 135:.\Generated_Source\PSoC4/timer.c **** }
 116              		.loc 1 135 0
 117 0010 BD46     		mov	sp, r7
 118              		@ sp needed
 119 0012 80BD     		pop	{r7, pc}
 120              	.L7:
 121              		.align	2
 122              	.L6:
 123 0014 00000000 		.word	IntDefaultHandler
 124              		.cfi_endproc
 125              	.LFE2:
 126              		.size	timer_Stop, .-timer_Stop
 127              		.section	.text.timer_Interrupt,"ax",%progbits
 128              		.align	2
 129              		.global	timer_Interrupt
 130              		.code	16
 131              		.thumb_func
 132              		.type	timer_Interrupt, %function
 133              	timer_Interrupt:
 134              	.LFB3:
 136:.\Generated_Source\PSoC4/timer.c **** 
 137:.\Generated_Source\PSoC4/timer.c **** 
 138:.\Generated_Source\PSoC4/timer.c **** /*******************************************************************************
 139:.\Generated_Source\PSoC4/timer.c **** * Function Name: timer_Interrupt
 140:.\Generated_Source\PSoC4/timer.c **** ********************************************************************************
 141:.\Generated_Source\PSoC4/timer.c **** *
 142:.\Generated_Source\PSoC4/timer.c **** * Summary:
 143:.\Generated_Source\PSoC4/timer.c **** *   The default Interrupt Service Routine for timer.
 144:.\Generated_Source\PSoC4/timer.c **** *
 145:.\Generated_Source\PSoC4/timer.c **** *   Add custom code between the START and END comments to keep the next version
 146:.\Generated_Source\PSoC4/timer.c **** *   of this file from over-writing your code.
 147:.\Generated_Source\PSoC4/timer.c **** *
 148:.\Generated_Source\PSoC4/timer.c **** *   Note You may use either the default ISR by using this API, or you may define
 149:.\Generated_Source\PSoC4/timer.c **** *   your own separate ISR through ISR_StartEx().
 150:.\Generated_Source\PSoC4/timer.c **** *
 151:.\Generated_Source\PSoC4/timer.c **** * Parameters:  
ARM GAS  C:\Users\Eric\AppData\Local\Temp\ccTTkU6l.s 			page 6


 152:.\Generated_Source\PSoC4/timer.c **** *   None
 153:.\Generated_Source\PSoC4/timer.c **** *
 154:.\Generated_Source\PSoC4/timer.c **** * Return:
 155:.\Generated_Source\PSoC4/timer.c **** *   None
 156:.\Generated_Source\PSoC4/timer.c **** *
 157:.\Generated_Source\PSoC4/timer.c **** *******************************************************************************/
 158:.\Generated_Source\PSoC4/timer.c **** CY_ISR(timer_Interrupt)
 159:.\Generated_Source\PSoC4/timer.c **** {
 135              		.loc 1 159 0
 136              		.cfi_startproc
 137 0000 80B5     		push	{r7, lr}
 138              		.cfi_def_cfa_offset 8
 139              		.cfi_offset 7, -8
 140              		.cfi_offset 14, -4
 141 0002 00AF     		add	r7, sp, #0
 142              		.cfi_def_cfa_register 7
 160:.\Generated_Source\PSoC4/timer.c ****     /*  Place your Interrupt code here. */
 161:.\Generated_Source\PSoC4/timer.c ****     /* `#START timer_Interrupt` */
 162:.\Generated_Source\PSoC4/timer.c **** 
 163:.\Generated_Source\PSoC4/timer.c ****     /* `#END` */
 164:.\Generated_Source\PSoC4/timer.c **** }
 143              		.loc 1 164 0
 144 0004 BD46     		mov	sp, r7
 145              		@ sp needed
 146 0006 80BD     		pop	{r7, pc}
 147              		.cfi_endproc
 148              	.LFE3:
 149              		.size	timer_Interrupt, .-timer_Interrupt
 150              		.section	.text.timer_SetVector,"ax",%progbits
 151              		.align	2
 152              		.global	timer_SetVector
 153              		.code	16
 154              		.thumb_func
 155              		.type	timer_SetVector, %function
 156              	timer_SetVector:
 157              	.LFB4:
 165:.\Generated_Source\PSoC4/timer.c **** 
 166:.\Generated_Source\PSoC4/timer.c **** 
 167:.\Generated_Source\PSoC4/timer.c **** /*******************************************************************************
 168:.\Generated_Source\PSoC4/timer.c **** * Function Name: timer_SetVector
 169:.\Generated_Source\PSoC4/timer.c **** ********************************************************************************
 170:.\Generated_Source\PSoC4/timer.c **** *
 171:.\Generated_Source\PSoC4/timer.c **** * Summary:
 172:.\Generated_Source\PSoC4/timer.c **** *   Change the ISR vector for the Interrupt. Note calling timer_Start
 173:.\Generated_Source\PSoC4/timer.c **** *   will override any effect this method would have had. To set the vector 
 174:.\Generated_Source\PSoC4/timer.c **** *   before the component has been started use timer_StartEx instead.
 175:.\Generated_Source\PSoC4/timer.c **** * 
 176:.\Generated_Source\PSoC4/timer.c **** *   When defining ISR functions, the CY_ISR and CY_ISR_PROTO macros should be 
 177:.\Generated_Source\PSoC4/timer.c **** *   used to provide consistent definition across compilers:
 178:.\Generated_Source\PSoC4/timer.c **** *
 179:.\Generated_Source\PSoC4/timer.c **** *   Function definition example:
 180:.\Generated_Source\PSoC4/timer.c **** *   CY_ISR(MyISR)
 181:.\Generated_Source\PSoC4/timer.c **** *   {
 182:.\Generated_Source\PSoC4/timer.c **** *   }
 183:.\Generated_Source\PSoC4/timer.c **** *
 184:.\Generated_Source\PSoC4/timer.c **** *   Function prototype example:
 185:.\Generated_Source\PSoC4/timer.c **** *     CY_ISR_PROTO(MyISR);
ARM GAS  C:\Users\Eric\AppData\Local\Temp\ccTTkU6l.s 			page 7


 186:.\Generated_Source\PSoC4/timer.c **** *
 187:.\Generated_Source\PSoC4/timer.c **** * Parameters:
 188:.\Generated_Source\PSoC4/timer.c **** *   address: Address of the ISR to set in the interrupt vector table.
 189:.\Generated_Source\PSoC4/timer.c **** *
 190:.\Generated_Source\PSoC4/timer.c **** * Return:
 191:.\Generated_Source\PSoC4/timer.c **** *   None
 192:.\Generated_Source\PSoC4/timer.c **** *
 193:.\Generated_Source\PSoC4/timer.c **** *******************************************************************************/
 194:.\Generated_Source\PSoC4/timer.c **** void timer_SetVector(cyisraddress address)
 195:.\Generated_Source\PSoC4/timer.c **** {
 158              		.loc 1 195 0
 159              		.cfi_startproc
 160 0000 80B5     		push	{r7, lr}
 161              		.cfi_def_cfa_offset 8
 162              		.cfi_offset 7, -8
 163              		.cfi_offset 14, -4
 164 0002 82B0     		sub	sp, sp, #8
 165              		.cfi_def_cfa_offset 16
 166 0004 00AF     		add	r7, sp, #0
 167              		.cfi_def_cfa_register 7
 168 0006 7860     		str	r0, [r7, #4]
 196:.\Generated_Source\PSoC4/timer.c ****     CyRamVectors[CYINT_IRQ_BASE + timer__INTC_NUMBER] = address;
 169              		.loc 1 196 0
 170 0008 024B     		ldr	r3, .L10
 171 000a 7A68     		ldr	r2, [r7, #4]
 172 000c 9A64     		str	r2, [r3, #72]
 197:.\Generated_Source\PSoC4/timer.c **** }
 173              		.loc 1 197 0
 174 000e BD46     		mov	sp, r7
 175 0010 02B0     		add	sp, sp, #8
 176              		@ sp needed
 177 0012 80BD     		pop	{r7, pc}
 178              	.L11:
 179              		.align	2
 180              	.L10:
 181 0014 00000000 		.word	CyRamVectors
 182              		.cfi_endproc
 183              	.LFE4:
 184              		.size	timer_SetVector, .-timer_SetVector
 185              		.section	.text.timer_GetVector,"ax",%progbits
 186              		.align	2
 187              		.global	timer_GetVector
 188              		.code	16
 189              		.thumb_func
 190              		.type	timer_GetVector, %function
 191              	timer_GetVector:
 192              	.LFB5:
 198:.\Generated_Source\PSoC4/timer.c **** 
 199:.\Generated_Source\PSoC4/timer.c **** 
 200:.\Generated_Source\PSoC4/timer.c **** /*******************************************************************************
 201:.\Generated_Source\PSoC4/timer.c **** * Function Name: timer_GetVector
 202:.\Generated_Source\PSoC4/timer.c **** ********************************************************************************
 203:.\Generated_Source\PSoC4/timer.c **** *
 204:.\Generated_Source\PSoC4/timer.c **** * Summary:
 205:.\Generated_Source\PSoC4/timer.c **** *   Gets the "address" of the current ISR vector for the Interrupt.
 206:.\Generated_Source\PSoC4/timer.c **** *
 207:.\Generated_Source\PSoC4/timer.c **** * Parameters:
ARM GAS  C:\Users\Eric\AppData\Local\Temp\ccTTkU6l.s 			page 8


 208:.\Generated_Source\PSoC4/timer.c **** *   None
 209:.\Generated_Source\PSoC4/timer.c **** *
 210:.\Generated_Source\PSoC4/timer.c **** * Return:
 211:.\Generated_Source\PSoC4/timer.c **** *   Address of the ISR in the interrupt vector table.
 212:.\Generated_Source\PSoC4/timer.c **** *
 213:.\Generated_Source\PSoC4/timer.c **** *******************************************************************************/
 214:.\Generated_Source\PSoC4/timer.c **** cyisraddress timer_GetVector(void)
 215:.\Generated_Source\PSoC4/timer.c **** {
 193              		.loc 1 215 0
 194              		.cfi_startproc
 195 0000 80B5     		push	{r7, lr}
 196              		.cfi_def_cfa_offset 8
 197              		.cfi_offset 7, -8
 198              		.cfi_offset 14, -4
 199 0002 00AF     		add	r7, sp, #0
 200              		.cfi_def_cfa_register 7
 216:.\Generated_Source\PSoC4/timer.c ****     return CyRamVectors[CYINT_IRQ_BASE + timer__INTC_NUMBER];
 201              		.loc 1 216 0
 202 0004 024B     		ldr	r3, .L14
 203 0006 9B6C     		ldr	r3, [r3, #72]
 217:.\Generated_Source\PSoC4/timer.c **** }
 204              		.loc 1 217 0
 205 0008 181C     		mov	r0, r3
 206 000a BD46     		mov	sp, r7
 207              		@ sp needed
 208 000c 80BD     		pop	{r7, pc}
 209              	.L15:
 210 000e C046     		.align	2
 211              	.L14:
 212 0010 00000000 		.word	CyRamVectors
 213              		.cfi_endproc
 214              	.LFE5:
 215              		.size	timer_GetVector, .-timer_GetVector
 216              		.section	.text.timer_SetPriority,"ax",%progbits
 217              		.align	2
 218              		.global	timer_SetPriority
 219              		.code	16
 220              		.thumb_func
 221              		.type	timer_SetPriority, %function
 222              	timer_SetPriority:
 223              	.LFB6:
 218:.\Generated_Source\PSoC4/timer.c **** 
 219:.\Generated_Source\PSoC4/timer.c **** 
 220:.\Generated_Source\PSoC4/timer.c **** /*******************************************************************************
 221:.\Generated_Source\PSoC4/timer.c **** * Function Name: timer_SetPriority
 222:.\Generated_Source\PSoC4/timer.c **** ********************************************************************************
 223:.\Generated_Source\PSoC4/timer.c **** *
 224:.\Generated_Source\PSoC4/timer.c **** * Summary:
 225:.\Generated_Source\PSoC4/timer.c **** *   Sets the Priority of the Interrupt. 
 226:.\Generated_Source\PSoC4/timer.c **** *
 227:.\Generated_Source\PSoC4/timer.c **** *   Note calling timer_Start or timer_StartEx will 
 228:.\Generated_Source\PSoC4/timer.c **** *   override any effect this API would have had. This API should only be called
 229:.\Generated_Source\PSoC4/timer.c **** *   after timer_Start or timer_StartEx has been called. 
 230:.\Generated_Source\PSoC4/timer.c **** *   To set the initial priority for the component, use the Design-Wide Resources
 231:.\Generated_Source\PSoC4/timer.c **** *   Interrupt Editor.
 232:.\Generated_Source\PSoC4/timer.c **** *
 233:.\Generated_Source\PSoC4/timer.c **** *   Note This API has no effect on Non-maskable interrupt NMI).
ARM GAS  C:\Users\Eric\AppData\Local\Temp\ccTTkU6l.s 			page 9


 234:.\Generated_Source\PSoC4/timer.c **** *
 235:.\Generated_Source\PSoC4/timer.c **** * Parameters:
 236:.\Generated_Source\PSoC4/timer.c **** *   priority: Priority of the interrupt, 0 being the highest priority
 237:.\Generated_Source\PSoC4/timer.c **** *             PSoC 3 and PSoC 5LP: Priority is from 0 to 7.
 238:.\Generated_Source\PSoC4/timer.c **** *             PSoC 4: Priority is from 0 to 3.
 239:.\Generated_Source\PSoC4/timer.c **** *
 240:.\Generated_Source\PSoC4/timer.c **** * Return:
 241:.\Generated_Source\PSoC4/timer.c **** *   None
 242:.\Generated_Source\PSoC4/timer.c **** *
 243:.\Generated_Source\PSoC4/timer.c **** *******************************************************************************/
 244:.\Generated_Source\PSoC4/timer.c **** void timer_SetPriority(uint8 priority)
 245:.\Generated_Source\PSoC4/timer.c **** {
 224              		.loc 1 245 0
 225              		.cfi_startproc
 226 0000 90B5     		push	{r4, r7, lr}
 227              		.cfi_def_cfa_offset 12
 228              		.cfi_offset 4, -12
 229              		.cfi_offset 7, -8
 230              		.cfi_offset 14, -4
 231 0002 85B0     		sub	sp, sp, #20
 232              		.cfi_def_cfa_offset 32
 233 0004 00AF     		add	r7, sp, #0
 234              		.cfi_def_cfa_register 7
 235 0006 021C     		mov	r2, r0
 236 0008 FB1D     		add	r3, r7, #7
 237 000a 1A70     		strb	r2, [r3]
 246:.\Generated_Source\PSoC4/timer.c **** 	uint8 interruptState;
 247:.\Generated_Source\PSoC4/timer.c ****     uint32 priorityOffset = ((timer__INTC_NUMBER % 4u) * 8u) + 6u;
 238              		.loc 1 247 0
 239 000c 1623     		mov	r3, #22
 240 000e FB60     		str	r3, [r7, #12]
 248:.\Generated_Source\PSoC4/timer.c ****     
 249:.\Generated_Source\PSoC4/timer.c **** 	interruptState = CyEnterCriticalSection();
 241              		.loc 1 249 0
 242 0010 3C1C     		mov	r4, r7
 243 0012 0B34     		add	r4, r4, #11
 244 0014 FFF7FEFF 		bl	CyEnterCriticalSection
 245 0018 031C     		mov	r3, r0
 246 001a 2370     		strb	r3, [r4]
 250:.\Generated_Source\PSoC4/timer.c ****     *timer_INTC_PRIOR = (*timer_INTC_PRIOR & (uint32)(~timer__INTC_PRIOR_MASK)) |
 247              		.loc 1 250 0
 248 001c 0A4B     		ldr	r3, .L17
 249 001e 0A4A     		ldr	r2, .L17
 250 0020 1168     		ldr	r1, [r2]
 251 0022 0A4A     		ldr	r2, .L17+4
 252 0024 1140     		and	r1, r2
 251:.\Generated_Source\PSoC4/timer.c ****                                     ((uint32)priority << priorityOffset);
 253              		.loc 1 251 0
 254 0026 FA1D     		add	r2, r7, #7
 255 0028 1078     		ldrb	r0, [r2]
 256 002a FA68     		ldr	r2, [r7, #12]
 257 002c 041C     		mov	r4, r0
 258 002e 9440     		lsl	r4, r4, r2
 259 0030 221C     		mov	r2, r4
 250:.\Generated_Source\PSoC4/timer.c ****     *timer_INTC_PRIOR = (*timer_INTC_PRIOR & (uint32)(~timer__INTC_PRIOR_MASK)) |
 260              		.loc 1 250 0
 261 0032 0A43     		orr	r2, r1
ARM GAS  C:\Users\Eric\AppData\Local\Temp\ccTTkU6l.s 			page 10


 262 0034 1A60     		str	r2, [r3]
 252:.\Generated_Source\PSoC4/timer.c **** 	CyExitCriticalSection(interruptState);
 263              		.loc 1 252 0
 264 0036 3B1C     		mov	r3, r7
 265 0038 0B33     		add	r3, r3, #11
 266 003a 1B78     		ldrb	r3, [r3]
 267 003c 181C     		mov	r0, r3
 268 003e FFF7FEFF 		bl	CyExitCriticalSection
 253:.\Generated_Source\PSoC4/timer.c **** }
 269              		.loc 1 253 0
 270 0042 BD46     		mov	sp, r7
 271 0044 05B0     		add	sp, sp, #20
 272              		@ sp needed
 273 0046 90BD     		pop	{r4, r7, pc}
 274              	.L18:
 275              		.align	2
 276              	.L17:
 277 0048 00E400E0 		.word	-536812544
 278 004c FFFF3FFF 		.word	-12582913
 279              		.cfi_endproc
 280              	.LFE6:
 281              		.size	timer_SetPriority, .-timer_SetPriority
 282              		.section	.text.timer_GetPriority,"ax",%progbits
 283              		.align	2
 284              		.global	timer_GetPriority
 285              		.code	16
 286              		.thumb_func
 287              		.type	timer_GetPriority, %function
 288              	timer_GetPriority:
 289              	.LFB7:
 254:.\Generated_Source\PSoC4/timer.c **** 
 255:.\Generated_Source\PSoC4/timer.c **** 
 256:.\Generated_Source\PSoC4/timer.c **** /*******************************************************************************
 257:.\Generated_Source\PSoC4/timer.c **** * Function Name: timer_GetPriority
 258:.\Generated_Source\PSoC4/timer.c **** ********************************************************************************
 259:.\Generated_Source\PSoC4/timer.c **** *
 260:.\Generated_Source\PSoC4/timer.c **** * Summary:
 261:.\Generated_Source\PSoC4/timer.c **** *   Gets the Priority of the Interrupt.
 262:.\Generated_Source\PSoC4/timer.c **** *
 263:.\Generated_Source\PSoC4/timer.c **** * Parameters:
 264:.\Generated_Source\PSoC4/timer.c **** *   None
 265:.\Generated_Source\PSoC4/timer.c **** *
 266:.\Generated_Source\PSoC4/timer.c **** * Return:
 267:.\Generated_Source\PSoC4/timer.c **** *   Priority of the interrupt, 0 being the highest priority
 268:.\Generated_Source\PSoC4/timer.c **** *    PSoC 3 and PSoC 5LP: Priority is from 0 to 7.
 269:.\Generated_Source\PSoC4/timer.c **** *    PSoC 4: Priority is from 0 to 3.
 270:.\Generated_Source\PSoC4/timer.c **** *
 271:.\Generated_Source\PSoC4/timer.c **** *******************************************************************************/
 272:.\Generated_Source\PSoC4/timer.c **** uint8 timer_GetPriority(void)
 273:.\Generated_Source\PSoC4/timer.c **** {
 290              		.loc 1 273 0
 291              		.cfi_startproc
 292 0000 80B5     		push	{r7, lr}
 293              		.cfi_def_cfa_offset 8
 294              		.cfi_offset 7, -8
 295              		.cfi_offset 14, -4
 296 0002 82B0     		sub	sp, sp, #8
ARM GAS  C:\Users\Eric\AppData\Local\Temp\ccTTkU6l.s 			page 11


 297              		.cfi_def_cfa_offset 16
 298 0004 00AF     		add	r7, sp, #0
 299              		.cfi_def_cfa_register 7
 274:.\Generated_Source\PSoC4/timer.c ****     uint32 priority;
 275:.\Generated_Source\PSoC4/timer.c **** 	uint32 priorityOffset = ((timer__INTC_NUMBER % 4u) * 8u) + 6u;
 300              		.loc 1 275 0
 301 0006 1623     		mov	r3, #22
 302 0008 7B60     		str	r3, [r7, #4]
 276:.\Generated_Source\PSoC4/timer.c **** 
 277:.\Generated_Source\PSoC4/timer.c ****     priority = (*timer_INTC_PRIOR & timer__INTC_PRIOR_MASK) >> priorityOffset;
 303              		.loc 1 277 0
 304 000a 084B     		ldr	r3, .L21
 305 000c 1A68     		ldr	r2, [r3]
 306 000e C023     		mov	r3, #192
 307 0010 1B04     		lsl	r3, r3, #16
 308 0012 1A40     		and	r2, r3
 309 0014 7B68     		ldr	r3, [r7, #4]
 310 0016 111C     		mov	r1, r2
 311 0018 D940     		lsr	r1, r1, r3
 312 001a 0B1C     		mov	r3, r1
 313 001c 3B60     		str	r3, [r7]
 278:.\Generated_Source\PSoC4/timer.c **** 
 279:.\Generated_Source\PSoC4/timer.c ****     return (uint8)priority;
 314              		.loc 1 279 0
 315 001e 3B68     		ldr	r3, [r7]
 316 0020 DBB2     		uxtb	r3, r3
 280:.\Generated_Source\PSoC4/timer.c **** }
 317              		.loc 1 280 0
 318 0022 181C     		mov	r0, r3
 319 0024 BD46     		mov	sp, r7
 320 0026 02B0     		add	sp, sp, #8
 321              		@ sp needed
 322 0028 80BD     		pop	{r7, pc}
 323              	.L22:
 324 002a C046     		.align	2
 325              	.L21:
 326 002c 00E400E0 		.word	-536812544
 327              		.cfi_endproc
 328              	.LFE7:
 329              		.size	timer_GetPriority, .-timer_GetPriority
 330              		.section	.text.timer_Enable,"ax",%progbits
 331              		.align	2
 332              		.global	timer_Enable
 333              		.code	16
 334              		.thumb_func
 335              		.type	timer_Enable, %function
 336              	timer_Enable:
 337              	.LFB8:
 281:.\Generated_Source\PSoC4/timer.c **** 
 282:.\Generated_Source\PSoC4/timer.c **** 
 283:.\Generated_Source\PSoC4/timer.c **** /*******************************************************************************
 284:.\Generated_Source\PSoC4/timer.c **** * Function Name: timer_Enable
 285:.\Generated_Source\PSoC4/timer.c **** ********************************************************************************
 286:.\Generated_Source\PSoC4/timer.c **** *
 287:.\Generated_Source\PSoC4/timer.c **** * Summary:
 288:.\Generated_Source\PSoC4/timer.c **** *   Enables the interrupt to the interrupt controller. Do not call this function
 289:.\Generated_Source\PSoC4/timer.c **** *   unless ISR_Start() has been called or the functionality of the ISR_Start() 
ARM GAS  C:\Users\Eric\AppData\Local\Temp\ccTTkU6l.s 			page 12


 290:.\Generated_Source\PSoC4/timer.c **** *   function, which sets the vector and the priority, has been called.
 291:.\Generated_Source\PSoC4/timer.c **** *
 292:.\Generated_Source\PSoC4/timer.c **** * Parameters:
 293:.\Generated_Source\PSoC4/timer.c **** *   None
 294:.\Generated_Source\PSoC4/timer.c **** *
 295:.\Generated_Source\PSoC4/timer.c **** * Return:
 296:.\Generated_Source\PSoC4/timer.c **** *   None
 297:.\Generated_Source\PSoC4/timer.c **** *
 298:.\Generated_Source\PSoC4/timer.c **** *******************************************************************************/
 299:.\Generated_Source\PSoC4/timer.c **** void timer_Enable(void)
 300:.\Generated_Source\PSoC4/timer.c **** {
 338              		.loc 1 300 0
 339              		.cfi_startproc
 340 0000 80B5     		push	{r7, lr}
 341              		.cfi_def_cfa_offset 8
 342              		.cfi_offset 7, -8
 343              		.cfi_offset 14, -4
 344 0002 00AF     		add	r7, sp, #0
 345              		.cfi_def_cfa_register 7
 301:.\Generated_Source\PSoC4/timer.c ****     /* Enable the general interrupt. */
 302:.\Generated_Source\PSoC4/timer.c ****     *timer_INTC_SET_EN = timer__INTC_MASK;
 346              		.loc 1 302 0
 347 0004 024B     		ldr	r3, .L24
 348 0006 0422     		mov	r2, #4
 349 0008 1A60     		str	r2, [r3]
 303:.\Generated_Source\PSoC4/timer.c **** }
 350              		.loc 1 303 0
 351 000a BD46     		mov	sp, r7
 352              		@ sp needed
 353 000c 80BD     		pop	{r7, pc}
 354              	.L25:
 355 000e C046     		.align	2
 356              	.L24:
 357 0010 00E100E0 		.word	-536813312
 358              		.cfi_endproc
 359              	.LFE8:
 360              		.size	timer_Enable, .-timer_Enable
 361              		.section	.text.timer_GetState,"ax",%progbits
 362              		.align	2
 363              		.global	timer_GetState
 364              		.code	16
 365              		.thumb_func
 366              		.type	timer_GetState, %function
 367              	timer_GetState:
 368              	.LFB9:
 304:.\Generated_Source\PSoC4/timer.c **** 
 305:.\Generated_Source\PSoC4/timer.c **** 
 306:.\Generated_Source\PSoC4/timer.c **** /*******************************************************************************
 307:.\Generated_Source\PSoC4/timer.c **** * Function Name: timer_GetState
 308:.\Generated_Source\PSoC4/timer.c **** ********************************************************************************
 309:.\Generated_Source\PSoC4/timer.c **** *
 310:.\Generated_Source\PSoC4/timer.c **** * Summary:
 311:.\Generated_Source\PSoC4/timer.c **** *   Gets the state (enabled, disabled) of the Interrupt.
 312:.\Generated_Source\PSoC4/timer.c **** *
 313:.\Generated_Source\PSoC4/timer.c **** * Parameters:
 314:.\Generated_Source\PSoC4/timer.c **** *   None
 315:.\Generated_Source\PSoC4/timer.c **** *
ARM GAS  C:\Users\Eric\AppData\Local\Temp\ccTTkU6l.s 			page 13


 316:.\Generated_Source\PSoC4/timer.c **** * Return:
 317:.\Generated_Source\PSoC4/timer.c **** *   1 if enabled, 0 if disabled.
 318:.\Generated_Source\PSoC4/timer.c **** *
 319:.\Generated_Source\PSoC4/timer.c **** *******************************************************************************/
 320:.\Generated_Source\PSoC4/timer.c **** uint8 timer_GetState(void)
 321:.\Generated_Source\PSoC4/timer.c **** {
 369              		.loc 1 321 0
 370              		.cfi_startproc
 371 0000 80B5     		push	{r7, lr}
 372              		.cfi_def_cfa_offset 8
 373              		.cfi_offset 7, -8
 374              		.cfi_offset 14, -4
 375 0002 00AF     		add	r7, sp, #0
 376              		.cfi_def_cfa_register 7
 322:.\Generated_Source\PSoC4/timer.c ****     /* Get the state of the general interrupt. */
 323:.\Generated_Source\PSoC4/timer.c ****     return ((*timer_INTC_SET_EN & (uint32)timer__INTC_MASK) != 0u) ? 1u:0u;
 377              		.loc 1 323 0
 378 0004 054B     		ldr	r3, .L30
 379 0006 1A68     		ldr	r2, [r3]
 380 0008 0423     		mov	r3, #4
 381 000a 1340     		and	r3, r2
 382 000c 01D0     		beq	.L27
 383              		.loc 1 323 0 is_stmt 0 discriminator 1
 384 000e 0123     		mov	r3, #1
 385 0010 00E0     		b	.L28
 386              	.L27:
 387              		.loc 1 323 0 discriminator 2
 388 0012 0023     		mov	r3, #0
 389              	.L28:
 324:.\Generated_Source\PSoC4/timer.c **** }
 390              		.loc 1 324 0 is_stmt 1 discriminator 3
 391 0014 181C     		mov	r0, r3
 392 0016 BD46     		mov	sp, r7
 393              		@ sp needed
 394 0018 80BD     		pop	{r7, pc}
 395              	.L31:
 396 001a C046     		.align	2
 397              	.L30:
 398 001c 00E100E0 		.word	-536813312
 399              		.cfi_endproc
 400              	.LFE9:
 401              		.size	timer_GetState, .-timer_GetState
 402              		.section	.text.timer_Disable,"ax",%progbits
 403              		.align	2
 404              		.global	timer_Disable
 405              		.code	16
 406              		.thumb_func
 407              		.type	timer_Disable, %function
 408              	timer_Disable:
 409              	.LFB10:
 325:.\Generated_Source\PSoC4/timer.c **** 
 326:.\Generated_Source\PSoC4/timer.c **** 
 327:.\Generated_Source\PSoC4/timer.c **** /*******************************************************************************
 328:.\Generated_Source\PSoC4/timer.c **** * Function Name: timer_Disable
 329:.\Generated_Source\PSoC4/timer.c **** ********************************************************************************
 330:.\Generated_Source\PSoC4/timer.c **** *
 331:.\Generated_Source\PSoC4/timer.c **** * Summary:
ARM GAS  C:\Users\Eric\AppData\Local\Temp\ccTTkU6l.s 			page 14


 332:.\Generated_Source\PSoC4/timer.c **** *   Disables the Interrupt in the interrupt controller.
 333:.\Generated_Source\PSoC4/timer.c **** *
 334:.\Generated_Source\PSoC4/timer.c **** * Parameters:
 335:.\Generated_Source\PSoC4/timer.c **** *   None
 336:.\Generated_Source\PSoC4/timer.c **** *
 337:.\Generated_Source\PSoC4/timer.c **** * Return:
 338:.\Generated_Source\PSoC4/timer.c **** *   None
 339:.\Generated_Source\PSoC4/timer.c **** *
 340:.\Generated_Source\PSoC4/timer.c **** *******************************************************************************/
 341:.\Generated_Source\PSoC4/timer.c **** void timer_Disable(void)
 342:.\Generated_Source\PSoC4/timer.c **** {
 410              		.loc 1 342 0
 411              		.cfi_startproc
 412 0000 80B5     		push	{r7, lr}
 413              		.cfi_def_cfa_offset 8
 414              		.cfi_offset 7, -8
 415              		.cfi_offset 14, -4
 416 0002 00AF     		add	r7, sp, #0
 417              		.cfi_def_cfa_register 7
 343:.\Generated_Source\PSoC4/timer.c ****     /* Disable the general interrupt. */
 344:.\Generated_Source\PSoC4/timer.c ****     *timer_INTC_CLR_EN = timer__INTC_MASK;
 418              		.loc 1 344 0
 419 0004 024B     		ldr	r3, .L33
 420 0006 0422     		mov	r2, #4
 421 0008 1A60     		str	r2, [r3]
 345:.\Generated_Source\PSoC4/timer.c **** }
 422              		.loc 1 345 0
 423 000a BD46     		mov	sp, r7
 424              		@ sp needed
 425 000c 80BD     		pop	{r7, pc}
 426              	.L34:
 427 000e C046     		.align	2
 428              	.L33:
 429 0010 80E100E0 		.word	-536813184
 430              		.cfi_endproc
 431              	.LFE10:
 432              		.size	timer_Disable, .-timer_Disable
 433              		.section	.text.timer_SetPending,"ax",%progbits
 434              		.align	2
 435              		.global	timer_SetPending
 436              		.code	16
 437              		.thumb_func
 438              		.type	timer_SetPending, %function
 439              	timer_SetPending:
 440              	.LFB11:
 346:.\Generated_Source\PSoC4/timer.c **** 
 347:.\Generated_Source\PSoC4/timer.c **** 
 348:.\Generated_Source\PSoC4/timer.c **** /*******************************************************************************
 349:.\Generated_Source\PSoC4/timer.c **** * Function Name: timer_SetPending
 350:.\Generated_Source\PSoC4/timer.c **** ********************************************************************************
 351:.\Generated_Source\PSoC4/timer.c **** *
 352:.\Generated_Source\PSoC4/timer.c **** * Summary:
 353:.\Generated_Source\PSoC4/timer.c **** *   Causes the Interrupt to enter the pending state, a software method of
 354:.\Generated_Source\PSoC4/timer.c **** *   generating the interrupt.
 355:.\Generated_Source\PSoC4/timer.c **** *
 356:.\Generated_Source\PSoC4/timer.c **** * Parameters:
 357:.\Generated_Source\PSoC4/timer.c **** *   None
ARM GAS  C:\Users\Eric\AppData\Local\Temp\ccTTkU6l.s 			page 15


 358:.\Generated_Source\PSoC4/timer.c **** *
 359:.\Generated_Source\PSoC4/timer.c **** * Return:
 360:.\Generated_Source\PSoC4/timer.c **** *   None
 361:.\Generated_Source\PSoC4/timer.c **** *
 362:.\Generated_Source\PSoC4/timer.c **** * Side Effects:
 363:.\Generated_Source\PSoC4/timer.c **** *   If interrupts are enabled and the interrupt is set up properly, the ISR is
 364:.\Generated_Source\PSoC4/timer.c **** *   entered (depending on the priority of this interrupt and other pending 
 365:.\Generated_Source\PSoC4/timer.c **** *   interrupts).
 366:.\Generated_Source\PSoC4/timer.c **** *
 367:.\Generated_Source\PSoC4/timer.c **** *******************************************************************************/
 368:.\Generated_Source\PSoC4/timer.c **** void timer_SetPending(void)
 369:.\Generated_Source\PSoC4/timer.c **** {
 441              		.loc 1 369 0
 442              		.cfi_startproc
 443 0000 80B5     		push	{r7, lr}
 444              		.cfi_def_cfa_offset 8
 445              		.cfi_offset 7, -8
 446              		.cfi_offset 14, -4
 447 0002 00AF     		add	r7, sp, #0
 448              		.cfi_def_cfa_register 7
 370:.\Generated_Source\PSoC4/timer.c ****     *timer_INTC_SET_PD = timer__INTC_MASK;
 449              		.loc 1 370 0
 450 0004 024B     		ldr	r3, .L36
 451 0006 0422     		mov	r2, #4
 452 0008 1A60     		str	r2, [r3]
 371:.\Generated_Source\PSoC4/timer.c **** }
 453              		.loc 1 371 0
 454 000a BD46     		mov	sp, r7
 455              		@ sp needed
 456 000c 80BD     		pop	{r7, pc}
 457              	.L37:
 458 000e C046     		.align	2
 459              	.L36:
 460 0010 00E200E0 		.word	-536813056
 461              		.cfi_endproc
 462              	.LFE11:
 463              		.size	timer_SetPending, .-timer_SetPending
 464              		.section	.text.timer_ClearPending,"ax",%progbits
 465              		.align	2
 466              		.global	timer_ClearPending
 467              		.code	16
 468              		.thumb_func
 469              		.type	timer_ClearPending, %function
 470              	timer_ClearPending:
 471              	.LFB12:
 372:.\Generated_Source\PSoC4/timer.c **** 
 373:.\Generated_Source\PSoC4/timer.c **** 
 374:.\Generated_Source\PSoC4/timer.c **** /*******************************************************************************
 375:.\Generated_Source\PSoC4/timer.c **** * Function Name: timer_ClearPending
 376:.\Generated_Source\PSoC4/timer.c **** ********************************************************************************
 377:.\Generated_Source\PSoC4/timer.c **** *
 378:.\Generated_Source\PSoC4/timer.c **** * Summary:
 379:.\Generated_Source\PSoC4/timer.c **** *   Clears a pending interrupt in the interrupt controller.
 380:.\Generated_Source\PSoC4/timer.c **** *
 381:.\Generated_Source\PSoC4/timer.c **** *   Note Some interrupt sources are clear-on-read and require the block 
 382:.\Generated_Source\PSoC4/timer.c **** *   interrupt/status register to be read/cleared with the appropriate block API 
 383:.\Generated_Source\PSoC4/timer.c **** *   (GPIO, UART, and so on). Otherwise the ISR will continue to remain in 
ARM GAS  C:\Users\Eric\AppData\Local\Temp\ccTTkU6l.s 			page 16


 384:.\Generated_Source\PSoC4/timer.c **** *   pending state even though the interrupt itself is cleared using this API.
 385:.\Generated_Source\PSoC4/timer.c **** *
 386:.\Generated_Source\PSoC4/timer.c **** * Parameters:
 387:.\Generated_Source\PSoC4/timer.c **** *   None
 388:.\Generated_Source\PSoC4/timer.c **** *
 389:.\Generated_Source\PSoC4/timer.c **** * Return:
 390:.\Generated_Source\PSoC4/timer.c **** *   None
 391:.\Generated_Source\PSoC4/timer.c **** *
 392:.\Generated_Source\PSoC4/timer.c **** *******************************************************************************/
 393:.\Generated_Source\PSoC4/timer.c **** void timer_ClearPending(void)
 394:.\Generated_Source\PSoC4/timer.c **** {
 472              		.loc 1 394 0
 473              		.cfi_startproc
 474 0000 80B5     		push	{r7, lr}
 475              		.cfi_def_cfa_offset 8
 476              		.cfi_offset 7, -8
 477              		.cfi_offset 14, -4
 478 0002 00AF     		add	r7, sp, #0
 479              		.cfi_def_cfa_register 7
 395:.\Generated_Source\PSoC4/timer.c ****     *timer_INTC_CLR_PD = timer__INTC_MASK;
 480              		.loc 1 395 0
 481 0004 024B     		ldr	r3, .L39
 482 0006 0422     		mov	r2, #4
 483 0008 1A60     		str	r2, [r3]
 396:.\Generated_Source\PSoC4/timer.c **** }
 484              		.loc 1 396 0
 485 000a BD46     		mov	sp, r7
 486              		@ sp needed
 487 000c 80BD     		pop	{r7, pc}
 488              	.L40:
 489 000e C046     		.align	2
 490              	.L39:
 491 0010 80E200E0 		.word	-536812928
 492              		.cfi_endproc
 493              	.LFE12:
 494              		.size	timer_ClearPending, .-timer_ClearPending
 495              		.text
 496              	.Letext0:
 497              		.file 2 ".\\Generated_Source\\PSoC4/cytypes.h"