ARM GAS  C:\Users\CHRIST~1\AppData\Local\Temp\ccMeyTN9.s 			page 1


   1              		.syntax unified
   2              		.cpu cortex-m3
   3              		.fpu softvfp
   4              		.eabi_attribute 20, 1
   5              		.eabi_attribute 21, 1
   6              		.eabi_attribute 23, 3
   7              		.eabi_attribute 24, 1
   8              		.eabi_attribute 25, 1
   9              		.eabi_attribute 26, 1
  10              		.eabi_attribute 30, 1
  11              		.eabi_attribute 34, 1
  12              		.eabi_attribute 18, 4
  13              		.thumb
  14              		.file	"Steering_Wheel.c"
  15              		.text
  16              	.Ltext0:
  17              		.cfi_sections	.debug_frame
  18              		.section	.text.Steering_Wheel_Write,"ax",%progbits
  19              		.align	2
  20              		.global	Steering_Wheel_Write
  21              		.thumb
  22              		.thumb_func
  23              		.type	Steering_Wheel_Write, %function
  24              	Steering_Wheel_Write:
  25              	.LFB0:
  26              		.file 1 ".\\Generated_Source\\PSoC5\\Steering_Wheel.c"
   1:.\Generated_Source\PSoC5/Steering_Wheel.c **** /*******************************************************************************
   2:.\Generated_Source\PSoC5/Steering_Wheel.c **** * File Name: Steering_Wheel.c  
   3:.\Generated_Source\PSoC5/Steering_Wheel.c **** * Version 2.10
   4:.\Generated_Source\PSoC5/Steering_Wheel.c **** *
   5:.\Generated_Source\PSoC5/Steering_Wheel.c **** * Description:
   6:.\Generated_Source\PSoC5/Steering_Wheel.c **** *  This file contains API to enable firmware control of a Pins component.
   7:.\Generated_Source\PSoC5/Steering_Wheel.c **** *
   8:.\Generated_Source\PSoC5/Steering_Wheel.c **** * Note:
   9:.\Generated_Source\PSoC5/Steering_Wheel.c **** *
  10:.\Generated_Source\PSoC5/Steering_Wheel.c **** ********************************************************************************
  11:.\Generated_Source\PSoC5/Steering_Wheel.c **** * Copyright 2008-2014, Cypress Semiconductor Corporation.  All rights reserved.
  12:.\Generated_Source\PSoC5/Steering_Wheel.c **** * You may use this file only in accordance with the license, terms, conditions, 
  13:.\Generated_Source\PSoC5/Steering_Wheel.c **** * disclaimers, and limitations in the end user license agreement accompanying 
  14:.\Generated_Source\PSoC5/Steering_Wheel.c **** * the software package with which this file was provided.
  15:.\Generated_Source\PSoC5/Steering_Wheel.c **** *******************************************************************************/
  16:.\Generated_Source\PSoC5/Steering_Wheel.c **** 
  17:.\Generated_Source\PSoC5/Steering_Wheel.c **** #include "cytypes.h"
  18:.\Generated_Source\PSoC5/Steering_Wheel.c **** #include "Steering_Wheel.h"
  19:.\Generated_Source\PSoC5/Steering_Wheel.c **** 
  20:.\Generated_Source\PSoC5/Steering_Wheel.c **** /* APIs are not generated for P15[7:6] on PSoC 5 */
  21:.\Generated_Source\PSoC5/Steering_Wheel.c **** #if !(CY_PSOC5A &&\
  22:.\Generated_Source\PSoC5/Steering_Wheel.c **** 	 Steering_Wheel__PORT == 15 && ((Steering_Wheel__MASK & 0xC0) != 0))
  23:.\Generated_Source\PSoC5/Steering_Wheel.c **** 
  24:.\Generated_Source\PSoC5/Steering_Wheel.c **** 
  25:.\Generated_Source\PSoC5/Steering_Wheel.c **** /*******************************************************************************
  26:.\Generated_Source\PSoC5/Steering_Wheel.c **** * Function Name: Steering_Wheel_Write
  27:.\Generated_Source\PSoC5/Steering_Wheel.c **** ********************************************************************************
  28:.\Generated_Source\PSoC5/Steering_Wheel.c **** *
  29:.\Generated_Source\PSoC5/Steering_Wheel.c **** * Summary:
  30:.\Generated_Source\PSoC5/Steering_Wheel.c **** *  Assign a new value to the digital port's data output register.  
  31:.\Generated_Source\PSoC5/Steering_Wheel.c **** *
ARM GAS  C:\Users\CHRIST~1\AppData\Local\Temp\ccMeyTN9.s 			page 2


  32:.\Generated_Source\PSoC5/Steering_Wheel.c **** * Parameters:  
  33:.\Generated_Source\PSoC5/Steering_Wheel.c **** *  prtValue:  The value to be assigned to the Digital Port. 
  34:.\Generated_Source\PSoC5/Steering_Wheel.c **** *
  35:.\Generated_Source\PSoC5/Steering_Wheel.c **** * Return: 
  36:.\Generated_Source\PSoC5/Steering_Wheel.c **** *  None
  37:.\Generated_Source\PSoC5/Steering_Wheel.c **** *  
  38:.\Generated_Source\PSoC5/Steering_Wheel.c **** *******************************************************************************/
  39:.\Generated_Source\PSoC5/Steering_Wheel.c **** void Steering_Wheel_Write(uint8 value) 
  40:.\Generated_Source\PSoC5/Steering_Wheel.c **** {
  27              		.loc 1 40 0
  28              		.cfi_startproc
  29              		@ args = 0, pretend = 0, frame = 0
  30              		@ frame_needed = 0, uses_anonymous_args = 0
  31              		@ link register save eliminated.
  32              	.LVL0:
  41:.\Generated_Source\PSoC5/Steering_Wheel.c ****     uint8 staticBits = (Steering_Wheel_DR & (uint8)(~Steering_Wheel_MASK));
  33              		.loc 1 41 0
  34 0000 044A     		ldr	r2, .L2
  35 0002 1378     		ldrb	r3, [r2]	@ zero_extendqisi2
  36 0004 03F0E303 		and	r3, r3, #227
  37              	.LVL1:
  42:.\Generated_Source\PSoC5/Steering_Wheel.c ****     Steering_Wheel_DR = staticBits | ((uint8)(value << Steering_Wheel_SHIFT) & Steering_Wheel_MASK)
  38              		.loc 1 42 0
  39 0008 8000     		lsls	r0, r0, #2
  40              	.LVL2:
  41 000a 00F01C00 		and	r0, r0, #28
  42 000e 1843     		orrs	r0, r0, r3
  43 0010 1070     		strb	r0, [r2]
  44 0012 7047     		bx	lr
  45              	.L3:
  46              		.align	2
  47              	.L2:
  48 0014 00510040 		.word	1073762560
  49              		.cfi_endproc
  50              	.LFE0:
  51              		.size	Steering_Wheel_Write, .-Steering_Wheel_Write
  52              		.section	.text.Steering_Wheel_SetDriveMode,"ax",%progbits
  53              		.align	2
  54              		.global	Steering_Wheel_SetDriveMode
  55              		.thumb
  56              		.thumb_func
  57              		.type	Steering_Wheel_SetDriveMode, %function
  58              	Steering_Wheel_SetDriveMode:
  59              	.LFB1:
  43:.\Generated_Source\PSoC5/Steering_Wheel.c **** }
  44:.\Generated_Source\PSoC5/Steering_Wheel.c **** 
  45:.\Generated_Source\PSoC5/Steering_Wheel.c **** 
  46:.\Generated_Source\PSoC5/Steering_Wheel.c **** /*******************************************************************************
  47:.\Generated_Source\PSoC5/Steering_Wheel.c **** * Function Name: Steering_Wheel_SetDriveMode
  48:.\Generated_Source\PSoC5/Steering_Wheel.c **** ********************************************************************************
  49:.\Generated_Source\PSoC5/Steering_Wheel.c **** *
  50:.\Generated_Source\PSoC5/Steering_Wheel.c **** * Summary:
  51:.\Generated_Source\PSoC5/Steering_Wheel.c **** *  Change the drive mode on the pins of the port.
  52:.\Generated_Source\PSoC5/Steering_Wheel.c **** * 
  53:.\Generated_Source\PSoC5/Steering_Wheel.c **** * Parameters:  
  54:.\Generated_Source\PSoC5/Steering_Wheel.c **** *  mode:  Change the pins to one of the following drive modes.
  55:.\Generated_Source\PSoC5/Steering_Wheel.c **** *
ARM GAS  C:\Users\CHRIST~1\AppData\Local\Temp\ccMeyTN9.s 			page 3


  56:.\Generated_Source\PSoC5/Steering_Wheel.c **** *  Steering_Wheel_DM_STRONG     Strong Drive 
  57:.\Generated_Source\PSoC5/Steering_Wheel.c **** *  Steering_Wheel_DM_OD_HI      Open Drain, Drives High 
  58:.\Generated_Source\PSoC5/Steering_Wheel.c **** *  Steering_Wheel_DM_OD_LO      Open Drain, Drives Low 
  59:.\Generated_Source\PSoC5/Steering_Wheel.c **** *  Steering_Wheel_DM_RES_UP     Resistive Pull Up 
  60:.\Generated_Source\PSoC5/Steering_Wheel.c **** *  Steering_Wheel_DM_RES_DWN    Resistive Pull Down 
  61:.\Generated_Source\PSoC5/Steering_Wheel.c **** *  Steering_Wheel_DM_RES_UPDWN  Resistive Pull Up/Down 
  62:.\Generated_Source\PSoC5/Steering_Wheel.c **** *  Steering_Wheel_DM_DIG_HIZ    High Impedance Digital 
  63:.\Generated_Source\PSoC5/Steering_Wheel.c **** *  Steering_Wheel_DM_ALG_HIZ    High Impedance Analog 
  64:.\Generated_Source\PSoC5/Steering_Wheel.c **** *
  65:.\Generated_Source\PSoC5/Steering_Wheel.c **** * Return: 
  66:.\Generated_Source\PSoC5/Steering_Wheel.c **** *  None
  67:.\Generated_Source\PSoC5/Steering_Wheel.c **** *
  68:.\Generated_Source\PSoC5/Steering_Wheel.c **** *******************************************************************************/
  69:.\Generated_Source\PSoC5/Steering_Wheel.c **** void Steering_Wheel_SetDriveMode(uint8 mode) 
  70:.\Generated_Source\PSoC5/Steering_Wheel.c **** {
  60              		.loc 1 70 0
  61              		.cfi_startproc
  62              		@ args = 0, pretend = 0, frame = 0
  63              		@ frame_needed = 0, uses_anonymous_args = 0
  64              		@ link register save eliminated.
  65              	.LVL3:
  71:.\Generated_Source\PSoC5/Steering_Wheel.c **** 	CyPins_SetPinDriveMode(Steering_Wheel_0, mode);
  66              		.loc 1 71 0
  67 0000 0A4A     		ldr	r2, .L5
  68 0002 1378     		ldrb	r3, [r2]	@ zero_extendqisi2
  69 0004 00F00E00 		and	r0, r0, #14
  70              	.LVL4:
  71 0008 03F0F103 		and	r3, r3, #241
  72 000c 0343     		orrs	r3, r3, r0
  73 000e 1370     		strb	r3, [r2]
  72:.\Generated_Source\PSoC5/Steering_Wheel.c **** 	CyPins_SetPinDriveMode(Steering_Wheel_1, mode);
  74              		.loc 1 72 0
  75 0010 0132     		adds	r2, r2, #1
  76 0012 1378     		ldrb	r3, [r2]	@ zero_extendqisi2
  77 0014 03F0F103 		and	r3, r3, #241
  78 0018 0343     		orrs	r3, r3, r0
  79 001a 1370     		strb	r3, [r2]
  73:.\Generated_Source\PSoC5/Steering_Wheel.c **** 	CyPins_SetPinDriveMode(Steering_Wheel_2, mode);
  80              		.loc 1 73 0
  81 001c 0132     		adds	r2, r2, #1
  82 001e 1378     		ldrb	r3, [r2]	@ zero_extendqisi2
  83 0020 03F0F103 		and	r3, r3, #241
  84 0024 1843     		orrs	r0, r0, r3
  85 0026 1070     		strb	r0, [r2]
  86 0028 7047     		bx	lr
  87              	.L6:
  88 002a 00BF     		.align	2
  89              	.L5:
  90 002c 02500040 		.word	1073762306
  91              		.cfi_endproc
  92              	.LFE1:
  93              		.size	Steering_Wheel_SetDriveMode, .-Steering_Wheel_SetDriveMode
  94              		.section	.text.Steering_Wheel_Read,"ax",%progbits
  95              		.align	2
  96              		.global	Steering_Wheel_Read
  97              		.thumb
  98              		.thumb_func
ARM GAS  C:\Users\CHRIST~1\AppData\Local\Temp\ccMeyTN9.s 			page 4


  99              		.type	Steering_Wheel_Read, %function
 100              	Steering_Wheel_Read:
 101              	.LFB2:
  74:.\Generated_Source\PSoC5/Steering_Wheel.c **** }
  75:.\Generated_Source\PSoC5/Steering_Wheel.c **** 
  76:.\Generated_Source\PSoC5/Steering_Wheel.c **** 
  77:.\Generated_Source\PSoC5/Steering_Wheel.c **** /*******************************************************************************
  78:.\Generated_Source\PSoC5/Steering_Wheel.c **** * Function Name: Steering_Wheel_Read
  79:.\Generated_Source\PSoC5/Steering_Wheel.c **** ********************************************************************************
  80:.\Generated_Source\PSoC5/Steering_Wheel.c **** *
  81:.\Generated_Source\PSoC5/Steering_Wheel.c **** * Summary:
  82:.\Generated_Source\PSoC5/Steering_Wheel.c **** *  Read the current value on the pins of the Digital Port in right justified 
  83:.\Generated_Source\PSoC5/Steering_Wheel.c **** *  form.
  84:.\Generated_Source\PSoC5/Steering_Wheel.c **** *
  85:.\Generated_Source\PSoC5/Steering_Wheel.c **** * Parameters:  
  86:.\Generated_Source\PSoC5/Steering_Wheel.c **** *  None
  87:.\Generated_Source\PSoC5/Steering_Wheel.c **** *
  88:.\Generated_Source\PSoC5/Steering_Wheel.c **** * Return: 
  89:.\Generated_Source\PSoC5/Steering_Wheel.c **** *  Returns the current value of the Digital Port as a right justified number
  90:.\Generated_Source\PSoC5/Steering_Wheel.c **** *  
  91:.\Generated_Source\PSoC5/Steering_Wheel.c **** * Note:
  92:.\Generated_Source\PSoC5/Steering_Wheel.c **** *  Macro Steering_Wheel_ReadPS calls this function. 
  93:.\Generated_Source\PSoC5/Steering_Wheel.c **** *  
  94:.\Generated_Source\PSoC5/Steering_Wheel.c **** *******************************************************************************/
  95:.\Generated_Source\PSoC5/Steering_Wheel.c **** uint8 Steering_Wheel_Read(void) 
  96:.\Generated_Source\PSoC5/Steering_Wheel.c **** {
 102              		.loc 1 96 0
 103              		.cfi_startproc
 104              		@ args = 0, pretend = 0, frame = 0
 105              		@ frame_needed = 0, uses_anonymous_args = 0
 106              		@ link register save eliminated.
  97:.\Generated_Source\PSoC5/Steering_Wheel.c ****     return (Steering_Wheel_PS & Steering_Wheel_MASK) >> Steering_Wheel_SHIFT;
 107              		.loc 1 97 0
 108 0000 024B     		ldr	r3, .L8
 109 0002 1878     		ldrb	r0, [r3]	@ zero_extendqisi2
  98:.\Generated_Source\PSoC5/Steering_Wheel.c **** }
 110              		.loc 1 98 0
 111 0004 C0F38200 		ubfx	r0, r0, #2, #3
 112 0008 7047     		bx	lr
 113              	.L9:
 114 000a 00BF     		.align	2
 115              	.L8:
 116 000c 01510040 		.word	1073762561
 117              		.cfi_endproc
 118              	.LFE2:
 119              		.size	Steering_Wheel_Read, .-Steering_Wheel_Read
 120              		.section	.text.Steering_Wheel_ReadDataReg,"ax",%progbits
 121              		.align	2
 122              		.global	Steering_Wheel_ReadDataReg
 123              		.thumb
 124              		.thumb_func
 125              		.type	Steering_Wheel_ReadDataReg, %function
 126              	Steering_Wheel_ReadDataReg:
 127              	.LFB3:
  99:.\Generated_Source\PSoC5/Steering_Wheel.c **** 
 100:.\Generated_Source\PSoC5/Steering_Wheel.c **** 
 101:.\Generated_Source\PSoC5/Steering_Wheel.c **** /*******************************************************************************
ARM GAS  C:\Users\CHRIST~1\AppData\Local\Temp\ccMeyTN9.s 			page 5


 102:.\Generated_Source\PSoC5/Steering_Wheel.c **** * Function Name: Steering_Wheel_ReadDataReg
 103:.\Generated_Source\PSoC5/Steering_Wheel.c **** ********************************************************************************
 104:.\Generated_Source\PSoC5/Steering_Wheel.c **** *
 105:.\Generated_Source\PSoC5/Steering_Wheel.c **** * Summary:
 106:.\Generated_Source\PSoC5/Steering_Wheel.c **** *  Read the current value assigned to a Digital Port's data output register
 107:.\Generated_Source\PSoC5/Steering_Wheel.c **** *
 108:.\Generated_Source\PSoC5/Steering_Wheel.c **** * Parameters:  
 109:.\Generated_Source\PSoC5/Steering_Wheel.c **** *  None 
 110:.\Generated_Source\PSoC5/Steering_Wheel.c **** *
 111:.\Generated_Source\PSoC5/Steering_Wheel.c **** * Return: 
 112:.\Generated_Source\PSoC5/Steering_Wheel.c **** *  Returns the current value assigned to the Digital Port's data output register
 113:.\Generated_Source\PSoC5/Steering_Wheel.c **** *  
 114:.\Generated_Source\PSoC5/Steering_Wheel.c **** *******************************************************************************/
 115:.\Generated_Source\PSoC5/Steering_Wheel.c **** uint8 Steering_Wheel_ReadDataReg(void) 
 116:.\Generated_Source\PSoC5/Steering_Wheel.c **** {
 128              		.loc 1 116 0
 129              		.cfi_startproc
 130              		@ args = 0, pretend = 0, frame = 0
 131              		@ frame_needed = 0, uses_anonymous_args = 0
 132              		@ link register save eliminated.
 117:.\Generated_Source\PSoC5/Steering_Wheel.c ****     return (Steering_Wheel_DR & Steering_Wheel_MASK) >> Steering_Wheel_SHIFT;
 133              		.loc 1 117 0
 134 0000 024B     		ldr	r3, .L11
 135 0002 1878     		ldrb	r0, [r3]	@ zero_extendqisi2
 118:.\Generated_Source\PSoC5/Steering_Wheel.c **** }
 136              		.loc 1 118 0
 137 0004 C0F38200 		ubfx	r0, r0, #2, #3
 138 0008 7047     		bx	lr
 139              	.L12:
 140 000a 00BF     		.align	2
 141              	.L11:
 142 000c 00510040 		.word	1073762560
 143              		.cfi_endproc
 144              	.LFE3:
 145              		.size	Steering_Wheel_ReadDataReg, .-Steering_Wheel_ReadDataReg
 146              		.text
 147              	.Letext0:
 148              		.file 2 ".\\Generated_Source\\PSoC5\\cytypes.h"