ARM GAS  C:\Users\CHRIST~1\AppData\Local\Temp\ccvUArhA.s 			page 1


   1              		.cpu cortex-m0
   2              		.fpu softvfp
   3              		.eabi_attribute 20, 1
   4              		.eabi_attribute 21, 1
   5              		.eabi_attribute 23, 3
   6              		.eabi_attribute 24, 1
   7              		.eabi_attribute 25, 1
   8              		.eabi_attribute 26, 1
   9              		.eabi_attribute 30, 6
  10              		.eabi_attribute 34, 0
  11              		.eabi_attribute 18, 4
  12              		.code	16
  13              		.file	"cyfitter_cfg.c"
  14              		.text
  15              	.Ltext0:
  16              		.cfi_sections	.debug_frame
  17              		.section	.text.CYMEMZERO,"ax",%progbits
  18              		.align	2
  19              		.code	16
  20              		.thumb_func
  21              		.type	CYMEMZERO, %function
  22              	CYMEMZERO:
  23              	.LFB2:
  24              		.file 1 ".\\Generated_Source\\PSoC4\\cyfitter_cfg.c"
   1:.\Generated_Source\PSoC4/cyfitter_cfg.c **** /*******************************************************************************
   2:.\Generated_Source\PSoC4/cyfitter_cfg.c **** * FILENAME: cyfitter_cfg.c
   3:.\Generated_Source\PSoC4/cyfitter_cfg.c **** * 
   4:.\Generated_Source\PSoC4/cyfitter_cfg.c **** * PSoC Creator  3.2 SP1
   5:.\Generated_Source\PSoC4/cyfitter_cfg.c **** *
   6:.\Generated_Source\PSoC4/cyfitter_cfg.c **** * DESCRIPTION:
   7:.\Generated_Source\PSoC4/cyfitter_cfg.c **** * This file contains device initialization code.
   8:.\Generated_Source\PSoC4/cyfitter_cfg.c **** * Except for the user defined sections in CyClockStartupError(), this file should not be modified.
   9:.\Generated_Source\PSoC4/cyfitter_cfg.c **** * This file is automatically generated by PSoC Creator.
  10:.\Generated_Source\PSoC4/cyfitter_cfg.c **** *
  11:.\Generated_Source\PSoC4/cyfitter_cfg.c **** ********************************************************************************
  12:.\Generated_Source\PSoC4/cyfitter_cfg.c **** * Copyright (c) 2007-2015 Cypress Semiconductor.  All rights reserved.
  13:.\Generated_Source\PSoC4/cyfitter_cfg.c **** * You may use this file only in accordance with the license, terms, conditions, 
  14:.\Generated_Source\PSoC4/cyfitter_cfg.c **** * disclaimers, and limitations in the end user license agreement accompanying 
  15:.\Generated_Source\PSoC4/cyfitter_cfg.c **** * the software package with which this file was provided.
  16:.\Generated_Source\PSoC4/cyfitter_cfg.c **** ********************************************************************************/
  17:.\Generated_Source\PSoC4/cyfitter_cfg.c **** 
  18:.\Generated_Source\PSoC4/cyfitter_cfg.c **** #include <string.h>
  19:.\Generated_Source\PSoC4/cyfitter_cfg.c **** #include "cytypes.h"
  20:.\Generated_Source\PSoC4/cyfitter_cfg.c **** #include "cydevice_trm.h"
  21:.\Generated_Source\PSoC4/cyfitter_cfg.c **** #include "cyfitter.h"
  22:.\Generated_Source\PSoC4/cyfitter_cfg.c **** #include "CyLib.h"
  23:.\Generated_Source\PSoC4/cyfitter_cfg.c **** #include "cyfitter_cfg.h"
  24:.\Generated_Source\PSoC4/cyfitter_cfg.c **** 
  25:.\Generated_Source\PSoC4/cyfitter_cfg.c **** 
  26:.\Generated_Source\PSoC4/cyfitter_cfg.c **** #if defined(__GNUC__) || defined(__ARMCC_VERSION)
  27:.\Generated_Source\PSoC4/cyfitter_cfg.c ****     #define CYPACKED 
  28:.\Generated_Source\PSoC4/cyfitter_cfg.c ****     #define CYPACKED_ATTR __attribute__ ((packed))
  29:.\Generated_Source\PSoC4/cyfitter_cfg.c ****     #define CYALIGNED __attribute__ ((aligned))
  30:.\Generated_Source\PSoC4/cyfitter_cfg.c ****     #define CY_CFG_UNUSED __attribute__ ((unused))
  31:.\Generated_Source\PSoC4/cyfitter_cfg.c ****     #define CY_CFG_SECTION __attribute__ ((section(".psocinit")))
  32:.\Generated_Source\PSoC4/cyfitter_cfg.c ****     
  33:.\Generated_Source\PSoC4/cyfitter_cfg.c ****     #if defined(__ARMCC_VERSION)
ARM GAS  C:\Users\CHRIST~1\AppData\Local\Temp\ccvUArhA.s 			page 2


  34:.\Generated_Source\PSoC4/cyfitter_cfg.c ****         #define CY_CFG_MEMORY_BARRIER() __memory_changed()
  35:.\Generated_Source\PSoC4/cyfitter_cfg.c ****     #else
  36:.\Generated_Source\PSoC4/cyfitter_cfg.c ****         #define CY_CFG_MEMORY_BARRIER() __sync_synchronize()
  37:.\Generated_Source\PSoC4/cyfitter_cfg.c ****     #endif
  38:.\Generated_Source\PSoC4/cyfitter_cfg.c ****     
  39:.\Generated_Source\PSoC4/cyfitter_cfg.c **** #elif defined(__ICCARM__)
  40:.\Generated_Source\PSoC4/cyfitter_cfg.c ****     #include <intrinsics.h>
  41:.\Generated_Source\PSoC4/cyfitter_cfg.c **** 
  42:.\Generated_Source\PSoC4/cyfitter_cfg.c ****     #define CYPACKED __packed
  43:.\Generated_Source\PSoC4/cyfitter_cfg.c ****     #define CYPACKED_ATTR 
  44:.\Generated_Source\PSoC4/cyfitter_cfg.c ****     #define CYALIGNED _Pragma("data_alignment=4")
  45:.\Generated_Source\PSoC4/cyfitter_cfg.c ****     #define CY_CFG_UNUSED _Pragma("diag_suppress=Pe177")
  46:.\Generated_Source\PSoC4/cyfitter_cfg.c ****     #define CY_CFG_SECTION _Pragma("location=\".psocinit\"")
  47:.\Generated_Source\PSoC4/cyfitter_cfg.c ****     
  48:.\Generated_Source\PSoC4/cyfitter_cfg.c ****     #define CY_CFG_MEMORY_BARRIER() __DMB()
  49:.\Generated_Source\PSoC4/cyfitter_cfg.c ****     
  50:.\Generated_Source\PSoC4/cyfitter_cfg.c **** #else
  51:.\Generated_Source\PSoC4/cyfitter_cfg.c ****     #error Unsupported toolchain
  52:.\Generated_Source\PSoC4/cyfitter_cfg.c **** #endif
  53:.\Generated_Source\PSoC4/cyfitter_cfg.c **** 
  54:.\Generated_Source\PSoC4/cyfitter_cfg.c **** 
  55:.\Generated_Source\PSoC4/cyfitter_cfg.c **** CY_CFG_UNUSED
  56:.\Generated_Source\PSoC4/cyfitter_cfg.c **** static void CYMEMZERO(void *s, size_t n);
  57:.\Generated_Source\PSoC4/cyfitter_cfg.c **** CY_CFG_UNUSED
  58:.\Generated_Source\PSoC4/cyfitter_cfg.c **** static void CYMEMZERO(void *s, size_t n)
  59:.\Generated_Source\PSoC4/cyfitter_cfg.c **** {
  25              		.loc 1 59 0
  26              		.cfi_startproc
  27 0000 80B5     		push	{r7, lr}
  28              		.cfi_def_cfa_offset 8
  29              		.cfi_offset 7, -8
  30              		.cfi_offset 14, -4
  31 0002 82B0     		sub	sp, sp, #8
  32              		.cfi_def_cfa_offset 16
  33 0004 00AF     		add	r7, sp, #0
  34              		.cfi_def_cfa_register 7
  35 0006 7860     		str	r0, [r7, #4]
  36 0008 3960     		str	r1, [r7]
  60:.\Generated_Source\PSoC4/cyfitter_cfg.c **** 	(void)memset(s, 0, n);
  37              		.loc 1 60 0
  38 000a 7A68     		ldr	r2, [r7, #4]
  39 000c 3B68     		ldr	r3, [r7]
  40 000e 101C     		mov	r0, r2
  41 0010 0021     		mov	r1, #0
  42 0012 1A1C     		mov	r2, r3
  43 0014 FFF7FEFF 		bl	memset
  61:.\Generated_Source\PSoC4/cyfitter_cfg.c **** }
  44              		.loc 1 61 0
  45 0018 BD46     		mov	sp, r7
  46 001a 02B0     		add	sp, sp, #8
  47              		@ sp needed
  48 001c 80BD     		pop	{r7, pc}
  49              		.cfi_endproc
  50              	.LFE2:
  51              		.size	CYMEMZERO, .-CYMEMZERO
  52 001e C046     		.section	.text.CYCONFIGCPY,"ax",%progbits
  53              		.align	2
ARM GAS  C:\Users\CHRIST~1\AppData\Local\Temp\ccvUArhA.s 			page 3


  54              		.code	16
  55              		.thumb_func
  56              		.type	CYCONFIGCPY, %function
  57              	CYCONFIGCPY:
  58              	.LFB3:
  62:.\Generated_Source\PSoC4/cyfitter_cfg.c **** CY_CFG_UNUSED
  63:.\Generated_Source\PSoC4/cyfitter_cfg.c **** static void CYCONFIGCPY(void *dest, const void *src, size_t n);
  64:.\Generated_Source\PSoC4/cyfitter_cfg.c **** CY_CFG_UNUSED
  65:.\Generated_Source\PSoC4/cyfitter_cfg.c **** static void CYCONFIGCPY(void *dest, const void *src, size_t n)
  66:.\Generated_Source\PSoC4/cyfitter_cfg.c **** {
  59              		.loc 1 66 0
  60              		.cfi_startproc
  61 0000 80B5     		push	{r7, lr}
  62              		.cfi_def_cfa_offset 8
  63              		.cfi_offset 7, -8
  64              		.cfi_offset 14, -4
  65 0002 84B0     		sub	sp, sp, #16
  66              		.cfi_def_cfa_offset 24
  67 0004 00AF     		add	r7, sp, #0
  68              		.cfi_def_cfa_register 7
  69 0006 F860     		str	r0, [r7, #12]
  70 0008 B960     		str	r1, [r7, #8]
  71 000a 7A60     		str	r2, [r7, #4]
  67:.\Generated_Source\PSoC4/cyfitter_cfg.c **** 	(void)memcpy(dest, src, n);
  72              		.loc 1 67 0
  73 000c F968     		ldr	r1, [r7, #12]
  74 000e BA68     		ldr	r2, [r7, #8]
  75 0010 7B68     		ldr	r3, [r7, #4]
  76 0012 081C     		mov	r0, r1
  77 0014 111C     		mov	r1, r2
  78 0016 1A1C     		mov	r2, r3
  79 0018 FFF7FEFF 		bl	memcpy
  68:.\Generated_Source\PSoC4/cyfitter_cfg.c **** }
  80              		.loc 1 68 0
  81 001c BD46     		mov	sp, r7
  82 001e 04B0     		add	sp, sp, #16
  83              		@ sp needed
  84 0020 80BD     		pop	{r7, pc}
  85              		.cfi_endproc
  86              	.LFE3:
  87              		.size	CYCONFIGCPY, .-CYCONFIGCPY
  88 0022 C046     		.section	.text.CYCONFIGCPYCODE,"ax",%progbits
  89              		.align	2
  90              		.code	16
  91              		.thumb_func
  92              		.type	CYCONFIGCPYCODE, %function
  93              	CYCONFIGCPYCODE:
  94              	.LFB4:
  69:.\Generated_Source\PSoC4/cyfitter_cfg.c **** CY_CFG_UNUSED
  70:.\Generated_Source\PSoC4/cyfitter_cfg.c **** static void CYCONFIGCPYCODE(void *dest, const void *src, size_t n);
  71:.\Generated_Source\PSoC4/cyfitter_cfg.c **** CY_CFG_UNUSED
  72:.\Generated_Source\PSoC4/cyfitter_cfg.c **** static void CYCONFIGCPYCODE(void *dest, const void *src, size_t n)
  73:.\Generated_Source\PSoC4/cyfitter_cfg.c **** {
  95              		.loc 1 73 0
  96              		.cfi_startproc
  97 0000 80B5     		push	{r7, lr}
  98              		.cfi_def_cfa_offset 8
ARM GAS  C:\Users\CHRIST~1\AppData\Local\Temp\ccvUArhA.s 			page 4


  99              		.cfi_offset 7, -8
 100              		.cfi_offset 14, -4
 101 0002 84B0     		sub	sp, sp, #16
 102              		.cfi_def_cfa_offset 24
 103 0004 00AF     		add	r7, sp, #0
 104              		.cfi_def_cfa_register 7
 105 0006 F860     		str	r0, [r7, #12]
 106 0008 B960     		str	r1, [r7, #8]
 107 000a 7A60     		str	r2, [r7, #4]
  74:.\Generated_Source\PSoC4/cyfitter_cfg.c **** 	(void)memcpy(dest, src, n);
 108              		.loc 1 74 0
 109 000c F968     		ldr	r1, [r7, #12]
 110 000e BA68     		ldr	r2, [r7, #8]
 111 0010 7B68     		ldr	r3, [r7, #4]
 112 0012 081C     		mov	r0, r1
 113 0014 111C     		mov	r1, r2
 114 0016 1A1C     		mov	r2, r3
 115 0018 FFF7FEFF 		bl	memcpy
  75:.\Generated_Source\PSoC4/cyfitter_cfg.c **** }
 116              		.loc 1 75 0
 117 001c BD46     		mov	sp, r7
 118 001e 04B0     		add	sp, sp, #16
 119              		@ sp needed
 120 0020 80BD     		pop	{r7, pc}
 121              		.cfi_endproc
 122              	.LFE4:
 123              		.size	CYCONFIGCPYCODE, .-CYCONFIGCPYCODE
 124 0022 C046     		.section	.text.cfg_write_bytes32,"ax",%progbits
 125              		.align	2
 126              		.code	16
 127              		.thumb_func
 128              		.type	cfg_write_bytes32, %function
 129              	cfg_write_bytes32:
 130              	.LFB5:
  76:.\Generated_Source\PSoC4/cyfitter_cfg.c **** 
  77:.\Generated_Source\PSoC4/cyfitter_cfg.c **** 
  78:.\Generated_Source\PSoC4/cyfitter_cfg.c **** 
  79:.\Generated_Source\PSoC4/cyfitter_cfg.c **** /* Clock startup error codes                                                   */
  80:.\Generated_Source\PSoC4/cyfitter_cfg.c **** #define CYCLOCKSTART_NO_ERROR    0u
  81:.\Generated_Source\PSoC4/cyfitter_cfg.c **** #define CYCLOCKSTART_XTAL_ERROR  1u
  82:.\Generated_Source\PSoC4/cyfitter_cfg.c **** #define CYCLOCKSTART_32KHZ_ERROR 2u
  83:.\Generated_Source\PSoC4/cyfitter_cfg.c **** #define CYCLOCKSTART_PLL_ERROR   3u
  84:.\Generated_Source\PSoC4/cyfitter_cfg.c **** 
  85:.\Generated_Source\PSoC4/cyfitter_cfg.c **** #ifdef CY_NEED_CYCLOCKSTARTUPERROR
  86:.\Generated_Source\PSoC4/cyfitter_cfg.c **** /*******************************************************************************
  87:.\Generated_Source\PSoC4/cyfitter_cfg.c **** * Function Name: CyClockStartupError
  88:.\Generated_Source\PSoC4/cyfitter_cfg.c **** ********************************************************************************
  89:.\Generated_Source\PSoC4/cyfitter_cfg.c **** * Summary:
  90:.\Generated_Source\PSoC4/cyfitter_cfg.c **** *  If an error is encountered during clock configuration (crystal startup error,
  91:.\Generated_Source\PSoC4/cyfitter_cfg.c **** *  PLL lock error, etc.), the system will end up here.  Unless reimplemented by
  92:.\Generated_Source\PSoC4/cyfitter_cfg.c **** *  the customer, this function will stop in an infinite loop.
  93:.\Generated_Source\PSoC4/cyfitter_cfg.c **** *
  94:.\Generated_Source\PSoC4/cyfitter_cfg.c **** * Parameters:
  95:.\Generated_Source\PSoC4/cyfitter_cfg.c **** *   void
  96:.\Generated_Source\PSoC4/cyfitter_cfg.c **** *
  97:.\Generated_Source\PSoC4/cyfitter_cfg.c **** * Return:
  98:.\Generated_Source\PSoC4/cyfitter_cfg.c **** *   void
ARM GAS  C:\Users\CHRIST~1\AppData\Local\Temp\ccvUArhA.s 			page 5


  99:.\Generated_Source\PSoC4/cyfitter_cfg.c **** *
 100:.\Generated_Source\PSoC4/cyfitter_cfg.c **** *******************************************************************************/
 101:.\Generated_Source\PSoC4/cyfitter_cfg.c **** CY_CFG_UNUSED
 102:.\Generated_Source\PSoC4/cyfitter_cfg.c **** static void CyClockStartupError(uint8 errorCode);
 103:.\Generated_Source\PSoC4/cyfitter_cfg.c **** CY_CFG_UNUSED
 104:.\Generated_Source\PSoC4/cyfitter_cfg.c **** static void CyClockStartupError(uint8 errorCode)
 105:.\Generated_Source\PSoC4/cyfitter_cfg.c **** {
 106:.\Generated_Source\PSoC4/cyfitter_cfg.c ****     /* To remove the compiler warning if errorCode not used.                */
 107:.\Generated_Source\PSoC4/cyfitter_cfg.c ****     errorCode = errorCode;
 108:.\Generated_Source\PSoC4/cyfitter_cfg.c **** 
 109:.\Generated_Source\PSoC4/cyfitter_cfg.c ****     /* `#START CyClockStartupError` */
 110:.\Generated_Source\PSoC4/cyfitter_cfg.c **** 
 111:.\Generated_Source\PSoC4/cyfitter_cfg.c ****     /* If we have a clock startup error (bad MHz crystal, PLL lock, etc.),  */
 112:.\Generated_Source\PSoC4/cyfitter_cfg.c ****     /* we will end up here to allow the customer to implement something to  */
 113:.\Generated_Source\PSoC4/cyfitter_cfg.c ****     /* deal with the clock condition.                                       */
 114:.\Generated_Source\PSoC4/cyfitter_cfg.c **** 
 115:.\Generated_Source\PSoC4/cyfitter_cfg.c ****     /* `#END` */
 116:.\Generated_Source\PSoC4/cyfitter_cfg.c **** 
 117:.\Generated_Source\PSoC4/cyfitter_cfg.c ****     /* If nothing else, stop here since the clocks have not started         */
 118:.\Generated_Source\PSoC4/cyfitter_cfg.c ****     /* correctly.                                                           */
 119:.\Generated_Source\PSoC4/cyfitter_cfg.c ****     while(1) {}
 120:.\Generated_Source\PSoC4/cyfitter_cfg.c **** }
 121:.\Generated_Source\PSoC4/cyfitter_cfg.c **** #endif
 122:.\Generated_Source\PSoC4/cyfitter_cfg.c **** 
 123:.\Generated_Source\PSoC4/cyfitter_cfg.c **** #define CY_CFG_BASE_ADDR_COUNT 7u
 124:.\Generated_Source\PSoC4/cyfitter_cfg.c **** CYPACKED typedef struct
 125:.\Generated_Source\PSoC4/cyfitter_cfg.c **** {
 126:.\Generated_Source\PSoC4/cyfitter_cfg.c **** 	uint8 offset;
 127:.\Generated_Source\PSoC4/cyfitter_cfg.c **** 	uint8 value;
 128:.\Generated_Source\PSoC4/cyfitter_cfg.c **** } CYPACKED_ATTR cy_cfg_addrvalue_t;
 129:.\Generated_Source\PSoC4/cyfitter_cfg.c **** 
 130:.\Generated_Source\PSoC4/cyfitter_cfg.c **** 
 131:.\Generated_Source\PSoC4/cyfitter_cfg.c **** 
 132:.\Generated_Source\PSoC4/cyfitter_cfg.c **** /*******************************************************************************
 133:.\Generated_Source\PSoC4/cyfitter_cfg.c **** * Function Name: cfg_write_bytes32
 134:.\Generated_Source\PSoC4/cyfitter_cfg.c **** ********************************************************************************
 135:.\Generated_Source\PSoC4/cyfitter_cfg.c **** * Summary:
 136:.\Generated_Source\PSoC4/cyfitter_cfg.c **** *  This function is used for setting up the chip configuration areas that
 137:.\Generated_Source\PSoC4/cyfitter_cfg.c **** *  contain relatively sparse data.
 138:.\Generated_Source\PSoC4/cyfitter_cfg.c **** *
 139:.\Generated_Source\PSoC4/cyfitter_cfg.c **** * Parameters:
 140:.\Generated_Source\PSoC4/cyfitter_cfg.c **** *   void
 141:.\Generated_Source\PSoC4/cyfitter_cfg.c **** *
 142:.\Generated_Source\PSoC4/cyfitter_cfg.c **** * Return:
 143:.\Generated_Source\PSoC4/cyfitter_cfg.c **** *   void
 144:.\Generated_Source\PSoC4/cyfitter_cfg.c **** *
 145:.\Generated_Source\PSoC4/cyfitter_cfg.c **** *******************************************************************************/
 146:.\Generated_Source\PSoC4/cyfitter_cfg.c **** static void cfg_write_bytes32(const uint32 addr_table[], const cy_cfg_addrvalue_t data_table[]);
 147:.\Generated_Source\PSoC4/cyfitter_cfg.c **** static void cfg_write_bytes32(const uint32 addr_table[], const cy_cfg_addrvalue_t data_table[])
 148:.\Generated_Source\PSoC4/cyfitter_cfg.c **** {
 131              		.loc 1 148 0
 132              		.cfi_startproc
 133 0000 80B5     		push	{r7, lr}
 134              		.cfi_def_cfa_offset 8
 135              		.cfi_offset 7, -8
 136              		.cfi_offset 14, -4
 137 0002 86B0     		sub	sp, sp, #24
ARM GAS  C:\Users\CHRIST~1\AppData\Local\Temp\ccvUArhA.s 			page 6


 138              		.cfi_def_cfa_offset 32
 139 0004 00AF     		add	r7, sp, #0
 140              		.cfi_def_cfa_register 7
 141 0006 7860     		str	r0, [r7, #4]
 142 0008 3960     		str	r1, [r7]
 149:.\Generated_Source\PSoC4/cyfitter_cfg.c **** 	/* For 32-bit little-endian architectures */
 150:.\Generated_Source\PSoC4/cyfitter_cfg.c **** 	uint32 i, j = 0u;
 143              		.loc 1 150 0
 144 000a 0023     		mov	r3, #0
 145 000c 3B61     		str	r3, [r7, #16]
 151:.\Generated_Source\PSoC4/cyfitter_cfg.c **** 	for (i = 0u; i < CY_CFG_BASE_ADDR_COUNT; i++)
 146              		.loc 1 151 0
 147 000e 0023     		mov	r3, #0
 148 0010 7B61     		str	r3, [r7, #20]
 149 0012 2EE0     		b	.L5
 150              	.L8:
 151              	.LBB2:
 152:.\Generated_Source\PSoC4/cyfitter_cfg.c **** 	{
 153:.\Generated_Source\PSoC4/cyfitter_cfg.c **** 		uint32 baseAddr = addr_table[i];
 152              		.loc 1 153 0
 153 0014 7B69     		ldr	r3, [r7, #20]
 154 0016 9B00     		lsl	r3, r3, #2
 155 0018 7A68     		ldr	r2, [r7, #4]
 156 001a D318     		add	r3, r2, r3
 157 001c 1B68     		ldr	r3, [r3]
 158 001e BB60     		str	r3, [r7, #8]
 154:.\Generated_Source\PSoC4/cyfitter_cfg.c **** 		uint8 count = (uint8)baseAddr;
 159              		.loc 1 154 0
 160 0020 3B1C     		mov	r3, r7
 161 0022 0F33     		add	r3, r3, #15
 162 0024 BA68     		ldr	r2, [r7, #8]
 163 0026 1A70     		strb	r2, [r3]
 155:.\Generated_Source\PSoC4/cyfitter_cfg.c **** 		baseAddr &= 0xFFFFFF00u;
 164              		.loc 1 155 0
 165 0028 BB68     		ldr	r3, [r7, #8]
 166 002a FF22     		mov	r2, #255
 167 002c 9343     		bic	r3, r2
 168 002e BB60     		str	r3, [r7, #8]
 156:.\Generated_Source\PSoC4/cyfitter_cfg.c **** 		while (count != 0u)
 169              		.loc 1 156 0
 170 0030 17E0     		b	.L6
 171              	.L7:
 157:.\Generated_Source\PSoC4/cyfitter_cfg.c **** 		{
 158:.\Generated_Source\PSoC4/cyfitter_cfg.c **** 			CY_SET_XTND_REG8((void CYFAR *)(baseAddr + data_table[j].offset), data_table[j].value);
 172              		.loc 1 158 0
 173 0032 3B69     		ldr	r3, [r7, #16]
 174 0034 5B00     		lsl	r3, r3, #1
 175 0036 3A68     		ldr	r2, [r7]
 176 0038 D318     		add	r3, r2, r3
 177 003a 1B78     		ldrb	r3, [r3]
 178 003c 1A1C     		mov	r2, r3
 179 003e BB68     		ldr	r3, [r7, #8]
 180 0040 D318     		add	r3, r2, r3
 181 0042 3A69     		ldr	r2, [r7, #16]
 182 0044 5200     		lsl	r2, r2, #1
 183 0046 3968     		ldr	r1, [r7]
 184 0048 8A18     		add	r2, r1, r2
ARM GAS  C:\Users\CHRIST~1\AppData\Local\Temp\ccvUArhA.s 			page 7


 185 004a 5278     		ldrb	r2, [r2, #1]
 186 004c 1A70     		strb	r2, [r3]
 159:.\Generated_Source\PSoC4/cyfitter_cfg.c **** 			j++;
 187              		.loc 1 159 0
 188 004e 3B69     		ldr	r3, [r7, #16]
 189 0050 0133     		add	r3, r3, #1
 190 0052 3B61     		str	r3, [r7, #16]
 160:.\Generated_Source\PSoC4/cyfitter_cfg.c **** 			count--;
 191              		.loc 1 160 0
 192 0054 3B1C     		mov	r3, r7
 193 0056 0F33     		add	r3, r3, #15
 194 0058 1A78     		ldrb	r2, [r3]
 195 005a 3B1C     		mov	r3, r7
 196 005c 0F33     		add	r3, r3, #15
 197 005e 013A     		sub	r2, r2, #1
 198 0060 1A70     		strb	r2, [r3]
 199              	.L6:
 156:.\Generated_Source\PSoC4/cyfitter_cfg.c **** 		while (count != 0u)
 200              		.loc 1 156 0 discriminator 1
 201 0062 3B1C     		mov	r3, r7
 202 0064 0F33     		add	r3, r3, #15
 203 0066 1B78     		ldrb	r3, [r3]
 204 0068 002B     		cmp	r3, #0
 205 006a E2D1     		bne	.L7
 206              	.LBE2:
 151:.\Generated_Source\PSoC4/cyfitter_cfg.c **** 	for (i = 0u; i < CY_CFG_BASE_ADDR_COUNT; i++)
 207              		.loc 1 151 0
 208 006c 7B69     		ldr	r3, [r7, #20]
 209 006e 0133     		add	r3, r3, #1
 210 0070 7B61     		str	r3, [r7, #20]
 211              	.L5:
 151:.\Generated_Source\PSoC4/cyfitter_cfg.c **** 	for (i = 0u; i < CY_CFG_BASE_ADDR_COUNT; i++)
 212              		.loc 1 151 0 is_stmt 0 discriminator 1
 213 0072 7B69     		ldr	r3, [r7, #20]
 214 0074 062B     		cmp	r3, #6
 215 0076 CDD9     		bls	.L8
 161:.\Generated_Source\PSoC4/cyfitter_cfg.c **** 		}
 162:.\Generated_Source\PSoC4/cyfitter_cfg.c **** 	}
 163:.\Generated_Source\PSoC4/cyfitter_cfg.c **** }
 216              		.loc 1 163 0 is_stmt 1
 217 0078 BD46     		mov	sp, r7
 218 007a 06B0     		add	sp, sp, #24
 219              		@ sp needed
 220 007c 80BD     		pop	{r7, pc}
 221              		.cfi_endproc
 222              	.LFE5:
 223              		.size	cfg_write_bytes32, .-cfg_write_bytes32
 224 007e C046     		.section	.psocinit,"ax",%progbits
 225              		.align	2
 226              		.code	16
 227              		.thumb_func
 228              		.type	ClockSetup, %function
 229              	ClockSetup:
 230              	.LFB6:
 164:.\Generated_Source\PSoC4/cyfitter_cfg.c **** 
 165:.\Generated_Source\PSoC4/cyfitter_cfg.c **** 
 166:.\Generated_Source\PSoC4/cyfitter_cfg.c **** /*******************************************************************************
ARM GAS  C:\Users\CHRIST~1\AppData\Local\Temp\ccvUArhA.s 			page 8


 167:.\Generated_Source\PSoC4/cyfitter_cfg.c **** * Function Name: ClockSetup
 168:.\Generated_Source\PSoC4/cyfitter_cfg.c **** ********************************************************************************
 169:.\Generated_Source\PSoC4/cyfitter_cfg.c **** *
 170:.\Generated_Source\PSoC4/cyfitter_cfg.c **** * Summary:
 171:.\Generated_Source\PSoC4/cyfitter_cfg.c **** *   Performs the initialization of all of the clocks in the device based on the
 172:.\Generated_Source\PSoC4/cyfitter_cfg.c **** *   settings in the Clock tab of the DWR.  This includes enabling the requested
 173:.\Generated_Source\PSoC4/cyfitter_cfg.c **** *   clocks and setting the necessary dividers to produce the desired frequency. 
 174:.\Generated_Source\PSoC4/cyfitter_cfg.c **** *
 175:.\Generated_Source\PSoC4/cyfitter_cfg.c **** * Parameters:
 176:.\Generated_Source\PSoC4/cyfitter_cfg.c **** *   void
 177:.\Generated_Source\PSoC4/cyfitter_cfg.c **** *
 178:.\Generated_Source\PSoC4/cyfitter_cfg.c **** * Return:
 179:.\Generated_Source\PSoC4/cyfitter_cfg.c **** *   void
 180:.\Generated_Source\PSoC4/cyfitter_cfg.c **** *
 181:.\Generated_Source\PSoC4/cyfitter_cfg.c **** *******************************************************************************/
 182:.\Generated_Source\PSoC4/cyfitter_cfg.c **** static void ClockSetup(void);
 183:.\Generated_Source\PSoC4/cyfitter_cfg.c **** CY_CFG_SECTION
 184:.\Generated_Source\PSoC4/cyfitter_cfg.c **** static void ClockSetup(void)
 185:.\Generated_Source\PSoC4/cyfitter_cfg.c **** {
 231              		.loc 1 185 0
 232              		.cfi_startproc
 233 0000 80B5     		push	{r7, lr}
 234              		.cfi_def_cfa_offset 8
 235              		.cfi_offset 7, -8
 236              		.cfi_offset 14, -4
 237 0002 00AF     		add	r7, sp, #0
 238              		.cfi_def_cfa_register 7
 186:.\Generated_Source\PSoC4/cyfitter_cfg.c **** 
 187:.\Generated_Source\PSoC4/cyfitter_cfg.c **** 	/* Set Flash Cycles based on max possible frequency in case a glitch occurs during ClockSetup(). *
 188:.\Generated_Source\PSoC4/cyfitter_cfg.c **** 	CY_SET_REG32((void CYXDATA *)(CYREG_CPUSS_FLASH_CTL), (0x0012u));
 239              		.loc 1 188 0
 240 0004 224B     		ldr	r3, .L10
 241 0006 1222     		mov	r2, #18
 242 0008 1A60     		str	r2, [r3]
 189:.\Generated_Source\PSoC4/cyfitter_cfg.c **** 
 190:.\Generated_Source\PSoC4/cyfitter_cfg.c **** 	/* Start the WCO */
 191:.\Generated_Source\PSoC4/cyfitter_cfg.c **** 	CySysClkWcoStart();
 243              		.loc 1 191 0
 244 000a FFF7FEFF 		bl	CySysClkWcoStart
 192:.\Generated_Source\PSoC4/cyfitter_cfg.c **** 	(void)CySysClkWcoSetPowerMode(CY_SYS_CLK_WCO_LPM);    /* Switch to the low power mode */
 245              		.loc 1 192 0
 246 000e 0120     		mov	r0, #1
 247 0010 FFF7FEFF 		bl	CySysClkWcoSetPowerMode
 193:.\Generated_Source\PSoC4/cyfitter_cfg.c **** 
 194:.\Generated_Source\PSoC4/cyfitter_cfg.c **** 	/* Setup and trim IMO based on desired frequency. */
 195:.\Generated_Source\PSoC4/cyfitter_cfg.c **** 	CySysClkWriteImoFreq(24u);
 248              		.loc 1 195 0
 249 0014 1820     		mov	r0, #24
 250 0016 FFF7FEFF 		bl	CySysClkWriteImoFreq
 196:.\Generated_Source\PSoC4/cyfitter_cfg.c **** 	/* CYDEV_CLK_ILO_CONFIG Starting address: CYDEV_CLK_ILO_CONFIG */
 197:.\Generated_Source\PSoC4/cyfitter_cfg.c **** 	CY_SET_XTND_REG32((void CYFAR *)(CYREG_CLK_ILO_CONFIG), 0x80000006u);
 251              		.loc 1 197 0
 252 001a 1E4B     		ldr	r3, .L10+4
 253 001c 1E4A     		ldr	r2, .L10+8
 254 001e 1A60     		str	r2, [r3]
 198:.\Generated_Source\PSoC4/cyfitter_cfg.c **** 
 199:.\Generated_Source\PSoC4/cyfitter_cfg.c **** 
ARM GAS  C:\Users\CHRIST~1\AppData\Local\Temp\ccvUArhA.s 			page 9


 200:.\Generated_Source\PSoC4/cyfitter_cfg.c **** 	/* Enable fast start mode for XO */
 201:.\Generated_Source\PSoC4/cyfitter_cfg.c **** 	CY_SET_REG32((void*)CYREG_BLE_BLERD_BB_XO, CY_GET_REG32((void*)CYREG_BLE_BLERD_BB_XO) | (uint32)0x
 255              		.loc 1 201 0
 256 0020 1E4B     		ldr	r3, .L10+12
 257 0022 1E4A     		ldr	r2, .L10+12
 258 0024 1268     		ldr	r2, [r2]
 259 0026 0221     		mov	r1, #2
 260 0028 0A43     		orr	r2, r1
 261 002a 1A60     		str	r2, [r3]
 202:.\Generated_Source\PSoC4/cyfitter_cfg.c **** 	CY_SET_XTND_REG32((void CYFAR *)(CYREG_BLE_BLERD_BB_XO_CAPTRIM), 0x00003E2Du);
 262              		.loc 1 202 0
 263 002c 1C4B     		ldr	r3, .L10+16
 264 002e 1D4A     		ldr	r2, .L10+20
 265 0030 1A60     		str	r2, [r3]
 203:.\Generated_Source\PSoC4/cyfitter_cfg.c **** 	/* Disable Crystal Stable Interrupt before enabling ECO */
 204:.\Generated_Source\PSoC4/cyfitter_cfg.c **** 	CY_SET_REG32((void*)CYREG_BLE_BLESS_LL_DSM_CTRL, CY_GET_REG32((void*)CYREG_BLE_BLESS_LL_DSM_CTRL) 
 266              		.loc 1 204 0
 267 0032 1D4B     		ldr	r3, .L10+24
 268 0034 1C4A     		ldr	r2, .L10+24
 269 0036 1268     		ldr	r2, [r2]
 270 0038 0821     		mov	r1, #8
 271 003a 8A43     		bic	r2, r1
 272 003c 1A60     		str	r2, [r3]
 205:.\Generated_Source\PSoC4/cyfitter_cfg.c **** 	/* Start the ECO and do not check status since it is not needed for HFCLK */
 206:.\Generated_Source\PSoC4/cyfitter_cfg.c **** 	(void)CySysClkEcoStart(2000u);
 273              		.loc 1 206 0
 274 003e FA23     		mov	r3, #250
 275 0040 DB00     		lsl	r3, r3, #3
 276 0042 181C     		mov	r0, r3
 277 0044 FFF7FEFF 		bl	CySysClkEcoStart
 207:.\Generated_Source\PSoC4/cyfitter_cfg.c **** 	CyDelayUs(1500u); /* Wait to stabalize */
 278              		.loc 1 207 0
 279 0048 184B     		ldr	r3, .L10+28
 280 004a 181C     		mov	r0, r3
 281 004c FFF7FEFF 		bl	CyDelayUs
 208:.\Generated_Source\PSoC4/cyfitter_cfg.c **** 
 209:.\Generated_Source\PSoC4/cyfitter_cfg.c **** 	/* Setup phase aligned clocks */
 210:.\Generated_Source\PSoC4/cyfitter_cfg.c **** 	CY_SET_REG32((void *)CYREG_PERI_DIV_16_CTL1, 0x00003300u);
 282              		.loc 1 210 0
 283 0050 174B     		ldr	r3, .L10+32
 284 0052 CC22     		mov	r2, #204
 285 0054 9201     		lsl	r2, r2, #6
 286 0056 1A60     		str	r2, [r3]
 211:.\Generated_Source\PSoC4/cyfitter_cfg.c **** 	CY_SET_REG32((void *)CYREG_PERI_DIV_CMD, 0x8000FF41u);
 287              		.loc 1 211 0
 288 0058 164B     		ldr	r3, .L10+36
 289 005a 174A     		ldr	r2, .L10+40
 290 005c 1A60     		str	r2, [r3]
 212:.\Generated_Source\PSoC4/cyfitter_cfg.c **** 	CY_SET_REG32((void *)CYREG_PERI_DIV_16_CTL0, 0x00000E00u);
 291              		.loc 1 212 0
 292 005e 174B     		ldr	r3, .L10+44
 293 0060 E022     		mov	r2, #224
 294 0062 1201     		lsl	r2, r2, #4
 295 0064 1A60     		str	r2, [r3]
 213:.\Generated_Source\PSoC4/cyfitter_cfg.c **** 	CY_SET_REG32((void *)CYREG_PERI_DIV_CMD, 0x8000FF40u);
 296              		.loc 1 213 0
 297 0066 134B     		ldr	r3, .L10+36
ARM GAS  C:\Users\CHRIST~1\AppData\Local\Temp\ccvUArhA.s 			page 10


 298 0068 154A     		ldr	r2, .L10+48
 299 006a 1A60     		str	r2, [r3]
 214:.\Generated_Source\PSoC4/cyfitter_cfg.c **** 
 215:.\Generated_Source\PSoC4/cyfitter_cfg.c **** 	/* CYDEV_CLK_IMO_CONFIG Starting address: CYDEV_CLK_IMO_CONFIG */
 216:.\Generated_Source\PSoC4/cyfitter_cfg.c **** 	CY_SET_XTND_REG32((void CYFAR *)(CYREG_CLK_IMO_CONFIG), 0x80000000u);
 300              		.loc 1 216 0
 301 006c 154B     		ldr	r3, .L10+52
 302 006e 8022     		mov	r2, #128
 303 0070 1206     		lsl	r2, r2, #24
 304 0072 1A60     		str	r2, [r3]
 217:.\Generated_Source\PSoC4/cyfitter_cfg.c **** 
 218:.\Generated_Source\PSoC4/cyfitter_cfg.c **** 	/* CYDEV_PERI_PCLK_CTL11 Starting address: CYDEV_PERI_PCLK_CTL11 */
 219:.\Generated_Source\PSoC4/cyfitter_cfg.c **** 	CY_SET_XTND_REG32((void CYFAR *)(CYREG_PERI_PCLK_CTL11), 0x00000041u);
 305              		.loc 1 219 0
 306 0074 144B     		ldr	r3, .L10+56
 307 0076 4122     		mov	r2, #65
 308 0078 1A60     		str	r2, [r3]
 220:.\Generated_Source\PSoC4/cyfitter_cfg.c **** 
 221:.\Generated_Source\PSoC4/cyfitter_cfg.c **** 	/* CYDEV_PERI_PCLK_CTL2 Starting address: CYDEV_PERI_PCLK_CTL2 */
 222:.\Generated_Source\PSoC4/cyfitter_cfg.c **** 	CY_SET_XTND_REG32((void CYFAR *)(CYREG_PERI_PCLK_CTL2), 0x00000040u);
 309              		.loc 1 222 0
 310 007a 144B     		ldr	r3, .L10+60
 311 007c 4022     		mov	r2, #64
 312 007e 1A60     		str	r2, [r3]
 223:.\Generated_Source\PSoC4/cyfitter_cfg.c **** 
 224:.\Generated_Source\PSoC4/cyfitter_cfg.c **** 	CY_SET_XTND_REG32((void CYFAR *)(CYREG_WDT_CONFIG), 0x00000000u);
 313              		.loc 1 224 0
 314 0080 134B     		ldr	r3, .L10+64
 315 0082 0022     		mov	r2, #0
 316 0084 1A60     		str	r2, [r3]
 225:.\Generated_Source\PSoC4/cyfitter_cfg.c **** 	/* Set Flash Cycles based on newly configured 24.00MHz HFCLK. */
 226:.\Generated_Source\PSoC4/cyfitter_cfg.c **** 	CY_SET_REG32((void CYXDATA *)(CYREG_CPUSS_FLASH_CTL), (0x0011u));
 317              		.loc 1 226 0
 318 0086 024B     		ldr	r3, .L10
 319 0088 1122     		mov	r2, #17
 320 008a 1A60     		str	r2, [r3]
 227:.\Generated_Source\PSoC4/cyfitter_cfg.c **** }
 321              		.loc 1 227 0
 322 008c BD46     		mov	sp, r7
 323              		@ sp needed
 324 008e 80BD     		pop	{r7, pc}
 325              	.L11:
 326              		.align	2
 327              	.L10:
 328 0090 30001040 		.word	1074790448
 329 0094 04010B40 		.word	1074462980
 330 0098 06000080 		.word	-2147483642
 331 009c 78002E40 		.word	1076756600
 332 00a0 7C002E40 		.word	1076756604
 333 00a4 2D3E0000 		.word	15917
 334 00a8 6CF02E40 		.word	1076818028
 335 00ac DC050000 		.word	1500
 336 00b0 04030140 		.word	1073808132
 337 00b4 00000140 		.word	1073807360
 338 00b8 41FF0080 		.word	-2147418303
 339 00bc 00030140 		.word	1073808128
 340 00c0 40FF0080 		.word	-2147418304
ARM GAS  C:\Users\CHRIST~1\AppData\Local\Temp\ccvUArhA.s 			page 11


 341 00c4 08010B40 		.word	1074462984
 342 00c8 2C010140 		.word	1073807660
 343 00cc 08010140 		.word	1073807624
 344 00d0 0C020B40 		.word	1074463244
 345              		.cfi_endproc
 346              	.LFE6:
 347              		.size	ClockSetup, .-ClockSetup
 348              		.section	.text.AnalogSetDefault,"ax",%progbits
 349              		.align	2
 350              		.code	16
 351              		.thumb_func
 352              		.type	AnalogSetDefault, %function
 353              	AnalogSetDefault:
 354              	.LFB7:
 228:.\Generated_Source\PSoC4/cyfitter_cfg.c **** 
 229:.\Generated_Source\PSoC4/cyfitter_cfg.c **** 
 230:.\Generated_Source\PSoC4/cyfitter_cfg.c **** /* Analog API Functions */
 231:.\Generated_Source\PSoC4/cyfitter_cfg.c **** 
 232:.\Generated_Source\PSoC4/cyfitter_cfg.c **** 
 233:.\Generated_Source\PSoC4/cyfitter_cfg.c **** /*******************************************************************************
 234:.\Generated_Source\PSoC4/cyfitter_cfg.c **** * Function Name: AnalogSetDefault
 235:.\Generated_Source\PSoC4/cyfitter_cfg.c **** ********************************************************************************
 236:.\Generated_Source\PSoC4/cyfitter_cfg.c **** *
 237:.\Generated_Source\PSoC4/cyfitter_cfg.c **** * Summary:
 238:.\Generated_Source\PSoC4/cyfitter_cfg.c **** *  Sets up the analog portions of the chip to default values based on chip
 239:.\Generated_Source\PSoC4/cyfitter_cfg.c **** *  configuration options from the project.
 240:.\Generated_Source\PSoC4/cyfitter_cfg.c **** *
 241:.\Generated_Source\PSoC4/cyfitter_cfg.c **** * Parameters:
 242:.\Generated_Source\PSoC4/cyfitter_cfg.c **** *  void
 243:.\Generated_Source\PSoC4/cyfitter_cfg.c **** *
 244:.\Generated_Source\PSoC4/cyfitter_cfg.c **** * Return:
 245:.\Generated_Source\PSoC4/cyfitter_cfg.c **** *  void
 246:.\Generated_Source\PSoC4/cyfitter_cfg.c **** *
 247:.\Generated_Source\PSoC4/cyfitter_cfg.c **** *******************************************************************************/
 248:.\Generated_Source\PSoC4/cyfitter_cfg.c **** static void AnalogSetDefault(void);
 249:.\Generated_Source\PSoC4/cyfitter_cfg.c **** static void AnalogSetDefault(void)
 250:.\Generated_Source\PSoC4/cyfitter_cfg.c **** {
 355              		.loc 1 250 0
 356              		.cfi_startproc
 357 0000 80B5     		push	{r7, lr}
 358              		.cfi_def_cfa_offset 8
 359              		.cfi_offset 7, -8
 360              		.cfi_offset 14, -4
 361 0002 00AF     		add	r7, sp, #0
 362              		.cfi_def_cfa_register 7
 251:.\Generated_Source\PSoC4/cyfitter_cfg.c **** 	CY_SET_XTND_REG32((void CYFAR *)CYREG_CTBM0_DFT_CTRL, 0x00000003u);
 363              		.loc 1 251 0
 364 0004 054B     		ldr	r3, .L13
 365 0006 0322     		mov	r2, #3
 366 0008 1A60     		str	r2, [r3]
 252:.\Generated_Source\PSoC4/cyfitter_cfg.c **** 	CY_SET_XTND_REG32((void CYFAR *)CYREG_CTBM1_DFT_CTRL, 0x00000003u);
 367              		.loc 1 252 0
 368 000a 054B     		ldr	r3, .L13+4
 369 000c 0322     		mov	r2, #3
 370 000e 1A60     		str	r2, [r3]
 253:.\Generated_Source\PSoC4/cyfitter_cfg.c **** 	CY_SET_XTND_REG32((void CYFAR *)CYREG_PASS_DSAB_DSAB_CTRL, 0x00000000u);
 371              		.loc 1 253 0
ARM GAS  C:\Users\CHRIST~1\AppData\Local\Temp\ccvUArhA.s 			page 12


 372 0010 044B     		ldr	r3, .L13+8
 373 0012 0022     		mov	r2, #0
 374 0014 1A60     		str	r2, [r3]
 254:.\Generated_Source\PSoC4/cyfitter_cfg.c **** }
 375              		.loc 1 254 0
 376 0016 BD46     		mov	sp, r7
 377              		@ sp needed
 378 0018 80BD     		pop	{r7, pc}
 379              	.L14:
 380 001a C046     		.align	2
 381              	.L13:
 382 001c 30003040 		.word	1076887600
 383 0020 30003140 		.word	1076953136
 384 0024 000E3F40 		.word	1077874176
 385              		.cfi_endproc
 386              	.LFE7:
 387              		.size	AnalogSetDefault, .-AnalogSetDefault
 388              		.section	.psocinit
 389              		.align	2
 390              		.global	cyfitter_cfg
 391              		.code	16
 392              		.thumb_func
 393              		.type	cyfitter_cfg, %function
 394              	cyfitter_cfg:
 395              	.LFB8:
 255:.\Generated_Source\PSoC4/cyfitter_cfg.c **** 
 256:.\Generated_Source\PSoC4/cyfitter_cfg.c **** #define CY_AMUX_UNUSED CYREG_CM0_ROM_DWT
 257:.\Generated_Source\PSoC4/cyfitter_cfg.c **** 
 258:.\Generated_Source\PSoC4/cyfitter_cfg.c **** 
 259:.\Generated_Source\PSoC4/cyfitter_cfg.c **** /*******************************************************************************
 260:.\Generated_Source\PSoC4/cyfitter_cfg.c **** * Function Name: cyfitter_cfg
 261:.\Generated_Source\PSoC4/cyfitter_cfg.c **** ********************************************************************************
 262:.\Generated_Source\PSoC4/cyfitter_cfg.c **** * Summary:
 263:.\Generated_Source\PSoC4/cyfitter_cfg.c **** *  This function is called by the start-up code for the selected device. It
 264:.\Generated_Source\PSoC4/cyfitter_cfg.c **** *  performs all of the necessary device configuration based on the design
 265:.\Generated_Source\PSoC4/cyfitter_cfg.c **** *  settings.  This includes settings from the Design Wide Resources (DWR) such
 266:.\Generated_Source\PSoC4/cyfitter_cfg.c **** *  as Clocks and Pins as well as any component configuration that is necessary.
 267:.\Generated_Source\PSoC4/cyfitter_cfg.c **** *
 268:.\Generated_Source\PSoC4/cyfitter_cfg.c **** * Parameters:  
 269:.\Generated_Source\PSoC4/cyfitter_cfg.c **** *   void
 270:.\Generated_Source\PSoC4/cyfitter_cfg.c **** *
 271:.\Generated_Source\PSoC4/cyfitter_cfg.c **** * Return:
 272:.\Generated_Source\PSoC4/cyfitter_cfg.c **** *   void
 273:.\Generated_Source\PSoC4/cyfitter_cfg.c **** *
 274:.\Generated_Source\PSoC4/cyfitter_cfg.c **** *******************************************************************************/
 275:.\Generated_Source\PSoC4/cyfitter_cfg.c **** CY_CFG_SECTION
 276:.\Generated_Source\PSoC4/cyfitter_cfg.c **** void cyfitter_cfg(void)
 277:.\Generated_Source\PSoC4/cyfitter_cfg.c **** {
 396              		.loc 1 277 0
 397              		.cfi_startproc
 398 00d4 80B5     		push	{r7, lr}
 399              		.cfi_def_cfa_offset 8
 400              		.cfi_offset 7, -8
 401              		.cfi_offset 14, -4
 402 00d6 82B0     		sub	sp, sp, #8
 403              		.cfi_def_cfa_offset 16
 404 00d8 00AF     		add	r7, sp, #0
ARM GAS  C:\Users\CHRIST~1\AppData\Local\Temp\ccvUArhA.s 			page 13


 405              		.cfi_def_cfa_register 7
 278:.\Generated_Source\PSoC4/cyfitter_cfg.c **** 	/* Disable interrupts by default. Let user enable if/when they want. */
 279:.\Generated_Source\PSoC4/cyfitter_cfg.c **** 	CyGlobalIntDisable;
 406              		.loc 1 279 0
 407              	@ 279 ".\Generated_Source\PSoC4\cyfitter_cfg.c" 1
 408 00da 72B6     		CPSID   i
 409              	@ 0 "" 2
 280:.\Generated_Source\PSoC4/cyfitter_cfg.c **** 
 281:.\Generated_Source\PSoC4/cyfitter_cfg.c **** 	CY_SET_XTND_REG32((void CYFAR *)(CYREG_BLE_BLESS_LL_DSM_CTRL), 0x00000000u);
 410              		.loc 1 281 0
 411              		.code	16
 412 00dc 404B     		ldr	r3, .L18
 413 00de 0022     		mov	r2, #0
 414 00e0 1A60     		str	r2, [r3]
 415              	.LBB3:
 282:.\Generated_Source\PSoC4/cyfitter_cfg.c **** 
 283:.\Generated_Source\PSoC4/cyfitter_cfg.c **** 	{
 284:.\Generated_Source\PSoC4/cyfitter_cfg.c **** 		static const uint32 CYCODE cy_cfg_addr_table[] = {
 285:.\Generated_Source\PSoC4/cyfitter_cfg.c **** 			0x400F0003u, /* Base address: 0x400F0000 Count: 3 */
 286:.\Generated_Source\PSoC4/cyfitter_cfg.c **** 			0x400F3062u, /* Base address: 0x400F3000 Count: 98 */
 287:.\Generated_Source\PSoC4/cyfitter_cfg.c **** 			0x400F3136u, /* Base address: 0x400F3100 Count: 54 */
 288:.\Generated_Source\PSoC4/cyfitter_cfg.c **** 			0x400F3251u, /* Base address: 0x400F3200 Count: 81 */
 289:.\Generated_Source\PSoC4/cyfitter_cfg.c **** 			0x400F3345u, /* Base address: 0x400F3300 Count: 69 */
 290:.\Generated_Source\PSoC4/cyfitter_cfg.c **** 			0x400F4108u, /* Base address: 0x400F4100 Count: 8 */
 291:.\Generated_Source\PSoC4/cyfitter_cfg.c **** 			0x400F6002u, /* Base address: 0x400F6000 Count: 2 */
 292:.\Generated_Source\PSoC4/cyfitter_cfg.c **** 		};
 293:.\Generated_Source\PSoC4/cyfitter_cfg.c **** 
 294:.\Generated_Source\PSoC4/cyfitter_cfg.c **** 		static const cy_cfg_addrvalue_t CYCODE cy_cfg_data_table[] = {
 295:.\Generated_Source\PSoC4/cyfitter_cfg.c **** 			{0x80u, 0x0Fu},
 296:.\Generated_Source\PSoC4/cyfitter_cfg.c **** 			{0x82u, 0x72u},
 297:.\Generated_Source\PSoC4/cyfitter_cfg.c **** 			{0x83u, 0x38u},
 298:.\Generated_Source\PSoC4/cyfitter_cfg.c **** 			{0x04u, 0x0Au},
 299:.\Generated_Source\PSoC4/cyfitter_cfg.c **** 			{0x05u, 0x30u},
 300:.\Generated_Source\PSoC4/cyfitter_cfg.c **** 			{0x06u, 0xE4u},
 301:.\Generated_Source\PSoC4/cyfitter_cfg.c **** 			{0x07u, 0x41u},
 302:.\Generated_Source\PSoC4/cyfitter_cfg.c **** 			{0x09u, 0x04u},
 303:.\Generated_Source\PSoC4/cyfitter_cfg.c **** 			{0x0Cu, 0x23u},
 304:.\Generated_Source\PSoC4/cyfitter_cfg.c **** 			{0x0Du, 0x31u},
 305:.\Generated_Source\PSoC4/cyfitter_cfg.c **** 			{0x0Eu, 0xCCu},
 306:.\Generated_Source\PSoC4/cyfitter_cfg.c **** 			{0x0Fu, 0x46u},
 307:.\Generated_Source\PSoC4/cyfitter_cfg.c **** 			{0x12u, 0x18u},
 308:.\Generated_Source\PSoC4/cyfitter_cfg.c **** 			{0x14u, 0x80u},
 309:.\Generated_Source\PSoC4/cyfitter_cfg.c **** 			{0x15u, 0x31u},
 310:.\Generated_Source\PSoC4/cyfitter_cfg.c **** 			{0x16u, 0x04u},
 311:.\Generated_Source\PSoC4/cyfitter_cfg.c **** 			{0x17u, 0x4Au},
 312:.\Generated_Source\PSoC4/cyfitter_cfg.c **** 			{0x18u, 0x87u},
 313:.\Generated_Source\PSoC4/cyfitter_cfg.c **** 			{0x1Au, 0x30u},
 314:.\Generated_Source\PSoC4/cyfitter_cfg.c **** 			{0x1Bu, 0x6Fu},
 315:.\Generated_Source\PSoC4/cyfitter_cfg.c **** 			{0x24u, 0x05u},
 316:.\Generated_Source\PSoC4/cyfitter_cfg.c **** 			{0x28u, 0x24u},
 317:.\Generated_Source\PSoC4/cyfitter_cfg.c **** 			{0x29u, 0x1Cu},
 318:.\Generated_Source\PSoC4/cyfitter_cfg.c **** 			{0x2Au, 0x43u},
 319:.\Generated_Source\PSoC4/cyfitter_cfg.c **** 			{0x2Bu, 0x01u},
 320:.\Generated_Source\PSoC4/cyfitter_cfg.c **** 			{0x30u, 0x1Fu},
 321:.\Generated_Source\PSoC4/cyfitter_cfg.c **** 			{0x31u, 0x0Eu},
 322:.\Generated_Source\PSoC4/cyfitter_cfg.c **** 			{0x33u, 0x78u},
 323:.\Generated_Source\PSoC4/cyfitter_cfg.c **** 			{0x34u, 0xE0u},
ARM GAS  C:\Users\CHRIST~1\AppData\Local\Temp\ccvUArhA.s 			page 14


 324:.\Generated_Source\PSoC4/cyfitter_cfg.c **** 			{0x35u, 0x01u},
 325:.\Generated_Source\PSoC4/cyfitter_cfg.c **** 			{0x3Au, 0x20u},
 326:.\Generated_Source\PSoC4/cyfitter_cfg.c **** 			{0x3Bu, 0x8Au},
 327:.\Generated_Source\PSoC4/cyfitter_cfg.c **** 			{0x3Fu, 0x10u},
 328:.\Generated_Source\PSoC4/cyfitter_cfg.c **** 			{0x40u, 0x64u},
 329:.\Generated_Source\PSoC4/cyfitter_cfg.c **** 			{0x41u, 0x05u},
 330:.\Generated_Source\PSoC4/cyfitter_cfg.c **** 			{0x45u, 0xEBu},
 331:.\Generated_Source\PSoC4/cyfitter_cfg.c **** 			{0x47u, 0x0Cu},
 332:.\Generated_Source\PSoC4/cyfitter_cfg.c **** 			{0x48u, 0x13u},
 333:.\Generated_Source\PSoC4/cyfitter_cfg.c **** 			{0x49u, 0xFFu},
 334:.\Generated_Source\PSoC4/cyfitter_cfg.c **** 			{0x4Au, 0xFFu},
 335:.\Generated_Source\PSoC4/cyfitter_cfg.c **** 			{0x4Bu, 0xFFu},
 336:.\Generated_Source\PSoC4/cyfitter_cfg.c **** 			{0x4Eu, 0xF0u},
 337:.\Generated_Source\PSoC4/cyfitter_cfg.c **** 			{0x4Fu, 0x44u},
 338:.\Generated_Source\PSoC4/cyfitter_cfg.c **** 			{0x50u, 0x0Cu},
 339:.\Generated_Source\PSoC4/cyfitter_cfg.c **** 			{0x54u, 0x01u},
 340:.\Generated_Source\PSoC4/cyfitter_cfg.c **** 			{0x58u, 0x04u},
 341:.\Generated_Source\PSoC4/cyfitter_cfg.c **** 			{0x59u, 0x04u},
 342:.\Generated_Source\PSoC4/cyfitter_cfg.c **** 			{0x5Au, 0x04u},
 343:.\Generated_Source\PSoC4/cyfitter_cfg.c **** 			{0x5Bu, 0x04u},
 344:.\Generated_Source\PSoC4/cyfitter_cfg.c **** 			{0x5Fu, 0x01u},
 345:.\Generated_Source\PSoC4/cyfitter_cfg.c **** 			{0x66u, 0xC0u},
 346:.\Generated_Source\PSoC4/cyfitter_cfg.c **** 			{0x6Au, 0x40u},
 347:.\Generated_Source\PSoC4/cyfitter_cfg.c **** 			{0x6Bu, 0x02u},
 348:.\Generated_Source\PSoC4/cyfitter_cfg.c **** 			{0x80u, 0x44u},
 349:.\Generated_Source\PSoC4/cyfitter_cfg.c **** 			{0x82u, 0x31u},
 350:.\Generated_Source\PSoC4/cyfitter_cfg.c **** 			{0x84u, 0xE7u},
 351:.\Generated_Source\PSoC4/cyfitter_cfg.c **** 			{0x88u, 0xE7u},
 352:.\Generated_Source\PSoC4/cyfitter_cfg.c **** 			{0x8Cu, 0x80u},
 353:.\Generated_Source\PSoC4/cyfitter_cfg.c **** 			{0x90u, 0x22u},
 354:.\Generated_Source\PSoC4/cyfitter_cfg.c **** 			{0x92u, 0x51u},
 355:.\Generated_Source\PSoC4/cyfitter_cfg.c **** 			{0x94u, 0x01u},
 356:.\Generated_Source\PSoC4/cyfitter_cfg.c **** 			{0x95u, 0x03u},
 357:.\Generated_Source\PSoC4/cyfitter_cfg.c **** 			{0x96u, 0x0Eu},
 358:.\Generated_Source\PSoC4/cyfitter_cfg.c **** 			{0x9Du, 0x03u},
 359:.\Generated_Source\PSoC4/cyfitter_cfg.c **** 			{0xA7u, 0x02u},
 360:.\Generated_Source\PSoC4/cyfitter_cfg.c **** 			{0xA9u, 0x01u},
 361:.\Generated_Source\PSoC4/cyfitter_cfg.c **** 			{0xB0u, 0x60u},
 362:.\Generated_Source\PSoC4/cyfitter_cfg.c **** 			{0xB2u, 0x07u},
 363:.\Generated_Source\PSoC4/cyfitter_cfg.c **** 			{0xB3u, 0x03u},
 364:.\Generated_Source\PSoC4/cyfitter_cfg.c **** 			{0xB4u, 0x80u},
 365:.\Generated_Source\PSoC4/cyfitter_cfg.c **** 			{0xB6u, 0x18u},
 366:.\Generated_Source\PSoC4/cyfitter_cfg.c **** 			{0xB9u, 0x08u},
 367:.\Generated_Source\PSoC4/cyfitter_cfg.c **** 			{0xBEu, 0x40u},
 368:.\Generated_Source\PSoC4/cyfitter_cfg.c **** 			{0xBFu, 0x04u},
 369:.\Generated_Source\PSoC4/cyfitter_cfg.c **** 			{0xC0u, 0x32u},
 370:.\Generated_Source\PSoC4/cyfitter_cfg.c **** 			{0xC1u, 0x04u},
 371:.\Generated_Source\PSoC4/cyfitter_cfg.c **** 			{0xC2u, 0x05u},
 372:.\Generated_Source\PSoC4/cyfitter_cfg.c **** 			{0xC4u, 0x01u},
 373:.\Generated_Source\PSoC4/cyfitter_cfg.c **** 			{0xC5u, 0xC0u},
 374:.\Generated_Source\PSoC4/cyfitter_cfg.c **** 			{0xC6u, 0xE0u},
 375:.\Generated_Source\PSoC4/cyfitter_cfg.c **** 			{0xC8u, 0x0Au},
 376:.\Generated_Source\PSoC4/cyfitter_cfg.c **** 			{0xC9u, 0xFFu},
 377:.\Generated_Source\PSoC4/cyfitter_cfg.c **** 			{0xCAu, 0xFFu},
 378:.\Generated_Source\PSoC4/cyfitter_cfg.c **** 			{0xCBu, 0xFFu},
 379:.\Generated_Source\PSoC4/cyfitter_cfg.c **** 			{0xCCu, 0x62u},
 380:.\Generated_Source\PSoC4/cyfitter_cfg.c **** 			{0xCDu, 0xA0u},
ARM GAS  C:\Users\CHRIST~1\AppData\Local\Temp\ccvUArhA.s 			page 15


 381:.\Generated_Source\PSoC4/cyfitter_cfg.c **** 			{0xCEu, 0xF0u},
 382:.\Generated_Source\PSoC4/cyfitter_cfg.c **** 			{0xCFu, 0x41u},
 383:.\Generated_Source\PSoC4/cyfitter_cfg.c **** 			{0xD0u, 0x0Cu},
 384:.\Generated_Source\PSoC4/cyfitter_cfg.c **** 			{0xD8u, 0x04u},
 385:.\Generated_Source\PSoC4/cyfitter_cfg.c **** 			{0xD9u, 0x04u},
 386:.\Generated_Source\PSoC4/cyfitter_cfg.c **** 			{0xDAu, 0x04u},
 387:.\Generated_Source\PSoC4/cyfitter_cfg.c **** 			{0xDFu, 0x01u},
 388:.\Generated_Source\PSoC4/cyfitter_cfg.c **** 			{0xE6u, 0x40u},
 389:.\Generated_Source\PSoC4/cyfitter_cfg.c **** 			{0xE7u, 0x02u},
 390:.\Generated_Source\PSoC4/cyfitter_cfg.c **** 			{0xE9u, 0x10u},
 391:.\Generated_Source\PSoC4/cyfitter_cfg.c **** 			{0xEAu, 0x30u},
 392:.\Generated_Source\PSoC4/cyfitter_cfg.c **** 			{0xEBu, 0x10u},
 393:.\Generated_Source\PSoC4/cyfitter_cfg.c **** 			{0xEDu, 0x10u},
 394:.\Generated_Source\PSoC4/cyfitter_cfg.c **** 			{0xEEu, 0x10u},
 395:.\Generated_Source\PSoC4/cyfitter_cfg.c **** 			{0xEFu, 0x12u},
 396:.\Generated_Source\PSoC4/cyfitter_cfg.c **** 			{0x00u, 0x40u},
 397:.\Generated_Source\PSoC4/cyfitter_cfg.c **** 			{0x03u, 0x20u},
 398:.\Generated_Source\PSoC4/cyfitter_cfg.c **** 			{0x04u, 0x28u},
 399:.\Generated_Source\PSoC4/cyfitter_cfg.c **** 			{0x05u, 0x01u},
 400:.\Generated_Source\PSoC4/cyfitter_cfg.c **** 			{0x07u, 0x01u},
 401:.\Generated_Source\PSoC4/cyfitter_cfg.c **** 			{0x0Au, 0x84u},
 402:.\Generated_Source\PSoC4/cyfitter_cfg.c **** 			{0x0Bu, 0x20u},
 403:.\Generated_Source\PSoC4/cyfitter_cfg.c **** 			{0x0Eu, 0x10u},
 404:.\Generated_Source\PSoC4/cyfitter_cfg.c **** 			{0x0Fu, 0x80u},
 405:.\Generated_Source\PSoC4/cyfitter_cfg.c **** 			{0x10u, 0x20u},
 406:.\Generated_Source\PSoC4/cyfitter_cfg.c **** 			{0x12u, 0x08u},
 407:.\Generated_Source\PSoC4/cyfitter_cfg.c **** 			{0x19u, 0x20u},
 408:.\Generated_Source\PSoC4/cyfitter_cfg.c **** 			{0x1Au, 0x84u},
 409:.\Generated_Source\PSoC4/cyfitter_cfg.c **** 			{0x1Du, 0xB1u},
 410:.\Generated_Source\PSoC4/cyfitter_cfg.c **** 			{0x1Eu, 0x10u},
 411:.\Generated_Source\PSoC4/cyfitter_cfg.c **** 			{0x20u, 0x48u},
 412:.\Generated_Source\PSoC4/cyfitter_cfg.c **** 			{0x22u, 0x08u},
 413:.\Generated_Source\PSoC4/cyfitter_cfg.c **** 			{0x23u, 0xC2u},
 414:.\Generated_Source\PSoC4/cyfitter_cfg.c **** 			{0x26u, 0x04u},
 415:.\Generated_Source\PSoC4/cyfitter_cfg.c **** 			{0x29u, 0x20u},
 416:.\Generated_Source\PSoC4/cyfitter_cfg.c **** 			{0x2Du, 0x20u},
 417:.\Generated_Source\PSoC4/cyfitter_cfg.c **** 			{0x2Fu, 0x20u},
 418:.\Generated_Source\PSoC4/cyfitter_cfg.c **** 			{0x32u, 0x08u},
 419:.\Generated_Source\PSoC4/cyfitter_cfg.c **** 			{0x33u, 0x20u},
 420:.\Generated_Source\PSoC4/cyfitter_cfg.c **** 			{0x36u, 0x08u},
 421:.\Generated_Source\PSoC4/cyfitter_cfg.c **** 			{0x37u, 0x80u},
 422:.\Generated_Source\PSoC4/cyfitter_cfg.c **** 			{0x38u, 0x40u},
 423:.\Generated_Source\PSoC4/cyfitter_cfg.c **** 			{0x39u, 0x08u},
 424:.\Generated_Source\PSoC4/cyfitter_cfg.c **** 			{0x3Bu, 0x20u},
 425:.\Generated_Source\PSoC4/cyfitter_cfg.c **** 			{0x40u, 0x20u},
 426:.\Generated_Source\PSoC4/cyfitter_cfg.c **** 			{0x41u, 0x04u},
 427:.\Generated_Source\PSoC4/cyfitter_cfg.c **** 			{0x42u, 0x40u},
 428:.\Generated_Source\PSoC4/cyfitter_cfg.c **** 			{0x45u, 0xA8u},
 429:.\Generated_Source\PSoC4/cyfitter_cfg.c **** 			{0x47u, 0x02u},
 430:.\Generated_Source\PSoC4/cyfitter_cfg.c **** 			{0x48u, 0x20u},
 431:.\Generated_Source\PSoC4/cyfitter_cfg.c **** 			{0x49u, 0x02u},
 432:.\Generated_Source\PSoC4/cyfitter_cfg.c **** 			{0x4Au, 0x08u},
 433:.\Generated_Source\PSoC4/cyfitter_cfg.c **** 			{0x4Bu, 0x40u},
 434:.\Generated_Source\PSoC4/cyfitter_cfg.c **** 			{0x4Cu, 0x80u},
 435:.\Generated_Source\PSoC4/cyfitter_cfg.c **** 			{0x4Eu, 0x02u},
 436:.\Generated_Source\PSoC4/cyfitter_cfg.c **** 			{0x51u, 0x04u},
 437:.\Generated_Source\PSoC4/cyfitter_cfg.c **** 			{0x56u, 0x10u},
ARM GAS  C:\Users\CHRIST~1\AppData\Local\Temp\ccvUArhA.s 			page 16


 438:.\Generated_Source\PSoC4/cyfitter_cfg.c **** 			{0x58u, 0xA0u},
 439:.\Generated_Source\PSoC4/cyfitter_cfg.c **** 			{0x59u, 0x06u},
 440:.\Generated_Source\PSoC4/cyfitter_cfg.c **** 			{0x88u, 0x84u},
 441:.\Generated_Source\PSoC4/cyfitter_cfg.c **** 			{0xC0u, 0xF5u},
 442:.\Generated_Source\PSoC4/cyfitter_cfg.c **** 			{0xC2u, 0x3Eu},
 443:.\Generated_Source\PSoC4/cyfitter_cfg.c **** 			{0xC4u, 0x06u},
 444:.\Generated_Source\PSoC4/cyfitter_cfg.c **** 			{0xCAu, 0x64u},
 445:.\Generated_Source\PSoC4/cyfitter_cfg.c **** 			{0xCCu, 0x56u},
 446:.\Generated_Source\PSoC4/cyfitter_cfg.c **** 			{0xCEu, 0x0Eu},
 447:.\Generated_Source\PSoC4/cyfitter_cfg.c **** 			{0xD0u, 0xF1u},
 448:.\Generated_Source\PSoC4/cyfitter_cfg.c **** 			{0xD2u, 0x1Cu},
 449:.\Generated_Source\PSoC4/cyfitter_cfg.c **** 			{0xD6u, 0x0Fu},
 450:.\Generated_Source\PSoC4/cyfitter_cfg.c **** 			{0x00u, 0x82u},
 451:.\Generated_Source\PSoC4/cyfitter_cfg.c **** 			{0x04u, 0x1Cu},
 452:.\Generated_Source\PSoC4/cyfitter_cfg.c **** 			{0x05u, 0x08u},
 453:.\Generated_Source\PSoC4/cyfitter_cfg.c **** 			{0x06u, 0xE3u},
 454:.\Generated_Source\PSoC4/cyfitter_cfg.c **** 			{0x09u, 0x3Cu},
 455:.\Generated_Source\PSoC4/cyfitter_cfg.c **** 			{0x0Au, 0xF3u},
 456:.\Generated_Source\PSoC4/cyfitter_cfg.c **** 			{0x0Bu, 0x42u},
 457:.\Generated_Source\PSoC4/cyfitter_cfg.c **** 			{0x0Cu, 0x41u},
 458:.\Generated_Source\PSoC4/cyfitter_cfg.c **** 			{0x0Du, 0x04u},
 459:.\Generated_Source\PSoC4/cyfitter_cfg.c **** 			{0x0Fu, 0x80u},
 460:.\Generated_Source\PSoC4/cyfitter_cfg.c **** 			{0x11u, 0x7Fu},
 461:.\Generated_Source\PSoC4/cyfitter_cfg.c **** 			{0x14u, 0xF3u},
 462:.\Generated_Source\PSoC4/cyfitter_cfg.c **** 			{0x15u, 0x18u},
 463:.\Generated_Source\PSoC4/cyfitter_cfg.c **** 			{0x16u, 0x0Cu},
 464:.\Generated_Source\PSoC4/cyfitter_cfg.c **** 			{0x18u, 0x0Fu},
 465:.\Generated_Source\PSoC4/cyfitter_cfg.c **** 			{0x1Au, 0xF0u},
 466:.\Generated_Source\PSoC4/cyfitter_cfg.c **** 			{0x1Bu, 0x03u},
 467:.\Generated_Source\PSoC4/cyfitter_cfg.c **** 			{0x1Cu, 0xC3u},
 468:.\Generated_Source\PSoC4/cyfitter_cfg.c **** 			{0x1Fu, 0x04u},
 469:.\Generated_Source\PSoC4/cyfitter_cfg.c **** 			{0x20u, 0xFFu},
 470:.\Generated_Source\PSoC4/cyfitter_cfg.c **** 			{0x21u, 0x10u},
 471:.\Generated_Source\PSoC4/cyfitter_cfg.c **** 			{0x24u, 0x04u},
 472:.\Generated_Source\PSoC4/cyfitter_cfg.c **** 			{0x25u, 0x3Cu},
 473:.\Generated_Source\PSoC4/cyfitter_cfg.c **** 			{0x27u, 0x41u},
 474:.\Generated_Source\PSoC4/cyfitter_cfg.c **** 			{0x28u, 0x0Cu},
 475:.\Generated_Source\PSoC4/cyfitter_cfg.c **** 			{0x29u, 0x67u},
 476:.\Generated_Source\PSoC4/cyfitter_cfg.c **** 			{0x2Bu, 0x18u},
 477:.\Generated_Source\PSoC4/cyfitter_cfg.c **** 			{0x2Cu, 0x08u},
 478:.\Generated_Source\PSoC4/cyfitter_cfg.c **** 			{0x30u, 0x1Cu},
 479:.\Generated_Source\PSoC4/cyfitter_cfg.c **** 			{0x31u, 0x80u},
 480:.\Generated_Source\PSoC4/cyfitter_cfg.c **** 			{0x32u, 0x0Fu},
 481:.\Generated_Source\PSoC4/cyfitter_cfg.c **** 			{0x33u, 0x1Fu},
 482:.\Generated_Source\PSoC4/cyfitter_cfg.c **** 			{0x34u, 0x2Cu},
 483:.\Generated_Source\PSoC4/cyfitter_cfg.c **** 			{0x35u, 0x20u},
 484:.\Generated_Source\PSoC4/cyfitter_cfg.c **** 			{0x36u, 0xC0u},
 485:.\Generated_Source\PSoC4/cyfitter_cfg.c **** 			{0x37u, 0x40u},
 486:.\Generated_Source\PSoC4/cyfitter_cfg.c **** 			{0x39u, 0x80u},
 487:.\Generated_Source\PSoC4/cyfitter_cfg.c **** 			{0x3Au, 0x28u},
 488:.\Generated_Source\PSoC4/cyfitter_cfg.c **** 			{0x3Bu, 0x08u},
 489:.\Generated_Source\PSoC4/cyfitter_cfg.c **** 			{0x3Fu, 0x10u},
 490:.\Generated_Source\PSoC4/cyfitter_cfg.c **** 			{0x56u, 0x02u},
 491:.\Generated_Source\PSoC4/cyfitter_cfg.c **** 			{0x57u, 0x11u},
 492:.\Generated_Source\PSoC4/cyfitter_cfg.c **** 			{0x58u, 0x04u},
 493:.\Generated_Source\PSoC4/cyfitter_cfg.c **** 			{0x59u, 0x04u},
 494:.\Generated_Source\PSoC4/cyfitter_cfg.c **** 			{0x5Bu, 0x04u},
ARM GAS  C:\Users\CHRIST~1\AppData\Local\Temp\ccvUArhA.s 			page 17


 495:.\Generated_Source\PSoC4/cyfitter_cfg.c **** 			{0x5Fu, 0x01u},
 496:.\Generated_Source\PSoC4/cyfitter_cfg.c **** 			{0x80u, 0x04u},
 497:.\Generated_Source\PSoC4/cyfitter_cfg.c **** 			{0x83u, 0x01u},
 498:.\Generated_Source\PSoC4/cyfitter_cfg.c **** 			{0x8Bu, 0x01u},
 499:.\Generated_Source\PSoC4/cyfitter_cfg.c **** 			{0x8Eu, 0x01u},
 500:.\Generated_Source\PSoC4/cyfitter_cfg.c **** 			{0xA2u, 0x01u},
 501:.\Generated_Source\PSoC4/cyfitter_cfg.c **** 			{0xA8u, 0x02u},
 502:.\Generated_Source\PSoC4/cyfitter_cfg.c **** 			{0xB0u, 0x02u},
 503:.\Generated_Source\PSoC4/cyfitter_cfg.c **** 			{0xB2u, 0x04u},
 504:.\Generated_Source\PSoC4/cyfitter_cfg.c **** 			{0xB4u, 0x02u},
 505:.\Generated_Source\PSoC4/cyfitter_cfg.c **** 			{0xB5u, 0x01u},
 506:.\Generated_Source\PSoC4/cyfitter_cfg.c **** 			{0xB6u, 0x01u},
 507:.\Generated_Source\PSoC4/cyfitter_cfg.c **** 			{0xBEu, 0x45u},
 508:.\Generated_Source\PSoC4/cyfitter_cfg.c **** 			{0xBFu, 0x10u},
 509:.\Generated_Source\PSoC4/cyfitter_cfg.c **** 			{0xC0u, 0x06u},
 510:.\Generated_Source\PSoC4/cyfitter_cfg.c **** 			{0xC6u, 0x50u},
 511:.\Generated_Source\PSoC4/cyfitter_cfg.c **** 			{0xC7u, 0x01u},
 512:.\Generated_Source\PSoC4/cyfitter_cfg.c **** 			{0xC8u, 0x18u},
 513:.\Generated_Source\PSoC4/cyfitter_cfg.c **** 			{0xC9u, 0xFFu},
 514:.\Generated_Source\PSoC4/cyfitter_cfg.c **** 			{0xCAu, 0x07u},
 515:.\Generated_Source\PSoC4/cyfitter_cfg.c **** 			{0xCBu, 0xFFu},
 516:.\Generated_Source\PSoC4/cyfitter_cfg.c **** 			{0xCCu, 0x40u},
 517:.\Generated_Source\PSoC4/cyfitter_cfg.c **** 			{0xCDu, 0x20u},
 518:.\Generated_Source\PSoC4/cyfitter_cfg.c **** 			{0xCEu, 0xF0u},
 519:.\Generated_Source\PSoC4/cyfitter_cfg.c **** 			{0xCFu, 0x05u},
 520:.\Generated_Source\PSoC4/cyfitter_cfg.c **** 			{0xD0u, 0x08u},
 521:.\Generated_Source\PSoC4/cyfitter_cfg.c **** 			{0xD4u, 0x18u},
 522:.\Generated_Source\PSoC4/cyfitter_cfg.c **** 			{0xD8u, 0x04u},
 523:.\Generated_Source\PSoC4/cyfitter_cfg.c **** 			{0xD9u, 0x04u},
 524:.\Generated_Source\PSoC4/cyfitter_cfg.c **** 			{0xDAu, 0x04u},
 525:.\Generated_Source\PSoC4/cyfitter_cfg.c **** 			{0xDBu, 0x04u},
 526:.\Generated_Source\PSoC4/cyfitter_cfg.c **** 			{0xDFu, 0x01u},
 527:.\Generated_Source\PSoC4/cyfitter_cfg.c **** 			{0xE0u, 0x40u},
 528:.\Generated_Source\PSoC4/cyfitter_cfg.c **** 			{0xE1u, 0xA8u},
 529:.\Generated_Source\PSoC4/cyfitter_cfg.c **** 			{0xE2u, 0x40u},
 530:.\Generated_Source\PSoC4/cyfitter_cfg.c **** 			{0xE3u, 0x20u},
 531:.\Generated_Source\PSoC4/cyfitter_cfg.c **** 			{0x00u, 0x40u},
 532:.\Generated_Source\PSoC4/cyfitter_cfg.c **** 			{0x01u, 0x02u},
 533:.\Generated_Source\PSoC4/cyfitter_cfg.c **** 			{0x02u, 0x02u},
 534:.\Generated_Source\PSoC4/cyfitter_cfg.c **** 			{0x05u, 0x11u},
 535:.\Generated_Source\PSoC4/cyfitter_cfg.c **** 			{0x06u, 0x01u},
 536:.\Generated_Source\PSoC4/cyfitter_cfg.c **** 			{0x07u, 0x10u},
 537:.\Generated_Source\PSoC4/cyfitter_cfg.c **** 			{0x0Du, 0x48u},
 538:.\Generated_Source\PSoC4/cyfitter_cfg.c **** 			{0x0Eu, 0x04u},
 539:.\Generated_Source\PSoC4/cyfitter_cfg.c **** 			{0x10u, 0x88u},
 540:.\Generated_Source\PSoC4/cyfitter_cfg.c **** 			{0x16u, 0x02u},
 541:.\Generated_Source\PSoC4/cyfitter_cfg.c **** 			{0x17u, 0x26u},
 542:.\Generated_Source\PSoC4/cyfitter_cfg.c **** 			{0x19u, 0x44u},
 543:.\Generated_Source\PSoC4/cyfitter_cfg.c **** 			{0x1Au, 0x40u},
 544:.\Generated_Source\PSoC4/cyfitter_cfg.c **** 			{0x1Bu, 0x20u},
 545:.\Generated_Source\PSoC4/cyfitter_cfg.c **** 			{0x1Cu, 0x40u},
 546:.\Generated_Source\PSoC4/cyfitter_cfg.c **** 			{0x1Du, 0x08u},
 547:.\Generated_Source\PSoC4/cyfitter_cfg.c **** 			{0x1Eu, 0x15u},
 548:.\Generated_Source\PSoC4/cyfitter_cfg.c **** 			{0x20u, 0x04u},
 549:.\Generated_Source\PSoC4/cyfitter_cfg.c **** 			{0x24u, 0x12u},
 550:.\Generated_Source\PSoC4/cyfitter_cfg.c **** 			{0x26u, 0x10u},
 551:.\Generated_Source\PSoC4/cyfitter_cfg.c **** 			{0x27u, 0x50u},
ARM GAS  C:\Users\CHRIST~1\AppData\Local\Temp\ccvUArhA.s 			page 18


 552:.\Generated_Source\PSoC4/cyfitter_cfg.c **** 			{0x2Eu, 0x16u},
 553:.\Generated_Source\PSoC4/cyfitter_cfg.c **** 			{0x35u, 0x18u},
 554:.\Generated_Source\PSoC4/cyfitter_cfg.c **** 			{0x37u, 0x42u},
 555:.\Generated_Source\PSoC4/cyfitter_cfg.c **** 			{0x38u, 0x02u},
 556:.\Generated_Source\PSoC4/cyfitter_cfg.c **** 			{0x3Au, 0x10u},
 557:.\Generated_Source\PSoC4/cyfitter_cfg.c **** 			{0x3Cu, 0x10u},
 558:.\Generated_Source\PSoC4/cyfitter_cfg.c **** 			{0x3Eu, 0x08u},
 559:.\Generated_Source\PSoC4/cyfitter_cfg.c **** 			{0x3Fu, 0x80u},
 560:.\Generated_Source\PSoC4/cyfitter_cfg.c **** 			{0x4Au, 0x04u},
 561:.\Generated_Source\PSoC4/cyfitter_cfg.c **** 			{0x50u, 0x08u},
 562:.\Generated_Source\PSoC4/cyfitter_cfg.c **** 			{0x53u, 0x10u},
 563:.\Generated_Source\PSoC4/cyfitter_cfg.c **** 			{0x5Au, 0x01u},
 564:.\Generated_Source\PSoC4/cyfitter_cfg.c **** 			{0x5Eu, 0x20u},
 565:.\Generated_Source\PSoC4/cyfitter_cfg.c **** 			{0x60u, 0x04u},
 566:.\Generated_Source\PSoC4/cyfitter_cfg.c **** 			{0x61u, 0x40u},
 567:.\Generated_Source\PSoC4/cyfitter_cfg.c **** 			{0x6Cu, 0x14u},
 568:.\Generated_Source\PSoC4/cyfitter_cfg.c **** 			{0x6Fu, 0x01u},
 569:.\Generated_Source\PSoC4/cyfitter_cfg.c **** 			{0x75u, 0x08u},
 570:.\Generated_Source\PSoC4/cyfitter_cfg.c **** 			{0x76u, 0x0Au},
 571:.\Generated_Source\PSoC4/cyfitter_cfg.c **** 			{0x77u, 0x24u},
 572:.\Generated_Source\PSoC4/cyfitter_cfg.c **** 			{0x82u, 0x41u},
 573:.\Generated_Source\PSoC4/cyfitter_cfg.c **** 			{0x83u, 0x40u},
 574:.\Generated_Source\PSoC4/cyfitter_cfg.c **** 			{0x91u, 0x80u},
 575:.\Generated_Source\PSoC4/cyfitter_cfg.c **** 			{0x92u, 0x80u},
 576:.\Generated_Source\PSoC4/cyfitter_cfg.c **** 			{0x94u, 0x28u},
 577:.\Generated_Source\PSoC4/cyfitter_cfg.c **** 			{0x96u, 0x40u},
 578:.\Generated_Source\PSoC4/cyfitter_cfg.c **** 			{0x97u, 0x20u},
 579:.\Generated_Source\PSoC4/cyfitter_cfg.c **** 			{0x99u, 0x13u},
 580:.\Generated_Source\PSoC4/cyfitter_cfg.c **** 			{0x9Au, 0x10u},
 581:.\Generated_Source\PSoC4/cyfitter_cfg.c **** 			{0x9Bu, 0x02u},
 582:.\Generated_Source\PSoC4/cyfitter_cfg.c **** 			{0x9Du, 0x04u},
 583:.\Generated_Source\PSoC4/cyfitter_cfg.c **** 			{0x9Fu, 0x01u},
 584:.\Generated_Source\PSoC4/cyfitter_cfg.c **** 			{0xA0u, 0x80u},
 585:.\Generated_Source\PSoC4/cyfitter_cfg.c **** 			{0xA2u, 0x04u},
 586:.\Generated_Source\PSoC4/cyfitter_cfg.c **** 			{0xA5u, 0x08u},
 587:.\Generated_Source\PSoC4/cyfitter_cfg.c **** 			{0xA6u, 0x02u},
 588:.\Generated_Source\PSoC4/cyfitter_cfg.c **** 			{0xA7u, 0x60u},
 589:.\Generated_Source\PSoC4/cyfitter_cfg.c **** 			{0xB5u, 0x40u},
 590:.\Generated_Source\PSoC4/cyfitter_cfg.c **** 			{0xB6u, 0x10u},
 591:.\Generated_Source\PSoC4/cyfitter_cfg.c **** 			{0xC0u, 0xF9u},
 592:.\Generated_Source\PSoC4/cyfitter_cfg.c **** 			{0xC2u, 0xE0u},
 593:.\Generated_Source\PSoC4/cyfitter_cfg.c **** 			{0xC4u, 0xFAu},
 594:.\Generated_Source\PSoC4/cyfitter_cfg.c **** 			{0xCAu, 0xE0u},
 595:.\Generated_Source\PSoC4/cyfitter_cfg.c **** 			{0xCCu, 0xF0u},
 596:.\Generated_Source\PSoC4/cyfitter_cfg.c **** 			{0xCEu, 0x75u},
 597:.\Generated_Source\PSoC4/cyfitter_cfg.c **** 			{0xD2u, 0x04u},
 598:.\Generated_Source\PSoC4/cyfitter_cfg.c **** 			{0xD6u, 0x21u},
 599:.\Generated_Source\PSoC4/cyfitter_cfg.c **** 			{0xD8u, 0x0Cu},
 600:.\Generated_Source\PSoC4/cyfitter_cfg.c **** 			{0x0Au, 0x40u},
 601:.\Generated_Source\PSoC4/cyfitter_cfg.c **** 			{0x60u, 0x10u},
 602:.\Generated_Source\PSoC4/cyfitter_cfg.c **** 			{0x80u, 0x10u},
 603:.\Generated_Source\PSoC4/cyfitter_cfg.c **** 			{0x82u, 0x40u},
 604:.\Generated_Source\PSoC4/cyfitter_cfg.c **** 			{0xC2u, 0x10u},
 605:.\Generated_Source\PSoC4/cyfitter_cfg.c **** 			{0xD8u, 0x40u},
 606:.\Generated_Source\PSoC4/cyfitter_cfg.c **** 			{0xE0u, 0x20u},
 607:.\Generated_Source\PSoC4/cyfitter_cfg.c **** 			{0xE6u, 0x80u},
 608:.\Generated_Source\PSoC4/cyfitter_cfg.c **** 			{0x10u, 0x01u},
ARM GAS  C:\Users\CHRIST~1\AppData\Local\Temp\ccvUArhA.s 			page 19


 609:.\Generated_Source\PSoC4/cyfitter_cfg.c **** 			{0x11u, 0x01u},
 610:.\Generated_Source\PSoC4/cyfitter_cfg.c **** 		};
 611:.\Generated_Source\PSoC4/cyfitter_cfg.c **** 
 612:.\Generated_Source\PSoC4/cyfitter_cfg.c **** 
 613:.\Generated_Source\PSoC4/cyfitter_cfg.c **** 
 614:.\Generated_Source\PSoC4/cyfitter_cfg.c **** 		CYPACKED typedef struct {
 615:.\Generated_Source\PSoC4/cyfitter_cfg.c **** 			void CYFAR *address;
 616:.\Generated_Source\PSoC4/cyfitter_cfg.c **** 			uint16 size;
 617:.\Generated_Source\PSoC4/cyfitter_cfg.c **** 		} CYPACKED_ATTR cfg_memset_t;
 618:.\Generated_Source\PSoC4/cyfitter_cfg.c **** 
 619:.\Generated_Source\PSoC4/cyfitter_cfg.c **** 		static const cfg_memset_t CYCODE cfg_memset_list [] = {
 620:.\Generated_Source\PSoC4/cyfitter_cfg.c **** 			/* address, size */
 621:.\Generated_Source\PSoC4/cyfitter_cfg.c **** 			{(void CYFAR *)(CYDEV_UDB_P0_U0_BASE), 1024u},
 622:.\Generated_Source\PSoC4/cyfitter_cfg.c **** 			{(void CYFAR *)(CYDEV_UDB_DSI0_BASE), 1024u},
 623:.\Generated_Source\PSoC4/cyfitter_cfg.c **** 		};
 624:.\Generated_Source\PSoC4/cyfitter_cfg.c **** 
 625:.\Generated_Source\PSoC4/cyfitter_cfg.c **** 		uint8 CYDATA i;
 626:.\Generated_Source\PSoC4/cyfitter_cfg.c **** 
 627:.\Generated_Source\PSoC4/cyfitter_cfg.c **** 		/* Zero out critical memory blocks before beginning configuration */
 628:.\Generated_Source\PSoC4/cyfitter_cfg.c **** 		for (i = 0u; i < (sizeof(cfg_memset_list)/sizeof(cfg_memset_list[0])); i++)
 416              		.loc 1 628 0
 417 00e2 FB1D     		add	r3, r7, #7
 418 00e4 0022     		mov	r2, #0
 419 00e6 1A70     		strb	r2, [r3]
 420 00e8 23E0     		b	.L16
 421              	.L17:
 422              	.LBB4:
 629:.\Generated_Source\PSoC4/cyfitter_cfg.c **** 		{
 630:.\Generated_Source\PSoC4/cyfitter_cfg.c **** 			const cfg_memset_t CYCODE * CYDATA ms = &cfg_memset_list[i];
 423              		.loc 1 630 0 discriminator 2
 424 00ea FB1D     		add	r3, r7, #7
 425 00ec 1A78     		ldrb	r2, [r3]
 426 00ee 131C     		mov	r3, r2
 427 00f0 5B00     		lsl	r3, r3, #1
 428 00f2 9B18     		add	r3, r3, r2
 429 00f4 5B00     		lsl	r3, r3, #1
 430 00f6 3B4A     		ldr	r2, .L18+4
 431 00f8 9B18     		add	r3, r3, r2
 432 00fa 3B60     		str	r3, [r7]
 631:.\Generated_Source\PSoC4/cyfitter_cfg.c **** 			CYMEMZERO(ms->address, (size_t)(uint32)(ms->size));
 433              		.loc 1 631 0 discriminator 2
 434 00fc 3B68     		ldr	r3, [r7]
 435 00fe 1A78     		ldrb	r2, [r3]
 436 0100 5978     		ldrb	r1, [r3, #1]
 437 0102 0902     		lsl	r1, r1, #8
 438 0104 0A43     		orr	r2, r1
 439 0106 9978     		ldrb	r1, [r3, #2]
 440 0108 0904     		lsl	r1, r1, #16
 441 010a 0A43     		orr	r2, r1
 442 010c DB78     		ldrb	r3, [r3, #3]
 443 010e 1B06     		lsl	r3, r3, #24
 444 0110 1343     		orr	r3, r2
 445 0112 1A1C     		mov	r2, r3
 446 0114 3B68     		ldr	r3, [r7]
 447 0116 1979     		ldrb	r1, [r3, #4]
 448 0118 5B79     		ldrb	r3, [r3, #5]
 449 011a 1B02     		lsl	r3, r3, #8
ARM GAS  C:\Users\CHRIST~1\AppData\Local\Temp\ccvUArhA.s 			page 20


 450 011c 0B43     		orr	r3, r1
 451 011e 9BB2     		uxth	r3, r3
 452 0120 101C     		mov	r0, r2
 453 0122 191C     		mov	r1, r3
 454 0124 FFF7FEFF 		bl	CYMEMZERO
 455              	.LBE4:
 628:.\Generated_Source\PSoC4/cyfitter_cfg.c **** 		for (i = 0u; i < (sizeof(cfg_memset_list)/sizeof(cfg_memset_list[0])); i++)
 456              		.loc 1 628 0 discriminator 2
 457 0128 FB1D     		add	r3, r7, #7
 458 012a 1A78     		ldrb	r2, [r3]
 459 012c FB1D     		add	r3, r7, #7
 460 012e 0132     		add	r2, r2, #1
 461 0130 1A70     		strb	r2, [r3]
 462              	.L16:
 628:.\Generated_Source\PSoC4/cyfitter_cfg.c **** 		for (i = 0u; i < (sizeof(cfg_memset_list)/sizeof(cfg_memset_list[0])); i++)
 463              		.loc 1 628 0 is_stmt 0 discriminator 1
 464 0132 FB1D     		add	r3, r7, #7
 465 0134 1B78     		ldrb	r3, [r3]
 466 0136 012B     		cmp	r3, #1
 467 0138 D7D9     		bls	.L17
 632:.\Generated_Source\PSoC4/cyfitter_cfg.c **** 		}
 633:.\Generated_Source\PSoC4/cyfitter_cfg.c **** 
 634:.\Generated_Source\PSoC4/cyfitter_cfg.c **** 		cfg_write_bytes32(cy_cfg_addr_table, cy_cfg_data_table);
 468              		.loc 1 634 0 is_stmt 1
 469 013a 2B4A     		ldr	r2, .L18+8
 470 013c 2B4B     		ldr	r3, .L18+12
 471 013e 101C     		mov	r0, r2
 472 0140 191C     		mov	r1, r3
 473 0142 FFF7FEFF 		bl	cfg_write_bytes32
 635:.\Generated_Source\PSoC4/cyfitter_cfg.c **** 
 636:.\Generated_Source\PSoC4/cyfitter_cfg.c **** 		/* Perform normal device configuration. Order is not critical for these items. */
 637:.\Generated_Source\PSoC4/cyfitter_cfg.c **** 		CY_SET_XTND_REG16((void CYFAR *)(CYREG_UDB_BCTL0_DRV), 0x0100u);
 474              		.loc 1 637 0
 475 0146 2A4B     		ldr	r3, .L18+16
 476 0148 8022     		mov	r2, #128
 477 014a 5200     		lsl	r2, r2, #1
 478 014c 1A80     		strh	r2, [r3]
 638:.\Generated_Source\PSoC4/cyfitter_cfg.c **** 		CY_SET_XTND_REG8((void CYFAR *)(CYREG_UDB_BCTL0_DRV + 0x2u), 0x01u);
 479              		.loc 1 638 0
 480 014e 294B     		ldr	r3, .L18+20
 481 0150 0122     		mov	r2, #1
 482 0152 1A70     		strb	r2, [r3]
 639:.\Generated_Source\PSoC4/cyfitter_cfg.c **** 
 640:.\Generated_Source\PSoC4/cyfitter_cfg.c **** 		/* HSIOM Starting address: CYDEV_HSIOM_BASE */
 641:.\Generated_Source\PSoC4/cyfitter_cfg.c **** 		CY_SET_XTND_REG32((void CYFAR *)(CYDEV_HSIOM_BASE), 0xEE0000EEu);
 483              		.loc 1 641 0
 484 0154 284B     		ldr	r3, .L18+24
 485 0156 294A     		ldr	r2, .L18+28
 486 0158 1A60     		str	r2, [r3]
 642:.\Generated_Source\PSoC4/cyfitter_cfg.c **** 		CY_SET_XTND_REG32((void CYFAR *)(CYREG_HSIOM_PORT_SEL1), 0x00300000u);
 487              		.loc 1 642 0
 488 015a 294B     		ldr	r3, .L18+32
 489 015c C022     		mov	r2, #192
 490 015e 9203     		lsl	r2, r2, #14
 491 0160 1A60     		str	r2, [r3]
 643:.\Generated_Source\PSoC4/cyfitter_cfg.c **** 
 644:.\Generated_Source\PSoC4/cyfitter_cfg.c **** 		/* UDB_PA_0 Starting address: CYDEV_UDB_PA0_BASE */
ARM GAS  C:\Users\CHRIST~1\AppData\Local\Temp\ccvUArhA.s 			page 21


 645:.\Generated_Source\PSoC4/cyfitter_cfg.c **** 		CY_SET_XTND_REG32((void CYFAR *)(CYDEV_UDB_PA0_BASE), 0x00990000u);
 492              		.loc 1 645 0
 493 0162 284B     		ldr	r3, .L18+36
 494 0164 9922     		mov	r2, #153
 495 0166 1204     		lsl	r2, r2, #16
 496 0168 1A60     		str	r2, [r3]
 646:.\Generated_Source\PSoC4/cyfitter_cfg.c **** 
 647:.\Generated_Source\PSoC4/cyfitter_cfg.c **** 		/* UDB_PA_1 Starting address: CYDEV_UDB_PA1_BASE */
 648:.\Generated_Source\PSoC4/cyfitter_cfg.c **** 		CY_SET_XTND_REG32((void CYFAR *)(CYDEV_UDB_PA1_BASE), 0x00990004u);
 497              		.loc 1 648 0
 498 016a 274B     		ldr	r3, .L18+40
 499 016c 274A     		ldr	r2, .L18+44
 500 016e 1A60     		str	r2, [r3]
 649:.\Generated_Source\PSoC4/cyfitter_cfg.c **** 		CY_SET_XTND_REG32((void CYFAR *)(CYREG_UDB_PA1_CFG4), 0x02000000u);
 501              		.loc 1 649 0
 502 0170 274B     		ldr	r3, .L18+48
 503 0172 8022     		mov	r2, #128
 504 0174 9204     		lsl	r2, r2, #18
 505 0176 1A60     		str	r2, [r3]
 650:.\Generated_Source\PSoC4/cyfitter_cfg.c **** 		CY_SET_XTND_REG32((void CYFAR *)(CYREG_UDB_PA1_CFG8), 0x08000000u);
 506              		.loc 1 650 0
 507 0178 264B     		ldr	r3, .L18+52
 508 017a 8022     		mov	r2, #128
 509 017c 1205     		lsl	r2, r2, #20
 510 017e 1A60     		str	r2, [r3]
 651:.\Generated_Source\PSoC4/cyfitter_cfg.c **** 
 652:.\Generated_Source\PSoC4/cyfitter_cfg.c **** 		/* Enable digital routing */
 653:.\Generated_Source\PSoC4/cyfitter_cfg.c **** 		CY_SET_XTND_REG8((void *)CYREG_UDB_UDBIF_BANK_CTL, CY_GET_XTND_REG8((void *)CYREG_UDB_UDBIF_BANK_
 511              		.loc 1 653 0
 512 0180 254B     		ldr	r3, .L18+56
 513 0182 254A     		ldr	r2, .L18+56
 514 0184 1278     		ldrb	r2, [r2]
 515 0186 D2B2     		uxtb	r2, r2
 516 0188 0221     		mov	r1, #2
 517 018a 0A43     		orr	r2, r1
 518 018c D2B2     		uxtb	r2, r2
 519 018e 1A70     		strb	r2, [r3]
 654:.\Generated_Source\PSoC4/cyfitter_cfg.c **** 
 655:.\Generated_Source\PSoC4/cyfitter_cfg.c **** 		/* Enable UDB array */
 656:.\Generated_Source\PSoC4/cyfitter_cfg.c **** 		CY_SET_XTND_REG8((void *)CYREG_UDB_UDBIF_WAIT_CFG, (uint8)((CY_GET_XTND_REG8((void *)CYREG_UDB_UD
 520              		.loc 1 656 0
 521 0190 224B     		ldr	r3, .L18+60
 522 0192 224A     		ldr	r2, .L18+60
 523 0194 1278     		ldrb	r2, [r2]
 524 0196 D2B2     		uxtb	r2, r2
 525 0198 3C21     		mov	r1, #60
 526 019a 8A43     		bic	r2, r1
 527 019c D2B2     		uxtb	r2, r2
 528 019e 1421     		mov	r1, #20
 529 01a0 0A43     		orr	r2, r1
 530 01a2 D2B2     		uxtb	r2, r2
 531 01a4 1A70     		strb	r2, [r3]
 657:.\Generated_Source\PSoC4/cyfitter_cfg.c **** 		CY_SET_XTND_REG8((void *)CYREG_UDB_UDBIF_BANK_CTL, (uint8)(CY_GET_XTND_REG8((void *)CYREG_UDB_UDB
 532              		.loc 1 657 0
 533 01a6 1C4B     		ldr	r3, .L18+56
 534 01a8 1B4A     		ldr	r2, .L18+56
 535 01aa 1278     		ldrb	r2, [r2]
ARM GAS  C:\Users\CHRIST~1\AppData\Local\Temp\ccvUArhA.s 			page 22


 536 01ac D2B2     		uxtb	r2, r2
 537 01ae 1621     		mov	r1, #22
 538 01b0 0A43     		orr	r2, r1
 539 01b2 D2B2     		uxtb	r2, r2
 540 01b4 1A70     		strb	r2, [r3]
 541              	.LBE3:
 658:.\Generated_Source\PSoC4/cyfitter_cfg.c **** 	}
 659:.\Generated_Source\PSoC4/cyfitter_cfg.c **** 
 660:.\Generated_Source\PSoC4/cyfitter_cfg.c **** 	/* Perform second pass device configuration. These items must be configured in specific order afte
 661:.\Generated_Source\PSoC4/cyfitter_cfg.c **** 	/* IOPINS0_0 Starting address: CYDEV_GPIO_PRT0_DR */
 662:.\Generated_Source\PSoC4/cyfitter_cfg.c **** 	CY_SET_XTND_REG32((void CYFAR *)(CYREG_GPIO_PRT0_DR), 0x00000003u);
 542              		.loc 1 662 0
 543 01b6 1A4B     		ldr	r3, .L18+64
 544 01b8 0322     		mov	r2, #3
 545 01ba 1A60     		str	r2, [r3]
 663:.\Generated_Source\PSoC4/cyfitter_cfg.c **** 	CY_SET_XTND_REG32((void CYFAR *)(CYREG_GPIO_PRT0_PC), 0x00D80024u);
 546              		.loc 1 663 0
 547 01bc 194B     		ldr	r3, .L18+68
 548 01be 1A4A     		ldr	r2, .L18+72
 549 01c0 1A60     		str	r2, [r3]
 664:.\Generated_Source\PSoC4/cyfitter_cfg.c **** 
 665:.\Generated_Source\PSoC4/cyfitter_cfg.c **** 	/* IOPINS0_1 Starting address: CYDEV_GPIO_PRT1_DR */
 666:.\Generated_Source\PSoC4/cyfitter_cfg.c **** 	CY_SET_XTND_REG32((void CYFAR *)(CYREG_GPIO_PRT1_DR), 0x00000020u);
 550              		.loc 1 666 0
 551 01c2 1A4B     		ldr	r3, .L18+76
 552 01c4 2022     		mov	r2, #32
 553 01c6 1A60     		str	r2, [r3]
 667:.\Generated_Source\PSoC4/cyfitter_cfg.c **** 	CY_SET_XTND_REG32((void CYFAR *)(CYREG_GPIO_PRT1_PC), 0x00031000u);
 554              		.loc 1 667 0
 555 01c8 194B     		ldr	r3, .L18+80
 556 01ca C422     		mov	r2, #196
 557 01cc 9202     		lsl	r2, r2, #10
 558 01ce 1A60     		str	r2, [r3]
 668:.\Generated_Source\PSoC4/cyfitter_cfg.c **** 
 669:.\Generated_Source\PSoC4/cyfitter_cfg.c **** 	/* Setup clocks based on selections from Clock DWR */
 670:.\Generated_Source\PSoC4/cyfitter_cfg.c **** 	ClockSetup();
 559              		.loc 1 670 0
 560 01d0 FFF716FF 		bl	ClockSetup
 671:.\Generated_Source\PSoC4/cyfitter_cfg.c **** 
 672:.\Generated_Source\PSoC4/cyfitter_cfg.c **** 	/* Perform basic analog initialization to defaults */
 673:.\Generated_Source\PSoC4/cyfitter_cfg.c **** 	AnalogSetDefault();
 561              		.loc 1 673 0
 562 01d4 FFF7FEFF 		bl	AnalogSetDefault
 674:.\Generated_Source\PSoC4/cyfitter_cfg.c **** 
 675:.\Generated_Source\PSoC4/cyfitter_cfg.c **** }
 563              		.loc 1 675 0
 564 01d8 BD46     		mov	sp, r7
 565 01da 02B0     		add	sp, sp, #8
 566              		@ sp needed
 567 01dc 80BD     		pop	{r7, pc}
 568              	.L19:
 569 01de C046     		.align	2
 570              	.L18:
 571 01e0 6CF02E40 		.word	1076818028
 572 01e4 00000000 		.word	cfg_memset_list.4744
 573 01e8 0C000000 		.word	cy_cfg_addr_table.4738
 574 01ec 28000000 		.word	cy_cfg_data_table.4739
ARM GAS  C:\Users\CHRIST~1\AppData\Local\Temp\ccvUArhA.s 			page 23


 575 01f0 00600F40 		.word	1074749440
 576 01f4 02600F40 		.word	1074749442
 577 01f8 00000240 		.word	1073872896
 578 01fc EE0000EE 		.word	-301989650
 579 0200 00010240 		.word	1073873152
 580 0204 00500F40 		.word	1074745344
 581 0208 10500F40 		.word	1074745360
 582 020c 04009900 		.word	10027012
 583 0210 14500F40 		.word	1074745364
 584 0214 18500F40 		.word	1074745368
 585 0218 00700F40 		.word	1074753536
 586 021c 01700F40 		.word	1074753537
 587 0220 00000440 		.word	1074003968
 588 0224 08000440 		.word	1074003976
 589 0228 2400D800 		.word	14155812
 590 022c 00010440 		.word	1074004224
 591 0230 08010440 		.word	1074004232
 592              		.cfi_endproc
 593              	.LFE8:
 594              		.size	cyfitter_cfg, .-cyfitter_cfg
 595              		.section	.rodata
 596              		.align	2
 597              		.type	cfg_memset_list.4744, %object
 598              		.size	cfg_memset_list.4744, 12
 599              	cfg_memset_list.4744:
 600 0000 00300F40 		.word	1074737152
 601 0004 0004     		.short	1024
 602 0006 00400F40 		.4byte	1074741248
 603 000a 0004     		.short	1024
 604              		.align	2
 605              		.type	cy_cfg_addr_table.4738, %object
 606              		.size	cy_cfg_addr_table.4738, 28
 607              	cy_cfg_addr_table.4738:
 608 000c 03000F40 		.word	1074724867
 609 0010 62300F40 		.word	1074737250
 610 0014 36310F40 		.word	1074737462
 611 0018 51320F40 		.word	1074737745
 612 001c 45330F40 		.word	1074737989
 613 0020 08410F40 		.word	1074741512
 614 0024 02600F40 		.word	1074749442
 615              		.align	2
 616              		.type	cy_cfg_data_table.4739, %object
 617              		.size	cy_cfg_data_table.4739, 630
 618              	cy_cfg_data_table.4739:
 619 0028 80       		.byte	-128
 620 0029 0F       		.byte	15
 621 002a 82       		.byte	-126
 622 002b 72       		.byte	114
 623 002c 83       		.byte	-125
 624 002d 38       		.byte	56
 625 002e 04       		.byte	4
 626 002f 0A       		.byte	10
 627 0030 05       		.byte	5
 628 0031 30       		.byte	48
 629 0032 06       		.byte	6
 630 0033 E4       		.byte	-28
 631 0034 07       		.byte	7
ARM GAS  C:\Users\CHRIST~1\AppData\Local\Temp\ccvUArhA.s 			page 24


 632 0035 41       		.byte	65
 633 0036 09       		.byte	9
 634 0037 04       		.byte	4
 635 0038 0C       		.byte	12
 636 0039 23       		.byte	35
 637 003a 0D       		.byte	13
 638 003b 31       		.byte	49
 639 003c 0E       		.byte	14
 640 003d CC       		.byte	-52
 641 003e 0F       		.byte	15
 642 003f 46       		.byte	70
 643 0040 12       		.byte	18
 644 0041 18       		.byte	24
 645 0042 14       		.byte	20
 646 0043 80       		.byte	-128
 647 0044 15       		.byte	21
 648 0045 31       		.byte	49
 649 0046 16       		.byte	22
 650 0047 04       		.byte	4
 651 0048 17       		.byte	23
 652 0049 4A       		.byte	74
 653 004a 18       		.byte	24
 654 004b 87       		.byte	-121
 655 004c 1A       		.byte	26
 656 004d 30       		.byte	48
 657 004e 1B       		.byte	27
 658 004f 6F       		.byte	111
 659 0050 24       		.byte	36
 660 0051 05       		.byte	5
 661 0052 28       		.byte	40
 662 0053 24       		.byte	36
 663 0054 29       		.byte	41
 664 0055 1C       		.byte	28
 665 0056 2A       		.byte	42
 666 0057 43       		.byte	67
 667 0058 2B       		.byte	43
 668 0059 01       		.byte	1
 669 005a 30       		.byte	48
 670 005b 1F       		.byte	31
 671 005c 31       		.byte	49
 672 005d 0E       		.byte	14
 673 005e 33       		.byte	51
 674 005f 78       		.byte	120
 675 0060 34       		.byte	52
 676 0061 E0       		.byte	-32
 677 0062 35       		.byte	53
 678 0063 01       		.byte	1
 679 0064 3A       		.byte	58
 680 0065 20       		.byte	32
 681 0066 3B       		.byte	59
 682 0067 8A       		.byte	-118
 683 0068 3F       		.byte	63
 684 0069 10       		.byte	16
 685 006a 40       		.byte	64
 686 006b 64       		.byte	100
 687 006c 41       		.byte	65
 688 006d 05       		.byte	5
ARM GAS  C:\Users\CHRIST~1\AppData\Local\Temp\ccvUArhA.s 			page 25


 689 006e 45       		.byte	69
 690 006f EB       		.byte	-21
 691 0070 47       		.byte	71
 692 0071 0C       		.byte	12
 693 0072 48       		.byte	72
 694 0073 13       		.byte	19
 695 0074 49       		.byte	73
 696 0075 FF       		.byte	-1
 697 0076 4A       		.byte	74
 698 0077 FF       		.byte	-1
 699 0078 4B       		.byte	75
 700 0079 FF       		.byte	-1
 701 007a 4E       		.byte	78
 702 007b F0       		.byte	-16
 703 007c 4F       		.byte	79
 704 007d 44       		.byte	68
 705 007e 50       		.byte	80
 706 007f 0C       		.byte	12
 707 0080 54       		.byte	84
 708 0081 01       		.byte	1
 709 0082 58       		.byte	88
 710 0083 04       		.byte	4
 711 0084 59       		.byte	89
 712 0085 04       		.byte	4
 713 0086 5A       		.byte	90
 714 0087 04       		.byte	4
 715 0088 5B       		.byte	91
 716 0089 04       		.byte	4
 717 008a 5F       		.byte	95
 718 008b 01       		.byte	1
 719 008c 66       		.byte	102
 720 008d C0       		.byte	-64
 721 008e 6A       		.byte	106
 722 008f 40       		.byte	64
 723 0090 6B       		.byte	107
 724 0091 02       		.byte	2
 725 0092 80       		.byte	-128
 726 0093 44       		.byte	68
 727 0094 82       		.byte	-126
 728 0095 31       		.byte	49
 729 0096 84       		.byte	-124
 730 0097 E7       		.byte	-25
 731 0098 88       		.byte	-120
 732 0099 E7       		.byte	-25
 733 009a 8C       		.byte	-116
 734 009b 80       		.byte	-128
 735 009c 90       		.byte	-112
 736 009d 22       		.byte	34
 737 009e 92       		.byte	-110
 738 009f 51       		.byte	81
 739 00a0 94       		.byte	-108
 740 00a1 01       		.byte	1
 741 00a2 95       		.byte	-107
 742 00a3 03       		.byte	3
 743 00a4 96       		.byte	-106
 744 00a5 0E       		.byte	14
 745 00a6 9D       		.byte	-99
ARM GAS  C:\Users\CHRIST~1\AppData\Local\Temp\ccvUArhA.s 			page 26


 746 00a7 03       		.byte	3
 747 00a8 A7       		.byte	-89
 748 00a9 02       		.byte	2
 749 00aa A9       		.byte	-87
 750 00ab 01       		.byte	1
 751 00ac B0       		.byte	-80
 752 00ad 60       		.byte	96
 753 00ae B2       		.byte	-78
 754 00af 07       		.byte	7
 755 00b0 B3       		.byte	-77
 756 00b1 03       		.byte	3
 757 00b2 B4       		.byte	-76
 758 00b3 80       		.byte	-128
 759 00b4 B6       		.byte	-74
 760 00b5 18       		.byte	24
 761 00b6 B9       		.byte	-71
 762 00b7 08       		.byte	8
 763 00b8 BE       		.byte	-66
 764 00b9 40       		.byte	64
 765 00ba BF       		.byte	-65
 766 00bb 04       		.byte	4
 767 00bc C0       		.byte	-64
 768 00bd 32       		.byte	50
 769 00be C1       		.byte	-63
 770 00bf 04       		.byte	4
 771 00c0 C2       		.byte	-62
 772 00c1 05       		.byte	5
 773 00c2 C4       		.byte	-60
 774 00c3 01       		.byte	1
 775 00c4 C5       		.byte	-59
 776 00c5 C0       		.byte	-64
 777 00c6 C6       		.byte	-58
 778 00c7 E0       		.byte	-32
 779 00c8 C8       		.byte	-56
 780 00c9 0A       		.byte	10
 781 00ca C9       		.byte	-55
 782 00cb FF       		.byte	-1
 783 00cc CA       		.byte	-54
 784 00cd FF       		.byte	-1
 785 00ce CB       		.byte	-53
 786 00cf FF       		.byte	-1
 787 00d0 CC       		.byte	-52
 788 00d1 62       		.byte	98
 789 00d2 CD       		.byte	-51
 790 00d3 A0       		.byte	-96
 791 00d4 CE       		.byte	-50
 792 00d5 F0       		.byte	-16
 793 00d6 CF       		.byte	-49
 794 00d7 41       		.byte	65
 795 00d8 D0       		.byte	-48
 796 00d9 0C       		.byte	12
 797 00da D8       		.byte	-40
 798 00db 04       		.byte	4
 799 00dc D9       		.byte	-39
 800 00dd 04       		.byte	4
 801 00de DA       		.byte	-38
 802 00df 04       		.byte	4
ARM GAS  C:\Users\CHRIST~1\AppData\Local\Temp\ccvUArhA.s 			page 27


 803 00e0 DF       		.byte	-33
 804 00e1 01       		.byte	1
 805 00e2 E6       		.byte	-26
 806 00e3 40       		.byte	64
 807 00e4 E7       		.byte	-25
 808 00e5 02       		.byte	2
 809 00e6 E9       		.byte	-23
 810 00e7 10       		.byte	16
 811 00e8 EA       		.byte	-22
 812 00e9 30       		.byte	48
 813 00ea EB       		.byte	-21
 814 00eb 10       		.byte	16
 815 00ec ED       		.byte	-19
 816 00ed 10       		.byte	16
 817 00ee EE       		.byte	-18
 818 00ef 10       		.byte	16
 819 00f0 EF       		.byte	-17
 820 00f1 12       		.byte	18
 821 00f2 00       		.byte	0
 822 00f3 40       		.byte	64
 823 00f4 03       		.byte	3
 824 00f5 20       		.byte	32
 825 00f6 04       		.byte	4
 826 00f7 28       		.byte	40
 827 00f8 05       		.byte	5
 828 00f9 01       		.byte	1
 829 00fa 07       		.byte	7
 830 00fb 01       		.byte	1
 831 00fc 0A       		.byte	10
 832 00fd 84       		.byte	-124
 833 00fe 0B       		.byte	11
 834 00ff 20       		.byte	32
 835 0100 0E       		.byte	14
 836 0101 10       		.byte	16
 837 0102 0F       		.byte	15
 838 0103 80       		.byte	-128
 839 0104 10       		.byte	16
 840 0105 20       		.byte	32
 841 0106 12       		.byte	18
 842 0107 08       		.byte	8
 843 0108 19       		.byte	25
 844 0109 20       		.byte	32
 845 010a 1A       		.byte	26
 846 010b 84       		.byte	-124
 847 010c 1D       		.byte	29
 848 010d B1       		.byte	-79
 849 010e 1E       		.byte	30
 850 010f 10       		.byte	16
 851 0110 20       		.byte	32
 852 0111 48       		.byte	72
 853 0112 22       		.byte	34
 854 0113 08       		.byte	8
 855 0114 23       		.byte	35
 856 0115 C2       		.byte	-62
 857 0116 26       		.byte	38
 858 0117 04       		.byte	4
 859 0118 29       		.byte	41
ARM GAS  C:\Users\CHRIST~1\AppData\Local\Temp\ccvUArhA.s 			page 28


 860 0119 20       		.byte	32
 861 011a 2D       		.byte	45
 862 011b 20       		.byte	32
 863 011c 2F       		.byte	47
 864 011d 20       		.byte	32
 865 011e 32       		.byte	50
 866 011f 08       		.byte	8
 867 0120 33       		.byte	51
 868 0121 20       		.byte	32
 869 0122 36       		.byte	54
 870 0123 08       		.byte	8
 871 0124 37       		.byte	55
 872 0125 80       		.byte	-128
 873 0126 38       		.byte	56
 874 0127 40       		.byte	64
 875 0128 39       		.byte	57
 876 0129 08       		.byte	8
 877 012a 3B       		.byte	59
 878 012b 20       		.byte	32
 879 012c 40       		.byte	64
 880 012d 20       		.byte	32
 881 012e 41       		.byte	65
 882 012f 04       		.byte	4
 883 0130 42       		.byte	66
 884 0131 40       		.byte	64
 885 0132 45       		.byte	69
 886 0133 A8       		.byte	-88
 887 0134 47       		.byte	71
 888 0135 02       		.byte	2
 889 0136 48       		.byte	72
 890 0137 20       		.byte	32
 891 0138 49       		.byte	73
 892 0139 02       		.byte	2
 893 013a 4A       		.byte	74
 894 013b 08       		.byte	8
 895 013c 4B       		.byte	75
 896 013d 40       		.byte	64
 897 013e 4C       		.byte	76
 898 013f 80       		.byte	-128
 899 0140 4E       		.byte	78
 900 0141 02       		.byte	2
 901 0142 51       		.byte	81
 902 0143 04       		.byte	4
 903 0144 56       		.byte	86
 904 0145 10       		.byte	16
 905 0146 58       		.byte	88
 906 0147 A0       		.byte	-96
 907 0148 59       		.byte	89
 908 0149 06       		.byte	6
 909 014a 88       		.byte	-120
 910 014b 84       		.byte	-124
 911 014c C0       		.byte	-64
 912 014d F5       		.byte	-11
 913 014e C2       		.byte	-62
 914 014f 3E       		.byte	62
 915 0150 C4       		.byte	-60
 916 0151 06       		.byte	6
ARM GAS  C:\Users\CHRIST~1\AppData\Local\Temp\ccvUArhA.s 			page 29


 917 0152 CA       		.byte	-54
 918 0153 64       		.byte	100
 919 0154 CC       		.byte	-52
 920 0155 56       		.byte	86
 921 0156 CE       		.byte	-50
 922 0157 0E       		.byte	14
 923 0158 D0       		.byte	-48
 924 0159 F1       		.byte	-15
 925 015a D2       		.byte	-46
 926 015b 1C       		.byte	28
 927 015c D6       		.byte	-42
 928 015d 0F       		.byte	15
 929 015e 00       		.byte	0
 930 015f 82       		.byte	-126
 931 0160 04       		.byte	4
 932 0161 1C       		.byte	28
 933 0162 05       		.byte	5
 934 0163 08       		.byte	8
 935 0164 06       		.byte	6
 936 0165 E3       		.byte	-29
 937 0166 09       		.byte	9
 938 0167 3C       		.byte	60
 939 0168 0A       		.byte	10
 940 0169 F3       		.byte	-13
 941 016a 0B       		.byte	11
 942 016b 42       		.byte	66
 943 016c 0C       		.byte	12
 944 016d 41       		.byte	65
 945 016e 0D       		.byte	13
 946 016f 04       		.byte	4
 947 0170 0F       		.byte	15
 948 0171 80       		.byte	-128
 949 0172 11       		.byte	17
 950 0173 7F       		.byte	127
 951 0174 14       		.byte	20
 952 0175 F3       		.byte	-13
 953 0176 15       		.byte	21
 954 0177 18       		.byte	24
 955 0178 16       		.byte	22
 956 0179 0C       		.byte	12
 957 017a 18       		.byte	24
 958 017b 0F       		.byte	15
 959 017c 1A       		.byte	26
 960 017d F0       		.byte	-16
 961 017e 1B       		.byte	27
 962 017f 03       		.byte	3
 963 0180 1C       		.byte	28
 964 0181 C3       		.byte	-61
 965 0182 1F       		.byte	31
 966 0183 04       		.byte	4
 967 0184 20       		.byte	32
 968 0185 FF       		.byte	-1
 969 0186 21       		.byte	33
 970 0187 10       		.byte	16
 971 0188 24       		.byte	36
 972 0189 04       		.byte	4
 973 018a 25       		.byte	37
ARM GAS  C:\Users\CHRIST~1\AppData\Local\Temp\ccvUArhA.s 			page 30


 974 018b 3C       		.byte	60
 975 018c 27       		.byte	39
 976 018d 41       		.byte	65
 977 018e 28       		.byte	40
 978 018f 0C       		.byte	12
 979 0190 29       		.byte	41
 980 0191 67       		.byte	103
 981 0192 2B       		.byte	43
 982 0193 18       		.byte	24
 983 0194 2C       		.byte	44
 984 0195 08       		.byte	8
 985 0196 30       		.byte	48
 986 0197 1C       		.byte	28
 987 0198 31       		.byte	49
 988 0199 80       		.byte	-128
 989 019a 32       		.byte	50
 990 019b 0F       		.byte	15
 991 019c 33       		.byte	51
 992 019d 1F       		.byte	31
 993 019e 34       		.byte	52
 994 019f 2C       		.byte	44
 995 01a0 35       		.byte	53
 996 01a1 20       		.byte	32
 997 01a2 36       		.byte	54
 998 01a3 C0       		.byte	-64
 999 01a4 37       		.byte	55
 1000 01a5 40       		.byte	64
 1001 01a6 39       		.byte	57
 1002 01a7 80       		.byte	-128
 1003 01a8 3A       		.byte	58
 1004 01a9 28       		.byte	40
 1005 01aa 3B       		.byte	59
 1006 01ab 08       		.byte	8
 1007 01ac 3F       		.byte	63
 1008 01ad 10       		.byte	16
 1009 01ae 56       		.byte	86
 1010 01af 02       		.byte	2
 1011 01b0 57       		.byte	87
 1012 01b1 11       		.byte	17
 1013 01b2 58       		.byte	88
 1014 01b3 04       		.byte	4
 1015 01b4 59       		.byte	89
 1016 01b5 04       		.byte	4
 1017 01b6 5B       		.byte	91
 1018 01b7 04       		.byte	4
 1019 01b8 5F       		.byte	95
 1020 01b9 01       		.byte	1
 1021 01ba 80       		.byte	-128
 1022 01bb 04       		.byte	4
 1023 01bc 83       		.byte	-125
 1024 01bd 01       		.byte	1
 1025 01be 8B       		.byte	-117
 1026 01bf 01       		.byte	1
 1027 01c0 8E       		.byte	-114
 1028 01c1 01       		.byte	1
 1029 01c2 A2       		.byte	-94
 1030 01c3 01       		.byte	1
ARM GAS  C:\Users\CHRIST~1\AppData\Local\Temp\ccvUArhA.s 			page 31


 1031 01c4 A8       		.byte	-88
 1032 01c5 02       		.byte	2
 1033 01c6 B0       		.byte	-80
 1034 01c7 02       		.byte	2
 1035 01c8 B2       		.byte	-78
 1036 01c9 04       		.byte	4
 1037 01ca B4       		.byte	-76
 1038 01cb 02       		.byte	2
 1039 01cc B5       		.byte	-75
 1040 01cd 01       		.byte	1
 1041 01ce B6       		.byte	-74
 1042 01cf 01       		.byte	1
 1043 01d0 BE       		.byte	-66
 1044 01d1 45       		.byte	69
 1045 01d2 BF       		.byte	-65
 1046 01d3 10       		.byte	16
 1047 01d4 C0       		.byte	-64
 1048 01d5 06       		.byte	6
 1049 01d6 C6       		.byte	-58
 1050 01d7 50       		.byte	80
 1051 01d8 C7       		.byte	-57
 1052 01d9 01       		.byte	1
 1053 01da C8       		.byte	-56
 1054 01db 18       		.byte	24
 1055 01dc C9       		.byte	-55
 1056 01dd FF       		.byte	-1
 1057 01de CA       		.byte	-54
 1058 01df 07       		.byte	7
 1059 01e0 CB       		.byte	-53
 1060 01e1 FF       		.byte	-1
 1061 01e2 CC       		.byte	-52
 1062 01e3 40       		.byte	64
 1063 01e4 CD       		.byte	-51
 1064 01e5 20       		.byte	32
 1065 01e6 CE       		.byte	-50
 1066 01e7 F0       		.byte	-16
 1067 01e8 CF       		.byte	-49
 1068 01e9 05       		.byte	5
 1069 01ea D0       		.byte	-48
 1070 01eb 08       		.byte	8
 1071 01ec D4       		.byte	-44
 1072 01ed 18       		.byte	24
 1073 01ee D8       		.byte	-40
 1074 01ef 04       		.byte	4
 1075 01f0 D9       		.byte	-39
 1076 01f1 04       		.byte	4
 1077 01f2 DA       		.byte	-38
 1078 01f3 04       		.byte	4
 1079 01f4 DB       		.byte	-37
 1080 01f5 04       		.byte	4
 1081 01f6 DF       		.byte	-33
 1082 01f7 01       		.byte	1
 1083 01f8 E0       		.byte	-32
 1084 01f9 40       		.byte	64
 1085 01fa E1       		.byte	-31
 1086 01fb A8       		.byte	-88
 1087 01fc E2       		.byte	-30
ARM GAS  C:\Users\CHRIST~1\AppData\Local\Temp\ccvUArhA.s 			page 32


 1088 01fd 40       		.byte	64
 1089 01fe E3       		.byte	-29
 1090 01ff 20       		.byte	32
 1091 0200 00       		.byte	0
 1092 0201 40       		.byte	64
 1093 0202 01       		.byte	1
 1094 0203 02       		.byte	2
 1095 0204 02       		.byte	2
 1096 0205 02       		.byte	2
 1097 0206 05       		.byte	5
 1098 0207 11       		.byte	17
 1099 0208 06       		.byte	6
 1100 0209 01       		.byte	1
 1101 020a 07       		.byte	7
 1102 020b 10       		.byte	16
 1103 020c 0D       		.byte	13
 1104 020d 48       		.byte	72
 1105 020e 0E       		.byte	14
 1106 020f 04       		.byte	4
 1107 0210 10       		.byte	16
 1108 0211 88       		.byte	-120
 1109 0212 16       		.byte	22
 1110 0213 02       		.byte	2
 1111 0214 17       		.byte	23
 1112 0215 26       		.byte	38
 1113 0216 19       		.byte	25
 1114 0217 44       		.byte	68
 1115 0218 1A       		.byte	26
 1116 0219 40       		.byte	64
 1117 021a 1B       		.byte	27
 1118 021b 20       		.byte	32
 1119 021c 1C       		.byte	28
 1120 021d 40       		.byte	64
 1121 021e 1D       		.byte	29
 1122 021f 08       		.byte	8
 1123 0220 1E       		.byte	30
 1124 0221 15       		.byte	21
 1125 0222 20       		.byte	32
 1126 0223 04       		.byte	4
 1127 0224 24       		.byte	36
 1128 0225 12       		.byte	18
 1129 0226 26       		.byte	38
 1130 0227 10       		.byte	16
 1131 0228 27       		.byte	39
 1132 0229 50       		.byte	80
 1133 022a 2E       		.byte	46
 1134 022b 16       		.byte	22
 1135 022c 35       		.byte	53
 1136 022d 18       		.byte	24
 1137 022e 37       		.byte	55
 1138 022f 42       		.byte	66
 1139 0230 38       		.byte	56
 1140 0231 02       		.byte	2
 1141 0232 3A       		.byte	58
 1142 0233 10       		.byte	16
 1143 0234 3C       		.byte	60
 1144 0235 10       		.byte	16
ARM GAS  C:\Users\CHRIST~1\AppData\Local\Temp\ccvUArhA.s 			page 33


 1145 0236 3E       		.byte	62
 1146 0237 08       		.byte	8
 1147 0238 3F       		.byte	63
 1148 0239 80       		.byte	-128
 1149 023a 4A       		.byte	74
 1150 023b 04       		.byte	4
 1151 023c 50       		.byte	80
 1152 023d 08       		.byte	8
 1153 023e 53       		.byte	83
 1154 023f 10       		.byte	16
 1155 0240 5A       		.byte	90
 1156 0241 01       		.byte	1
 1157 0242 5E       		.byte	94
 1158 0243 20       		.byte	32
 1159 0244 60       		.byte	96
 1160 0245 04       		.byte	4
 1161 0246 61       		.byte	97
 1162 0247 40       		.byte	64
 1163 0248 6C       		.byte	108
 1164 0249 14       		.byte	20
 1165 024a 6F       		.byte	111
 1166 024b 01       		.byte	1
 1167 024c 75       		.byte	117
 1168 024d 08       		.byte	8
 1169 024e 76       		.byte	118
 1170 024f 0A       		.byte	10
 1171 0250 77       		.byte	119
 1172 0251 24       		.byte	36
 1173 0252 82       		.byte	-126
 1174 0253 41       		.byte	65
 1175 0254 83       		.byte	-125
 1176 0255 40       		.byte	64
 1177 0256 91       		.byte	-111
 1178 0257 80       		.byte	-128
 1179 0258 92       		.byte	-110
 1180 0259 80       		.byte	-128
 1181 025a 94       		.byte	-108
 1182 025b 28       		.byte	40
 1183 025c 96       		.byte	-106
 1184 025d 40       		.byte	64
 1185 025e 97       		.byte	-105
 1186 025f 20       		.byte	32
 1187 0260 99       		.byte	-103
 1188 0261 13       		.byte	19
 1189 0262 9A       		.byte	-102
 1190 0263 10       		.byte	16
 1191 0264 9B       		.byte	-101
 1192 0265 02       		.byte	2
 1193 0266 9D       		.byte	-99
 1194 0267 04       		.byte	4
 1195 0268 9F       		.byte	-97
 1196 0269 01       		.byte	1
 1197 026a A0       		.byte	-96
 1198 026b 80       		.byte	-128
 1199 026c A2       		.byte	-94
 1200 026d 04       		.byte	4
 1201 026e A5       		.byte	-91
ARM GAS  C:\Users\CHRIST~1\AppData\Local\Temp\ccvUArhA.s 			page 34


 1202 026f 08       		.byte	8
 1203 0270 A6       		.byte	-90
 1204 0271 02       		.byte	2
 1205 0272 A7       		.byte	-89
 1206 0273 60       		.byte	96
 1207 0274 B5       		.byte	-75
 1208 0275 40       		.byte	64
 1209 0276 B6       		.byte	-74
 1210 0277 10       		.byte	16
 1211 0278 C0       		.byte	-64
 1212 0279 F9       		.byte	-7
 1213 027a C2       		.byte	-62
 1214 027b E0       		.byte	-32
 1215 027c C4       		.byte	-60
 1216 027d FA       		.byte	-6
 1217 027e CA       		.byte	-54
 1218 027f E0       		.byte	-32
 1219 0280 CC       		.byte	-52
 1220 0281 F0       		.byte	-16
 1221 0282 CE       		.byte	-50
 1222 0283 75       		.byte	117
 1223 0284 D2       		.byte	-46
 1224 0285 04       		.byte	4
 1225 0286 D6       		.byte	-42
 1226 0287 21       		.byte	33
 1227 0288 D8       		.byte	-40
 1228 0289 0C       		.byte	12
 1229 028a 0A       		.byte	10
 1230 028b 40       		.byte	64
 1231 028c 60       		.byte	96
 1232 028d 10       		.byte	16
 1233 028e 80       		.byte	-128
 1234 028f 10       		.byte	16
 1235 0290 82       		.byte	-126
 1236 0291 40       		.byte	64
 1237 0292 C2       		.byte	-62
 1238 0293 10       		.byte	16
 1239 0294 D8       		.byte	-40
 1240 0295 40       		.byte	64
 1241 0296 E0       		.byte	-32
 1242 0297 20       		.byte	32
 1243 0298 E6       		.byte	-26
 1244 0299 80       		.byte	-128
 1245 029a 10       		.byte	16
 1246 029b 01       		.byte	1
 1247 029c 11       		.byte	17
 1248 029d 01       		.byte	1
 1249 029e 0000     		.text
 1250              	.Letext0:
 1251              		.file 2 "c:\\program files (x86)\\cypress\\psoc creator\\3.2\\psoc creator\\import\\gnu\\arm\\4.8.
 1252              		.file 3 ".\\Generated_Source\\PSoC4\\cytypes.h"