ARM GAS  C:\Users\Eric\AppData\Local\Temp\ccUEtfcp.s 			page 1


   1              		.cpu cortex-m0
   2              		.fpu softvfp
   3              		.eabi_attribute 20, 1
   4              		.eabi_attribute 21, 1
   5              		.eabi_attribute 23, 3
   6              		.eabi_attribute 24, 1
   7              		.eabi_attribute 25, 1
   8              		.eabi_attribute 26, 1
   9              		.eabi_attribute 30, 6
  10              		.eabi_attribute 34, 0
  11              		.eabi_attribute 18, 4
  12              		.code	16
  13              		.file	"main.c"
  14              		.text
  15              	.Ltext0:
  16              		.cfi_sections	.debug_frame
  17              		.comm	devAddr,1,1
  18              		.comm	buffer,22,4
  19              		.section	.text.I2CReadBytes,"ax",%progbits
  20              		.align	2
  21              		.global	I2CReadBytes
  22              		.code	16
  23              		.thumb_func
  24              		.type	I2CReadBytes, %function
  25              	I2CReadBytes:
  26              	.LFB33:
  27              		.file 1 ".\\main.c"
   1:.\main.c      **** /* ========================================
   2:.\main.c      ****  *
   3:.\main.c      ****  * Copyright YOUR COMPANY, THE YEAR
   4:.\main.c      ****  * All Rights Reserved
   5:.\main.c      ****  * UNPUBLISHED, LICENSED SOFTWARE.
   6:.\main.c      ****  *
   7:.\main.c      ****  * CONFIDENTIAL AND PROPRIETARY INFORMATION
   8:.\main.c      ****  * WHICH IS THE PROPERTY OF your company.
   9:.\main.c      ****  *
  10:.\main.c      ****  * ========================================
  11:.\main.c      **** */
  12:.\main.c      **** #include <project.h>
  13:.\main.c      **** #include <stdio.h>
  14:.\main.c      **** #include "mpu6050.h"
  15:.\main.c      **** 
  16:.\main.c      **** void I2CReadBytes(uint8_t devAddr, uint8_t regAddr, uint8_t length, uint8_t *value) {
  28              		.loc 1 16 0
  29              		.cfi_startproc
  30 0000 90B5     		push	{r4, r7, lr}
  31              		.cfi_def_cfa_offset 12
  32              		.cfi_offset 4, -12
  33              		.cfi_offset 7, -8
  34              		.cfi_offset 14, -4
  35 0002 85B0     		sub	sp, sp, #20
  36              		.cfi_def_cfa_offset 32
  37 0004 00AF     		add	r7, sp, #0
  38              		.cfi_def_cfa_register 7
  39 0006 3B60     		str	r3, [r7]
  40 0008 FB1D     		add	r3, r7, #7
  41 000a 1870     		strb	r0, [r3]
ARM GAS  C:\Users\Eric\AppData\Local\Temp\ccUEtfcp.s 			page 2


  42 000c BB1D     		add	r3, r7, #6
  43 000e 1970     		strb	r1, [r3]
  44 0010 7B1D     		add	r3, r7, #5
  45 0012 1A70     		strb	r2, [r3]
  17:.\main.c      **** 	uint8_t i=0;
  46              		.loc 1 17 0
  47 0014 3B1C     		mov	r3, r7
  48 0016 0F33     		add	r3, r3, #15
  49 0018 0022     		mov	r2, #0
  50 001a 1A70     		strb	r2, [r3]
  18:.\main.c      **** 	I2C_MPU6050_I2CMasterSendStart(devAddr, I2C_MPU6050_I2C_WRITE_XFER_MODE);
  51              		.loc 1 18 0
  52 001c FB1D     		add	r3, r7, #7
  53 001e 1B78     		ldrb	r3, [r3]
  54 0020 181C     		mov	r0, r3
  55 0022 0021     		mov	r1, #0
  56 0024 FFF7FEFF 		bl	I2C_MPU6050_I2CMasterSendStart
  19:.\main.c      **** 	I2C_MPU6050_I2CMasterWriteByte(regAddr);
  57              		.loc 1 19 0
  58 0028 BB1D     		add	r3, r7, #6
  59 002a 1B78     		ldrb	r3, [r3]
  60 002c 181C     		mov	r0, r3
  61 002e FFF7FEFF 		bl	I2C_MPU6050_I2CMasterWriteByte
  20:.\main.c      **** 	I2C_MPU6050_I2CMasterSendRestart(devAddr, I2C_MPU6050_I2C_READ_XFER_MODE);
  62              		.loc 1 20 0
  63 0032 FB1D     		add	r3, r7, #7
  64 0034 1B78     		ldrb	r3, [r3]
  65 0036 181C     		mov	r0, r3
  66 0038 0121     		mov	r1, #1
  67 003a FFF7FEFF 		bl	I2C_MPU6050_I2CMasterSendRestart
  21:.\main.c      **** 	while (i++ < (length-1)) {
  68              		.loc 1 21 0
  69 003e 08E0     		b	.L2
  70              	.L3:
  22:.\main.c      **** 		*value++ = I2C_MPU6050_I2CMasterReadByte(I2C_MPU6050_I2C_ACK_DATA);
  71              		.loc 1 22 0
  72 0040 3C68     		ldr	r4, [r7]
  73 0042 631C     		add	r3, r4, #1
  74 0044 3B60     		str	r3, [r7]
  75 0046 0020     		mov	r0, #0
  76 0048 FFF7FEFF 		bl	I2C_MPU6050_I2CMasterReadByte
  77 004c 031C     		mov	r3, r0
  78 004e DBB2     		uxtb	r3, r3
  79 0050 2370     		strb	r3, [r4]
  80              	.L2:
  21:.\main.c      **** 	while (i++ < (length-1)) {
  81              		.loc 1 21 0 discriminator 1
  82 0052 3B1C     		mov	r3, r7
  83 0054 0F33     		add	r3, r3, #15
  84 0056 1B78     		ldrb	r3, [r3]
  85 0058 3A1C     		mov	r2, r7
  86 005a 0F32     		add	r2, r2, #15
  87 005c 591C     		add	r1, r3, #1
  88 005e 1170     		strb	r1, [r2]
  89 0060 1A1C     		mov	r2, r3
  90 0062 7B1D     		add	r3, r7, #5
  91 0064 1B78     		ldrb	r3, [r3]
ARM GAS  C:\Users\Eric\AppData\Local\Temp\ccUEtfcp.s 			page 3


  92 0066 013B     		sub	r3, r3, #1
  93 0068 9A42     		cmp	r2, r3
  94 006a E9DB     		blt	.L3
  23:.\main.c      **** 	}
  24:.\main.c      **** 	*value = I2C_MPU6050_I2CMasterReadByte(I2C_MPU6050_I2C_NAK_DATA);
  95              		.loc 1 24 0
  96 006c 0120     		mov	r0, #1
  97 006e FFF7FEFF 		bl	I2C_MPU6050_I2CMasterReadByte
  98 0072 031C     		mov	r3, r0
  99 0074 DAB2     		uxtb	r2, r3
 100 0076 3B68     		ldr	r3, [r7]
 101 0078 1A70     		strb	r2, [r3]
  25:.\main.c      **** 	I2C_MPU6050_I2CMasterSendStop();	
 102              		.loc 1 25 0
 103 007a FFF7FEFF 		bl	I2C_MPU6050_I2CMasterSendStop
  26:.\main.c      **** }
 104              		.loc 1 26 0
 105 007e BD46     		mov	sp, r7
 106 0080 05B0     		add	sp, sp, #20
 107              		@ sp needed
 108 0082 90BD     		pop	{r4, r7, pc}
 109              		.cfi_endproc
 110              	.LFE33:
 111              		.size	I2CReadBytes, .-I2CReadBytes
 112              		.section	.text.I2CReadByte,"ax",%progbits
 113              		.align	2
 114              		.global	I2CReadByte
 115              		.code	16
 116              		.thumb_func
 117              		.type	I2CReadByte, %function
 118              	I2CReadByte:
 119              	.LFB34:
  27:.\main.c      **** 
  28:.\main.c      **** void I2CReadByte(uint8_t devAddr, uint8_t regAddr, uint8_t *value) {
 120              		.loc 1 28 0
 121              		.cfi_startproc
 122 0000 80B5     		push	{r7, lr}
 123              		.cfi_def_cfa_offset 8
 124              		.cfi_offset 7, -8
 125              		.cfi_offset 14, -4
 126 0002 82B0     		sub	sp, sp, #8
 127              		.cfi_def_cfa_offset 16
 128 0004 00AF     		add	r7, sp, #0
 129              		.cfi_def_cfa_register 7
 130 0006 3A60     		str	r2, [r7]
 131 0008 FB1D     		add	r3, r7, #7
 132 000a 021C     		add	r2, r0, #0
 133 000c 1A70     		strb	r2, [r3]
 134 000e BB1D     		add	r3, r7, #6
 135 0010 0A1C     		add	r2, r1, #0
 136 0012 1A70     		strb	r2, [r3]
  29:.\main.c      **** 	I2CReadBytes(devAddr, regAddr, 1, value);
 137              		.loc 1 29 0
 138 0014 FB1D     		add	r3, r7, #7
 139 0016 1978     		ldrb	r1, [r3]
 140 0018 BB1D     		add	r3, r7, #6
 141 001a 1A78     		ldrb	r2, [r3]
ARM GAS  C:\Users\Eric\AppData\Local\Temp\ccUEtfcp.s 			page 4


 142 001c 3B68     		ldr	r3, [r7]
 143 001e 081C     		mov	r0, r1
 144 0020 111C     		mov	r1, r2
 145 0022 0122     		mov	r2, #1
 146 0024 FFF7FEFF 		bl	I2CReadBytes
  30:.\main.c      **** }
 147              		.loc 1 30 0
 148 0028 BD46     		mov	sp, r7
 149 002a 02B0     		add	sp, sp, #8
 150              		@ sp needed
 151 002c 80BD     		pop	{r7, pc}
 152              		.cfi_endproc
 153              	.LFE34:
 154              		.size	I2CReadByte, .-I2CReadByte
 155 002e C046     		.section	.text.I2CReadBits,"ax",%progbits
 156              		.align	2
 157              		.global	I2CReadBits
 158              		.code	16
 159              		.thumb_func
 160              		.type	I2CReadBits, %function
 161              	I2CReadBits:
 162              	.LFB35:
  31:.\main.c      **** 
  32:.\main.c      **** void I2CReadBits(uint8_t devAddr, uint8_t regAddr, uint8_t bitStart, uint8_t length, uint8_t *value
 163              		.loc 1 32 0
 164              		.cfi_startproc
 165 0000 90B5     		push	{r4, r7, lr}
 166              		.cfi_def_cfa_offset 12
 167              		.cfi_offset 4, -12
 168              		.cfi_offset 7, -8
 169              		.cfi_offset 14, -4
 170 0002 85B0     		sub	sp, sp, #20
 171              		.cfi_def_cfa_offset 32
 172 0004 00AF     		add	r7, sp, #0
 173              		.cfi_def_cfa_register 7
 174 0006 041C     		mov	r4, r0
 175 0008 081C     		mov	r0, r1
 176 000a 111C     		mov	r1, r2
 177 000c 1A1C     		mov	r2, r3
 178 000e FB1D     		add	r3, r7, #7
 179 0010 1C70     		strb	r4, [r3]
 180 0012 BB1D     		add	r3, r7, #6
 181 0014 1870     		strb	r0, [r3]
 182 0016 7B1D     		add	r3, r7, #5
 183 0018 1970     		strb	r1, [r3]
 184 001a 3B1D     		add	r3, r7, #4
 185 001c 1A70     		strb	r2, [r3]
  33:.\main.c      ****    	uint8_t mask = ((1 << length) - 1) << (bitStart - length + 1);
 186              		.loc 1 33 0
 187 001e 3B1D     		add	r3, r7, #4
 188 0020 1B78     		ldrb	r3, [r3]
 189 0022 0122     		mov	r2, #1
 190 0024 111C     		mov	r1, r2
 191 0026 9940     		lsl	r1, r1, r3
 192 0028 0B1C     		mov	r3, r1
 193 002a 5A1E     		sub	r2, r3, #1
 194 002c 7B1D     		add	r3, r7, #5
ARM GAS  C:\Users\Eric\AppData\Local\Temp\ccUEtfcp.s 			page 5


 195 002e 1978     		ldrb	r1, [r3]
 196 0030 3B1D     		add	r3, r7, #4
 197 0032 1B78     		ldrb	r3, [r3]
 198 0034 CB1A     		sub	r3, r1, r3
 199 0036 0133     		add	r3, r3, #1
 200 0038 9A40     		lsl	r2, r2, r3
 201 003a 3B1C     		mov	r3, r7
 202 003c 0F33     		add	r3, r3, #15
 203 003e 1A70     		strb	r2, [r3]
  34:.\main.c      ****     I2CReadByte(devAddr, regAddr, value);
 204              		.loc 1 34 0
 205 0040 FB1D     		add	r3, r7, #7
 206 0042 1978     		ldrb	r1, [r3]
 207 0044 BB1D     		add	r3, r7, #6
 208 0046 1A78     		ldrb	r2, [r3]
 209 0048 3B6A     		ldr	r3, [r7, #32]
 210 004a 081C     		mov	r0, r1
 211 004c 111C     		mov	r1, r2
 212 004e 1A1C     		mov	r2, r3
 213 0050 FFF7FEFF 		bl	I2CReadByte
  35:.\main.c      ****     *value &= mask;
 214              		.loc 1 35 0
 215 0054 3B6A     		ldr	r3, [r7, #32]
 216 0056 1B78     		ldrb	r3, [r3]
 217 0058 3A1C     		mov	r2, r7
 218 005a 0F32     		add	r2, r2, #15
 219 005c 1278     		ldrb	r2, [r2]
 220 005e 1340     		and	r3, r2
 221 0060 DAB2     		uxtb	r2, r3
 222 0062 3B6A     		ldr	r3, [r7, #32]
 223 0064 1A70     		strb	r2, [r3]
  36:.\main.c      ****     *value >>= (bitStart - length + 1);
 224              		.loc 1 36 0
 225 0066 3B6A     		ldr	r3, [r7, #32]
 226 0068 1B78     		ldrb	r3, [r3]
 227 006a 1A1C     		mov	r2, r3
 228 006c 7B1D     		add	r3, r7, #5
 229 006e 1978     		ldrb	r1, [r3]
 230 0070 3B1D     		add	r3, r7, #4
 231 0072 1B78     		ldrb	r3, [r3]
 232 0074 CB1A     		sub	r3, r1, r3
 233 0076 0133     		add	r3, r3, #1
 234 0078 111C     		mov	r1, r2
 235 007a 1941     		asr	r1, r1, r3
 236 007c 0B1C     		mov	r3, r1
 237 007e DAB2     		uxtb	r2, r3
 238 0080 3B6A     		ldr	r3, [r7, #32]
 239 0082 1A70     		strb	r2, [r3]
  37:.\main.c      **** }
 240              		.loc 1 37 0
 241 0084 BD46     		mov	sp, r7
 242 0086 05B0     		add	sp, sp, #20
 243              		@ sp needed
 244 0088 90BD     		pop	{r4, r7, pc}
 245              		.cfi_endproc
 246              	.LFE35:
 247              		.size	I2CReadBits, .-I2CReadBits
ARM GAS  C:\Users\Eric\AppData\Local\Temp\ccUEtfcp.s 			page 6


 248 008a C046     		.section	.text.I2CReadBit,"ax",%progbits
 249              		.align	2
 250              		.global	I2CReadBit
 251              		.code	16
 252              		.thumb_func
 253              		.type	I2CReadBit, %function
 254              	I2CReadBit:
 255              	.LFB36:
  38:.\main.c      **** 
  39:.\main.c      **** void I2CReadBit(uint8_t devAddr, uint8_t regAddr, uint8_t bitNum, uint8_t *value) {
 256              		.loc 1 39 0
 257              		.cfi_startproc
 258 0000 80B5     		push	{r7, lr}
 259              		.cfi_def_cfa_offset 8
 260              		.cfi_offset 7, -8
 261              		.cfi_offset 14, -4
 262 0002 82B0     		sub	sp, sp, #8
 263              		.cfi_def_cfa_offset 16
 264 0004 00AF     		add	r7, sp, #0
 265              		.cfi_def_cfa_register 7
 266 0006 3B60     		str	r3, [r7]
 267 0008 FB1D     		add	r3, r7, #7
 268 000a 1870     		strb	r0, [r3]
 269 000c BB1D     		add	r3, r7, #6
 270 000e 1970     		strb	r1, [r3]
 271 0010 7B1D     		add	r3, r7, #5
 272 0012 1A70     		strb	r2, [r3]
  40:.\main.c      **** 	I2CReadByte(devAddr, regAddr, value);
 273              		.loc 1 40 0
 274 0014 FB1D     		add	r3, r7, #7
 275 0016 1978     		ldrb	r1, [r3]
 276 0018 BB1D     		add	r3, r7, #6
 277 001a 1A78     		ldrb	r2, [r3]
 278 001c 3B68     		ldr	r3, [r7]
 279 001e 081C     		mov	r0, r1
 280 0020 111C     		mov	r1, r2
 281 0022 1A1C     		mov	r2, r3
 282 0024 FFF7FEFF 		bl	I2CReadByte
  41:.\main.c      **** 	*value = *value & (1 << bitNum);
 283              		.loc 1 41 0
 284 0028 3B68     		ldr	r3, [r7]
 285 002a 1B78     		ldrb	r3, [r3]
 286 002c DBB2     		uxtb	r3, r3
 287 002e 7A1D     		add	r2, r7, #5
 288 0030 1278     		ldrb	r2, [r2]
 289 0032 0121     		mov	r1, #1
 290 0034 081C     		mov	r0, r1
 291 0036 9040     		lsl	r0, r0, r2
 292 0038 021C     		mov	r2, r0
 293 003a D2B2     		uxtb	r2, r2
 294 003c 1340     		and	r3, r2
 295 003e DBB2     		uxtb	r3, r3
 296 0040 DAB2     		uxtb	r2, r3
 297 0042 3B68     		ldr	r3, [r7]
 298 0044 1A70     		strb	r2, [r3]
  42:.\main.c      **** }
 299              		.loc 1 42 0
ARM GAS  C:\Users\Eric\AppData\Local\Temp\ccUEtfcp.s 			page 7


 300 0046 BD46     		mov	sp, r7
 301 0048 02B0     		add	sp, sp, #8
 302              		@ sp needed
 303 004a 80BD     		pop	{r7, pc}
 304              		.cfi_endproc
 305              	.LFE36:
 306              		.size	I2CReadBit, .-I2CReadBit
 307              		.section	.text.I2CWriteBytes,"ax",%progbits
 308              		.align	2
 309              		.global	I2CWriteBytes
 310              		.code	16
 311              		.thumb_func
 312              		.type	I2CWriteBytes, %function
 313              	I2CWriteBytes:
 314              	.LFB37:
  43:.\main.c      **** 	
  44:.\main.c      **** void I2CWriteBytes(uint8_t devAddr, uint8_t regAddr, uint8_t length, uint8_t *value) {
 315              		.loc 1 44 0
 316              		.cfi_startproc
 317 0000 80B5     		push	{r7, lr}
 318              		.cfi_def_cfa_offset 8
 319              		.cfi_offset 7, -8
 320              		.cfi_offset 14, -4
 321 0002 84B0     		sub	sp, sp, #16
 322              		.cfi_def_cfa_offset 24
 323 0004 00AF     		add	r7, sp, #0
 324              		.cfi_def_cfa_register 7
 325 0006 3B60     		str	r3, [r7]
 326 0008 FB1D     		add	r3, r7, #7
 327 000a 1870     		strb	r0, [r3]
 328 000c BB1D     		add	r3, r7, #6
 329 000e 1970     		strb	r1, [r3]
 330 0010 7B1D     		add	r3, r7, #5
 331 0012 1A70     		strb	r2, [r3]
  45:.\main.c      **** 	uint8_t i=0;
 332              		.loc 1 45 0
 333 0014 3B1C     		mov	r3, r7
 334 0016 0F33     		add	r3, r3, #15
 335 0018 0022     		mov	r2, #0
 336 001a 1A70     		strb	r2, [r3]
  46:.\main.c      **** 	I2C_MPU6050_I2CMasterSendStart(devAddr, I2C_MPU6050_I2C_WRITE_XFER_MODE);
 337              		.loc 1 46 0
 338 001c FB1D     		add	r3, r7, #7
 339 001e 1B78     		ldrb	r3, [r3]
 340 0020 181C     		mov	r0, r3
 341 0022 0021     		mov	r1, #0
 342 0024 FFF7FEFF 		bl	I2C_MPU6050_I2CMasterSendStart
  47:.\main.c      **** 	I2C_MPU6050_I2CMasterWriteByte(regAddr);
 343              		.loc 1 47 0
 344 0028 BB1D     		add	r3, r7, #6
 345 002a 1B78     		ldrb	r3, [r3]
 346 002c 181C     		mov	r0, r3
 347 002e FFF7FEFF 		bl	I2C_MPU6050_I2CMasterWriteByte
  48:.\main.c      **** 	while (i++ < length) {
 348              		.loc 1 48 0
 349 0032 06E0     		b	.L8
 350              	.L9:
ARM GAS  C:\Users\Eric\AppData\Local\Temp\ccUEtfcp.s 			page 8


  49:.\main.c      **** 		I2C_MPU6050_I2CMasterWriteByte(*value++);
 351              		.loc 1 49 0
 352 0034 3B68     		ldr	r3, [r7]
 353 0036 5A1C     		add	r2, r3, #1
 354 0038 3A60     		str	r2, [r7]
 355 003a 1B78     		ldrb	r3, [r3]
 356 003c 181C     		mov	r0, r3
 357 003e FFF7FEFF 		bl	I2C_MPU6050_I2CMasterWriteByte
 358              	.L8:
  48:.\main.c      **** 	while (i++ < length) {
 359              		.loc 1 48 0 discriminator 1
 360 0042 3B1C     		mov	r3, r7
 361 0044 0F33     		add	r3, r3, #15
 362 0046 1B78     		ldrb	r3, [r3]
 363 0048 3A1C     		mov	r2, r7
 364 004a 0F32     		add	r2, r2, #15
 365 004c 591C     		add	r1, r3, #1
 366 004e 1170     		strb	r1, [r2]
 367 0050 7A1D     		add	r2, r7, #5
 368 0052 1278     		ldrb	r2, [r2]
 369 0054 9A42     		cmp	r2, r3
 370 0056 EDD8     		bhi	.L9
  50:.\main.c      **** 	}
  51:.\main.c      **** 	I2C_MPU6050_I2CMasterSendStop();	
 371              		.loc 1 51 0
 372 0058 FFF7FEFF 		bl	I2C_MPU6050_I2CMasterSendStop
  52:.\main.c      **** }
 373              		.loc 1 52 0
 374 005c BD46     		mov	sp, r7
 375 005e 04B0     		add	sp, sp, #16
 376              		@ sp needed
 377 0060 80BD     		pop	{r7, pc}
 378              		.cfi_endproc
 379              	.LFE37:
 380              		.size	I2CWriteBytes, .-I2CWriteBytes
 381 0062 C046     		.section	.text.I2CWriteByte,"ax",%progbits
 382              		.align	2
 383              		.global	I2CWriteByte
 384              		.code	16
 385              		.thumb_func
 386              		.type	I2CWriteByte, %function
 387              	I2CWriteByte:
 388              	.LFB38:
  53:.\main.c      **** 
  54:.\main.c      **** void I2CWriteByte(uint8_t devAddr, uint8_t regAddr, uint8_t value) {
 389              		.loc 1 54 0
 390              		.cfi_startproc
 391 0000 80B5     		push	{r7, lr}
 392              		.cfi_def_cfa_offset 8
 393              		.cfi_offset 7, -8
 394              		.cfi_offset 14, -4
 395 0002 82B0     		sub	sp, sp, #8
 396              		.cfi_def_cfa_offset 16
 397 0004 00AF     		add	r7, sp, #0
 398              		.cfi_def_cfa_register 7
 399 0006 FB1D     		add	r3, r7, #7
 400 0008 1870     		strb	r0, [r3]
ARM GAS  C:\Users\Eric\AppData\Local\Temp\ccUEtfcp.s 			page 9


 401 000a BB1D     		add	r3, r7, #6
 402 000c 1970     		strb	r1, [r3]
 403 000e 7B1D     		add	r3, r7, #5
 404 0010 1A70     		strb	r2, [r3]
  55:.\main.c      **** 	I2CWriteBytes(devAddr, regAddr, 1, &value);
 405              		.loc 1 55 0
 406 0012 FB1D     		add	r3, r7, #7
 407 0014 1978     		ldrb	r1, [r3]
 408 0016 BB1D     		add	r3, r7, #6
 409 0018 1A78     		ldrb	r2, [r3]
 410 001a 7B1D     		add	r3, r7, #5
 411 001c 081C     		mov	r0, r1
 412 001e 111C     		mov	r1, r2
 413 0020 0122     		mov	r2, #1
 414 0022 FFF7FEFF 		bl	I2CWriteBytes
  56:.\main.c      **** }
 415              		.loc 1 56 0
 416 0026 BD46     		mov	sp, r7
 417 0028 02B0     		add	sp, sp, #8
 418              		@ sp needed
 419 002a 80BD     		pop	{r7, pc}
 420              		.cfi_endproc
 421              	.LFE38:
 422              		.size	I2CWriteByte, .-I2CWriteByte
 423              		.section	.text.I2CWriteBits,"ax",%progbits
 424              		.align	2
 425              		.global	I2CWriteBits
 426              		.code	16
 427              		.thumb_func
 428              		.type	I2CWriteBits, %function
 429              	I2CWriteBits:
 430              	.LFB39:
  57:.\main.c      **** 
  58:.\main.c      **** void I2CWriteBits(uint8_t devAddr, uint8_t regAddr, uint8_t bitStart, uint8_t length, uint8_t value
 431              		.loc 1 58 0
 432              		.cfi_startproc
 433 0000 90B5     		push	{r4, r7, lr}
 434              		.cfi_def_cfa_offset 12
 435              		.cfi_offset 4, -12
 436              		.cfi_offset 7, -8
 437              		.cfi_offset 14, -4
 438 0002 85B0     		sub	sp, sp, #20
 439              		.cfi_def_cfa_offset 32
 440 0004 00AF     		add	r7, sp, #0
 441              		.cfi_def_cfa_register 7
 442 0006 041C     		mov	r4, r0
 443 0008 081C     		mov	r0, r1
 444 000a 111C     		mov	r1, r2
 445 000c 1A1C     		mov	r2, r3
 446 000e FB1D     		add	r3, r7, #7
 447 0010 1C70     		strb	r4, [r3]
 448 0012 BB1D     		add	r3, r7, #6
 449 0014 1870     		strb	r0, [r3]
 450 0016 7B1D     		add	r3, r7, #5
 451 0018 1970     		strb	r1, [r3]
 452 001a 3B1D     		add	r3, r7, #4
 453 001c 1A70     		strb	r2, [r3]
ARM GAS  C:\Users\Eric\AppData\Local\Temp\ccUEtfcp.s 			page 10


  59:.\main.c      **** 	uint8_t b;
  60:.\main.c      **** 	uint8_t mask = ((1 << length) - 1) << (bitStart - length + 1);
 454              		.loc 1 60 0
 455 001e 3B1D     		add	r3, r7, #4
 456 0020 1B78     		ldrb	r3, [r3]
 457 0022 0122     		mov	r2, #1
 458 0024 111C     		mov	r1, r2
 459 0026 9940     		lsl	r1, r1, r3
 460 0028 0B1C     		mov	r3, r1
 461 002a 5A1E     		sub	r2, r3, #1
 462 002c 7B1D     		add	r3, r7, #5
 463 002e 1978     		ldrb	r1, [r3]
 464 0030 3B1D     		add	r3, r7, #4
 465 0032 1B78     		ldrb	r3, [r3]
 466 0034 CB1A     		sub	r3, r1, r3
 467 0036 0133     		add	r3, r3, #1
 468 0038 9A40     		lsl	r2, r2, r3
 469 003a 3B1C     		mov	r3, r7
 470 003c 0F33     		add	r3, r3, #15
 471 003e 1A70     		strb	r2, [r3]
  61:.\main.c      **** 	I2CReadByte(devAddr, regAddr, &b);
 472              		.loc 1 61 0
 473 0040 FB1D     		add	r3, r7, #7
 474 0042 1978     		ldrb	r1, [r3]
 475 0044 BB1D     		add	r3, r7, #6
 476 0046 1A78     		ldrb	r2, [r3]
 477 0048 3B1C     		mov	r3, r7
 478 004a 0E33     		add	r3, r3, #14
 479 004c 081C     		mov	r0, r1
 480 004e 111C     		mov	r1, r2
 481 0050 1A1C     		mov	r2, r3
 482 0052 FFF7FEFF 		bl	I2CReadByte
  62:.\main.c      **** 	value <<= (bitStart - length + 1);
 483              		.loc 1 62 0
 484 0056 3B1C     		mov	r3, r7
 485 0058 2033     		add	r3, r3, #32
 486 005a 1A78     		ldrb	r2, [r3]
 487 005c 7B1D     		add	r3, r7, #5
 488 005e 1978     		ldrb	r1, [r3]
 489 0060 3B1D     		add	r3, r7, #4
 490 0062 1B78     		ldrb	r3, [r3]
 491 0064 CB1A     		sub	r3, r1, r3
 492 0066 0133     		add	r3, r3, #1
 493 0068 9A40     		lsl	r2, r2, r3
 494 006a 3B1C     		mov	r3, r7
 495 006c 2033     		add	r3, r3, #32
 496 006e 1A70     		strb	r2, [r3]
  63:.\main.c      **** 	value &= mask;
 497              		.loc 1 63 0
 498 0070 3B1C     		mov	r3, r7
 499 0072 2033     		add	r3, r3, #32
 500 0074 3A1C     		mov	r2, r7
 501 0076 2032     		add	r2, r2, #32
 502 0078 391C     		mov	r1, r7
 503 007a 0F31     		add	r1, r1, #15
 504 007c 1278     		ldrb	r2, [r2]
 505 007e 0978     		ldrb	r1, [r1]
ARM GAS  C:\Users\Eric\AppData\Local\Temp\ccUEtfcp.s 			page 11


 506 0080 0A40     		and	r2, r1
 507 0082 1A70     		strb	r2, [r3]
  64:.\main.c      **** 	b &= ~(mask);
 508              		.loc 1 64 0
 509 0084 3B1C     		mov	r3, r7
 510 0086 0F33     		add	r3, r3, #15
 511 0088 1B78     		ldrb	r3, [r3]
 512 008a DB43     		mvn	r3, r3
 513 008c DBB2     		uxtb	r3, r3
 514 008e 3A1C     		mov	r2, r7
 515 0090 0E32     		add	r2, r2, #14
 516 0092 1278     		ldrb	r2, [r2]
 517 0094 D2B2     		uxtb	r2, r2
 518 0096 1340     		and	r3, r2
 519 0098 DBB2     		uxtb	r3, r3
 520 009a DAB2     		uxtb	r2, r3
 521 009c 3B1C     		mov	r3, r7
 522 009e 0E33     		add	r3, r3, #14
 523 00a0 1A70     		strb	r2, [r3]
  65:.\main.c      **** 	b |= value;
 524              		.loc 1 65 0
 525 00a2 3B1C     		mov	r3, r7
 526 00a4 0E33     		add	r3, r3, #14
 527 00a6 1A78     		ldrb	r2, [r3]
 528 00a8 3B1C     		mov	r3, r7
 529 00aa 2033     		add	r3, r3, #32
 530 00ac 1B78     		ldrb	r3, [r3]
 531 00ae 1343     		orr	r3, r2
 532 00b0 DAB2     		uxtb	r2, r3
 533 00b2 3B1C     		mov	r3, r7
 534 00b4 0E33     		add	r3, r3, #14
 535 00b6 1A70     		strb	r2, [r3]
  66:.\main.c      **** 	I2CWriteByte(devAddr, regAddr, b);	
 536              		.loc 1 66 0
 537 00b8 3B1C     		mov	r3, r7
 538 00ba 0E33     		add	r3, r3, #14
 539 00bc 1B78     		ldrb	r3, [r3]
 540 00be FA1D     		add	r2, r7, #7
 541 00c0 1178     		ldrb	r1, [r2]
 542 00c2 BA1D     		add	r2, r7, #6
 543 00c4 1278     		ldrb	r2, [r2]
 544 00c6 081C     		mov	r0, r1
 545 00c8 111C     		mov	r1, r2
 546 00ca 1A1C     		mov	r2, r3
 547 00cc FFF7FEFF 		bl	I2CWriteByte
  67:.\main.c      **** }
 548              		.loc 1 67 0
 549 00d0 BD46     		mov	sp, r7
 550 00d2 05B0     		add	sp, sp, #20
 551              		@ sp needed
 552 00d4 90BD     		pop	{r4, r7, pc}
 553              		.cfi_endproc
 554              	.LFE39:
 555              		.size	I2CWriteBits, .-I2CWriteBits
 556 00d6 C046     		.section	.text.I2CWriteBit,"ax",%progbits
 557              		.align	2
 558              		.global	I2CWriteBit
ARM GAS  C:\Users\Eric\AppData\Local\Temp\ccUEtfcp.s 			page 12


 559              		.code	16
 560              		.thumb_func
 561              		.type	I2CWriteBit, %function
 562              	I2CWriteBit:
 563              	.LFB40:
  68:.\main.c      **** 
  69:.\main.c      **** void I2CWriteBit(uint8_t devAddr, uint8_t regAddr, uint8_t bitNum, uint8_t value) {
 564              		.loc 1 69 0
 565              		.cfi_startproc
 566 0000 90B5     		push	{r4, r7, lr}
 567              		.cfi_def_cfa_offset 12
 568              		.cfi_offset 4, -12
 569              		.cfi_offset 7, -8
 570              		.cfi_offset 14, -4
 571 0002 85B0     		sub	sp, sp, #20
 572              		.cfi_def_cfa_offset 32
 573 0004 00AF     		add	r7, sp, #0
 574              		.cfi_def_cfa_register 7
 575 0006 041C     		mov	r4, r0
 576 0008 081C     		mov	r0, r1
 577 000a 111C     		mov	r1, r2
 578 000c 1A1C     		mov	r2, r3
 579 000e FB1D     		add	r3, r7, #7
 580 0010 1C70     		strb	r4, [r3]
 581 0012 BB1D     		add	r3, r7, #6
 582 0014 1870     		strb	r0, [r3]
 583 0016 7B1D     		add	r3, r7, #5
 584 0018 1970     		strb	r1, [r3]
 585 001a 3B1D     		add	r3, r7, #4
 586 001c 1A70     		strb	r2, [r3]
  70:.\main.c      **** 	uint8_t b;
  71:.\main.c      **** 	I2CReadByte(devAddr, regAddr, &b);
 587              		.loc 1 71 0
 588 001e FB1D     		add	r3, r7, #7
 589 0020 1978     		ldrb	r1, [r3]
 590 0022 BB1D     		add	r3, r7, #6
 591 0024 1A78     		ldrb	r2, [r3]
 592 0026 3B1C     		mov	r3, r7
 593 0028 0F33     		add	r3, r3, #15
 594 002a 081C     		mov	r0, r1
 595 002c 111C     		mov	r1, r2
 596 002e 1A1C     		mov	r2, r3
 597 0030 FFF7FEFF 		bl	I2CReadByte
  72:.\main.c      **** 	b = (value != 0) ? (b | (1 << bitNum)) : (b & ~(1 << bitNum));
 598              		.loc 1 72 0
 599 0034 3B1D     		add	r3, r7, #4
 600 0036 1B78     		ldrb	r3, [r3]
 601 0038 002B     		cmp	r3, #0
 602 003a 0ED0     		beq	.L13
 603              		.loc 1 72 0 is_stmt 0 discriminator 1
 604 003c 7B1D     		add	r3, r7, #5
 605 003e 1B78     		ldrb	r3, [r3]
 606 0040 0122     		mov	r2, #1
 607 0042 111C     		mov	r1, r2
 608 0044 9940     		lsl	r1, r1, r3
 609 0046 0B1C     		mov	r3, r1
 610 0048 DAB2     		uxtb	r2, r3
ARM GAS  C:\Users\Eric\AppData\Local\Temp\ccUEtfcp.s 			page 13


 611 004a 3B1C     		mov	r3, r7
 612 004c 0F33     		add	r3, r3, #15
 613 004e 1B78     		ldrb	r3, [r3]
 614 0050 DBB2     		uxtb	r3, r3
 615 0052 1343     		orr	r3, r2
 616 0054 DBB2     		uxtb	r3, r3
 617 0056 DBB2     		uxtb	r3, r3
 618 0058 0FE0     		b	.L14
 619              	.L13:
 620              		.loc 1 72 0 discriminator 2
 621 005a 7B1D     		add	r3, r7, #5
 622 005c 1B78     		ldrb	r3, [r3]
 623 005e 0122     		mov	r2, #1
 624 0060 111C     		mov	r1, r2
 625 0062 9940     		lsl	r1, r1, r3
 626 0064 0B1C     		mov	r3, r1
 627 0066 DBB2     		uxtb	r3, r3
 628 0068 DB43     		mvn	r3, r3
 629 006a DBB2     		uxtb	r3, r3
 630 006c 3A1C     		mov	r2, r7
 631 006e 0F32     		add	r2, r2, #15
 632 0070 1278     		ldrb	r2, [r2]
 633 0072 D2B2     		uxtb	r2, r2
 634 0074 1340     		and	r3, r2
 635 0076 DBB2     		uxtb	r3, r3
 636 0078 DBB2     		uxtb	r3, r3
 637              	.L14:
 638              		.loc 1 72 0 discriminator 3
 639 007a 3A1C     		mov	r2, r7
 640 007c 0F32     		add	r2, r2, #15
 641 007e 1370     		strb	r3, [r2]
  73:.\main.c      **** 	I2CWriteByte(devAddr, regAddr, b);
 642              		.loc 1 73 0 is_stmt 1 discriminator 3
 643 0080 3B1C     		mov	r3, r7
 644 0082 0F33     		add	r3, r3, #15
 645 0084 1B78     		ldrb	r3, [r3]
 646 0086 FA1D     		add	r2, r7, #7
 647 0088 1178     		ldrb	r1, [r2]
 648 008a BA1D     		add	r2, r7, #6
 649 008c 1278     		ldrb	r2, [r2]
 650 008e 081C     		mov	r0, r1
 651 0090 111C     		mov	r1, r2
 652 0092 1A1C     		mov	r2, r3
 653 0094 FFF7FEFF 		bl	I2CWriteByte
  74:.\main.c      **** }
 654              		.loc 1 74 0 discriminator 3
 655 0098 BD46     		mov	sp, r7
 656 009a 05B0     		add	sp, sp, #20
 657              		@ sp needed
 658 009c 90BD     		pop	{r4, r7, pc}
 659              		.cfi_endproc
 660              	.LFE40:
 661              		.size	I2CWriteBit, .-I2CWriteBit
 662 009e C046     		.section	.text.I2CWriteWords,"ax",%progbits
 663              		.align	2
 664              		.global	I2CWriteWords
 665              		.code	16
ARM GAS  C:\Users\Eric\AppData\Local\Temp\ccUEtfcp.s 			page 14


 666              		.thumb_func
 667              		.type	I2CWriteWords, %function
 668              	I2CWriteWords:
 669              	.LFB41:
  75:.\main.c      **** 
  76:.\main.c      **** void I2CWriteWords(uint8_t devAddr, uint8_t regAddr, uint8_t length, uint16_t *value) {
 670              		.loc 1 76 0
 671              		.cfi_startproc
 672 0000 80B5     		push	{r7, lr}
 673              		.cfi_def_cfa_offset 8
 674              		.cfi_offset 7, -8
 675              		.cfi_offset 14, -4
 676 0002 84B0     		sub	sp, sp, #16
 677              		.cfi_def_cfa_offset 24
 678 0004 00AF     		add	r7, sp, #0
 679              		.cfi_def_cfa_register 7
 680 0006 3B60     		str	r3, [r7]
 681 0008 FB1D     		add	r3, r7, #7
 682 000a 1870     		strb	r0, [r3]
 683 000c BB1D     		add	r3, r7, #6
 684 000e 1970     		strb	r1, [r3]
 685 0010 7B1D     		add	r3, r7, #5
 686 0012 1A70     		strb	r2, [r3]
  77:.\main.c      **** 	uint8_t i=0;
 687              		.loc 1 77 0
 688 0014 3B1C     		mov	r3, r7
 689 0016 0F33     		add	r3, r3, #15
 690 0018 0022     		mov	r2, #0
 691 001a 1A70     		strb	r2, [r3]
  78:.\main.c      **** 	I2C_MPU6050_I2CMasterSendStart(devAddr, I2C_MPU6050_I2C_WRITE_XFER_MODE);
 692              		.loc 1 78 0
 693 001c FB1D     		add	r3, r7, #7
 694 001e 1B78     		ldrb	r3, [r3]
 695 0020 181C     		mov	r0, r3
 696 0022 0021     		mov	r1, #0
 697 0024 FFF7FEFF 		bl	I2C_MPU6050_I2CMasterSendStart
  79:.\main.c      **** 	I2C_MPU6050_I2CMasterWriteByte(regAddr);
 698              		.loc 1 79 0
 699 0028 BB1D     		add	r3, r7, #6
 700 002a 1B78     		ldrb	r3, [r3]
 701 002c 181C     		mov	r0, r3
 702 002e FFF7FEFF 		bl	I2C_MPU6050_I2CMasterWriteByte
  80:.\main.c      **** 	while (i++ < length) {
 703              		.loc 1 80 0
 704 0032 0EE0     		b	.L16
 705              	.L17:
  81:.\main.c      **** 		I2C_MPU6050_I2CMasterWriteByte(((uint8_t)*value) >> 8);
 706              		.loc 1 81 0
 707 0034 3B68     		ldr	r3, [r7]
 708 0036 1B88     		ldrh	r3, [r3]
 709 0038 DBB2     		uxtb	r3, r3
 710 003a 1B12     		asr	r3, r3, #8
 711 003c 181C     		mov	r0, r3
 712 003e FFF7FEFF 		bl	I2C_MPU6050_I2CMasterWriteByte
  82:.\main.c      **** 		I2C_MPU6050_I2CMasterWriteByte((uint8_t)*value++);
 713              		.loc 1 82 0
 714 0042 3B68     		ldr	r3, [r7]
ARM GAS  C:\Users\Eric\AppData\Local\Temp\ccUEtfcp.s 			page 15


 715 0044 9A1C     		add	r2, r3, #2
 716 0046 3A60     		str	r2, [r7]
 717 0048 1B88     		ldrh	r3, [r3]
 718 004a DBB2     		uxtb	r3, r3
 719 004c 181C     		mov	r0, r3
 720 004e FFF7FEFF 		bl	I2C_MPU6050_I2CMasterWriteByte
 721              	.L16:
  80:.\main.c      **** 	while (i++ < length) {
 722              		.loc 1 80 0 discriminator 1
 723 0052 3B1C     		mov	r3, r7
 724 0054 0F33     		add	r3, r3, #15
 725 0056 1B78     		ldrb	r3, [r3]
 726 0058 3A1C     		mov	r2, r7
 727 005a 0F32     		add	r2, r2, #15
 728 005c 591C     		add	r1, r3, #1
 729 005e 1170     		strb	r1, [r2]
 730 0060 7A1D     		add	r2, r7, #5
 731 0062 1278     		ldrb	r2, [r2]
 732 0064 9A42     		cmp	r2, r3
 733 0066 E5D8     		bhi	.L17
  83:.\main.c      **** 	}
  84:.\main.c      **** 	I2C_MPU6050_I2CMasterSendStop();		
 734              		.loc 1 84 0
 735 0068 FFF7FEFF 		bl	I2C_MPU6050_I2CMasterSendStop
  85:.\main.c      **** }
 736              		.loc 1 85 0
 737 006c BD46     		mov	sp, r7
 738 006e 04B0     		add	sp, sp, #16
 739              		@ sp needed
 740 0070 80BD     		pop	{r7, pc}
 741              		.cfi_endproc
 742              	.LFE41:
 743              		.size	I2CWriteWords, .-I2CWriteWords
 744 0072 C046     		.section	.text.I2CWriteWord,"ax",%progbits
 745              		.align	2
 746              		.global	I2CWriteWord
 747              		.code	16
 748              		.thumb_func
 749              		.type	I2CWriteWord, %function
 750              	I2CWriteWord:
 751              	.LFB42:
  86:.\main.c      **** 
  87:.\main.c      **** void I2CWriteWord(uint8_t devAddr, uint8_t regAddr, uint16_t value) {
 752              		.loc 1 87 0
 753              		.cfi_startproc
 754 0000 80B5     		push	{r7, lr}
 755              		.cfi_def_cfa_offset 8
 756              		.cfi_offset 7, -8
 757              		.cfi_offset 14, -4
 758 0002 82B0     		sub	sp, sp, #8
 759              		.cfi_def_cfa_offset 16
 760 0004 00AF     		add	r7, sp, #0
 761              		.cfi_def_cfa_register 7
 762 0006 FB1D     		add	r3, r7, #7
 763 0008 1870     		strb	r0, [r3]
 764 000a BB1D     		add	r3, r7, #6
 765 000c 1970     		strb	r1, [r3]
ARM GAS  C:\Users\Eric\AppData\Local\Temp\ccUEtfcp.s 			page 16


 766 000e 3B1D     		add	r3, r7, #4
 767 0010 1A80     		strh	r2, [r3]
  88:.\main.c      **** 	I2CWriteWords(devAddr, regAddr, 1, &value);
 768              		.loc 1 88 0
 769 0012 FB1D     		add	r3, r7, #7
 770 0014 1978     		ldrb	r1, [r3]
 771 0016 BB1D     		add	r3, r7, #6
 772 0018 1A78     		ldrb	r2, [r3]
 773 001a 3B1D     		add	r3, r7, #4
 774 001c 081C     		mov	r0, r1
 775 001e 111C     		mov	r1, r2
 776 0020 0122     		mov	r2, #1
 777 0022 FFF7FEFF 		bl	I2CWriteWords
  89:.\main.c      **** }
 778              		.loc 1 89 0
 779 0026 BD46     		mov	sp, r7
 780 0028 02B0     		add	sp, sp, #8
 781              		@ sp needed
 782 002a 80BD     		pop	{r7, pc}
 783              		.cfi_endproc
 784              	.LFE42:
 785              		.size	I2CWriteWord, .-I2CWriteWord
 786              		.comm	sendData,28,4
 787              		.section	.text.main,"ax",%progbits
 788              		.align	2
 789              		.global	main
 790              		.code	16
 791              		.thumb_func
 792              		.type	main, %function
 793              	main:
 794              	.LFB43:
  90:.\main.c      **** 
  91:.\main.c      **** 
  92:.\main.c      **** 
  93:.\main.c      **** union data
  94:.\main.c      **** {
  95:.\main.c      ****     struct sensorDataInternals
  96:.\main.c      ****     {
  97:.\main.c      ****         char beginPad[5];
  98:.\main.c      ****         int16_t ax;
  99:.\main.c      ****         char pad0;
 100:.\main.c      ****         int16_t ay;
 101:.\main.c      ****         char pad1;
 102:.\main.c      ****         int16_t az;
 103:.\main.c      ****         char pad2;
 104:.\main.c      ****         int16_t gx;
 105:.\main.c      ****         char pad3;
 106:.\main.c      ****         int16_t gy;
 107:.\main.c      ****         char pad4;
 108:.\main.c      ****         int16_t gz;
 109:.\main.c      ****     } sensorData;
 110:.\main.c      ****     unsigned char buffer[sizeof(struct sensorDataInternals)];
 111:.\main.c      **** } sendData;
 112:.\main.c      **** 
 113:.\main.c      **** int main()
 114:.\main.c      **** {
 795              		.loc 1 114 0
ARM GAS  C:\Users\Eric\AppData\Local\Temp\ccUEtfcp.s 			page 17


 796              		.cfi_startproc
 797 0000 90B5     		push	{r4, r7, lr}
 798              		.cfi_def_cfa_offset 12
 799              		.cfi_offset 4, -12
 800              		.cfi_offset 7, -8
 801              		.cfi_offset 14, -4
 802 0002 83B0     		sub	sp, sp, #12
 803              		.cfi_def_cfa_offset 24
 804 0004 02AF     		add	r7, sp, #8
 805              		.cfi_def_cfa 7, 16
 115:.\main.c      ****     CyGlobalIntEnable;
 806              		.loc 1 115 0
 807              	@ 115 ".\main.c" 1
 808 0006 62B6     		CPSIE   i
 809              	@ 0 "" 2
 116:.\main.c      ****     static char temp[5] = {0, 1, 2, 3, 4};
 117:.\main.c      ****     memcpy(sendData.sensorData.beginPad, temp, 5);
 810              		.loc 1 117 0
 811              		.code	16
 812 0008 174B     		ldr	r3, .L21
 813 000a 184A     		ldr	r2, .L21+4
 814 000c 1168     		ldr	r1, [r2]
 815 000e 1960     		str	r1, [r3]
 816 0010 1279     		ldrb	r2, [r2, #4]
 817 0012 1A71     		strb	r2, [r3, #4]
 118:.\main.c      ****     sendData.sensorData.pad0 = 0;
 818              		.loc 1 118 0
 819 0014 144B     		ldr	r3, .L21
 820 0016 0022     		mov	r2, #0
 821 0018 1A72     		strb	r2, [r3, #8]
 119:.\main.c      ****     sendData.sensorData.pad1 = 0;
 822              		.loc 1 119 0
 823 001a 134B     		ldr	r3, .L21
 824 001c 0022     		mov	r2, #0
 825 001e 1A73     		strb	r2, [r3, #12]
 120:.\main.c      ****     sendData.sensorData.pad2 = 0;
 826              		.loc 1 120 0
 827 0020 114B     		ldr	r3, .L21
 828 0022 0022     		mov	r2, #0
 829 0024 1A74     		strb	r2, [r3, #16]
 121:.\main.c      ****     sendData.sensorData.pad3 = 0;
 830              		.loc 1 121 0
 831 0026 104B     		ldr	r3, .L21
 832 0028 0022     		mov	r2, #0
 833 002a 1A75     		strb	r2, [r3, #20]
 122:.\main.c      ****     sendData.sensorData.pad4 = 0;
 834              		.loc 1 122 0
 835 002c 0E4B     		ldr	r3, .L21
 836 002e 0022     		mov	r2, #0
 837 0030 1A76     		strb	r2, [r3, #24]
 123:.\main.c      ****     CyDelay(10);
 838              		.loc 1 123 0
 839 0032 0A20     		mov	r0, #10
 840 0034 FFF7FEFF 		bl	CyDelay
 124:.\main.c      **** 	I2C_MPU6050_Start();
 841              		.loc 1 124 0
 842 0038 FFF7FEFF 		bl	I2C_MPU6050_Start
ARM GAS  C:\Users\Eric\AppData\Local\Temp\ccUEtfcp.s 			page 18


 125:.\main.c      ****     UART_1_Start();
 843              		.loc 1 125 0
 844 003c FFF7FEFF 		bl	UART_1_Start
 126:.\main.c      **** 	
 127:.\main.c      ****     
 128:.\main.c      **** 
 129:.\main.c      **** 	MPU6050_init();
 845              		.loc 1 129 0
 846 0040 FFF7FEFF 		bl	MPU6050_init
 130:.\main.c      **** 	MPU6050_initialize();
 847              		.loc 1 130 0
 848 0044 FFF7FEFF 		bl	MPU6050_initialize
 849              	.L20:
 131:.\main.c      **** 	
 132:.\main.c      ****     for(;;)
 133:.\main.c      ****     {
 134:.\main.c      **** 	  MPU6050_getMotion6(&sendData.sensorData.ax, &sendData.sensorData.ay, &sendData.sensorData.az, &s
 850              		.loc 1 134 0 discriminator 1
 851 0048 0948     		ldr	r0, .L21+8
 852 004a 0A49     		ldr	r1, .L21+12
 853 004c 0A4A     		ldr	r2, .L21+16
 854 004e 0B4B     		ldr	r3, .L21+20
 855 0050 0B4C     		ldr	r4, .L21+24
 856 0052 0094     		str	r4, [sp]
 857 0054 0B4C     		ldr	r4, .L21+28
 858 0056 0194     		str	r4, [sp, #4]
 859 0058 FFF7FEFF 		bl	MPU6050_getMotion6
 135:.\main.c      ****       UART_1_PutArray(sendData.buffer, sizeof(sendData.buffer));
 860              		.loc 1 135 0 discriminator 1
 861 005c 024B     		ldr	r3, .L21
 862 005e 181C     		mov	r0, r3
 863 0060 1C21     		mov	r1, #28
 864 0062 FFF7FEFF 		bl	UART_1_PutArray
 136:.\main.c      **** 	}
 865              		.loc 1 136 0 discriminator 1
 866 0066 EFE7     		b	.L20
 867              	.L22:
 868              		.align	2
 869              	.L21:
 870 0068 00000000 		.word	sendData
 871 006c 00000000 		.word	temp.6412
 872 0070 06000000 		.word	sendData+6
 873 0074 0A000000 		.word	sendData+10
 874 0078 0E000000 		.word	sendData+14
 875 007c 12000000 		.word	sendData+18
 876 0080 16000000 		.word	sendData+22
 877 0084 1A000000 		.word	sendData+26
 878              		.cfi_endproc
 879              	.LFE43:
 880              		.size	main, .-main
 881              		.data
 882              		.align	2
 883              		.type	temp.6412, %object
 884              		.size	temp.6412, 5
 885              	temp.6412:
 886 0000 00       		.byte	0
 887 0001 01       		.byte	1
ARM GAS  C:\Users\Eric\AppData\Local\Temp\ccUEtfcp.s 			page 19


 888 0002 02       		.byte	2
 889 0003 03       		.byte	3
 890 0004 04       		.byte	4
 891 0005 000000   		.text
 892              	.Letext0:
 893              		.file 2 "e:\\program files (x86)\\cypress\\psoc creator\\3.1\\psoc creator\\import\\gnu_cs\\arm\\4
 894              		.file 3 "e:\\program files (x86)\\cypress\\psoc creator\\3.1\\psoc creator\\import\\gnu_cs\\arm\\4
 895              		.file 4 ".\\mpu6050.h"