ARM GAS  C:\Users\CHRIST~1\AppData\Local\Temp\ccslI7ZX.s 			page 1


   1              		.cpu cortex-m0
   2              		.fpu softvfp
   3              		.eabi_attribute 20, 1
   4              		.eabi_attribute 21, 1
   5              		.eabi_attribute 23, 3
   6              		.eabi_attribute 24, 1
   7              		.eabi_attribute 25, 1
   8              		.eabi_attribute 26, 1
   9              		.eabi_attribute 30, 6
  10              		.eabi_attribute 34, 0
  11              		.eabi_attribute 18, 4
  12              		.code	16
  13              		.file	"mpu6050.c"
  14              		.text
  15              	.Ltext0:
  16              		.cfi_sections	.debug_frame
  17              		.comm	devAddr,1,1
  18              		.comm	buffer,22,4
  19              		.section	.text.MPU6050_init,"ax",%progbits
  20              		.align	2
  21              		.global	MPU6050_init
  22              		.code	16
  23              		.thumb_func
  24              		.type	MPU6050_init, %function
  25              	MPU6050_init:
  26              	.LFB0:
  27              		.file 1 ".\\mpu6050.c"
   1:.\mpu6050.c   **** // I2Cdev library collection - MPU6050 I2C device class
   2:.\mpu6050.c   **** // Based on InvenSense MPU-6050 register map document rev. 2.0, 5/19/2011 (RM-MPU-6000A-00)
   3:.\mpu6050.c   **** // 8/24/2011 by Jeff Rowberg <jeff@rowberg.net>
   4:.\mpu6050.c   **** // Updates should (hopefully) always be available at https://github.com/jrowberg/i2cdevlib
   5:.\mpu6050.c   **** //
   6:.\mpu6050.c   **** // Changelog:
   7:.\mpu6050.c   **** // 26/May/2014: C version to be used on PSoC Creator (www.cypress.com) by Hernán Sánchez
   8:.\mpu6050.c   **** //     ... - ongoing debug release
   9:.\mpu6050.c   **** 
  10:.\mpu6050.c   **** // NOTE: THIS IS ONLY A PARIAL RELEASE. THIS DEVICE CLASS IS CURRENTLY UNDERGOING ACTIVE
  11:.\mpu6050.c   **** // DEVELOPMENT AND IS STILL MISSING SOME IMPORTANT FEATURES. PLEASE KEEP THIS IN MIND IF
  12:.\mpu6050.c   **** // YOU DECIDE TO USE THIS PARTICULAR CODE FOR ANYTHING.
  13:.\mpu6050.c   **** 
  14:.\mpu6050.c   **** /* ============================================
  15:.\mpu6050.c   **** I2Cdev device library code is placed under the MIT license
  16:.\mpu6050.c   **** Copyright (c) 2012 Jeff Rowberg
  17:.\mpu6050.c   **** 
  18:.\mpu6050.c   **** Permission is hereby granted, free of charge, to any person obtaining a copy
  19:.\mpu6050.c   **** of this software and associated documentation files (the "Software"), to deal
  20:.\mpu6050.c   **** in the Software without restriction, including without limitation the rights
  21:.\mpu6050.c   **** to use, copy, modify, merge, publish, distribute, sublicense, and/or sell
  22:.\mpu6050.c   **** copies of the Software, and to permit persons to whom the Software is
  23:.\mpu6050.c   **** furnished to do so, subject to the following conditions:
  24:.\mpu6050.c   **** 
  25:.\mpu6050.c   **** The above copyright notice and this permission notice shall be included in
  26:.\mpu6050.c   **** all copies or substantial portions of the Software.
  27:.\mpu6050.c   **** 
  28:.\mpu6050.c   **** THE SOFTWARE IS PROVIDED "AS IS", WITHOUT WARRANTY OF ANY KIND, EXPRESS OR
  29:.\mpu6050.c   **** IMPLIED, INCLUDING BUT NOT LIMITED TO THE WARRANTIES OF MERCHANTABILITY,
  30:.\mpu6050.c   **** FITNESS FOR A PARTICULAR PURPOSE AND NONINFRINGEMENT. IN NO EVENT SHALL THE
ARM GAS  C:\Users\CHRIST~1\AppData\Local\Temp\ccslI7ZX.s 			page 2


  31:.\mpu6050.c   **** AUTHORS OR COPYRIGHT HOLDERS BE LIABLE FOR ANY CLAIM, DAMAGES OR OTHER
  32:.\mpu6050.c   **** LIABILITY, WHETHER IN AN ACTION OF CONTRACT, TORT OR OTHERWISE, ARISING FROM,
  33:.\mpu6050.c   **** OUT OF OR IN CONNECTION WITH THE SOFTWARE OR THE USE OR OTHER DEALINGS IN
  34:.\mpu6050.c   **** THE SOFTWARE.
  35:.\mpu6050.c   **** ===============================================
  36:.\mpu6050.c   **** */
  37:.\mpu6050.c   **** 
  38:.\mpu6050.c   **** 
  39:.\mpu6050.c   **** #include <stdint.h>
  40:.\mpu6050.c   **** #include "mpu6050.h"
  41:.\mpu6050.c   **** 
  42:.\mpu6050.c   **** /** Default constructor, uses default I2C address.
  43:.\mpu6050.c   ****  * @see MPU6050_DEFAULT_ADDRESS
  44:.\mpu6050.c   ****  */
  45:.\mpu6050.c   **** void MPU6050_init() {
  28              		.loc 1 45 0
  29              		.cfi_startproc
  30 0000 80B5     		push	{r7, lr}
  31              		.cfi_def_cfa_offset 8
  32              		.cfi_offset 7, -8
  33              		.cfi_offset 14, -4
  34 0002 00AF     		add	r7, sp, #0
  35              		.cfi_def_cfa_register 7
  46:.\mpu6050.c   ****     devAddr = MPU6050_DEFAULT_ADDRESS;
  36              		.loc 1 46 0
  37 0004 024B     		ldr	r3, .L2
  38 0006 6822     		mov	r2, #104
  39 0008 1A70     		strb	r2, [r3]
  47:.\mpu6050.c   **** }
  40              		.loc 1 47 0
  41 000a BD46     		mov	sp, r7
  42              		@ sp needed
  43 000c 80BD     		pop	{r7, pc}
  44              	.L3:
  45 000e C046     		.align	2
  46              	.L2:
  47 0010 00000000 		.word	devAddr
  48              		.cfi_endproc
  49              	.LFE0:
  50              		.size	MPU6050_init, .-MPU6050_init
  51              		.section	.text.I2C_MPU6050_I2CAddress,"ax",%progbits
  52              		.align	2
  53              		.global	I2C_MPU6050_I2CAddress
  54              		.code	16
  55              		.thumb_func
  56              		.type	I2C_MPU6050_I2CAddress, %function
  57              	I2C_MPU6050_I2CAddress:
  58              	.LFB1:
  48:.\mpu6050.c   **** 
  49:.\mpu6050.c   **** /** Specific address constructor.
  50:.\mpu6050.c   ****  * @param address I2C address
  51:.\mpu6050.c   ****  * @see MPU6050_DEFAULT_ADDRESS
  52:.\mpu6050.c   ****  * @see MPU6050_ADDRESS_AD0_LOW
  53:.\mpu6050.c   ****  * @see MPU6050_ADDRESS_AD0_HIGH
  54:.\mpu6050.c   ****  */
  55:.\mpu6050.c   **** void I2C_MPU6050_I2CAddress(uint8_t address) {
  59              		.loc 1 55 0
ARM GAS  C:\Users\CHRIST~1\AppData\Local\Temp\ccslI7ZX.s 			page 3


  60              		.cfi_startproc
  61 0000 80B5     		push	{r7, lr}
  62              		.cfi_def_cfa_offset 8
  63              		.cfi_offset 7, -8
  64              		.cfi_offset 14, -4
  65 0002 82B0     		sub	sp, sp, #8
  66              		.cfi_def_cfa_offset 16
  67 0004 00AF     		add	r7, sp, #0
  68              		.cfi_def_cfa_register 7
  69 0006 021C     		mov	r2, r0
  70 0008 FB1D     		add	r3, r7, #7
  71 000a 1A70     		strb	r2, [r3]
  56:.\mpu6050.c   ****     devAddr = address;
  72              		.loc 1 56 0
  73 000c 034B     		ldr	r3, .L5
  74 000e FA1D     		add	r2, r7, #7
  75 0010 1278     		ldrb	r2, [r2]
  76 0012 1A70     		strb	r2, [r3]
  57:.\mpu6050.c   **** }
  77              		.loc 1 57 0
  78 0014 BD46     		mov	sp, r7
  79 0016 02B0     		add	sp, sp, #8
  80              		@ sp needed
  81 0018 80BD     		pop	{r7, pc}
  82              	.L6:
  83 001a C046     		.align	2
  84              	.L5:
  85 001c 00000000 		.word	devAddr
  86              		.cfi_endproc
  87              	.LFE1:
  88              		.size	I2C_MPU6050_I2CAddress, .-I2C_MPU6050_I2CAddress
  89              		.section	.text.MPU6050_initialize,"ax",%progbits
  90              		.align	2
  91              		.global	MPU6050_initialize
  92              		.code	16
  93              		.thumb_func
  94              		.type	MPU6050_initialize, %function
  95              	MPU6050_initialize:
  96              	.LFB2:
  58:.\mpu6050.c   **** 
  59:.\mpu6050.c   **** /** Power on and prepare for general usage.
  60:.\mpu6050.c   ****  * This will activate the device and take it out of sleep mode (which must be done
  61:.\mpu6050.c   ****  * after start-up). This function also sets both the accelerometer and the gyroscope
  62:.\mpu6050.c   ****  * to their most sensitive settings, namely +/- 2g and +/- 250 degrees/sec, and sets
  63:.\mpu6050.c   ****  * the clock source to use the X Gyro for reference, which is slightly better than
  64:.\mpu6050.c   ****  * the default internal clock source.
  65:.\mpu6050.c   ****  */
  66:.\mpu6050.c   **** void MPU6050_initialize() {
  97              		.loc 1 66 0
  98              		.cfi_startproc
  99 0000 80B5     		push	{r7, lr}
 100              		.cfi_def_cfa_offset 8
 101              		.cfi_offset 7, -8
 102              		.cfi_offset 14, -4
 103 0002 00AF     		add	r7, sp, #0
 104              		.cfi_def_cfa_register 7
  67:.\mpu6050.c   ****     MPU6050_setClockSource(MPU6050_CLOCK_PLL_XGYRO);
ARM GAS  C:\Users\CHRIST~1\AppData\Local\Temp\ccslI7ZX.s 			page 4


 105              		.loc 1 67 0
 106 0004 0120     		mov	r0, #1
 107 0006 FFF7FEFF 		bl	MPU6050_setClockSource
  68:.\mpu6050.c   ****     MPU6050_setFullScaleGyroRange(MPU6050_GYRO_FS_250);
 108              		.loc 1 68 0
 109 000a 0020     		mov	r0, #0
 110 000c FFF7FEFF 		bl	MPU6050_setFullScaleGyroRange
  69:.\mpu6050.c   ****     MPU6050_setFullScaleAccelRange(MPU6050_ACCEL_FS_2);
 111              		.loc 1 69 0
 112 0010 0020     		mov	r0, #0
 113 0012 FFF7FEFF 		bl	MPU6050_setFullScaleAccelRange
  70:.\mpu6050.c   ****     MPU6050_setSleepEnabled(false); // thanks to Jack Elston for pointing this one out!
 114              		.loc 1 70 0
 115 0016 0020     		mov	r0, #0
 116 0018 FFF7FEFF 		bl	MPU6050_setSleepEnabled
  71:.\mpu6050.c   **** }
 117              		.loc 1 71 0
 118 001c BD46     		mov	sp, r7
 119              		@ sp needed
 120 001e 80BD     		pop	{r7, pc}
 121              		.cfi_endproc
 122              	.LFE2:
 123              		.size	MPU6050_initialize, .-MPU6050_initialize
 124              		.section	.text.MPU6050_testConnection,"ax",%progbits
 125              		.align	2
 126              		.global	MPU6050_testConnection
 127              		.code	16
 128              		.thumb_func
 129              		.type	MPU6050_testConnection, %function
 130              	MPU6050_testConnection:
 131              	.LFB3:
  72:.\mpu6050.c   **** 
  73:.\mpu6050.c   **** /** Verify the I2C connection.
  74:.\mpu6050.c   ****  * Make sure the device is connected and responds as expected.
  75:.\mpu6050.c   ****  * @return True if connection is valid, false otherwise
  76:.\mpu6050.c   ****  */
  77:.\mpu6050.c   **** bool MPU6050_testConnection() {
 132              		.loc 1 77 0
 133              		.cfi_startproc
 134 0000 80B5     		push	{r7, lr}
 135              		.cfi_def_cfa_offset 8
 136              		.cfi_offset 7, -8
 137              		.cfi_offset 14, -4
 138 0002 00AF     		add	r7, sp, #0
 139              		.cfi_def_cfa_register 7
  78:.\mpu6050.c   ****     return MPU6050_getDeviceID() == 0x34;
 140              		.loc 1 78 0
 141 0004 FFF7FEFF 		bl	MPU6050_getDeviceID
 142 0008 031C     		mov	r3, r0
 143 000a 343B     		sub	r3, r3, #52
 144 000c 5A42     		neg	r2, r3
 145 000e 5341     		adc	r3, r3, r2
 146 0010 DBB2     		uxtb	r3, r3
  79:.\mpu6050.c   **** }
 147              		.loc 1 79 0
 148 0012 181C     		mov	r0, r3
 149 0014 BD46     		mov	sp, r7
ARM GAS  C:\Users\CHRIST~1\AppData\Local\Temp\ccslI7ZX.s 			page 5


 150              		@ sp needed
 151 0016 80BD     		pop	{r7, pc}
 152              		.cfi_endproc
 153              	.LFE3:
 154              		.size	MPU6050_testConnection, .-MPU6050_testConnection
 155              		.section	.text.MPU6050_getAuxVDDIOLevel,"ax",%progbits
 156              		.align	2
 157              		.global	MPU6050_getAuxVDDIOLevel
 158              		.code	16
 159              		.thumb_func
 160              		.type	MPU6050_getAuxVDDIOLevel, %function
 161              	MPU6050_getAuxVDDIOLevel:
 162              	.LFB4:
  80:.\mpu6050.c   **** 
  81:.\mpu6050.c   **** // AUX_VDDIO register (InvenSense demo code calls this RA_*G_OFFS_TC)
  82:.\mpu6050.c   **** 
  83:.\mpu6050.c   **** /** Get the auxiliary I2C supply voltage level.
  84:.\mpu6050.c   ****  * When set to 1, the auxiliary I2C bus high logic level is VDD. When cleared to
  85:.\mpu6050.c   ****  * 0, the auxiliary I2C bus high logic level is VLOGIC. This does not apply to
  86:.\mpu6050.c   ****  * the MPU-6000, which does not have a VLOGIC pin.
  87:.\mpu6050.c   ****  * @return I2C supply voltage level (0=VLOGIC, 1=VDD)
  88:.\mpu6050.c   ****  */
  89:.\mpu6050.c   **** uint8_t MPU6050_getAuxVDDIOLevel() {
 163              		.loc 1 89 0
 164              		.cfi_startproc
 165 0000 80B5     		push	{r7, lr}
 166              		.cfi_def_cfa_offset 8
 167              		.cfi_offset 7, -8
 168              		.cfi_offset 14, -4
 169 0002 00AF     		add	r7, sp, #0
 170              		.cfi_def_cfa_register 7
  90:.\mpu6050.c   ****     I2CReadBit(devAddr, MPU6050_RA_YG_OFFS_TC, MPU6050_TC_PWR_MODE_BIT, buffer);
 171              		.loc 1 90 0
 172 0004 064B     		ldr	r3, .L12
 173 0006 1A78     		ldrb	r2, [r3]
 174 0008 064B     		ldr	r3, .L12+4
 175 000a 101C     		mov	r0, r2
 176 000c 0121     		mov	r1, #1
 177 000e 0722     		mov	r2, #7
 178 0010 FFF7FEFF 		bl	I2CReadBit
  91:.\mpu6050.c   ****     return buffer[0];
 179              		.loc 1 91 0
 180 0014 034B     		ldr	r3, .L12+4
 181 0016 1B78     		ldrb	r3, [r3]
  92:.\mpu6050.c   **** }
 182              		.loc 1 92 0
 183 0018 181C     		mov	r0, r3
 184 001a BD46     		mov	sp, r7
 185              		@ sp needed
 186 001c 80BD     		pop	{r7, pc}
 187              	.L13:
 188 001e C046     		.align	2
 189              	.L12:
 190 0020 00000000 		.word	devAddr
 191 0024 00000000 		.word	buffer
 192              		.cfi_endproc
 193              	.LFE4:
ARM GAS  C:\Users\CHRIST~1\AppData\Local\Temp\ccslI7ZX.s 			page 6


 194              		.size	MPU6050_getAuxVDDIOLevel, .-MPU6050_getAuxVDDIOLevel
 195              		.section	.text.MPU6050_setAuxVDDIOLevel,"ax",%progbits
 196              		.align	2
 197              		.global	MPU6050_setAuxVDDIOLevel
 198              		.code	16
 199              		.thumb_func
 200              		.type	MPU6050_setAuxVDDIOLevel, %function
 201              	MPU6050_setAuxVDDIOLevel:
 202              	.LFB5:
  93:.\mpu6050.c   **** /** Set the auxiliary I2C supply voltage level.
  94:.\mpu6050.c   ****  * When set to 1, the auxiliary I2C bus high logic level is VDD. When cleared to
  95:.\mpu6050.c   ****  * 0, the auxiliary I2C bus high logic level is VLOGIC. This does not apply to
  96:.\mpu6050.c   ****  * the MPU-6000, which does not have a VLOGIC pin.
  97:.\mpu6050.c   ****  * @param level I2C supply voltage level (0=VLOGIC, 1=VDD)
  98:.\mpu6050.c   ****  */
  99:.\mpu6050.c   **** void MPU6050_setAuxVDDIOLevel(uint8_t level) {
 203              		.loc 1 99 0
 204              		.cfi_startproc
 205 0000 80B5     		push	{r7, lr}
 206              		.cfi_def_cfa_offset 8
 207              		.cfi_offset 7, -8
 208              		.cfi_offset 14, -4
 209 0002 82B0     		sub	sp, sp, #8
 210              		.cfi_def_cfa_offset 16
 211 0004 00AF     		add	r7, sp, #0
 212              		.cfi_def_cfa_register 7
 213 0006 021C     		mov	r2, r0
 214 0008 FB1D     		add	r3, r7, #7
 215 000a 1A70     		strb	r2, [r3]
 100:.\mpu6050.c   ****     I2CWriteBit(devAddr, MPU6050_RA_YG_OFFS_TC, MPU6050_TC_PWR_MODE_BIT, level);
 216              		.loc 1 100 0
 217 000c 054B     		ldr	r3, .L15
 218 000e 1A78     		ldrb	r2, [r3]
 219 0010 FB1D     		add	r3, r7, #7
 220 0012 1B78     		ldrb	r3, [r3]
 221 0014 101C     		mov	r0, r2
 222 0016 0121     		mov	r1, #1
 223 0018 0722     		mov	r2, #7
 224 001a FFF7FEFF 		bl	I2CWriteBit
 101:.\mpu6050.c   **** }
 225              		.loc 1 101 0
 226 001e BD46     		mov	sp, r7
 227 0020 02B0     		add	sp, sp, #8
 228              		@ sp needed
 229 0022 80BD     		pop	{r7, pc}
 230              	.L16:
 231              		.align	2
 232              	.L15:
 233 0024 00000000 		.word	devAddr
 234              		.cfi_endproc
 235              	.LFE5:
 236              		.size	MPU6050_setAuxVDDIOLevel, .-MPU6050_setAuxVDDIOLevel
 237              		.section	.text.MPU6050_getRate,"ax",%progbits
 238              		.align	2
 239              		.global	MPU6050_getRate
 240              		.code	16
 241              		.thumb_func
ARM GAS  C:\Users\CHRIST~1\AppData\Local\Temp\ccslI7ZX.s 			page 7


 242              		.type	MPU6050_getRate, %function
 243              	MPU6050_getRate:
 244              	.LFB6:
 102:.\mpu6050.c   **** 
 103:.\mpu6050.c   **** // SMPLRT_DIV register
 104:.\mpu6050.c   **** 
 105:.\mpu6050.c   **** /** Get gyroscope output rate divider.
 106:.\mpu6050.c   ****  * The sensor register output, FIFO output, DMP sampling, Motion detection, Zero
 107:.\mpu6050.c   ****  * Motion detection, and Free Fall detection are all based on the Sample Rate.
 108:.\mpu6050.c   ****  * The Sample Rate is generated by dividing the gyroscope output rate by
 109:.\mpu6050.c   ****  * SMPLRT_DIV:
 110:.\mpu6050.c   ****  *
 111:.\mpu6050.c   ****  * Sample Rate = Gyroscope Output Rate / (1 + SMPLRT_DIV)
 112:.\mpu6050.c   ****  *
 113:.\mpu6050.c   ****  * where Gyroscope Output Rate = 8kHz when the DLPF is disabled (DLPF_CFG = 0 or
 114:.\mpu6050.c   ****  * 7), and 1kHz when the DLPF is enabled (see Register 26).
 115:.\mpu6050.c   ****  *
 116:.\mpu6050.c   ****  * Note: The accelerometer output rate is 1kHz. This means that for a Sample
 117:.\mpu6050.c   ****  * Rate greater than 1kHz, the same accelerometer sample may be output to the
 118:.\mpu6050.c   ****  * FIFO, DMP, and sensor registers more than once.
 119:.\mpu6050.c   ****  *
 120:.\mpu6050.c   ****  * For a diagram of the gyroscope and accelerometer signal paths, see Section 8
 121:.\mpu6050.c   ****  * of the MPU-6000/MPU-6050 Product Specification document.
 122:.\mpu6050.c   ****  *
 123:.\mpu6050.c   ****  * @return Current sample rate
 124:.\mpu6050.c   ****  * @see MPU6050_RA_SMPLRT_DIV
 125:.\mpu6050.c   ****  */
 126:.\mpu6050.c   **** uint8_t MPU6050_getRate() {
 245              		.loc 1 126 0
 246              		.cfi_startproc
 247 0000 80B5     		push	{r7, lr}
 248              		.cfi_def_cfa_offset 8
 249              		.cfi_offset 7, -8
 250              		.cfi_offset 14, -4
 251 0002 00AF     		add	r7, sp, #0
 252              		.cfi_def_cfa_register 7
 127:.\mpu6050.c   ****     I2CReadByte(devAddr, MPU6050_RA_SMPLRT_DIV, buffer);
 253              		.loc 1 127 0
 254 0004 064B     		ldr	r3, .L19
 255 0006 1A78     		ldrb	r2, [r3]
 256 0008 064B     		ldr	r3, .L19+4
 257 000a 101C     		mov	r0, r2
 258 000c 1921     		mov	r1, #25
 259 000e 1A1C     		mov	r2, r3
 260 0010 FFF7FEFF 		bl	I2CReadByte
 128:.\mpu6050.c   ****     return buffer[0];
 261              		.loc 1 128 0
 262 0014 034B     		ldr	r3, .L19+4
 263 0016 1B78     		ldrb	r3, [r3]
 129:.\mpu6050.c   **** }
 264              		.loc 1 129 0
 265 0018 181C     		mov	r0, r3
 266 001a BD46     		mov	sp, r7
 267              		@ sp needed
 268 001c 80BD     		pop	{r7, pc}
 269              	.L20:
 270 001e C046     		.align	2
ARM GAS  C:\Users\CHRIST~1\AppData\Local\Temp\ccslI7ZX.s 			page 8


 271              	.L19:
 272 0020 00000000 		.word	devAddr
 273 0024 00000000 		.word	buffer
 274              		.cfi_endproc
 275              	.LFE6:
 276              		.size	MPU6050_getRate, .-MPU6050_getRate
 277              		.section	.text.MPU6050_setRate,"ax",%progbits
 278              		.align	2
 279              		.global	MPU6050_setRate
 280              		.code	16
 281              		.thumb_func
 282              		.type	MPU6050_setRate, %function
 283              	MPU6050_setRate:
 284              	.LFB7:
 130:.\mpu6050.c   **** /** Set gyroscope sample rate divider.
 131:.\mpu6050.c   ****  * @param rate New sample rate divider
 132:.\mpu6050.c   ****  * @see getRate()
 133:.\mpu6050.c   ****  * @see MPU6050_RA_SMPLRT_DIV
 134:.\mpu6050.c   ****  */
 135:.\mpu6050.c   **** void MPU6050_setRate(uint8_t rate) {
 285              		.loc 1 135 0
 286              		.cfi_startproc
 287 0000 80B5     		push	{r7, lr}
 288              		.cfi_def_cfa_offset 8
 289              		.cfi_offset 7, -8
 290              		.cfi_offset 14, -4
 291 0002 82B0     		sub	sp, sp, #8
 292              		.cfi_def_cfa_offset 16
 293 0004 00AF     		add	r7, sp, #0
 294              		.cfi_def_cfa_register 7
 295 0006 021C     		mov	r2, r0
 296 0008 FB1D     		add	r3, r7, #7
 297 000a 1A70     		strb	r2, [r3]
 136:.\mpu6050.c   ****     I2CWriteByte(devAddr, MPU6050_RA_SMPLRT_DIV, rate);
 298              		.loc 1 136 0
 299 000c 054B     		ldr	r3, .L22
 300 000e 1A78     		ldrb	r2, [r3]
 301 0010 FB1D     		add	r3, r7, #7
 302 0012 1B78     		ldrb	r3, [r3]
 303 0014 101C     		mov	r0, r2
 304 0016 1921     		mov	r1, #25
 305 0018 1A1C     		mov	r2, r3
 306 001a FFF7FEFF 		bl	I2CWriteByte
 137:.\mpu6050.c   **** }
 307              		.loc 1 137 0
 308 001e BD46     		mov	sp, r7
 309 0020 02B0     		add	sp, sp, #8
 310              		@ sp needed
 311 0022 80BD     		pop	{r7, pc}
 312              	.L23:
 313              		.align	2
 314              	.L22:
 315 0024 00000000 		.word	devAddr
 316              		.cfi_endproc
 317              	.LFE7:
 318              		.size	MPU6050_setRate, .-MPU6050_setRate
 319              		.section	.text.MPU6050_getExternalFrameSync,"ax",%progbits
ARM GAS  C:\Users\CHRIST~1\AppData\Local\Temp\ccslI7ZX.s 			page 9


 320              		.align	2
 321              		.global	MPU6050_getExternalFrameSync
 322              		.code	16
 323              		.thumb_func
 324              		.type	MPU6050_getExternalFrameSync, %function
 325              	MPU6050_getExternalFrameSync:
 326              	.LFB8:
 138:.\mpu6050.c   **** 
 139:.\mpu6050.c   **** // CONFIG register
 140:.\mpu6050.c   **** 
 141:.\mpu6050.c   **** /** Get external FSYNC configuration.
 142:.\mpu6050.c   ****  * Configures the external Frame Synchronization (FSYNC) pin sampling. An
 143:.\mpu6050.c   ****  * external signal connected to the FSYNC pin can be sampled by configuring
 144:.\mpu6050.c   ****  * EXT_SYNC_SET. Signal changes to the FSYNC pin are latched so that short
 145:.\mpu6050.c   ****  * strobes may be captured. The latched FSYNC signal will be sampled at the
 146:.\mpu6050.c   ****  * Sampling Rate, as defined in register 25. After sampling, the latch will
 147:.\mpu6050.c   ****  * reset to the current FSYNC signal state.
 148:.\mpu6050.c   ****  *
 149:.\mpu6050.c   ****  * The sampled value will be reported in place of the least significant bit in
 150:.\mpu6050.c   ****  * a sensor data register determined by the value of EXT_SYNC_SET according to
 151:.\mpu6050.c   ****  * the following table.
 152:.\mpu6050.c   ****  *
 153:.\mpu6050.c   ****  * <pre>
 154:.\mpu6050.c   ****  * EXT_SYNC_SET | FSYNC Bit Location
 155:.\mpu6050.c   ****  * -------------+-------------------
 156:.\mpu6050.c   ****  * 0            | Input disabled
 157:.\mpu6050.c   ****  * 1            | TEMP_OUT_L[0]
 158:.\mpu6050.c   ****  * 2            | GYRO_XOUT_L[0]
 159:.\mpu6050.c   ****  * 3            | GYRO_YOUT_L[0]
 160:.\mpu6050.c   ****  * 4            | GYRO_ZOUT_L[0]
 161:.\mpu6050.c   ****  * 5            | ACCEL_XOUT_L[0]
 162:.\mpu6050.c   ****  * 6            | ACCEL_YOUT_L[0]
 163:.\mpu6050.c   ****  * 7            | ACCEL_ZOUT_L[0]
 164:.\mpu6050.c   ****  * </pre>
 165:.\mpu6050.c   ****  *
 166:.\mpu6050.c   ****  * @return FSYNC configuration value
 167:.\mpu6050.c   ****  */
 168:.\mpu6050.c   **** uint8_t MPU6050_getExternalFrameSync() {
 327              		.loc 1 168 0
 328              		.cfi_startproc
 329 0000 80B5     		push	{r7, lr}
 330              		.cfi_def_cfa_offset 8
 331              		.cfi_offset 7, -8
 332              		.cfi_offset 14, -4
 333 0002 82B0     		sub	sp, sp, #8
 334              		.cfi_def_cfa_offset 16
 335 0004 02AF     		add	r7, sp, #8
 336              		.cfi_def_cfa 7, 8
 169:.\mpu6050.c   ****     I2CReadBits(devAddr, MPU6050_RA_CONFIG, MPU6050_CFG_EXT_SYNC_SET_BIT, MPU6050_CFG_EXT_SYNC_SET_
 337              		.loc 1 169 0
 338 0006 074B     		ldr	r3, .L26
 339 0008 1B78     		ldrb	r3, [r3]
 340 000a 074A     		ldr	r2, .L26+4
 341 000c 0092     		str	r2, [sp]
 342 000e 181C     		mov	r0, r3
 343 0010 1A21     		mov	r1, #26
 344 0012 0522     		mov	r2, #5
ARM GAS  C:\Users\CHRIST~1\AppData\Local\Temp\ccslI7ZX.s 			page 10


 345 0014 0323     		mov	r3, #3
 346 0016 FFF7FEFF 		bl	I2CReadBits
 170:.\mpu6050.c   ****     return buffer[0];
 347              		.loc 1 170 0
 348 001a 034B     		ldr	r3, .L26+4
 349 001c 1B78     		ldrb	r3, [r3]
 171:.\mpu6050.c   **** }
 350              		.loc 1 171 0
 351 001e 181C     		mov	r0, r3
 352 0020 BD46     		mov	sp, r7
 353              		@ sp needed
 354 0022 80BD     		pop	{r7, pc}
 355              	.L27:
 356              		.align	2
 357              	.L26:
 358 0024 00000000 		.word	devAddr
 359 0028 00000000 		.word	buffer
 360              		.cfi_endproc
 361              	.LFE8:
 362              		.size	MPU6050_getExternalFrameSync, .-MPU6050_getExternalFrameSync
 363              		.section	.text.MPU6050_setExternalFrameSync,"ax",%progbits
 364              		.align	2
 365              		.global	MPU6050_setExternalFrameSync
 366              		.code	16
 367              		.thumb_func
 368              		.type	MPU6050_setExternalFrameSync, %function
 369              	MPU6050_setExternalFrameSync:
 370              	.LFB9:
 172:.\mpu6050.c   **** /** Set external FSYNC configuration.
 173:.\mpu6050.c   ****  * @see getExternalFrameSync()
 174:.\mpu6050.c   ****  * @see MPU6050_RA_CONFIG
 175:.\mpu6050.c   ****  * @param sync New FSYNC configuration value
 176:.\mpu6050.c   ****  */
 177:.\mpu6050.c   **** void MPU6050_setExternalFrameSync(uint8_t sync) {
 371              		.loc 1 177 0
 372              		.cfi_startproc
 373 0000 80B5     		push	{r7, lr}
 374              		.cfi_def_cfa_offset 8
 375              		.cfi_offset 7, -8
 376              		.cfi_offset 14, -4
 377 0002 84B0     		sub	sp, sp, #16
 378              		.cfi_def_cfa_offset 24
 379 0004 02AF     		add	r7, sp, #8
 380              		.cfi_def_cfa 7, 16
 381 0006 021C     		mov	r2, r0
 382 0008 FB1D     		add	r3, r7, #7
 383 000a 1A70     		strb	r2, [r3]
 178:.\mpu6050.c   ****     I2CWriteBits(devAddr, MPU6050_RA_CONFIG, MPU6050_CFG_EXT_SYNC_SET_BIT, MPU6050_CFG_EXT_SYNC_SET
 384              		.loc 1 178 0
 385 000c 064B     		ldr	r3, .L29
 386 000e 1B78     		ldrb	r3, [r3]
 387 0010 FA1D     		add	r2, r7, #7
 388 0012 1278     		ldrb	r2, [r2]
 389 0014 0092     		str	r2, [sp]
 390 0016 181C     		mov	r0, r3
 391 0018 1A21     		mov	r1, #26
 392 001a 0522     		mov	r2, #5
ARM GAS  C:\Users\CHRIST~1\AppData\Local\Temp\ccslI7ZX.s 			page 11


 393 001c 0323     		mov	r3, #3
 394 001e FFF7FEFF 		bl	I2CWriteBits
 179:.\mpu6050.c   **** }
 395              		.loc 1 179 0
 396 0022 BD46     		mov	sp, r7
 397 0024 02B0     		add	sp, sp, #8
 398              		@ sp needed
 399 0026 80BD     		pop	{r7, pc}
 400              	.L30:
 401              		.align	2
 402              	.L29:
 403 0028 00000000 		.word	devAddr
 404              		.cfi_endproc
 405              	.LFE9:
 406              		.size	MPU6050_setExternalFrameSync, .-MPU6050_setExternalFrameSync
 407              		.section	.text.MPU6050_getDLPFMode,"ax",%progbits
 408              		.align	2
 409              		.global	MPU6050_getDLPFMode
 410              		.code	16
 411              		.thumb_func
 412              		.type	MPU6050_getDLPFMode, %function
 413              	MPU6050_getDLPFMode:
 414              	.LFB10:
 180:.\mpu6050.c   **** /** Get digital low-pass filter configuration.
 181:.\mpu6050.c   ****  * The DLPF_CFG parameter sets the digital low pass filter configuration. It
 182:.\mpu6050.c   ****  * also determines the internal sampling rate used by the device as shown in
 183:.\mpu6050.c   ****  * the table below.
 184:.\mpu6050.c   ****  *
 185:.\mpu6050.c   ****  * Note: The accelerometer output rate is 1kHz. This means that for a Sample
 186:.\mpu6050.c   ****  * Rate greater than 1kHz, the same accelerometer sample may be output to the
 187:.\mpu6050.c   ****  * FIFO, DMP, and sensor registers more than once.
 188:.\mpu6050.c   ****  *
 189:.\mpu6050.c   ****  * <pre>
 190:.\mpu6050.c   ****  *          |   ACCELEROMETER    |           GYROSCOPE
 191:.\mpu6050.c   ****  * DLPF_CFG | Bandwidth | Delay  | Bandwidth | Delay  | Sample Rate
 192:.\mpu6050.c   ****  * ---------+-----------+--------+-----------+--------+-------------
 193:.\mpu6050.c   ****  * 0        | 260Hz     | 0ms    | 256Hz     | 0.98ms | 8kHz
 194:.\mpu6050.c   ****  * 1        | 184Hz     | 2.0ms  | 188Hz     | 1.9ms  | 1kHz
 195:.\mpu6050.c   ****  * 2        | 94Hz      | 3.0ms  | 98Hz      | 2.8ms  | 1kHz
 196:.\mpu6050.c   ****  * 3        | 44Hz      | 4.9ms  | 42Hz      | 4.8ms  | 1kHz
 197:.\mpu6050.c   ****  * 4        | 21Hz      | 8.5ms  | 20Hz      | 8.3ms  | 1kHz
 198:.\mpu6050.c   ****  * 5        | 10Hz      | 13.8ms | 10Hz      | 13.4ms | 1kHz
 199:.\mpu6050.c   ****  * 6        | 5Hz       | 19.0ms | 5Hz       | 18.6ms | 1kHz
 200:.\mpu6050.c   ****  * 7        |   -- Reserved --   |   -- Reserved --   | Reserved
 201:.\mpu6050.c   ****  * </pre>
 202:.\mpu6050.c   ****  *
 203:.\mpu6050.c   ****  * @return DLFP configuration
 204:.\mpu6050.c   ****  * @see MPU6050_RA_CONFIG
 205:.\mpu6050.c   ****  * @see MPU6050_CFG_DLPF_CFG_BIT
 206:.\mpu6050.c   ****  * @see MPU6050_CFG_DLPF_CFG_LENGTH
 207:.\mpu6050.c   ****  */
 208:.\mpu6050.c   **** uint8_t MPU6050_getDLPFMode() {
 415              		.loc 1 208 0
 416              		.cfi_startproc
 417 0000 80B5     		push	{r7, lr}
 418              		.cfi_def_cfa_offset 8
 419              		.cfi_offset 7, -8
ARM GAS  C:\Users\CHRIST~1\AppData\Local\Temp\ccslI7ZX.s 			page 12


 420              		.cfi_offset 14, -4
 421 0002 82B0     		sub	sp, sp, #8
 422              		.cfi_def_cfa_offset 16
 423 0004 02AF     		add	r7, sp, #8
 424              		.cfi_def_cfa 7, 8
 209:.\mpu6050.c   ****     I2CReadBits(devAddr, MPU6050_RA_CONFIG, MPU6050_CFG_DLPF_CFG_BIT, MPU6050_CFG_DLPF_CFG_LENGTH, 
 425              		.loc 1 209 0
 426 0006 074B     		ldr	r3, .L33
 427 0008 1B78     		ldrb	r3, [r3]
 428 000a 074A     		ldr	r2, .L33+4
 429 000c 0092     		str	r2, [sp]
 430 000e 181C     		mov	r0, r3
 431 0010 1A21     		mov	r1, #26
 432 0012 0222     		mov	r2, #2
 433 0014 0323     		mov	r3, #3
 434 0016 FFF7FEFF 		bl	I2CReadBits
 210:.\mpu6050.c   ****     return buffer[0];
 435              		.loc 1 210 0
 436 001a 034B     		ldr	r3, .L33+4
 437 001c 1B78     		ldrb	r3, [r3]
 211:.\mpu6050.c   **** }
 438              		.loc 1 211 0
 439 001e 181C     		mov	r0, r3
 440 0020 BD46     		mov	sp, r7
 441              		@ sp needed
 442 0022 80BD     		pop	{r7, pc}
 443              	.L34:
 444              		.align	2
 445              	.L33:
 446 0024 00000000 		.word	devAddr
 447 0028 00000000 		.word	buffer
 448              		.cfi_endproc
 449              	.LFE10:
 450              		.size	MPU6050_getDLPFMode, .-MPU6050_getDLPFMode
 451              		.section	.text.MPU6050_setDLPFMode,"ax",%progbits
 452              		.align	2
 453              		.global	MPU6050_setDLPFMode
 454              		.code	16
 455              		.thumb_func
 456              		.type	MPU6050_setDLPFMode, %function
 457              	MPU6050_setDLPFMode:
 458              	.LFB11:
 212:.\mpu6050.c   **** /** Set digital low-pass filter configuration.
 213:.\mpu6050.c   ****  * @param mode New DLFP configuration setting
 214:.\mpu6050.c   ****  * @see getDLPFBandwidth()
 215:.\mpu6050.c   ****  * @see MPU6050_DLPF_BW_256
 216:.\mpu6050.c   ****  * @see MPU6050_RA_CONFIG
 217:.\mpu6050.c   ****  * @see MPU6050_CFG_DLPF_CFG_BIT
 218:.\mpu6050.c   ****  * @see MPU6050_CFG_DLPF_CFG_LENGTH
 219:.\mpu6050.c   ****  */
 220:.\mpu6050.c   **** void MPU6050_setDLPFMode(uint8_t mode) {
 459              		.loc 1 220 0
 460              		.cfi_startproc
 461 0000 80B5     		push	{r7, lr}
 462              		.cfi_def_cfa_offset 8
 463              		.cfi_offset 7, -8
 464              		.cfi_offset 14, -4
ARM GAS  C:\Users\CHRIST~1\AppData\Local\Temp\ccslI7ZX.s 			page 13


 465 0002 84B0     		sub	sp, sp, #16
 466              		.cfi_def_cfa_offset 24
 467 0004 02AF     		add	r7, sp, #8
 468              		.cfi_def_cfa 7, 16
 469 0006 021C     		mov	r2, r0
 470 0008 FB1D     		add	r3, r7, #7
 471 000a 1A70     		strb	r2, [r3]
 221:.\mpu6050.c   ****     I2CWriteBits(devAddr, MPU6050_RA_CONFIG, MPU6050_CFG_DLPF_CFG_BIT, MPU6050_CFG_DLPF_CFG_LENGTH,
 472              		.loc 1 221 0
 473 000c 064B     		ldr	r3, .L36
 474 000e 1B78     		ldrb	r3, [r3]
 475 0010 FA1D     		add	r2, r7, #7
 476 0012 1278     		ldrb	r2, [r2]
 477 0014 0092     		str	r2, [sp]
 478 0016 181C     		mov	r0, r3
 479 0018 1A21     		mov	r1, #26
 480 001a 0222     		mov	r2, #2
 481 001c 0323     		mov	r3, #3
 482 001e FFF7FEFF 		bl	I2CWriteBits
 222:.\mpu6050.c   **** }
 483              		.loc 1 222 0
 484 0022 BD46     		mov	sp, r7
 485 0024 02B0     		add	sp, sp, #8
 486              		@ sp needed
 487 0026 80BD     		pop	{r7, pc}
 488              	.L37:
 489              		.align	2
 490              	.L36:
 491 0028 00000000 		.word	devAddr
 492              		.cfi_endproc
 493              	.LFE11:
 494              		.size	MPU6050_setDLPFMode, .-MPU6050_setDLPFMode
 495              		.section	.text.MPU6050_getFullScaleGyroRange,"ax",%progbits
 496              		.align	2
 497              		.global	MPU6050_getFullScaleGyroRange
 498              		.code	16
 499              		.thumb_func
 500              		.type	MPU6050_getFullScaleGyroRange, %function
 501              	MPU6050_getFullScaleGyroRange:
 502              	.LFB12:
 223:.\mpu6050.c   **** 
 224:.\mpu6050.c   **** // GYRO_CONFIG register
 225:.\mpu6050.c   **** 
 226:.\mpu6050.c   **** /** Get full-scale gyroscope range.
 227:.\mpu6050.c   ****  * The FS_SEL parameter allows setting the full-scale range of the gyro sensors,
 228:.\mpu6050.c   ****  * as described in the table below.
 229:.\mpu6050.c   ****  *
 230:.\mpu6050.c   ****  * <pre>
 231:.\mpu6050.c   ****  * 0 = +/- 250 degrees/sec
 232:.\mpu6050.c   ****  * 1 = +/- 500 degrees/sec
 233:.\mpu6050.c   ****  * 2 = +/- 1000 degrees/sec
 234:.\mpu6050.c   ****  * 3 = +/- 2000 degrees/sec
 235:.\mpu6050.c   ****  * </pre>
 236:.\mpu6050.c   ****  *
 237:.\mpu6050.c   ****  * @return Current full-scale gyroscope range setting
 238:.\mpu6050.c   ****  * @see MPU6050_GYRO_FS_250
 239:.\mpu6050.c   ****  * @see MPU6050_RA_GYRO_CONFIG
ARM GAS  C:\Users\CHRIST~1\AppData\Local\Temp\ccslI7ZX.s 			page 14


 240:.\mpu6050.c   ****  * @see MPU6050_GCONFIG_FS_SEL_BIT
 241:.\mpu6050.c   ****  * @see MPU6050_GCONFIG_FS_SEL_LENGTH
 242:.\mpu6050.c   ****  */
 243:.\mpu6050.c   **** uint8_t MPU6050_getFullScaleGyroRange() {
 503              		.loc 1 243 0
 504              		.cfi_startproc
 505 0000 80B5     		push	{r7, lr}
 506              		.cfi_def_cfa_offset 8
 507              		.cfi_offset 7, -8
 508              		.cfi_offset 14, -4
 509 0002 82B0     		sub	sp, sp, #8
 510              		.cfi_def_cfa_offset 16
 511 0004 02AF     		add	r7, sp, #8
 512              		.cfi_def_cfa 7, 8
 244:.\mpu6050.c   ****     I2CReadBits(devAddr, MPU6050_RA_GYRO_CONFIG, MPU6050_GCONFIG_FS_SEL_BIT, MPU6050_GCONFIG_FS_SEL
 513              		.loc 1 244 0
 514 0006 074B     		ldr	r3, .L40
 515 0008 1B78     		ldrb	r3, [r3]
 516 000a 074A     		ldr	r2, .L40+4
 517 000c 0092     		str	r2, [sp]
 518 000e 181C     		mov	r0, r3
 519 0010 1B21     		mov	r1, #27
 520 0012 0422     		mov	r2, #4
 521 0014 0223     		mov	r3, #2
 522 0016 FFF7FEFF 		bl	I2CReadBits
 245:.\mpu6050.c   ****     return buffer[0];
 523              		.loc 1 245 0
 524 001a 034B     		ldr	r3, .L40+4
 525 001c 1B78     		ldrb	r3, [r3]
 246:.\mpu6050.c   **** }
 526              		.loc 1 246 0
 527 001e 181C     		mov	r0, r3
 528 0020 BD46     		mov	sp, r7
 529              		@ sp needed
 530 0022 80BD     		pop	{r7, pc}
 531              	.L41:
 532              		.align	2
 533              	.L40:
 534 0024 00000000 		.word	devAddr
 535 0028 00000000 		.word	buffer
 536              		.cfi_endproc
 537              	.LFE12:
 538              		.size	MPU6050_getFullScaleGyroRange, .-MPU6050_getFullScaleGyroRange
 539              		.section	.text.MPU6050_setFullScaleGyroRange,"ax",%progbits
 540              		.align	2
 541              		.global	MPU6050_setFullScaleGyroRange
 542              		.code	16
 543              		.thumb_func
 544              		.type	MPU6050_setFullScaleGyroRange, %function
 545              	MPU6050_setFullScaleGyroRange:
 546              	.LFB13:
 247:.\mpu6050.c   **** /** Set full-scale gyroscope range.
 248:.\mpu6050.c   ****  * @param range New full-scale gyroscope range value
 249:.\mpu6050.c   ****  * @see getFullScaleRange()
 250:.\mpu6050.c   ****  * @see MPU6050_GYRO_FS_250
 251:.\mpu6050.c   ****  * @see MPU6050_RA_GYRO_CONFIG
 252:.\mpu6050.c   ****  * @see MPU6050_GCONFIG_FS_SEL_BIT
ARM GAS  C:\Users\CHRIST~1\AppData\Local\Temp\ccslI7ZX.s 			page 15


 253:.\mpu6050.c   ****  * @see MPU6050_GCONFIG_FS_SEL_LENGTH
 254:.\mpu6050.c   ****  */
 255:.\mpu6050.c   **** void MPU6050_setFullScaleGyroRange(uint8_t range) {
 547              		.loc 1 255 0
 548              		.cfi_startproc
 549 0000 80B5     		push	{r7, lr}
 550              		.cfi_def_cfa_offset 8
 551              		.cfi_offset 7, -8
 552              		.cfi_offset 14, -4
 553 0002 84B0     		sub	sp, sp, #16
 554              		.cfi_def_cfa_offset 24
 555 0004 02AF     		add	r7, sp, #8
 556              		.cfi_def_cfa 7, 16
 557 0006 021C     		mov	r2, r0
 558 0008 FB1D     		add	r3, r7, #7
 559 000a 1A70     		strb	r2, [r3]
 256:.\mpu6050.c   ****     I2CWriteBits(devAddr, MPU6050_RA_GYRO_CONFIG, MPU6050_GCONFIG_FS_SEL_BIT, MPU6050_GCONFIG_FS_SE
 560              		.loc 1 256 0
 561 000c 064B     		ldr	r3, .L43
 562 000e 1B78     		ldrb	r3, [r3]
 563 0010 FA1D     		add	r2, r7, #7
 564 0012 1278     		ldrb	r2, [r2]
 565 0014 0092     		str	r2, [sp]
 566 0016 181C     		mov	r0, r3
 567 0018 1B21     		mov	r1, #27
 568 001a 0422     		mov	r2, #4
 569 001c 0223     		mov	r3, #2
 570 001e FFF7FEFF 		bl	I2CWriteBits
 257:.\mpu6050.c   **** }
 571              		.loc 1 257 0
 572 0022 BD46     		mov	sp, r7
 573 0024 02B0     		add	sp, sp, #8
 574              		@ sp needed
 575 0026 80BD     		pop	{r7, pc}
 576              	.L44:
 577              		.align	2
 578              	.L43:
 579 0028 00000000 		.word	devAddr
 580              		.cfi_endproc
 581              	.LFE13:
 582              		.size	MPU6050_setFullScaleGyroRange, .-MPU6050_setFullScaleGyroRange
 583              		.section	.text.MPU6050_getAccelXSelfTest,"ax",%progbits
 584              		.align	2
 585              		.global	MPU6050_getAccelXSelfTest
 586              		.code	16
 587              		.thumb_func
 588              		.type	MPU6050_getAccelXSelfTest, %function
 589              	MPU6050_getAccelXSelfTest:
 590              	.LFB14:
 258:.\mpu6050.c   **** 
 259:.\mpu6050.c   **** // ACCEL_CONFIG register
 260:.\mpu6050.c   **** 
 261:.\mpu6050.c   **** /** Get self-test enabled setting for accelerometer X axis.
 262:.\mpu6050.c   ****  * @return Self-test enabled value
 263:.\mpu6050.c   ****  * @see MPU6050_RA_ACCEL_CONFIG
 264:.\mpu6050.c   ****  */
 265:.\mpu6050.c   **** bool MPU6050_getAccelXSelfTest() {
ARM GAS  C:\Users\CHRIST~1\AppData\Local\Temp\ccslI7ZX.s 			page 16


 591              		.loc 1 265 0
 592              		.cfi_startproc
 593 0000 80B5     		push	{r7, lr}
 594              		.cfi_def_cfa_offset 8
 595              		.cfi_offset 7, -8
 596              		.cfi_offset 14, -4
 597 0002 00AF     		add	r7, sp, #0
 598              		.cfi_def_cfa_register 7
 266:.\mpu6050.c   ****     I2CReadBit(devAddr, MPU6050_RA_ACCEL_CONFIG, MPU6050_ACONFIG_XA_ST_BIT, buffer);
 599              		.loc 1 266 0
 600 0004 074B     		ldr	r3, .L47
 601 0006 1A78     		ldrb	r2, [r3]
 602 0008 074B     		ldr	r3, .L47+4
 603 000a 101C     		mov	r0, r2
 604 000c 1C21     		mov	r1, #28
 605 000e 0722     		mov	r2, #7
 606 0010 FFF7FEFF 		bl	I2CReadBit
 267:.\mpu6050.c   ****     return buffer[0];
 607              		.loc 1 267 0
 608 0014 044B     		ldr	r3, .L47+4
 609 0016 1B78     		ldrb	r3, [r3]
 610 0018 5A1E     		sub	r2, r3, #1
 611 001a 9341     		sbc	r3, r3, r2
 612 001c DBB2     		uxtb	r3, r3
 268:.\mpu6050.c   **** }
 613              		.loc 1 268 0
 614 001e 181C     		mov	r0, r3
 615 0020 BD46     		mov	sp, r7
 616              		@ sp needed
 617 0022 80BD     		pop	{r7, pc}
 618              	.L48:
 619              		.align	2
 620              	.L47:
 621 0024 00000000 		.word	devAddr
 622 0028 00000000 		.word	buffer
 623              		.cfi_endproc
 624              	.LFE14:
 625              		.size	MPU6050_getAccelXSelfTest, .-MPU6050_getAccelXSelfTest
 626              		.section	.text.MPU6050_setAccelXSelfTest,"ax",%progbits
 627              		.align	2
 628              		.global	MPU6050_setAccelXSelfTest
 629              		.code	16
 630              		.thumb_func
 631              		.type	MPU6050_setAccelXSelfTest, %function
 632              	MPU6050_setAccelXSelfTest:
 633              	.LFB15:
 269:.\mpu6050.c   **** /** Set self-test enabled setting for accelerometer X axis.
 270:.\mpu6050.c   ****  * @param enabled Self-test enabled value
 271:.\mpu6050.c   ****  * @see MPU6050_RA_ACCEL_CONFIG
 272:.\mpu6050.c   ****  */
 273:.\mpu6050.c   **** void MPU6050_setAccelXSelfTest(bool enabled) {
 634              		.loc 1 273 0
 635              		.cfi_startproc
 636 0000 80B5     		push	{r7, lr}
 637              		.cfi_def_cfa_offset 8
 638              		.cfi_offset 7, -8
 639              		.cfi_offset 14, -4
ARM GAS  C:\Users\CHRIST~1\AppData\Local\Temp\ccslI7ZX.s 			page 17


 640 0002 82B0     		sub	sp, sp, #8
 641              		.cfi_def_cfa_offset 16
 642 0004 00AF     		add	r7, sp, #0
 643              		.cfi_def_cfa_register 7
 644 0006 021C     		mov	r2, r0
 645 0008 FB1D     		add	r3, r7, #7
 646 000a 1A70     		strb	r2, [r3]
 274:.\mpu6050.c   ****     I2CWriteBit(devAddr, MPU6050_RA_ACCEL_CONFIG, MPU6050_ACONFIG_XA_ST_BIT, enabled);
 647              		.loc 1 274 0
 648 000c 054B     		ldr	r3, .L50
 649 000e 1A78     		ldrb	r2, [r3]
 650 0010 FB1D     		add	r3, r7, #7
 651 0012 1B78     		ldrb	r3, [r3]
 652 0014 101C     		mov	r0, r2
 653 0016 1C21     		mov	r1, #28
 654 0018 0722     		mov	r2, #7
 655 001a FFF7FEFF 		bl	I2CWriteBit
 275:.\mpu6050.c   **** }
 656              		.loc 1 275 0
 657 001e BD46     		mov	sp, r7
 658 0020 02B0     		add	sp, sp, #8
 659              		@ sp needed
 660 0022 80BD     		pop	{r7, pc}
 661              	.L51:
 662              		.align	2
 663              	.L50:
 664 0024 00000000 		.word	devAddr
 665              		.cfi_endproc
 666              	.LFE15:
 667              		.size	MPU6050_setAccelXSelfTest, .-MPU6050_setAccelXSelfTest
 668              		.section	.text.MPU6050_getAccelYSelfTest,"ax",%progbits
 669              		.align	2
 670              		.global	MPU6050_getAccelYSelfTest
 671              		.code	16
 672              		.thumb_func
 673              		.type	MPU6050_getAccelYSelfTest, %function
 674              	MPU6050_getAccelYSelfTest:
 675              	.LFB16:
 276:.\mpu6050.c   **** /** Get self-test enabled value for accelerometer Y axis.
 277:.\mpu6050.c   ****  * @return Self-test enabled value
 278:.\mpu6050.c   ****  * @see MPU6050_RA_ACCEL_CONFIG
 279:.\mpu6050.c   ****  */
 280:.\mpu6050.c   **** bool MPU6050_getAccelYSelfTest() {
 676              		.loc 1 280 0
 677              		.cfi_startproc
 678 0000 80B5     		push	{r7, lr}
 679              		.cfi_def_cfa_offset 8
 680              		.cfi_offset 7, -8
 681              		.cfi_offset 14, -4
 682 0002 00AF     		add	r7, sp, #0
 683              		.cfi_def_cfa_register 7
 281:.\mpu6050.c   ****     I2CReadBit(devAddr, MPU6050_RA_ACCEL_CONFIG, MPU6050_ACONFIG_YA_ST_BIT, buffer);
 684              		.loc 1 281 0
 685 0004 074B     		ldr	r3, .L54
 686 0006 1A78     		ldrb	r2, [r3]
 687 0008 074B     		ldr	r3, .L54+4
 688 000a 101C     		mov	r0, r2
ARM GAS  C:\Users\CHRIST~1\AppData\Local\Temp\ccslI7ZX.s 			page 18


 689 000c 1C21     		mov	r1, #28
 690 000e 0622     		mov	r2, #6
 691 0010 FFF7FEFF 		bl	I2CReadBit
 282:.\mpu6050.c   ****     return buffer[0];
 692              		.loc 1 282 0
 693 0014 044B     		ldr	r3, .L54+4
 694 0016 1B78     		ldrb	r3, [r3]
 695 0018 5A1E     		sub	r2, r3, #1
 696 001a 9341     		sbc	r3, r3, r2
 697 001c DBB2     		uxtb	r3, r3
 283:.\mpu6050.c   **** }
 698              		.loc 1 283 0
 699 001e 181C     		mov	r0, r3
 700 0020 BD46     		mov	sp, r7
 701              		@ sp needed
 702 0022 80BD     		pop	{r7, pc}
 703              	.L55:
 704              		.align	2
 705              	.L54:
 706 0024 00000000 		.word	devAddr
 707 0028 00000000 		.word	buffer
 708              		.cfi_endproc
 709              	.LFE16:
 710              		.size	MPU6050_getAccelYSelfTest, .-MPU6050_getAccelYSelfTest
 711              		.section	.text.MPU6050_setAccelYSelfTest,"ax",%progbits
 712              		.align	2
 713              		.global	MPU6050_setAccelYSelfTest
 714              		.code	16
 715              		.thumb_func
 716              		.type	MPU6050_setAccelYSelfTest, %function
 717              	MPU6050_setAccelYSelfTest:
 718              	.LFB17:
 284:.\mpu6050.c   **** /** Set self-test enabled value for accelerometer Y axis.
 285:.\mpu6050.c   ****  * @param enabled Self-test enabled value
 286:.\mpu6050.c   ****  * @see MPU6050_RA_ACCEL_CONFIG
 287:.\mpu6050.c   ****  */
 288:.\mpu6050.c   **** void MPU6050_setAccelYSelfTest(bool enabled) {
 719              		.loc 1 288 0
 720              		.cfi_startproc
 721 0000 80B5     		push	{r7, lr}
 722              		.cfi_def_cfa_offset 8
 723              		.cfi_offset 7, -8
 724              		.cfi_offset 14, -4
 725 0002 82B0     		sub	sp, sp, #8
 726              		.cfi_def_cfa_offset 16
 727 0004 00AF     		add	r7, sp, #0
 728              		.cfi_def_cfa_register 7
 729 0006 021C     		mov	r2, r0
 730 0008 FB1D     		add	r3, r7, #7
 731 000a 1A70     		strb	r2, [r3]
 289:.\mpu6050.c   ****     I2CWriteBit(devAddr, MPU6050_RA_ACCEL_CONFIG, MPU6050_ACONFIG_YA_ST_BIT, enabled);
 732              		.loc 1 289 0
 733 000c 054B     		ldr	r3, .L57
 734 000e 1A78     		ldrb	r2, [r3]
 735 0010 FB1D     		add	r3, r7, #7
 736 0012 1B78     		ldrb	r3, [r3]
 737 0014 101C     		mov	r0, r2
ARM GAS  C:\Users\CHRIST~1\AppData\Local\Temp\ccslI7ZX.s 			page 19


 738 0016 1C21     		mov	r1, #28
 739 0018 0622     		mov	r2, #6
 740 001a FFF7FEFF 		bl	I2CWriteBit
 290:.\mpu6050.c   **** }
 741              		.loc 1 290 0
 742 001e BD46     		mov	sp, r7
 743 0020 02B0     		add	sp, sp, #8
 744              		@ sp needed
 745 0022 80BD     		pop	{r7, pc}
 746              	.L58:
 747              		.align	2
 748              	.L57:
 749 0024 00000000 		.word	devAddr
 750              		.cfi_endproc
 751              	.LFE17:
 752              		.size	MPU6050_setAccelYSelfTest, .-MPU6050_setAccelYSelfTest
 753              		.section	.text.MPU6050_getAccelZSelfTest,"ax",%progbits
 754              		.align	2
 755              		.global	MPU6050_getAccelZSelfTest
 756              		.code	16
 757              		.thumb_func
 758              		.type	MPU6050_getAccelZSelfTest, %function
 759              	MPU6050_getAccelZSelfTest:
 760              	.LFB18:
 291:.\mpu6050.c   **** /** Get self-test enabled value for accelerometer Z axis.
 292:.\mpu6050.c   ****  * @return Self-test enabled value
 293:.\mpu6050.c   ****  * @see MPU6050_RA_ACCEL_CONFIG
 294:.\mpu6050.c   ****  */
 295:.\mpu6050.c   **** bool MPU6050_getAccelZSelfTest() {
 761              		.loc 1 295 0
 762              		.cfi_startproc
 763 0000 80B5     		push	{r7, lr}
 764              		.cfi_def_cfa_offset 8
 765              		.cfi_offset 7, -8
 766              		.cfi_offset 14, -4
 767 0002 00AF     		add	r7, sp, #0
 768              		.cfi_def_cfa_register 7
 296:.\mpu6050.c   ****     I2CReadBit(devAddr, MPU6050_RA_ACCEL_CONFIG, MPU6050_ACONFIG_ZA_ST_BIT, buffer);
 769              		.loc 1 296 0
 770 0004 074B     		ldr	r3, .L61
 771 0006 1A78     		ldrb	r2, [r3]
 772 0008 074B     		ldr	r3, .L61+4
 773 000a 101C     		mov	r0, r2
 774 000c 1C21     		mov	r1, #28
 775 000e 0522     		mov	r2, #5
 776 0010 FFF7FEFF 		bl	I2CReadBit
 297:.\mpu6050.c   ****     return buffer[0];
 777              		.loc 1 297 0
 778 0014 044B     		ldr	r3, .L61+4
 779 0016 1B78     		ldrb	r3, [r3]
 780 0018 5A1E     		sub	r2, r3, #1
 781 001a 9341     		sbc	r3, r3, r2
 782 001c DBB2     		uxtb	r3, r3
 298:.\mpu6050.c   **** }
 783              		.loc 1 298 0
 784 001e 181C     		mov	r0, r3
 785 0020 BD46     		mov	sp, r7
ARM GAS  C:\Users\CHRIST~1\AppData\Local\Temp\ccslI7ZX.s 			page 20


 786              		@ sp needed
 787 0022 80BD     		pop	{r7, pc}
 788              	.L62:
 789              		.align	2
 790              	.L61:
 791 0024 00000000 		.word	devAddr
 792 0028 00000000 		.word	buffer
 793              		.cfi_endproc
 794              	.LFE18:
 795              		.size	MPU6050_getAccelZSelfTest, .-MPU6050_getAccelZSelfTest
 796              		.section	.text.MPU6050_setAccelZSelfTest,"ax",%progbits
 797              		.align	2
 798              		.global	MPU6050_setAccelZSelfTest
 799              		.code	16
 800              		.thumb_func
 801              		.type	MPU6050_setAccelZSelfTest, %function
 802              	MPU6050_setAccelZSelfTest:
 803              	.LFB19:
 299:.\mpu6050.c   **** /** Set self-test enabled value for accelerometer Z axis.
 300:.\mpu6050.c   ****  * @param enabled Self-test enabled value
 301:.\mpu6050.c   ****  * @see MPU6050_RA_ACCEL_CONFIG
 302:.\mpu6050.c   ****  */
 303:.\mpu6050.c   **** void MPU6050_setAccelZSelfTest(bool enabled) {
 804              		.loc 1 303 0
 805              		.cfi_startproc
 806 0000 80B5     		push	{r7, lr}
 807              		.cfi_def_cfa_offset 8
 808              		.cfi_offset 7, -8
 809              		.cfi_offset 14, -4
 810 0002 82B0     		sub	sp, sp, #8
 811              		.cfi_def_cfa_offset 16
 812 0004 00AF     		add	r7, sp, #0
 813              		.cfi_def_cfa_register 7
 814 0006 021C     		mov	r2, r0
 815 0008 FB1D     		add	r3, r7, #7
 816 000a 1A70     		strb	r2, [r3]
 304:.\mpu6050.c   ****     I2CWriteBit(devAddr, MPU6050_RA_ACCEL_CONFIG, MPU6050_ACONFIG_ZA_ST_BIT, enabled);
 817              		.loc 1 304 0
 818 000c 054B     		ldr	r3, .L64
 819 000e 1A78     		ldrb	r2, [r3]
 820 0010 FB1D     		add	r3, r7, #7
 821 0012 1B78     		ldrb	r3, [r3]
 822 0014 101C     		mov	r0, r2
 823 0016 1C21     		mov	r1, #28
 824 0018 0522     		mov	r2, #5
 825 001a FFF7FEFF 		bl	I2CWriteBit
 305:.\mpu6050.c   **** }
 826              		.loc 1 305 0
 827 001e BD46     		mov	sp, r7
 828 0020 02B0     		add	sp, sp, #8
 829              		@ sp needed
 830 0022 80BD     		pop	{r7, pc}
 831              	.L65:
 832              		.align	2
 833              	.L64:
 834 0024 00000000 		.word	devAddr
 835              		.cfi_endproc
ARM GAS  C:\Users\CHRIST~1\AppData\Local\Temp\ccslI7ZX.s 			page 21


 836              	.LFE19:
 837              		.size	MPU6050_setAccelZSelfTest, .-MPU6050_setAccelZSelfTest
 838              		.section	.text.MPU6050_getFullScaleAccelRange,"ax",%progbits
 839              		.align	2
 840              		.global	MPU6050_getFullScaleAccelRange
 841              		.code	16
 842              		.thumb_func
 843              		.type	MPU6050_getFullScaleAccelRange, %function
 844              	MPU6050_getFullScaleAccelRange:
 845              	.LFB20:
 306:.\mpu6050.c   **** /** Get full-scale accelerometer range.
 307:.\mpu6050.c   ****  * The FS_SEL parameter allows setting the full-scale range of the accelerometer
 308:.\mpu6050.c   ****  * sensors, as described in the table below.
 309:.\mpu6050.c   ****  *
 310:.\mpu6050.c   ****  * <pre>
 311:.\mpu6050.c   ****  * 0 = +/- 2g
 312:.\mpu6050.c   ****  * 1 = +/- 4g
 313:.\mpu6050.c   ****  * 2 = +/- 8g
 314:.\mpu6050.c   ****  * 3 = +/- 16g
 315:.\mpu6050.c   ****  * </pre>
 316:.\mpu6050.c   ****  *
 317:.\mpu6050.c   ****  * @return Current full-scale accelerometer range setting
 318:.\mpu6050.c   ****  * @see MPU6050_ACCEL_FS_2
 319:.\mpu6050.c   ****  * @see MPU6050_RA_ACCEL_CONFIG
 320:.\mpu6050.c   ****  * @see MPU6050_ACONFIG_AFS_SEL_BIT
 321:.\mpu6050.c   ****  * @see MPU6050_ACONFIG_AFS_SEL_LENGTH
 322:.\mpu6050.c   ****  */
 323:.\mpu6050.c   **** uint8_t MPU6050_getFullScaleAccelRange() {
 846              		.loc 1 323 0
 847              		.cfi_startproc
 848 0000 80B5     		push	{r7, lr}
 849              		.cfi_def_cfa_offset 8
 850              		.cfi_offset 7, -8
 851              		.cfi_offset 14, -4
 852 0002 82B0     		sub	sp, sp, #8
 853              		.cfi_def_cfa_offset 16
 854 0004 02AF     		add	r7, sp, #8
 855              		.cfi_def_cfa 7, 8
 324:.\mpu6050.c   ****     I2CReadBits(devAddr, MPU6050_RA_ACCEL_CONFIG, MPU6050_ACONFIG_AFS_SEL_BIT, MPU6050_ACONFIG_AFS_
 856              		.loc 1 324 0
 857 0006 074B     		ldr	r3, .L68
 858 0008 1B78     		ldrb	r3, [r3]
 859 000a 074A     		ldr	r2, .L68+4
 860 000c 0092     		str	r2, [sp]
 861 000e 181C     		mov	r0, r3
 862 0010 1C21     		mov	r1, #28
 863 0012 0422     		mov	r2, #4
 864 0014 0223     		mov	r3, #2
 865 0016 FFF7FEFF 		bl	I2CReadBits
 325:.\mpu6050.c   ****     return buffer[0];
 866              		.loc 1 325 0
 867 001a 034B     		ldr	r3, .L68+4
 868 001c 1B78     		ldrb	r3, [r3]
 326:.\mpu6050.c   **** }
 869              		.loc 1 326 0
 870 001e 181C     		mov	r0, r3
 871 0020 BD46     		mov	sp, r7
ARM GAS  C:\Users\CHRIST~1\AppData\Local\Temp\ccslI7ZX.s 			page 22


 872              		@ sp needed
 873 0022 80BD     		pop	{r7, pc}
 874              	.L69:
 875              		.align	2
 876              	.L68:
 877 0024 00000000 		.word	devAddr
 878 0028 00000000 		.word	buffer
 879              		.cfi_endproc
 880              	.LFE20:
 881              		.size	MPU6050_getFullScaleAccelRange, .-MPU6050_getFullScaleAccelRange
 882              		.section	.text.MPU6050_setFullScaleAccelRange,"ax",%progbits
 883              		.align	2
 884              		.global	MPU6050_setFullScaleAccelRange
 885              		.code	16
 886              		.thumb_func
 887              		.type	MPU6050_setFullScaleAccelRange, %function
 888              	MPU6050_setFullScaleAccelRange:
 889              	.LFB21:
 327:.\mpu6050.c   **** /** Set full-scale accelerometer range.
 328:.\mpu6050.c   ****  * @param range New full-scale accelerometer range setting
 329:.\mpu6050.c   ****  * @see getFullScaleAccelRange()
 330:.\mpu6050.c   ****  */
 331:.\mpu6050.c   **** void MPU6050_setFullScaleAccelRange(uint8_t range) {
 890              		.loc 1 331 0
 891              		.cfi_startproc
 892 0000 80B5     		push	{r7, lr}
 893              		.cfi_def_cfa_offset 8
 894              		.cfi_offset 7, -8
 895              		.cfi_offset 14, -4
 896 0002 84B0     		sub	sp, sp, #16
 897              		.cfi_def_cfa_offset 24
 898 0004 02AF     		add	r7, sp, #8
 899              		.cfi_def_cfa 7, 16
 900 0006 021C     		mov	r2, r0
 901 0008 FB1D     		add	r3, r7, #7
 902 000a 1A70     		strb	r2, [r3]
 332:.\mpu6050.c   ****     I2CWriteBits(devAddr, MPU6050_RA_ACCEL_CONFIG, MPU6050_ACONFIG_AFS_SEL_BIT, MPU6050_ACONFIG_AFS
 903              		.loc 1 332 0
 904 000c 064B     		ldr	r3, .L71
 905 000e 1B78     		ldrb	r3, [r3]
 906 0010 FA1D     		add	r2, r7, #7
 907 0012 1278     		ldrb	r2, [r2]
 908 0014 0092     		str	r2, [sp]
 909 0016 181C     		mov	r0, r3
 910 0018 1C21     		mov	r1, #28
 911 001a 0422     		mov	r2, #4
 912 001c 0223     		mov	r3, #2
 913 001e FFF7FEFF 		bl	I2CWriteBits
 333:.\mpu6050.c   **** }
 914              		.loc 1 333 0
 915 0022 BD46     		mov	sp, r7
 916 0024 02B0     		add	sp, sp, #8
 917              		@ sp needed
 918 0026 80BD     		pop	{r7, pc}
 919              	.L72:
 920              		.align	2
 921              	.L71:
ARM GAS  C:\Users\CHRIST~1\AppData\Local\Temp\ccslI7ZX.s 			page 23


 922 0028 00000000 		.word	devAddr
 923              		.cfi_endproc
 924              	.LFE21:
 925              		.size	MPU6050_setFullScaleAccelRange, .-MPU6050_setFullScaleAccelRange
 926              		.section	.text.MPU6050_getDHPFMode,"ax",%progbits
 927              		.align	2
 928              		.global	MPU6050_getDHPFMode
 929              		.code	16
 930              		.thumb_func
 931              		.type	MPU6050_getDHPFMode, %function
 932              	MPU6050_getDHPFMode:
 933              	.LFB22:
 334:.\mpu6050.c   **** /** Get the high-pass filter configuration.
 335:.\mpu6050.c   ****  * The DHPF is a filter module in the path leading to motion detectors (Free
 336:.\mpu6050.c   ****  * Fall, Motion threshold, and Zero Motion). The high pass filter output is not
 337:.\mpu6050.c   ****  * available to the data registers (see Figure in Section 8 of the MPU-6000/
 338:.\mpu6050.c   ****  * MPU-6050 Product Specification document).
 339:.\mpu6050.c   ****  *
 340:.\mpu6050.c   ****  * The high pass filter has three modes:
 341:.\mpu6050.c   ****  *
 342:.\mpu6050.c   ****  * <pre>
 343:.\mpu6050.c   ****  *    Reset: The filter output settles to zero within one sample. This
 344:.\mpu6050.c   ****  *           effectively disables the high pass filter. This mode may be toggled
 345:.\mpu6050.c   ****  *           to quickly settle the filter.
 346:.\mpu6050.c   ****  *
 347:.\mpu6050.c   ****  *    On:    The high pass filter will pass signals above the cut off frequency.
 348:.\mpu6050.c   ****  *
 349:.\mpu6050.c   ****  *    Hold:  When triggered, the filter holds the present sample. The filter
 350:.\mpu6050.c   ****  *           output will be the difference between the input sample and the held
 351:.\mpu6050.c   ****  *           sample.
 352:.\mpu6050.c   ****  * </pre>
 353:.\mpu6050.c   ****  *
 354:.\mpu6050.c   ****  * <pre>
 355:.\mpu6050.c   ****  * ACCEL_HPF | Filter Mode | Cut-off Frequency
 356:.\mpu6050.c   ****  * ----------+-------------+------------------
 357:.\mpu6050.c   ****  * 0         | Reset       | None
 358:.\mpu6050.c   ****  * 1         | On          | 5Hz
 359:.\mpu6050.c   ****  * 2         | On          | 2.5Hz
 360:.\mpu6050.c   ****  * 3         | On          | 1.25Hz
 361:.\mpu6050.c   ****  * 4         | On          | 0.63Hz
 362:.\mpu6050.c   ****  * 7         | Hold        | None
 363:.\mpu6050.c   ****  * </pre>
 364:.\mpu6050.c   ****  *
 365:.\mpu6050.c   ****  * @return Current high-pass filter configuration
 366:.\mpu6050.c   ****  * @see MPU6050_DHPF_RESET
 367:.\mpu6050.c   ****  * @see MPU6050_RA_ACCEL_CONFIG
 368:.\mpu6050.c   ****  */
 369:.\mpu6050.c   **** uint8_t MPU6050_getDHPFMode() {
 934              		.loc 1 369 0
 935              		.cfi_startproc
 936 0000 80B5     		push	{r7, lr}
 937              		.cfi_def_cfa_offset 8
 938              		.cfi_offset 7, -8
 939              		.cfi_offset 14, -4
 940 0002 82B0     		sub	sp, sp, #8
 941              		.cfi_def_cfa_offset 16
 942 0004 02AF     		add	r7, sp, #8
ARM GAS  C:\Users\CHRIST~1\AppData\Local\Temp\ccslI7ZX.s 			page 24


 943              		.cfi_def_cfa 7, 8
 370:.\mpu6050.c   ****     I2CReadBits(devAddr, MPU6050_RA_ACCEL_CONFIG, MPU6050_ACONFIG_ACCEL_HPF_BIT, MPU6050_ACONFIG_AC
 944              		.loc 1 370 0
 945 0006 074B     		ldr	r3, .L75
 946 0008 1B78     		ldrb	r3, [r3]
 947 000a 074A     		ldr	r2, .L75+4
 948 000c 0092     		str	r2, [sp]
 949 000e 181C     		mov	r0, r3
 950 0010 1C21     		mov	r1, #28
 951 0012 0222     		mov	r2, #2
 952 0014 0323     		mov	r3, #3
 953 0016 FFF7FEFF 		bl	I2CReadBits
 371:.\mpu6050.c   ****     return buffer[0];
 954              		.loc 1 371 0
 955 001a 034B     		ldr	r3, .L75+4
 956 001c 1B78     		ldrb	r3, [r3]
 372:.\mpu6050.c   **** }
 957              		.loc 1 372 0
 958 001e 181C     		mov	r0, r3
 959 0020 BD46     		mov	sp, r7
 960              		@ sp needed
 961 0022 80BD     		pop	{r7, pc}
 962              	.L76:
 963              		.align	2
 964              	.L75:
 965 0024 00000000 		.word	devAddr
 966 0028 00000000 		.word	buffer
 967              		.cfi_endproc
 968              	.LFE22:
 969              		.size	MPU6050_getDHPFMode, .-MPU6050_getDHPFMode
 970              		.section	.text.MPU6050_setDHPFMode,"ax",%progbits
 971              		.align	2
 972              		.global	MPU6050_setDHPFMode
 973              		.code	16
 974              		.thumb_func
 975              		.type	MPU6050_setDHPFMode, %function
 976              	MPU6050_setDHPFMode:
 977              	.LFB23:
 373:.\mpu6050.c   **** /** Set the high-pass filter configuration.
 374:.\mpu6050.c   ****  * @param bandwidth New high-pass filter configuration
 375:.\mpu6050.c   ****  * @see setDHPFMode()
 376:.\mpu6050.c   ****  * @see MPU6050_DHPF_RESET
 377:.\mpu6050.c   ****  * @see MPU6050_RA_ACCEL_CONFIG
 378:.\mpu6050.c   ****  */
 379:.\mpu6050.c   **** void MPU6050_setDHPFMode(uint8_t bandwidth) {
 978              		.loc 1 379 0
 979              		.cfi_startproc
 980 0000 80B5     		push	{r7, lr}
 981              		.cfi_def_cfa_offset 8
 982              		.cfi_offset 7, -8
 983              		.cfi_offset 14, -4
 984 0002 84B0     		sub	sp, sp, #16
 985              		.cfi_def_cfa_offset 24
 986 0004 02AF     		add	r7, sp, #8
 987              		.cfi_def_cfa 7, 16
 988 0006 021C     		mov	r2, r0
 989 0008 FB1D     		add	r3, r7, #7
ARM GAS  C:\Users\CHRIST~1\AppData\Local\Temp\ccslI7ZX.s 			page 25


 990 000a 1A70     		strb	r2, [r3]
 380:.\mpu6050.c   ****     I2CWriteBits(devAddr, MPU6050_RA_ACCEL_CONFIG, MPU6050_ACONFIG_ACCEL_HPF_BIT, MPU6050_ACONFIG_A
 991              		.loc 1 380 0
 992 000c 064B     		ldr	r3, .L78
 993 000e 1B78     		ldrb	r3, [r3]
 994 0010 FA1D     		add	r2, r7, #7
 995 0012 1278     		ldrb	r2, [r2]
 996 0014 0092     		str	r2, [sp]
 997 0016 181C     		mov	r0, r3
 998 0018 1C21     		mov	r1, #28
 999 001a 0222     		mov	r2, #2
 1000 001c 0323     		mov	r3, #3
 1001 001e FFF7FEFF 		bl	I2CWriteBits
 381:.\mpu6050.c   **** }
 1002              		.loc 1 381 0
 1003 0022 BD46     		mov	sp, r7
 1004 0024 02B0     		add	sp, sp, #8
 1005              		@ sp needed
 1006 0026 80BD     		pop	{r7, pc}
 1007              	.L79:
 1008              		.align	2
 1009              	.L78:
 1010 0028 00000000 		.word	devAddr
 1011              		.cfi_endproc
 1012              	.LFE23:
 1013              		.size	MPU6050_setDHPFMode, .-MPU6050_setDHPFMode
 1014              		.section	.text.MPU6050_getFreefallDetectionThreshold,"ax",%progbits
 1015              		.align	2
 1016              		.global	MPU6050_getFreefallDetectionThreshold
 1017              		.code	16
 1018              		.thumb_func
 1019              		.type	MPU6050_getFreefallDetectionThreshold, %function
 1020              	MPU6050_getFreefallDetectionThreshold:
 1021              	.LFB24:
 382:.\mpu6050.c   **** 
 383:.\mpu6050.c   **** // FF_THR register
 384:.\mpu6050.c   **** 
 385:.\mpu6050.c   **** /** Get free-fall event acceleration threshold.
 386:.\mpu6050.c   ****  * This register configures the detection threshold for Free Fall event
 387:.\mpu6050.c   ****  * detection. The unit of FF_THR is 1LSB = 2mg. Free Fall is detected when the
 388:.\mpu6050.c   ****  * absolute value of the accelerometer measurements for the three axes are each
 389:.\mpu6050.c   ****  * less than the detection threshold. This condition increments the Free Fall
 390:.\mpu6050.c   ****  * duration counter (Register 30). The Free Fall interrupt is triggered when the
 391:.\mpu6050.c   ****  * Free Fall duration counter reaches the time specified in FF_DUR.
 392:.\mpu6050.c   ****  *
 393:.\mpu6050.c   ****  * For more details on the Free Fall detection interrupt, see Section 8.2 of the
 394:.\mpu6050.c   ****  * MPU-6000/MPU-6050 Product Specification document as well as Registers 56 and
 395:.\mpu6050.c   ****  * 58 of this document.
 396:.\mpu6050.c   ****  *
 397:.\mpu6050.c   ****  * @return Current free-fall acceleration threshold value (LSB = 2mg)
 398:.\mpu6050.c   ****  * @see MPU6050_RA_FF_THR
 399:.\mpu6050.c   ****  */
 400:.\mpu6050.c   **** uint8_t MPU6050_getFreefallDetectionThreshold() {
 1022              		.loc 1 400 0
 1023              		.cfi_startproc
 1024 0000 80B5     		push	{r7, lr}
 1025              		.cfi_def_cfa_offset 8
ARM GAS  C:\Users\CHRIST~1\AppData\Local\Temp\ccslI7ZX.s 			page 26


 1026              		.cfi_offset 7, -8
 1027              		.cfi_offset 14, -4
 1028 0002 00AF     		add	r7, sp, #0
 1029              		.cfi_def_cfa_register 7
 401:.\mpu6050.c   ****     I2CReadByte(devAddr, MPU6050_RA_FF_THR, buffer);
 1030              		.loc 1 401 0
 1031 0004 064B     		ldr	r3, .L82
 1032 0006 1A78     		ldrb	r2, [r3]
 1033 0008 064B     		ldr	r3, .L82+4
 1034 000a 101C     		mov	r0, r2
 1035 000c 1D21     		mov	r1, #29
 1036 000e 1A1C     		mov	r2, r3
 1037 0010 FFF7FEFF 		bl	I2CReadByte
 402:.\mpu6050.c   ****     return buffer[0];
 1038              		.loc 1 402 0
 1039 0014 034B     		ldr	r3, .L82+4
 1040 0016 1B78     		ldrb	r3, [r3]
 403:.\mpu6050.c   **** }
 1041              		.loc 1 403 0
 1042 0018 181C     		mov	r0, r3
 1043 001a BD46     		mov	sp, r7
 1044              		@ sp needed
 1045 001c 80BD     		pop	{r7, pc}
 1046              	.L83:
 1047 001e C046     		.align	2
 1048              	.L82:
 1049 0020 00000000 		.word	devAddr
 1050 0024 00000000 		.word	buffer
 1051              		.cfi_endproc
 1052              	.LFE24:
 1053              		.size	MPU6050_getFreefallDetectionThreshold, .-MPU6050_getFreefallDetectionThreshold
 1054              		.section	.text.MPU6050_setFreefallDetectionThreshold,"ax",%progbits
 1055              		.align	2
 1056              		.global	MPU6050_setFreefallDetectionThreshold
 1057              		.code	16
 1058              		.thumb_func
 1059              		.type	MPU6050_setFreefallDetectionThreshold, %function
 1060              	MPU6050_setFreefallDetectionThreshold:
 1061              	.LFB25:
 404:.\mpu6050.c   **** /** Get free-fall event acceleration threshold.
 405:.\mpu6050.c   ****  * @param threshold New free-fall acceleration threshold value (LSB = 2mg)
 406:.\mpu6050.c   ****  * @see getFreefallDetectionThreshold()
 407:.\mpu6050.c   ****  * @see MPU6050_RA_FF_THR
 408:.\mpu6050.c   ****  */
 409:.\mpu6050.c   **** void MPU6050_setFreefallDetectionThreshold(uint8_t threshold) {
 1062              		.loc 1 409 0
 1063              		.cfi_startproc
 1064 0000 80B5     		push	{r7, lr}
 1065              		.cfi_def_cfa_offset 8
 1066              		.cfi_offset 7, -8
 1067              		.cfi_offset 14, -4
 1068 0002 82B0     		sub	sp, sp, #8
 1069              		.cfi_def_cfa_offset 16
 1070 0004 00AF     		add	r7, sp, #0
 1071              		.cfi_def_cfa_register 7
 1072 0006 021C     		mov	r2, r0
 1073 0008 FB1D     		add	r3, r7, #7
ARM GAS  C:\Users\CHRIST~1\AppData\Local\Temp\ccslI7ZX.s 			page 27


 1074 000a 1A70     		strb	r2, [r3]
 410:.\mpu6050.c   ****     I2CWriteByte(devAddr, MPU6050_RA_FF_THR, threshold);
 1075              		.loc 1 410 0
 1076 000c 054B     		ldr	r3, .L85
 1077 000e 1A78     		ldrb	r2, [r3]
 1078 0010 FB1D     		add	r3, r7, #7
 1079 0012 1B78     		ldrb	r3, [r3]
 1080 0014 101C     		mov	r0, r2
 1081 0016 1D21     		mov	r1, #29
 1082 0018 1A1C     		mov	r2, r3
 1083 001a FFF7FEFF 		bl	I2CWriteByte
 411:.\mpu6050.c   **** }
 1084              		.loc 1 411 0
 1085 001e BD46     		mov	sp, r7
 1086 0020 02B0     		add	sp, sp, #8
 1087              		@ sp needed
 1088 0022 80BD     		pop	{r7, pc}
 1089              	.L86:
 1090              		.align	2
 1091              	.L85:
 1092 0024 00000000 		.word	devAddr
 1093              		.cfi_endproc
 1094              	.LFE25:
 1095              		.size	MPU6050_setFreefallDetectionThreshold, .-MPU6050_setFreefallDetectionThreshold
 1096              		.section	.text.MPU6050_getFreefallDetectionDuration,"ax",%progbits
 1097              		.align	2
 1098              		.global	MPU6050_getFreefallDetectionDuration
 1099              		.code	16
 1100              		.thumb_func
 1101              		.type	MPU6050_getFreefallDetectionDuration, %function
 1102              	MPU6050_getFreefallDetectionDuration:
 1103              	.LFB26:
 412:.\mpu6050.c   **** 
 413:.\mpu6050.c   **** // FF_DUR register
 414:.\mpu6050.c   **** 
 415:.\mpu6050.c   **** /** Get free-fall event duration threshold.
 416:.\mpu6050.c   ****  * This register configures the duration counter threshold for Free Fall event
 417:.\mpu6050.c   ****  * detection. The duration counter ticks at 1kHz, therefore FF_DUR has a unit
 418:.\mpu6050.c   ****  * of 1 LSB = 1 ms.
 419:.\mpu6050.c   ****  *
 420:.\mpu6050.c   ****  * The Free Fall duration counter increments while the absolute value of the
 421:.\mpu6050.c   ****  * accelerometer measurements are each less than the detection threshold
 422:.\mpu6050.c   ****  * (Register 29). The Free Fall interrupt is triggered when the Free Fall
 423:.\mpu6050.c   ****  * duration counter reaches the time specified in this register.
 424:.\mpu6050.c   ****  *
 425:.\mpu6050.c   ****  * For more details on the Free Fall detection interrupt, see Section 8.2 of
 426:.\mpu6050.c   ****  * the MPU-6000/MPU-6050 Product Specification document as well as Registers 56
 427:.\mpu6050.c   ****  * and 58 of this document.
 428:.\mpu6050.c   ****  *
 429:.\mpu6050.c   ****  * @return Current free-fall duration threshold value (LSB = 1ms)
 430:.\mpu6050.c   ****  * @see MPU6050_RA_FF_DUR
 431:.\mpu6050.c   ****  */
 432:.\mpu6050.c   **** uint8_t MPU6050_getFreefallDetectionDuration() {
 1104              		.loc 1 432 0
 1105              		.cfi_startproc
 1106 0000 80B5     		push	{r7, lr}
 1107              		.cfi_def_cfa_offset 8
ARM GAS  C:\Users\CHRIST~1\AppData\Local\Temp\ccslI7ZX.s 			page 28


 1108              		.cfi_offset 7, -8
 1109              		.cfi_offset 14, -4
 1110 0002 00AF     		add	r7, sp, #0
 1111              		.cfi_def_cfa_register 7
 433:.\mpu6050.c   ****     I2CReadByte(devAddr, MPU6050_RA_FF_DUR, buffer);
 1112              		.loc 1 433 0
 1113 0004 064B     		ldr	r3, .L89
 1114 0006 1A78     		ldrb	r2, [r3]
 1115 0008 064B     		ldr	r3, .L89+4
 1116 000a 101C     		mov	r0, r2
 1117 000c 1E21     		mov	r1, #30
 1118 000e 1A1C     		mov	r2, r3
 1119 0010 FFF7FEFF 		bl	I2CReadByte
 434:.\mpu6050.c   ****     return buffer[0];
 1120              		.loc 1 434 0
 1121 0014 034B     		ldr	r3, .L89+4
 1122 0016 1B78     		ldrb	r3, [r3]
 435:.\mpu6050.c   **** }
 1123              		.loc 1 435 0
 1124 0018 181C     		mov	r0, r3
 1125 001a BD46     		mov	sp, r7
 1126              		@ sp needed
 1127 001c 80BD     		pop	{r7, pc}
 1128              	.L90:
 1129 001e C046     		.align	2
 1130              	.L89:
 1131 0020 00000000 		.word	devAddr
 1132 0024 00000000 		.word	buffer
 1133              		.cfi_endproc
 1134              	.LFE26:
 1135              		.size	MPU6050_getFreefallDetectionDuration, .-MPU6050_getFreefallDetectionDuration
 1136              		.section	.text.MPU6050_setFreefallDetectionDuration,"ax",%progbits
 1137              		.align	2
 1138              		.global	MPU6050_setFreefallDetectionDuration
 1139              		.code	16
 1140              		.thumb_func
 1141              		.type	MPU6050_setFreefallDetectionDuration, %function
 1142              	MPU6050_setFreefallDetectionDuration:
 1143              	.LFB27:
 436:.\mpu6050.c   **** /** Get free-fall event duration threshold.
 437:.\mpu6050.c   ****  * @param duration New free-fall duration threshold value (LSB = 1ms)
 438:.\mpu6050.c   ****  * @see getFreefallDetectionDuration()
 439:.\mpu6050.c   ****  * @see MPU6050_RA_FF_DUR
 440:.\mpu6050.c   ****  */
 441:.\mpu6050.c   **** void MPU6050_setFreefallDetectionDuration(uint8_t duration) {
 1144              		.loc 1 441 0
 1145              		.cfi_startproc
 1146 0000 80B5     		push	{r7, lr}
 1147              		.cfi_def_cfa_offset 8
 1148              		.cfi_offset 7, -8
 1149              		.cfi_offset 14, -4
 1150 0002 82B0     		sub	sp, sp, #8
 1151              		.cfi_def_cfa_offset 16
 1152 0004 00AF     		add	r7, sp, #0
 1153              		.cfi_def_cfa_register 7
 1154 0006 021C     		mov	r2, r0
 1155 0008 FB1D     		add	r3, r7, #7
ARM GAS  C:\Users\CHRIST~1\AppData\Local\Temp\ccslI7ZX.s 			page 29


 1156 000a 1A70     		strb	r2, [r3]
 442:.\mpu6050.c   ****     I2CWriteByte(devAddr, MPU6050_RA_FF_DUR, duration);
 1157              		.loc 1 442 0
 1158 000c 054B     		ldr	r3, .L92
 1159 000e 1A78     		ldrb	r2, [r3]
 1160 0010 FB1D     		add	r3, r7, #7
 1161 0012 1B78     		ldrb	r3, [r3]
 1162 0014 101C     		mov	r0, r2
 1163 0016 1E21     		mov	r1, #30
 1164 0018 1A1C     		mov	r2, r3
 1165 001a FFF7FEFF 		bl	I2CWriteByte
 443:.\mpu6050.c   **** }
 1166              		.loc 1 443 0
 1167 001e BD46     		mov	sp, r7
 1168 0020 02B0     		add	sp, sp, #8
 1169              		@ sp needed
 1170 0022 80BD     		pop	{r7, pc}
 1171              	.L93:
 1172              		.align	2
 1173              	.L92:
 1174 0024 00000000 		.word	devAddr
 1175              		.cfi_endproc
 1176              	.LFE27:
 1177              		.size	MPU6050_setFreefallDetectionDuration, .-MPU6050_setFreefallDetectionDuration
 1178              		.section	.text.MPU6050_getMotionDetectionThreshold,"ax",%progbits
 1179              		.align	2
 1180              		.global	MPU6050_getMotionDetectionThreshold
 1181              		.code	16
 1182              		.thumb_func
 1183              		.type	MPU6050_getMotionDetectionThreshold, %function
 1184              	MPU6050_getMotionDetectionThreshold:
 1185              	.LFB28:
 444:.\mpu6050.c   **** 
 445:.\mpu6050.c   **** // MOT_THR register
 446:.\mpu6050.c   **** 
 447:.\mpu6050.c   **** /** Get motion detection event acceleration threshold.
 448:.\mpu6050.c   ****  * This register configures the detection threshold for Motion interrupt
 449:.\mpu6050.c   ****  * generation. The unit of MOT_THR is 1LSB = 2mg. Motion is detected when the
 450:.\mpu6050.c   ****  * absolute value of any of the accelerometer measurements exceeds this Motion
 451:.\mpu6050.c   ****  * detection threshold. This condition increments the Motion detection duration
 452:.\mpu6050.c   ****  * counter (Register 32). The Motion detection interrupt is triggered when the
 453:.\mpu6050.c   ****  * Motion Detection counter reaches the time count specified in MOT_DUR
 454:.\mpu6050.c   ****  * (Register 32).
 455:.\mpu6050.c   ****  *
 456:.\mpu6050.c   ****  * The Motion interrupt will indicate the axis and polarity of detected motion
 457:.\mpu6050.c   ****  * in MOT_DETECT_STATUS (Register 97).
 458:.\mpu6050.c   ****  *
 459:.\mpu6050.c   ****  * For more details on the Motion detection interrupt, see Section 8.3 of the
 460:.\mpu6050.c   ****  * MPU-6000/MPU-6050 Product Specification document as well as Registers 56 and
 461:.\mpu6050.c   ****  * 58 of this document.
 462:.\mpu6050.c   ****  *
 463:.\mpu6050.c   ****  * @return Current motion detection acceleration threshold value (LSB = 2mg)
 464:.\mpu6050.c   ****  * @see MPU6050_RA_MOT_THR
 465:.\mpu6050.c   ****  */
 466:.\mpu6050.c   **** uint8_t MPU6050_getMotionDetectionThreshold() {
 1186              		.loc 1 466 0
 1187              		.cfi_startproc
ARM GAS  C:\Users\CHRIST~1\AppData\Local\Temp\ccslI7ZX.s 			page 30


 1188 0000 80B5     		push	{r7, lr}
 1189              		.cfi_def_cfa_offset 8
 1190              		.cfi_offset 7, -8
 1191              		.cfi_offset 14, -4
 1192 0002 00AF     		add	r7, sp, #0
 1193              		.cfi_def_cfa_register 7
 467:.\mpu6050.c   ****     I2CReadByte(devAddr, MPU6050_RA_MOT_THR, buffer);
 1194              		.loc 1 467 0
 1195 0004 064B     		ldr	r3, .L96
 1196 0006 1A78     		ldrb	r2, [r3]
 1197 0008 064B     		ldr	r3, .L96+4
 1198 000a 101C     		mov	r0, r2
 1199 000c 1F21     		mov	r1, #31
 1200 000e 1A1C     		mov	r2, r3
 1201 0010 FFF7FEFF 		bl	I2CReadByte
 468:.\mpu6050.c   ****     return buffer[0];
 1202              		.loc 1 468 0
 1203 0014 034B     		ldr	r3, .L96+4
 1204 0016 1B78     		ldrb	r3, [r3]
 469:.\mpu6050.c   **** }
 1205              		.loc 1 469 0
 1206 0018 181C     		mov	r0, r3
 1207 001a BD46     		mov	sp, r7
 1208              		@ sp needed
 1209 001c 80BD     		pop	{r7, pc}
 1210              	.L97:
 1211 001e C046     		.align	2
 1212              	.L96:
 1213 0020 00000000 		.word	devAddr
 1214 0024 00000000 		.word	buffer
 1215              		.cfi_endproc
 1216              	.LFE28:
 1217              		.size	MPU6050_getMotionDetectionThreshold, .-MPU6050_getMotionDetectionThreshold
 1218              		.section	.text.MPU6050_setMotionDetectionThreshold,"ax",%progbits
 1219              		.align	2
 1220              		.global	MPU6050_setMotionDetectionThreshold
 1221              		.code	16
 1222              		.thumb_func
 1223              		.type	MPU6050_setMotionDetectionThreshold, %function
 1224              	MPU6050_setMotionDetectionThreshold:
 1225              	.LFB29:
 470:.\mpu6050.c   **** /** Set free-fall event acceleration threshold.
 471:.\mpu6050.c   ****  * @param threshold New motion detection acceleration threshold value (LSB = 2mg)
 472:.\mpu6050.c   ****  * @see getMotionDetectionThreshold()
 473:.\mpu6050.c   ****  * @see MPU6050_RA_MOT_THR
 474:.\mpu6050.c   ****  */
 475:.\mpu6050.c   **** void MPU6050_setMotionDetectionThreshold(uint8_t threshold) {
 1226              		.loc 1 475 0
 1227              		.cfi_startproc
 1228 0000 80B5     		push	{r7, lr}
 1229              		.cfi_def_cfa_offset 8
 1230              		.cfi_offset 7, -8
 1231              		.cfi_offset 14, -4
 1232 0002 82B0     		sub	sp, sp, #8
 1233              		.cfi_def_cfa_offset 16
 1234 0004 00AF     		add	r7, sp, #0
 1235              		.cfi_def_cfa_register 7
ARM GAS  C:\Users\CHRIST~1\AppData\Local\Temp\ccslI7ZX.s 			page 31


 1236 0006 021C     		mov	r2, r0
 1237 0008 FB1D     		add	r3, r7, #7
 1238 000a 1A70     		strb	r2, [r3]
 476:.\mpu6050.c   ****     I2CWriteByte(devAddr, MPU6050_RA_MOT_THR, threshold);
 1239              		.loc 1 476 0
 1240 000c 054B     		ldr	r3, .L99
 1241 000e 1A78     		ldrb	r2, [r3]
 1242 0010 FB1D     		add	r3, r7, #7
 1243 0012 1B78     		ldrb	r3, [r3]
 1244 0014 101C     		mov	r0, r2
 1245 0016 1F21     		mov	r1, #31
 1246 0018 1A1C     		mov	r2, r3
 1247 001a FFF7FEFF 		bl	I2CWriteByte
 477:.\mpu6050.c   **** }
 1248              		.loc 1 477 0
 1249 001e BD46     		mov	sp, r7
 1250 0020 02B0     		add	sp, sp, #8
 1251              		@ sp needed
 1252 0022 80BD     		pop	{r7, pc}
 1253              	.L100:
 1254              		.align	2
 1255              	.L99:
 1256 0024 00000000 		.word	devAddr
 1257              		.cfi_endproc
 1258              	.LFE29:
 1259              		.size	MPU6050_setMotionDetectionThreshold, .-MPU6050_setMotionDetectionThreshold
 1260              		.section	.text.MPU6050_getMotionDetectionDuration,"ax",%progbits
 1261              		.align	2
 1262              		.global	MPU6050_getMotionDetectionDuration
 1263              		.code	16
 1264              		.thumb_func
 1265              		.type	MPU6050_getMotionDetectionDuration, %function
 1266              	MPU6050_getMotionDetectionDuration:
 1267              	.LFB30:
 478:.\mpu6050.c   **** 
 479:.\mpu6050.c   **** // MOT_DUR register
 480:.\mpu6050.c   **** 
 481:.\mpu6050.c   **** /** Get motion detection event duration threshold.
 482:.\mpu6050.c   ****  * This register configures the duration counter threshold for Motion interrupt
 483:.\mpu6050.c   ****  * generation. The duration counter ticks at 1 kHz, therefore MOT_DUR has a unit
 484:.\mpu6050.c   ****  * of 1LSB = 1ms. The Motion detection duration counter increments when the
 485:.\mpu6050.c   ****  * absolute value of any of the accelerometer measurements exceeds the Motion
 486:.\mpu6050.c   ****  * detection threshold (Register 31). The Motion detection interrupt is
 487:.\mpu6050.c   ****  * triggered when the Motion detection counter reaches the time count specified
 488:.\mpu6050.c   ****  * in this register.
 489:.\mpu6050.c   ****  *
 490:.\mpu6050.c   ****  * For more details on the Motion detection interrupt, see Section 8.3 of the
 491:.\mpu6050.c   ****  * MPU-6000/MPU-6050 Product Specification document.
 492:.\mpu6050.c   ****  *
 493:.\mpu6050.c   ****  * @return Current motion detection duration threshold value (LSB = 1ms)
 494:.\mpu6050.c   ****  * @see MPU6050_RA_MOT_DUR
 495:.\mpu6050.c   ****  */
 496:.\mpu6050.c   **** uint8_t MPU6050_getMotionDetectionDuration() {
 1268              		.loc 1 496 0
 1269              		.cfi_startproc
 1270 0000 80B5     		push	{r7, lr}
 1271              		.cfi_def_cfa_offset 8
ARM GAS  C:\Users\CHRIST~1\AppData\Local\Temp\ccslI7ZX.s 			page 32


 1272              		.cfi_offset 7, -8
 1273              		.cfi_offset 14, -4
 1274 0002 00AF     		add	r7, sp, #0
 1275              		.cfi_def_cfa_register 7
 497:.\mpu6050.c   ****     I2CReadByte(devAddr, MPU6050_RA_MOT_DUR, buffer);
 1276              		.loc 1 497 0
 1277 0004 064B     		ldr	r3, .L103
 1278 0006 1A78     		ldrb	r2, [r3]
 1279 0008 064B     		ldr	r3, .L103+4
 1280 000a 101C     		mov	r0, r2
 1281 000c 2021     		mov	r1, #32
 1282 000e 1A1C     		mov	r2, r3
 1283 0010 FFF7FEFF 		bl	I2CReadByte
 498:.\mpu6050.c   ****     return buffer[0];
 1284              		.loc 1 498 0
 1285 0014 034B     		ldr	r3, .L103+4
 1286 0016 1B78     		ldrb	r3, [r3]
 499:.\mpu6050.c   **** }
 1287              		.loc 1 499 0
 1288 0018 181C     		mov	r0, r3
 1289 001a BD46     		mov	sp, r7
 1290              		@ sp needed
 1291 001c 80BD     		pop	{r7, pc}
 1292              	.L104:
 1293 001e C046     		.align	2
 1294              	.L103:
 1295 0020 00000000 		.word	devAddr
 1296 0024 00000000 		.word	buffer
 1297              		.cfi_endproc
 1298              	.LFE30:
 1299              		.size	MPU6050_getMotionDetectionDuration, .-MPU6050_getMotionDetectionDuration
 1300              		.section	.text.MPU6050_setMotionDetectionDuration,"ax",%progbits
 1301              		.align	2
 1302              		.global	MPU6050_setMotionDetectionDuration
 1303              		.code	16
 1304              		.thumb_func
 1305              		.type	MPU6050_setMotionDetectionDuration, %function
 1306              	MPU6050_setMotionDetectionDuration:
 1307              	.LFB31:
 500:.\mpu6050.c   **** /** Set motion detection event duration threshold.
 501:.\mpu6050.c   ****  * @param duration New motion detection duration threshold value (LSB = 1ms)
 502:.\mpu6050.c   ****  * @see getMotionDetectionDuration()
 503:.\mpu6050.c   ****  * @see MPU6050_RA_MOT_DUR
 504:.\mpu6050.c   ****  */
 505:.\mpu6050.c   **** void MPU6050_setMotionDetectionDuration(uint8_t duration) {
 1308              		.loc 1 505 0
 1309              		.cfi_startproc
 1310 0000 80B5     		push	{r7, lr}
 1311              		.cfi_def_cfa_offset 8
 1312              		.cfi_offset 7, -8
 1313              		.cfi_offset 14, -4
 1314 0002 82B0     		sub	sp, sp, #8
 1315              		.cfi_def_cfa_offset 16
 1316 0004 00AF     		add	r7, sp, #0
 1317              		.cfi_def_cfa_register 7
 1318 0006 021C     		mov	r2, r0
 1319 0008 FB1D     		add	r3, r7, #7
ARM GAS  C:\Users\CHRIST~1\AppData\Local\Temp\ccslI7ZX.s 			page 33


 1320 000a 1A70     		strb	r2, [r3]
 506:.\mpu6050.c   ****     I2CWriteByte(devAddr, MPU6050_RA_MOT_DUR, duration);
 1321              		.loc 1 506 0
 1322 000c 054B     		ldr	r3, .L106
 1323 000e 1A78     		ldrb	r2, [r3]
 1324 0010 FB1D     		add	r3, r7, #7
 1325 0012 1B78     		ldrb	r3, [r3]
 1326 0014 101C     		mov	r0, r2
 1327 0016 2021     		mov	r1, #32
 1328 0018 1A1C     		mov	r2, r3
 1329 001a FFF7FEFF 		bl	I2CWriteByte
 507:.\mpu6050.c   **** }
 1330              		.loc 1 507 0
 1331 001e BD46     		mov	sp, r7
 1332 0020 02B0     		add	sp, sp, #8
 1333              		@ sp needed
 1334 0022 80BD     		pop	{r7, pc}
 1335              	.L107:
 1336              		.align	2
 1337              	.L106:
 1338 0024 00000000 		.word	devAddr
 1339              		.cfi_endproc
 1340              	.LFE31:
 1341              		.size	MPU6050_setMotionDetectionDuration, .-MPU6050_setMotionDetectionDuration
 1342              		.section	.text.MPU6050_getZeroMotionDetectionThreshold,"ax",%progbits
 1343              		.align	2
 1344              		.global	MPU6050_getZeroMotionDetectionThreshold
 1345              		.code	16
 1346              		.thumb_func
 1347              		.type	MPU6050_getZeroMotionDetectionThreshold, %function
 1348              	MPU6050_getZeroMotionDetectionThreshold:
 1349              	.LFB32:
 508:.\mpu6050.c   **** 
 509:.\mpu6050.c   **** // ZRMOT_THR register
 510:.\mpu6050.c   **** 
 511:.\mpu6050.c   **** /** Get zero motion detection event acceleration threshold.
 512:.\mpu6050.c   ****  * This register configures the detection threshold for Zero Motion interrupt
 513:.\mpu6050.c   ****  * generation. The unit of ZRMOT_THR is 1LSB = 2mg. Zero Motion is detected when
 514:.\mpu6050.c   ****  * the absolute value of the accelerometer measurements for the 3 axes are each
 515:.\mpu6050.c   ****  * less than the detection threshold. This condition increments the Zero Motion
 516:.\mpu6050.c   ****  * duration counter (Register 34). The Zero Motion interrupt is triggered when
 517:.\mpu6050.c   ****  * the Zero Motion duration counter reaches the time count specified in
 518:.\mpu6050.c   ****  * ZRMOT_DUR (Register 34).
 519:.\mpu6050.c   ****  *
 520:.\mpu6050.c   ****  * Unlike Free Fall or Motion detection, Zero Motion detection triggers an
 521:.\mpu6050.c   ****  * interrupt both when Zero Motion is first detected and when Zero Motion is no
 522:.\mpu6050.c   ****  * longer detected.
 523:.\mpu6050.c   ****  *
 524:.\mpu6050.c   ****  * When a zero motion event is detected, a Zero Motion Status will be indicated
 525:.\mpu6050.c   ****  * in the MOT_DETECT_STATUS register (Register 97). When a motion-to-zero-motion
 526:.\mpu6050.c   ****  * condition is detected, the status bit is set to 1. When a zero-motion-to-
 527:.\mpu6050.c   ****  * motion condition is detected, the status bit is set to 0.
 528:.\mpu6050.c   ****  *
 529:.\mpu6050.c   ****  * For more details on the Zero Motion detection interrupt, see Section 8.4 of
 530:.\mpu6050.c   ****  * the MPU-6000/MPU-6050 Product Specification document as well as Registers 56
 531:.\mpu6050.c   ****  * and 58 of this document.
 532:.\mpu6050.c   ****  *
ARM GAS  C:\Users\CHRIST~1\AppData\Local\Temp\ccslI7ZX.s 			page 34


 533:.\mpu6050.c   ****  * @return Current zero motion detection acceleration threshold value (LSB = 2mg)
 534:.\mpu6050.c   ****  * @see MPU6050_RA_ZRMOT_THR
 535:.\mpu6050.c   ****  */
 536:.\mpu6050.c   **** uint8_t MPU6050_getZeroMotionDetectionThreshold() {
 1350              		.loc 1 536 0
 1351              		.cfi_startproc
 1352 0000 80B5     		push	{r7, lr}
 1353              		.cfi_def_cfa_offset 8
 1354              		.cfi_offset 7, -8
 1355              		.cfi_offset 14, -4
 1356 0002 00AF     		add	r7, sp, #0
 1357              		.cfi_def_cfa_register 7
 537:.\mpu6050.c   ****     I2CReadByte(devAddr, MPU6050_RA_ZRMOT_THR, buffer);
 1358              		.loc 1 537 0
 1359 0004 064B     		ldr	r3, .L110
 1360 0006 1A78     		ldrb	r2, [r3]
 1361 0008 064B     		ldr	r3, .L110+4
 1362 000a 101C     		mov	r0, r2
 1363 000c 2121     		mov	r1, #33
 1364 000e 1A1C     		mov	r2, r3
 1365 0010 FFF7FEFF 		bl	I2CReadByte
 538:.\mpu6050.c   ****     return buffer[0];
 1366              		.loc 1 538 0
 1367 0014 034B     		ldr	r3, .L110+4
 1368 0016 1B78     		ldrb	r3, [r3]
 539:.\mpu6050.c   **** }
 1369              		.loc 1 539 0
 1370 0018 181C     		mov	r0, r3
 1371 001a BD46     		mov	sp, r7
 1372              		@ sp needed
 1373 001c 80BD     		pop	{r7, pc}
 1374              	.L111:
 1375 001e C046     		.align	2
 1376              	.L110:
 1377 0020 00000000 		.word	devAddr
 1378 0024 00000000 		.word	buffer
 1379              		.cfi_endproc
 1380              	.LFE32:
 1381              		.size	MPU6050_getZeroMotionDetectionThreshold, .-MPU6050_getZeroMotionDetectionThreshold
 1382              		.section	.text.MPU6050_setZeroMotionDetectionThreshold,"ax",%progbits
 1383              		.align	2
 1384              		.global	MPU6050_setZeroMotionDetectionThreshold
 1385              		.code	16
 1386              		.thumb_func
 1387              		.type	MPU6050_setZeroMotionDetectionThreshold, %function
 1388              	MPU6050_setZeroMotionDetectionThreshold:
 1389              	.LFB33:
 540:.\mpu6050.c   **** /** Set zero motion detection event acceleration threshold.
 541:.\mpu6050.c   ****  * @param threshold New zero motion detection acceleration threshold value (LSB = 2mg)
 542:.\mpu6050.c   ****  * @see getZeroMotionDetectionThreshold()
 543:.\mpu6050.c   ****  * @see MPU6050_RA_ZRMOT_THR
 544:.\mpu6050.c   ****  */
 545:.\mpu6050.c   **** void MPU6050_setZeroMotionDetectionThreshold(uint8_t threshold) {
 1390              		.loc 1 545 0
 1391              		.cfi_startproc
 1392 0000 80B5     		push	{r7, lr}
 1393              		.cfi_def_cfa_offset 8
ARM GAS  C:\Users\CHRIST~1\AppData\Local\Temp\ccslI7ZX.s 			page 35


 1394              		.cfi_offset 7, -8
 1395              		.cfi_offset 14, -4
 1396 0002 82B0     		sub	sp, sp, #8
 1397              		.cfi_def_cfa_offset 16
 1398 0004 00AF     		add	r7, sp, #0
 1399              		.cfi_def_cfa_register 7
 1400 0006 021C     		mov	r2, r0
 1401 0008 FB1D     		add	r3, r7, #7
 1402 000a 1A70     		strb	r2, [r3]
 546:.\mpu6050.c   ****     I2CWriteByte(devAddr, MPU6050_RA_ZRMOT_THR, threshold);
 1403              		.loc 1 546 0
 1404 000c 054B     		ldr	r3, .L113
 1405 000e 1A78     		ldrb	r2, [r3]
 1406 0010 FB1D     		add	r3, r7, #7
 1407 0012 1B78     		ldrb	r3, [r3]
 1408 0014 101C     		mov	r0, r2
 1409 0016 2121     		mov	r1, #33
 1410 0018 1A1C     		mov	r2, r3
 1411 001a FFF7FEFF 		bl	I2CWriteByte
 547:.\mpu6050.c   **** }
 1412              		.loc 1 547 0
 1413 001e BD46     		mov	sp, r7
 1414 0020 02B0     		add	sp, sp, #8
 1415              		@ sp needed
 1416 0022 80BD     		pop	{r7, pc}
 1417              	.L114:
 1418              		.align	2
 1419              	.L113:
 1420 0024 00000000 		.word	devAddr
 1421              		.cfi_endproc
 1422              	.LFE33:
 1423              		.size	MPU6050_setZeroMotionDetectionThreshold, .-MPU6050_setZeroMotionDetectionThreshold
 1424              		.section	.text.MPU6050_getZeroMotionDetectionDuration,"ax",%progbits
 1425              		.align	2
 1426              		.global	MPU6050_getZeroMotionDetectionDuration
 1427              		.code	16
 1428              		.thumb_func
 1429              		.type	MPU6050_getZeroMotionDetectionDuration, %function
 1430              	MPU6050_getZeroMotionDetectionDuration:
 1431              	.LFB34:
 548:.\mpu6050.c   **** 
 549:.\mpu6050.c   **** // ZRMOT_DUR register
 550:.\mpu6050.c   **** 
 551:.\mpu6050.c   **** /** Get zero motion detection event duration threshold.
 552:.\mpu6050.c   ****  * This register configures the duration counter threshold for Zero Motion
 553:.\mpu6050.c   ****  * interrupt generation. The duration counter ticks at 16 Hz, therefore
 554:.\mpu6050.c   ****  * ZRMOT_DUR has a unit of 1 LSB = 64 ms. The Zero Motion duration counter
 555:.\mpu6050.c   ****  * increments while the absolute value of the accelerometer measurements are
 556:.\mpu6050.c   ****  * each less than the detection threshold (Register 33). The Zero Motion
 557:.\mpu6050.c   ****  * interrupt is triggered when the Zero Motion duration counter reaches the time
 558:.\mpu6050.c   ****  * count specified in this register.
 559:.\mpu6050.c   ****  *
 560:.\mpu6050.c   ****  * For more details on the Zero Motion detection interrupt, see Section 8.4 of
 561:.\mpu6050.c   ****  * the MPU-6000/MPU-6050 Product Specification document, as well as Registers 56
 562:.\mpu6050.c   ****  * and 58 of this document.
 563:.\mpu6050.c   ****  *
 564:.\mpu6050.c   ****  * @return Current zero motion detection duration threshold value (LSB = 64ms)
ARM GAS  C:\Users\CHRIST~1\AppData\Local\Temp\ccslI7ZX.s 			page 36


 565:.\mpu6050.c   ****  * @see MPU6050_RA_ZRMOT_DUR
 566:.\mpu6050.c   ****  */
 567:.\mpu6050.c   **** uint8_t MPU6050_getZeroMotionDetectionDuration() {
 1432              		.loc 1 567 0
 1433              		.cfi_startproc
 1434 0000 80B5     		push	{r7, lr}
 1435              		.cfi_def_cfa_offset 8
 1436              		.cfi_offset 7, -8
 1437              		.cfi_offset 14, -4
 1438 0002 00AF     		add	r7, sp, #0
 1439              		.cfi_def_cfa_register 7
 568:.\mpu6050.c   ****     I2CReadByte(devAddr, MPU6050_RA_ZRMOT_DUR, buffer);
 1440              		.loc 1 568 0
 1441 0004 064B     		ldr	r3, .L117
 1442 0006 1A78     		ldrb	r2, [r3]
 1443 0008 064B     		ldr	r3, .L117+4
 1444 000a 101C     		mov	r0, r2
 1445 000c 2221     		mov	r1, #34
 1446 000e 1A1C     		mov	r2, r3
 1447 0010 FFF7FEFF 		bl	I2CReadByte
 569:.\mpu6050.c   ****     return buffer[0];
 1448              		.loc 1 569 0
 1449 0014 034B     		ldr	r3, .L117+4
 1450 0016 1B78     		ldrb	r3, [r3]
 570:.\mpu6050.c   **** }
 1451              		.loc 1 570 0
 1452 0018 181C     		mov	r0, r3
 1453 001a BD46     		mov	sp, r7
 1454              		@ sp needed
 1455 001c 80BD     		pop	{r7, pc}
 1456              	.L118:
 1457 001e C046     		.align	2
 1458              	.L117:
 1459 0020 00000000 		.word	devAddr
 1460 0024 00000000 		.word	buffer
 1461              		.cfi_endproc
 1462              	.LFE34:
 1463              		.size	MPU6050_getZeroMotionDetectionDuration, .-MPU6050_getZeroMotionDetectionDuration
 1464              		.section	.text.MPU6050_setZeroMotionDetectionDuration,"ax",%progbits
 1465              		.align	2
 1466              		.global	MPU6050_setZeroMotionDetectionDuration
 1467              		.code	16
 1468              		.thumb_func
 1469              		.type	MPU6050_setZeroMotionDetectionDuration, %function
 1470              	MPU6050_setZeroMotionDetectionDuration:
 1471              	.LFB35:
 571:.\mpu6050.c   **** /** Set zero motion detection event duration threshold.
 572:.\mpu6050.c   ****  * @param duration New zero motion detection duration threshold value (LSB = 1ms)
 573:.\mpu6050.c   ****  * @see getZeroMotionDetectionDuration()
 574:.\mpu6050.c   ****  * @see MPU6050_RA_ZRMOT_DUR
 575:.\mpu6050.c   ****  */
 576:.\mpu6050.c   **** void MPU6050_setZeroMotionDetectionDuration(uint8_t duration) {
 1472              		.loc 1 576 0
 1473              		.cfi_startproc
 1474 0000 80B5     		push	{r7, lr}
 1475              		.cfi_def_cfa_offset 8
 1476              		.cfi_offset 7, -8
ARM GAS  C:\Users\CHRIST~1\AppData\Local\Temp\ccslI7ZX.s 			page 37


 1477              		.cfi_offset 14, -4
 1478 0002 82B0     		sub	sp, sp, #8
 1479              		.cfi_def_cfa_offset 16
 1480 0004 00AF     		add	r7, sp, #0
 1481              		.cfi_def_cfa_register 7
 1482 0006 021C     		mov	r2, r0
 1483 0008 FB1D     		add	r3, r7, #7
 1484 000a 1A70     		strb	r2, [r3]
 577:.\mpu6050.c   ****     I2CWriteByte(devAddr, MPU6050_RA_ZRMOT_DUR, duration);
 1485              		.loc 1 577 0
 1486 000c 054B     		ldr	r3, .L120
 1487 000e 1A78     		ldrb	r2, [r3]
 1488 0010 FB1D     		add	r3, r7, #7
 1489 0012 1B78     		ldrb	r3, [r3]
 1490 0014 101C     		mov	r0, r2
 1491 0016 2221     		mov	r1, #34
 1492 0018 1A1C     		mov	r2, r3
 1493 001a FFF7FEFF 		bl	I2CWriteByte
 578:.\mpu6050.c   **** }
 1494              		.loc 1 578 0
 1495 001e BD46     		mov	sp, r7
 1496 0020 02B0     		add	sp, sp, #8
 1497              		@ sp needed
 1498 0022 80BD     		pop	{r7, pc}
 1499              	.L121:
 1500              		.align	2
 1501              	.L120:
 1502 0024 00000000 		.word	devAddr
 1503              		.cfi_endproc
 1504              	.LFE35:
 1505              		.size	MPU6050_setZeroMotionDetectionDuration, .-MPU6050_setZeroMotionDetectionDuration
 1506              		.section	.text.MPU6050_getTempFIFOEnabled,"ax",%progbits
 1507              		.align	2
 1508              		.global	MPU6050_getTempFIFOEnabled
 1509              		.code	16
 1510              		.thumb_func
 1511              		.type	MPU6050_getTempFIFOEnabled, %function
 1512              	MPU6050_getTempFIFOEnabled:
 1513              	.LFB36:
 579:.\mpu6050.c   **** 
 580:.\mpu6050.c   **** // FIFO_EN register
 581:.\mpu6050.c   **** 
 582:.\mpu6050.c   **** /** Get temperature FIFO enabled value.
 583:.\mpu6050.c   ****  * When set to 1, this bit enables TEMP_OUT_H and TEMP_OUT_L (Registers 65 and
 584:.\mpu6050.c   ****  * 66) to be written into the FIFO buffer.
 585:.\mpu6050.c   ****  * @return Current temperature FIFO enabled value
 586:.\mpu6050.c   ****  * @see MPU6050_RA_FIFO_EN
 587:.\mpu6050.c   ****  */
 588:.\mpu6050.c   **** bool MPU6050_getTempFIFOEnabled() {
 1514              		.loc 1 588 0
 1515              		.cfi_startproc
 1516 0000 80B5     		push	{r7, lr}
 1517              		.cfi_def_cfa_offset 8
 1518              		.cfi_offset 7, -8
 1519              		.cfi_offset 14, -4
 1520 0002 00AF     		add	r7, sp, #0
 1521              		.cfi_def_cfa_register 7
ARM GAS  C:\Users\CHRIST~1\AppData\Local\Temp\ccslI7ZX.s 			page 38


 589:.\mpu6050.c   ****     I2CReadBit(devAddr, MPU6050_RA_FIFO_EN, MPU6050_TEMP_FIFO_EN_BIT, buffer);
 1522              		.loc 1 589 0
 1523 0004 074B     		ldr	r3, .L124
 1524 0006 1A78     		ldrb	r2, [r3]
 1525 0008 074B     		ldr	r3, .L124+4
 1526 000a 101C     		mov	r0, r2
 1527 000c 2321     		mov	r1, #35
 1528 000e 0722     		mov	r2, #7
 1529 0010 FFF7FEFF 		bl	I2CReadBit
 590:.\mpu6050.c   ****     return buffer[0];
 1530              		.loc 1 590 0
 1531 0014 044B     		ldr	r3, .L124+4
 1532 0016 1B78     		ldrb	r3, [r3]
 1533 0018 5A1E     		sub	r2, r3, #1
 1534 001a 9341     		sbc	r3, r3, r2
 1535 001c DBB2     		uxtb	r3, r3
 591:.\mpu6050.c   **** }
 1536              		.loc 1 591 0
 1537 001e 181C     		mov	r0, r3
 1538 0020 BD46     		mov	sp, r7
 1539              		@ sp needed
 1540 0022 80BD     		pop	{r7, pc}
 1541              	.L125:
 1542              		.align	2
 1543              	.L124:
 1544 0024 00000000 		.word	devAddr
 1545 0028 00000000 		.word	buffer
 1546              		.cfi_endproc
 1547              	.LFE36:
 1548              		.size	MPU6050_getTempFIFOEnabled, .-MPU6050_getTempFIFOEnabled
 1549              		.section	.text.MPU6050_setTempFIFOEnabled,"ax",%progbits
 1550              		.align	2
 1551              		.global	MPU6050_setTempFIFOEnabled
 1552              		.code	16
 1553              		.thumb_func
 1554              		.type	MPU6050_setTempFIFOEnabled, %function
 1555              	MPU6050_setTempFIFOEnabled:
 1556              	.LFB37:
 592:.\mpu6050.c   **** /** Set temperature FIFO enabled value.
 593:.\mpu6050.c   ****  * @param enabled New temperature FIFO enabled value
 594:.\mpu6050.c   ****  * @see getTempFIFOEnabled()
 595:.\mpu6050.c   ****  * @see MPU6050_RA_FIFO_EN
 596:.\mpu6050.c   ****  */
 597:.\mpu6050.c   **** void MPU6050_setTempFIFOEnabled(bool enabled) {
 1557              		.loc 1 597 0
 1558              		.cfi_startproc
 1559 0000 80B5     		push	{r7, lr}
 1560              		.cfi_def_cfa_offset 8
 1561              		.cfi_offset 7, -8
 1562              		.cfi_offset 14, -4
 1563 0002 82B0     		sub	sp, sp, #8
 1564              		.cfi_def_cfa_offset 16
 1565 0004 00AF     		add	r7, sp, #0
 1566              		.cfi_def_cfa_register 7
 1567 0006 021C     		mov	r2, r0
 1568 0008 FB1D     		add	r3, r7, #7
 1569 000a 1A70     		strb	r2, [r3]
ARM GAS  C:\Users\CHRIST~1\AppData\Local\Temp\ccslI7ZX.s 			page 39


 598:.\mpu6050.c   ****     I2CWriteBit(devAddr, MPU6050_RA_FIFO_EN, MPU6050_TEMP_FIFO_EN_BIT, enabled);
 1570              		.loc 1 598 0
 1571 000c 054B     		ldr	r3, .L127
 1572 000e 1A78     		ldrb	r2, [r3]
 1573 0010 FB1D     		add	r3, r7, #7
 1574 0012 1B78     		ldrb	r3, [r3]
 1575 0014 101C     		mov	r0, r2
 1576 0016 2321     		mov	r1, #35
 1577 0018 0722     		mov	r2, #7
 1578 001a FFF7FEFF 		bl	I2CWriteBit
 599:.\mpu6050.c   **** }
 1579              		.loc 1 599 0
 1580 001e BD46     		mov	sp, r7
 1581 0020 02B0     		add	sp, sp, #8
 1582              		@ sp needed
 1583 0022 80BD     		pop	{r7, pc}
 1584              	.L128:
 1585              		.align	2
 1586              	.L127:
 1587 0024 00000000 		.word	devAddr
 1588              		.cfi_endproc
 1589              	.LFE37:
 1590              		.size	MPU6050_setTempFIFOEnabled, .-MPU6050_setTempFIFOEnabled
 1591              		.section	.text.MPU6050_getXGyroFIFOEnabled,"ax",%progbits
 1592              		.align	2
 1593              		.global	MPU6050_getXGyroFIFOEnabled
 1594              		.code	16
 1595              		.thumb_func
 1596              		.type	MPU6050_getXGyroFIFOEnabled, %function
 1597              	MPU6050_getXGyroFIFOEnabled:
 1598              	.LFB38:
 600:.\mpu6050.c   **** /** Get gyroscope X-axis FIFO enabled value.
 601:.\mpu6050.c   ****  * When set to 1, this bit enables GYRO_XOUT_H and GYRO_XOUT_L (Registers 67 and
 602:.\mpu6050.c   ****  * 68) to be written into the FIFO buffer.
 603:.\mpu6050.c   ****  * @return Current gyroscope X-axis FIFO enabled value
 604:.\mpu6050.c   ****  * @see MPU6050_RA_FIFO_EN
 605:.\mpu6050.c   ****  */
 606:.\mpu6050.c   **** bool MPU6050_getXGyroFIFOEnabled() {
 1599              		.loc 1 606 0
 1600              		.cfi_startproc
 1601 0000 80B5     		push	{r7, lr}
 1602              		.cfi_def_cfa_offset 8
 1603              		.cfi_offset 7, -8
 1604              		.cfi_offset 14, -4
 1605 0002 00AF     		add	r7, sp, #0
 1606              		.cfi_def_cfa_register 7
 607:.\mpu6050.c   ****     I2CReadBit(devAddr, MPU6050_RA_FIFO_EN, MPU6050_XG_FIFO_EN_BIT, buffer);
 1607              		.loc 1 607 0
 1608 0004 074B     		ldr	r3, .L131
 1609 0006 1A78     		ldrb	r2, [r3]
 1610 0008 074B     		ldr	r3, .L131+4
 1611 000a 101C     		mov	r0, r2
 1612 000c 2321     		mov	r1, #35
 1613 000e 0622     		mov	r2, #6
 1614 0010 FFF7FEFF 		bl	I2CReadBit
 608:.\mpu6050.c   ****     return buffer[0];
 1615              		.loc 1 608 0
ARM GAS  C:\Users\CHRIST~1\AppData\Local\Temp\ccslI7ZX.s 			page 40


 1616 0014 044B     		ldr	r3, .L131+4
 1617 0016 1B78     		ldrb	r3, [r3]
 1618 0018 5A1E     		sub	r2, r3, #1
 1619 001a 9341     		sbc	r3, r3, r2
 1620 001c DBB2     		uxtb	r3, r3
 609:.\mpu6050.c   **** }
 1621              		.loc 1 609 0
 1622 001e 181C     		mov	r0, r3
 1623 0020 BD46     		mov	sp, r7
 1624              		@ sp needed
 1625 0022 80BD     		pop	{r7, pc}
 1626              	.L132:
 1627              		.align	2
 1628              	.L131:
 1629 0024 00000000 		.word	devAddr
 1630 0028 00000000 		.word	buffer
 1631              		.cfi_endproc
 1632              	.LFE38:
 1633              		.size	MPU6050_getXGyroFIFOEnabled, .-MPU6050_getXGyroFIFOEnabled
 1634              		.section	.text.MPU6050_setXGyroFIFOEnabled,"ax",%progbits
 1635              		.align	2
 1636              		.global	MPU6050_setXGyroFIFOEnabled
 1637              		.code	16
 1638              		.thumb_func
 1639              		.type	MPU6050_setXGyroFIFOEnabled, %function
 1640              	MPU6050_setXGyroFIFOEnabled:
 1641              	.LFB39:
 610:.\mpu6050.c   **** /** Set gyroscope X-axis FIFO enabled value.
 611:.\mpu6050.c   ****  * @param enabled New gyroscope X-axis FIFO enabled value
 612:.\mpu6050.c   ****  * @see getXGyroFIFOEnabled()
 613:.\mpu6050.c   ****  * @see MPU6050_RA_FIFO_EN
 614:.\mpu6050.c   ****  */
 615:.\mpu6050.c   **** void MPU6050_setXGyroFIFOEnabled(bool enabled) {
 1642              		.loc 1 615 0
 1643              		.cfi_startproc
 1644 0000 80B5     		push	{r7, lr}
 1645              		.cfi_def_cfa_offset 8
 1646              		.cfi_offset 7, -8
 1647              		.cfi_offset 14, -4
 1648 0002 82B0     		sub	sp, sp, #8
 1649              		.cfi_def_cfa_offset 16
 1650 0004 00AF     		add	r7, sp, #0
 1651              		.cfi_def_cfa_register 7
 1652 0006 021C     		mov	r2, r0
 1653 0008 FB1D     		add	r3, r7, #7
 1654 000a 1A70     		strb	r2, [r3]
 616:.\mpu6050.c   ****     I2CWriteBit(devAddr, MPU6050_RA_FIFO_EN, MPU6050_XG_FIFO_EN_BIT, enabled);
 1655              		.loc 1 616 0
 1656 000c 054B     		ldr	r3, .L134
 1657 000e 1A78     		ldrb	r2, [r3]
 1658 0010 FB1D     		add	r3, r7, #7
 1659 0012 1B78     		ldrb	r3, [r3]
 1660 0014 101C     		mov	r0, r2
 1661 0016 2321     		mov	r1, #35
 1662 0018 0622     		mov	r2, #6
 1663 001a FFF7FEFF 		bl	I2CWriteBit
 617:.\mpu6050.c   **** }
ARM GAS  C:\Users\CHRIST~1\AppData\Local\Temp\ccslI7ZX.s 			page 41


 1664              		.loc 1 617 0
 1665 001e BD46     		mov	sp, r7
 1666 0020 02B0     		add	sp, sp, #8
 1667              		@ sp needed
 1668 0022 80BD     		pop	{r7, pc}
 1669              	.L135:
 1670              		.align	2
 1671              	.L134:
 1672 0024 00000000 		.word	devAddr
 1673              		.cfi_endproc
 1674              	.LFE39:
 1675              		.size	MPU6050_setXGyroFIFOEnabled, .-MPU6050_setXGyroFIFOEnabled
 1676              		.section	.text.MPU6050_getYGyroFIFOEnabled,"ax",%progbits
 1677              		.align	2
 1678              		.global	MPU6050_getYGyroFIFOEnabled
 1679              		.code	16
 1680              		.thumb_func
 1681              		.type	MPU6050_getYGyroFIFOEnabled, %function
 1682              	MPU6050_getYGyroFIFOEnabled:
 1683              	.LFB40:
 618:.\mpu6050.c   **** /** Get gyroscope Y-axis FIFO enabled value.
 619:.\mpu6050.c   ****  * When set to 1, this bit enables GYRO_YOUT_H and GYRO_YOUT_L (Registers 69 and
 620:.\mpu6050.c   ****  * 70) to be written into the FIFO buffer.
 621:.\mpu6050.c   ****  * @return Current gyroscope Y-axis FIFO enabled value
 622:.\mpu6050.c   ****  * @see MPU6050_RA_FIFO_EN
 623:.\mpu6050.c   ****  */
 624:.\mpu6050.c   **** bool MPU6050_getYGyroFIFOEnabled() {
 1684              		.loc 1 624 0
 1685              		.cfi_startproc
 1686 0000 80B5     		push	{r7, lr}
 1687              		.cfi_def_cfa_offset 8
 1688              		.cfi_offset 7, -8
 1689              		.cfi_offset 14, -4
 1690 0002 00AF     		add	r7, sp, #0
 1691              		.cfi_def_cfa_register 7
 625:.\mpu6050.c   ****     I2CReadBit(devAddr, MPU6050_RA_FIFO_EN, MPU6050_YG_FIFO_EN_BIT, buffer);
 1692              		.loc 1 625 0
 1693 0004 074B     		ldr	r3, .L138
 1694 0006 1A78     		ldrb	r2, [r3]
 1695 0008 074B     		ldr	r3, .L138+4
 1696 000a 101C     		mov	r0, r2
 1697 000c 2321     		mov	r1, #35
 1698 000e 0522     		mov	r2, #5
 1699 0010 FFF7FEFF 		bl	I2CReadBit
 626:.\mpu6050.c   ****     return buffer[0];
 1700              		.loc 1 626 0
 1701 0014 044B     		ldr	r3, .L138+4
 1702 0016 1B78     		ldrb	r3, [r3]
 1703 0018 5A1E     		sub	r2, r3, #1
 1704 001a 9341     		sbc	r3, r3, r2
 1705 001c DBB2     		uxtb	r3, r3
 627:.\mpu6050.c   **** }
 1706              		.loc 1 627 0
 1707 001e 181C     		mov	r0, r3
 1708 0020 BD46     		mov	sp, r7
 1709              		@ sp needed
 1710 0022 80BD     		pop	{r7, pc}
ARM GAS  C:\Users\CHRIST~1\AppData\Local\Temp\ccslI7ZX.s 			page 42


 1711              	.L139:
 1712              		.align	2
 1713              	.L138:
 1714 0024 00000000 		.word	devAddr
 1715 0028 00000000 		.word	buffer
 1716              		.cfi_endproc
 1717              	.LFE40:
 1718              		.size	MPU6050_getYGyroFIFOEnabled, .-MPU6050_getYGyroFIFOEnabled
 1719              		.section	.text.MPU6050_setYGyroFIFOEnabled,"ax",%progbits
 1720              		.align	2
 1721              		.global	MPU6050_setYGyroFIFOEnabled
 1722              		.code	16
 1723              		.thumb_func
 1724              		.type	MPU6050_setYGyroFIFOEnabled, %function
 1725              	MPU6050_setYGyroFIFOEnabled:
 1726              	.LFB41:
 628:.\mpu6050.c   **** /** Set gyroscope Y-axis FIFO enabled value.
 629:.\mpu6050.c   ****  * @param enabled New gyroscope Y-axis FIFO enabled value
 630:.\mpu6050.c   ****  * @see getYGyroFIFOEnabled()
 631:.\mpu6050.c   ****  * @see MPU6050_RA_FIFO_EN
 632:.\mpu6050.c   ****  */
 633:.\mpu6050.c   **** void MPU6050_setYGyroFIFOEnabled(bool enabled) {
 1727              		.loc 1 633 0
 1728              		.cfi_startproc
 1729 0000 80B5     		push	{r7, lr}
 1730              		.cfi_def_cfa_offset 8
 1731              		.cfi_offset 7, -8
 1732              		.cfi_offset 14, -4
 1733 0002 82B0     		sub	sp, sp, #8
 1734              		.cfi_def_cfa_offset 16
 1735 0004 00AF     		add	r7, sp, #0
 1736              		.cfi_def_cfa_register 7
 1737 0006 021C     		mov	r2, r0
 1738 0008 FB1D     		add	r3, r7, #7
 1739 000a 1A70     		strb	r2, [r3]
 634:.\mpu6050.c   ****     I2CWriteBit(devAddr, MPU6050_RA_FIFO_EN, MPU6050_YG_FIFO_EN_BIT, enabled);
 1740              		.loc 1 634 0
 1741 000c 054B     		ldr	r3, .L141
 1742 000e 1A78     		ldrb	r2, [r3]
 1743 0010 FB1D     		add	r3, r7, #7
 1744 0012 1B78     		ldrb	r3, [r3]
 1745 0014 101C     		mov	r0, r2
 1746 0016 2321     		mov	r1, #35
 1747 0018 0522     		mov	r2, #5
 1748 001a FFF7FEFF 		bl	I2CWriteBit
 635:.\mpu6050.c   **** }
 1749              		.loc 1 635 0
 1750 001e BD46     		mov	sp, r7
 1751 0020 02B0     		add	sp, sp, #8
 1752              		@ sp needed
 1753 0022 80BD     		pop	{r7, pc}
 1754              	.L142:
 1755              		.align	2
 1756              	.L141:
 1757 0024 00000000 		.word	devAddr
 1758              		.cfi_endproc
 1759              	.LFE41:
ARM GAS  C:\Users\CHRIST~1\AppData\Local\Temp\ccslI7ZX.s 			page 43


 1760              		.size	MPU6050_setYGyroFIFOEnabled, .-MPU6050_setYGyroFIFOEnabled
 1761              		.section	.text.MPU6050_getZGyroFIFOEnabled,"ax",%progbits
 1762              		.align	2
 1763              		.global	MPU6050_getZGyroFIFOEnabled
 1764              		.code	16
 1765              		.thumb_func
 1766              		.type	MPU6050_getZGyroFIFOEnabled, %function
 1767              	MPU6050_getZGyroFIFOEnabled:
 1768              	.LFB42:
 636:.\mpu6050.c   **** /** Get gyroscope Z-axis FIFO enabled value.
 637:.\mpu6050.c   ****  * When set to 1, this bit enables GYRO_ZOUT_H and GYRO_ZOUT_L (Registers 71 and
 638:.\mpu6050.c   ****  * 72) to be written into the FIFO buffer.
 639:.\mpu6050.c   ****  * @return Current gyroscope Z-axis FIFO enabled value
 640:.\mpu6050.c   ****  * @see MPU6050_RA_FIFO_EN
 641:.\mpu6050.c   ****  */
 642:.\mpu6050.c   **** bool MPU6050_getZGyroFIFOEnabled() {
 1769              		.loc 1 642 0
 1770              		.cfi_startproc
 1771 0000 80B5     		push	{r7, lr}
 1772              		.cfi_def_cfa_offset 8
 1773              		.cfi_offset 7, -8
 1774              		.cfi_offset 14, -4
 1775 0002 00AF     		add	r7, sp, #0
 1776              		.cfi_def_cfa_register 7
 643:.\mpu6050.c   ****     I2CReadBit(devAddr, MPU6050_RA_FIFO_EN, MPU6050_ZG_FIFO_EN_BIT, buffer);
 1777              		.loc 1 643 0
 1778 0004 074B     		ldr	r3, .L145
 1779 0006 1A78     		ldrb	r2, [r3]
 1780 0008 074B     		ldr	r3, .L145+4
 1781 000a 101C     		mov	r0, r2
 1782 000c 2321     		mov	r1, #35
 1783 000e 0422     		mov	r2, #4
 1784 0010 FFF7FEFF 		bl	I2CReadBit
 644:.\mpu6050.c   ****     return buffer[0];
 1785              		.loc 1 644 0
 1786 0014 044B     		ldr	r3, .L145+4
 1787 0016 1B78     		ldrb	r3, [r3]
 1788 0018 5A1E     		sub	r2, r3, #1
 1789 001a 9341     		sbc	r3, r3, r2
 1790 001c DBB2     		uxtb	r3, r3
 645:.\mpu6050.c   **** }
 1791              		.loc 1 645 0
 1792 001e 181C     		mov	r0, r3
 1793 0020 BD46     		mov	sp, r7
 1794              		@ sp needed
 1795 0022 80BD     		pop	{r7, pc}
 1796              	.L146:
 1797              		.align	2
 1798              	.L145:
 1799 0024 00000000 		.word	devAddr
 1800 0028 00000000 		.word	buffer
 1801              		.cfi_endproc
 1802              	.LFE42:
 1803              		.size	MPU6050_getZGyroFIFOEnabled, .-MPU6050_getZGyroFIFOEnabled
 1804              		.section	.text.MPU6050_setZGyroFIFOEnabled,"ax",%progbits
 1805              		.align	2
 1806              		.global	MPU6050_setZGyroFIFOEnabled
ARM GAS  C:\Users\CHRIST~1\AppData\Local\Temp\ccslI7ZX.s 			page 44


 1807              		.code	16
 1808              		.thumb_func
 1809              		.type	MPU6050_setZGyroFIFOEnabled, %function
 1810              	MPU6050_setZGyroFIFOEnabled:
 1811              	.LFB43:
 646:.\mpu6050.c   **** /** Set gyroscope Z-axis FIFO enabled value.
 647:.\mpu6050.c   ****  * @param enabled New gyroscope Z-axis FIFO enabled value
 648:.\mpu6050.c   ****  * @see getZGyroFIFOEnabled()
 649:.\mpu6050.c   ****  * @see MPU6050_RA_FIFO_EN
 650:.\mpu6050.c   ****  */
 651:.\mpu6050.c   **** void MPU6050_setZGyroFIFOEnabled(bool enabled) {
 1812              		.loc 1 651 0
 1813              		.cfi_startproc
 1814 0000 80B5     		push	{r7, lr}
 1815              		.cfi_def_cfa_offset 8
 1816              		.cfi_offset 7, -8
 1817              		.cfi_offset 14, -4
 1818 0002 82B0     		sub	sp, sp, #8
 1819              		.cfi_def_cfa_offset 16
 1820 0004 00AF     		add	r7, sp, #0
 1821              		.cfi_def_cfa_register 7
 1822 0006 021C     		mov	r2, r0
 1823 0008 FB1D     		add	r3, r7, #7
 1824 000a 1A70     		strb	r2, [r3]
 652:.\mpu6050.c   ****     I2CWriteBit(devAddr, MPU6050_RA_FIFO_EN, MPU6050_ZG_FIFO_EN_BIT, enabled);
 1825              		.loc 1 652 0
 1826 000c 054B     		ldr	r3, .L148
 1827 000e 1A78     		ldrb	r2, [r3]
 1828 0010 FB1D     		add	r3, r7, #7
 1829 0012 1B78     		ldrb	r3, [r3]
 1830 0014 101C     		mov	r0, r2
 1831 0016 2321     		mov	r1, #35
 1832 0018 0422     		mov	r2, #4
 1833 001a FFF7FEFF 		bl	I2CWriteBit
 653:.\mpu6050.c   **** }
 1834              		.loc 1 653 0
 1835 001e BD46     		mov	sp, r7
 1836 0020 02B0     		add	sp, sp, #8
 1837              		@ sp needed
 1838 0022 80BD     		pop	{r7, pc}
 1839              	.L149:
 1840              		.align	2
 1841              	.L148:
 1842 0024 00000000 		.word	devAddr
 1843              		.cfi_endproc
 1844              	.LFE43:
 1845              		.size	MPU6050_setZGyroFIFOEnabled, .-MPU6050_setZGyroFIFOEnabled
 1846              		.section	.text.MPU6050_getAccelFIFOEnabled,"ax",%progbits
 1847              		.align	2
 1848              		.global	MPU6050_getAccelFIFOEnabled
 1849              		.code	16
 1850              		.thumb_func
 1851              		.type	MPU6050_getAccelFIFOEnabled, %function
 1852              	MPU6050_getAccelFIFOEnabled:
 1853              	.LFB44:
 654:.\mpu6050.c   **** /** Get accelerometer FIFO enabled value.
 655:.\mpu6050.c   ****  * When set to 1, this bit enables ACCEL_XOUT_H, ACCEL_XOUT_L, ACCEL_YOUT_H,
ARM GAS  C:\Users\CHRIST~1\AppData\Local\Temp\ccslI7ZX.s 			page 45


 656:.\mpu6050.c   ****  * ACCEL_YOUT_L, ACCEL_ZOUT_H, and ACCEL_ZOUT_L (Registers 59 to 64) to be
 657:.\mpu6050.c   ****  * written into the FIFO buffer.
 658:.\mpu6050.c   ****  * @return Current accelerometer FIFO enabled value
 659:.\mpu6050.c   ****  * @see MPU6050_RA_FIFO_EN
 660:.\mpu6050.c   ****  */
 661:.\mpu6050.c   **** bool MPU6050_getAccelFIFOEnabled() {
 1854              		.loc 1 661 0
 1855              		.cfi_startproc
 1856 0000 80B5     		push	{r7, lr}
 1857              		.cfi_def_cfa_offset 8
 1858              		.cfi_offset 7, -8
 1859              		.cfi_offset 14, -4
 1860 0002 00AF     		add	r7, sp, #0
 1861              		.cfi_def_cfa_register 7
 662:.\mpu6050.c   ****     I2CReadBit(devAddr, MPU6050_RA_FIFO_EN, MPU6050_ACCEL_FIFO_EN_BIT, buffer);
 1862              		.loc 1 662 0
 1863 0004 074B     		ldr	r3, .L152
 1864 0006 1A78     		ldrb	r2, [r3]
 1865 0008 074B     		ldr	r3, .L152+4
 1866 000a 101C     		mov	r0, r2
 1867 000c 2321     		mov	r1, #35
 1868 000e 0322     		mov	r2, #3
 1869 0010 FFF7FEFF 		bl	I2CReadBit
 663:.\mpu6050.c   ****     return buffer[0];
 1870              		.loc 1 663 0
 1871 0014 044B     		ldr	r3, .L152+4
 1872 0016 1B78     		ldrb	r3, [r3]
 1873 0018 5A1E     		sub	r2, r3, #1
 1874 001a 9341     		sbc	r3, r3, r2
 1875 001c DBB2     		uxtb	r3, r3
 664:.\mpu6050.c   **** }
 1876              		.loc 1 664 0
 1877 001e 181C     		mov	r0, r3
 1878 0020 BD46     		mov	sp, r7
 1879              		@ sp needed
 1880 0022 80BD     		pop	{r7, pc}
 1881              	.L153:
 1882              		.align	2
 1883              	.L152:
 1884 0024 00000000 		.word	devAddr
 1885 0028 00000000 		.word	buffer
 1886              		.cfi_endproc
 1887              	.LFE44:
 1888              		.size	MPU6050_getAccelFIFOEnabled, .-MPU6050_getAccelFIFOEnabled
 1889              		.section	.text.MPU6050_setAccelFIFOEnabled,"ax",%progbits
 1890              		.align	2
 1891              		.global	MPU6050_setAccelFIFOEnabled
 1892              		.code	16
 1893              		.thumb_func
 1894              		.type	MPU6050_setAccelFIFOEnabled, %function
 1895              	MPU6050_setAccelFIFOEnabled:
 1896              	.LFB45:
 665:.\mpu6050.c   **** /** Set accelerometer FIFO enabled value.
 666:.\mpu6050.c   ****  * @param enabled New accelerometer FIFO enabled value
 667:.\mpu6050.c   ****  * @see getAccelFIFOEnabled()
 668:.\mpu6050.c   ****  * @see MPU6050_RA_FIFO_EN
 669:.\mpu6050.c   ****  */
ARM GAS  C:\Users\CHRIST~1\AppData\Local\Temp\ccslI7ZX.s 			page 46


 670:.\mpu6050.c   **** void MPU6050_setAccelFIFOEnabled(bool enabled) {
 1897              		.loc 1 670 0
 1898              		.cfi_startproc
 1899 0000 80B5     		push	{r7, lr}
 1900              		.cfi_def_cfa_offset 8
 1901              		.cfi_offset 7, -8
 1902              		.cfi_offset 14, -4
 1903 0002 82B0     		sub	sp, sp, #8
 1904              		.cfi_def_cfa_offset 16
 1905 0004 00AF     		add	r7, sp, #0
 1906              		.cfi_def_cfa_register 7
 1907 0006 021C     		mov	r2, r0
 1908 0008 FB1D     		add	r3, r7, #7
 1909 000a 1A70     		strb	r2, [r3]
 671:.\mpu6050.c   ****     I2CWriteBit(devAddr, MPU6050_RA_FIFO_EN, MPU6050_ACCEL_FIFO_EN_BIT, enabled);
 1910              		.loc 1 671 0
 1911 000c 054B     		ldr	r3, .L155
 1912 000e 1A78     		ldrb	r2, [r3]
 1913 0010 FB1D     		add	r3, r7, #7
 1914 0012 1B78     		ldrb	r3, [r3]
 1915 0014 101C     		mov	r0, r2
 1916 0016 2321     		mov	r1, #35
 1917 0018 0322     		mov	r2, #3
 1918 001a FFF7FEFF 		bl	I2CWriteBit
 672:.\mpu6050.c   **** }
 1919              		.loc 1 672 0
 1920 001e BD46     		mov	sp, r7
 1921 0020 02B0     		add	sp, sp, #8
 1922              		@ sp needed
 1923 0022 80BD     		pop	{r7, pc}
 1924              	.L156:
 1925              		.align	2
 1926              	.L155:
 1927 0024 00000000 		.word	devAddr
 1928              		.cfi_endproc
 1929              	.LFE45:
 1930              		.size	MPU6050_setAccelFIFOEnabled, .-MPU6050_setAccelFIFOEnabled
 1931              		.section	.text.MPU6050_getSlave2FIFOEnabled,"ax",%progbits
 1932              		.align	2
 1933              		.global	MPU6050_getSlave2FIFOEnabled
 1934              		.code	16
 1935              		.thumb_func
 1936              		.type	MPU6050_getSlave2FIFOEnabled, %function
 1937              	MPU6050_getSlave2FIFOEnabled:
 1938              	.LFB46:
 673:.\mpu6050.c   **** /** Get Slave 2 FIFO enabled value.
 674:.\mpu6050.c   ****  * When set to 1, this bit enables EXT_SENS_DATA registers (Registers 73 to 96)
 675:.\mpu6050.c   ****  * associated with Slave 2 to be written into the FIFO buffer.
 676:.\mpu6050.c   ****  * @return Current Slave 2 FIFO enabled value
 677:.\mpu6050.c   ****  * @see MPU6050_RA_FIFO_EN
 678:.\mpu6050.c   ****  */
 679:.\mpu6050.c   **** bool MPU6050_getSlave2FIFOEnabled() {
 1939              		.loc 1 679 0
 1940              		.cfi_startproc
 1941 0000 80B5     		push	{r7, lr}
 1942              		.cfi_def_cfa_offset 8
 1943              		.cfi_offset 7, -8
ARM GAS  C:\Users\CHRIST~1\AppData\Local\Temp\ccslI7ZX.s 			page 47


 1944              		.cfi_offset 14, -4
 1945 0002 00AF     		add	r7, sp, #0
 1946              		.cfi_def_cfa_register 7
 680:.\mpu6050.c   ****     I2CReadBit(devAddr, MPU6050_RA_FIFO_EN, MPU6050_SLV2_FIFO_EN_BIT, buffer);
 1947              		.loc 1 680 0
 1948 0004 074B     		ldr	r3, .L159
 1949 0006 1A78     		ldrb	r2, [r3]
 1950 0008 074B     		ldr	r3, .L159+4
 1951 000a 101C     		mov	r0, r2
 1952 000c 2321     		mov	r1, #35
 1953 000e 0222     		mov	r2, #2
 1954 0010 FFF7FEFF 		bl	I2CReadBit
 681:.\mpu6050.c   ****     return buffer[0];
 1955              		.loc 1 681 0
 1956 0014 044B     		ldr	r3, .L159+4
 1957 0016 1B78     		ldrb	r3, [r3]
 1958 0018 5A1E     		sub	r2, r3, #1
 1959 001a 9341     		sbc	r3, r3, r2
 1960 001c DBB2     		uxtb	r3, r3
 682:.\mpu6050.c   **** }
 1961              		.loc 1 682 0
 1962 001e 181C     		mov	r0, r3
 1963 0020 BD46     		mov	sp, r7
 1964              		@ sp needed
 1965 0022 80BD     		pop	{r7, pc}
 1966              	.L160:
 1967              		.align	2
 1968              	.L159:
 1969 0024 00000000 		.word	devAddr
 1970 0028 00000000 		.word	buffer
 1971              		.cfi_endproc
 1972              	.LFE46:
 1973              		.size	MPU6050_getSlave2FIFOEnabled, .-MPU6050_getSlave2FIFOEnabled
 1974              		.section	.text.MPU6050_setSlave2FIFOEnabled,"ax",%progbits
 1975              		.align	2
 1976              		.global	MPU6050_setSlave2FIFOEnabled
 1977              		.code	16
 1978              		.thumb_func
 1979              		.type	MPU6050_setSlave2FIFOEnabled, %function
 1980              	MPU6050_setSlave2FIFOEnabled:
 1981              	.LFB47:
 683:.\mpu6050.c   **** /** Set Slave 2 FIFO enabled value.
 684:.\mpu6050.c   ****  * @param enabled New Slave 2 FIFO enabled value
 685:.\mpu6050.c   ****  * @see getSlave2FIFOEnabled()
 686:.\mpu6050.c   ****  * @see MPU6050_RA_FIFO_EN
 687:.\mpu6050.c   ****  */
 688:.\mpu6050.c   **** void MPU6050_setSlave2FIFOEnabled(bool enabled) {
 1982              		.loc 1 688 0
 1983              		.cfi_startproc
 1984 0000 80B5     		push	{r7, lr}
 1985              		.cfi_def_cfa_offset 8
 1986              		.cfi_offset 7, -8
 1987              		.cfi_offset 14, -4
 1988 0002 82B0     		sub	sp, sp, #8
 1989              		.cfi_def_cfa_offset 16
 1990 0004 00AF     		add	r7, sp, #0
 1991              		.cfi_def_cfa_register 7
ARM GAS  C:\Users\CHRIST~1\AppData\Local\Temp\ccslI7ZX.s 			page 48


 1992 0006 021C     		mov	r2, r0
 1993 0008 FB1D     		add	r3, r7, #7
 1994 000a 1A70     		strb	r2, [r3]
 689:.\mpu6050.c   ****     I2CWriteBit(devAddr, MPU6050_RA_FIFO_EN, MPU6050_SLV2_FIFO_EN_BIT, enabled);
 1995              		.loc 1 689 0
 1996 000c 054B     		ldr	r3, .L162
 1997 000e 1A78     		ldrb	r2, [r3]
 1998 0010 FB1D     		add	r3, r7, #7
 1999 0012 1B78     		ldrb	r3, [r3]
 2000 0014 101C     		mov	r0, r2
 2001 0016 2321     		mov	r1, #35
 2002 0018 0222     		mov	r2, #2
 2003 001a FFF7FEFF 		bl	I2CWriteBit
 690:.\mpu6050.c   **** }
 2004              		.loc 1 690 0
 2005 001e BD46     		mov	sp, r7
 2006 0020 02B0     		add	sp, sp, #8
 2007              		@ sp needed
 2008 0022 80BD     		pop	{r7, pc}
 2009              	.L163:
 2010              		.align	2
 2011              	.L162:
 2012 0024 00000000 		.word	devAddr
 2013              		.cfi_endproc
 2014              	.LFE47:
 2015              		.size	MPU6050_setSlave2FIFOEnabled, .-MPU6050_setSlave2FIFOEnabled
 2016              		.section	.text.MPU6050_getSlave1FIFOEnabled,"ax",%progbits
 2017              		.align	2
 2018              		.global	MPU6050_getSlave1FIFOEnabled
 2019              		.code	16
 2020              		.thumb_func
 2021              		.type	MPU6050_getSlave1FIFOEnabled, %function
 2022              	MPU6050_getSlave1FIFOEnabled:
 2023              	.LFB48:
 691:.\mpu6050.c   **** /** Get Slave 1 FIFO enabled value.
 692:.\mpu6050.c   ****  * When set to 1, this bit enables EXT_SENS_DATA registers (Registers 73 to 96)
 693:.\mpu6050.c   ****  * associated with Slave 1 to be written into the FIFO buffer.
 694:.\mpu6050.c   ****  * @return Current Slave 1 FIFO enabled value
 695:.\mpu6050.c   ****  * @see MPU6050_RA_FIFO_EN
 696:.\mpu6050.c   ****  */
 697:.\mpu6050.c   **** bool MPU6050_getSlave1FIFOEnabled() {
 2024              		.loc 1 697 0
 2025              		.cfi_startproc
 2026 0000 80B5     		push	{r7, lr}
 2027              		.cfi_def_cfa_offset 8
 2028              		.cfi_offset 7, -8
 2029              		.cfi_offset 14, -4
 2030 0002 00AF     		add	r7, sp, #0
 2031              		.cfi_def_cfa_register 7
 698:.\mpu6050.c   ****     I2CReadBit(devAddr, MPU6050_RA_FIFO_EN, MPU6050_SLV1_FIFO_EN_BIT, buffer);
 2032              		.loc 1 698 0
 2033 0004 074B     		ldr	r3, .L166
 2034 0006 1A78     		ldrb	r2, [r3]
 2035 0008 074B     		ldr	r3, .L166+4
 2036 000a 101C     		mov	r0, r2
 2037 000c 2321     		mov	r1, #35
 2038 000e 0122     		mov	r2, #1
ARM GAS  C:\Users\CHRIST~1\AppData\Local\Temp\ccslI7ZX.s 			page 49


 2039 0010 FFF7FEFF 		bl	I2CReadBit
 699:.\mpu6050.c   ****     return buffer[0];
 2040              		.loc 1 699 0
 2041 0014 044B     		ldr	r3, .L166+4
 2042 0016 1B78     		ldrb	r3, [r3]
 2043 0018 5A1E     		sub	r2, r3, #1
 2044 001a 9341     		sbc	r3, r3, r2
 2045 001c DBB2     		uxtb	r3, r3
 700:.\mpu6050.c   **** }
 2046              		.loc 1 700 0
 2047 001e 181C     		mov	r0, r3
 2048 0020 BD46     		mov	sp, r7
 2049              		@ sp needed
 2050 0022 80BD     		pop	{r7, pc}
 2051              	.L167:
 2052              		.align	2
 2053              	.L166:
 2054 0024 00000000 		.word	devAddr
 2055 0028 00000000 		.word	buffer
 2056              		.cfi_endproc
 2057              	.LFE48:
 2058              		.size	MPU6050_getSlave1FIFOEnabled, .-MPU6050_getSlave1FIFOEnabled
 2059              		.section	.text.MPU6050_setSlave1FIFOEnabled,"ax",%progbits
 2060              		.align	2
 2061              		.global	MPU6050_setSlave1FIFOEnabled
 2062              		.code	16
 2063              		.thumb_func
 2064              		.type	MPU6050_setSlave1FIFOEnabled, %function
 2065              	MPU6050_setSlave1FIFOEnabled:
 2066              	.LFB49:
 701:.\mpu6050.c   **** /** Set Slave 1 FIFO enabled value.
 702:.\mpu6050.c   ****  * @param enabled New Slave 1 FIFO enabled value
 703:.\mpu6050.c   ****  * @see getSlave1FIFOEnabled()
 704:.\mpu6050.c   ****  * @see MPU6050_RA_FIFO_EN
 705:.\mpu6050.c   ****  */
 706:.\mpu6050.c   **** void MPU6050_setSlave1FIFOEnabled(bool enabled) {
 2067              		.loc 1 706 0
 2068              		.cfi_startproc
 2069 0000 80B5     		push	{r7, lr}
 2070              		.cfi_def_cfa_offset 8
 2071              		.cfi_offset 7, -8
 2072              		.cfi_offset 14, -4
 2073 0002 82B0     		sub	sp, sp, #8
 2074              		.cfi_def_cfa_offset 16
 2075 0004 00AF     		add	r7, sp, #0
 2076              		.cfi_def_cfa_register 7
 2077 0006 021C     		mov	r2, r0
 2078 0008 FB1D     		add	r3, r7, #7
 2079 000a 1A70     		strb	r2, [r3]
 707:.\mpu6050.c   ****     I2CWriteBit(devAddr, MPU6050_RA_FIFO_EN, MPU6050_SLV1_FIFO_EN_BIT, enabled);
 2080              		.loc 1 707 0
 2081 000c 054B     		ldr	r3, .L169
 2082 000e 1A78     		ldrb	r2, [r3]
 2083 0010 FB1D     		add	r3, r7, #7
 2084 0012 1B78     		ldrb	r3, [r3]
 2085 0014 101C     		mov	r0, r2
 2086 0016 2321     		mov	r1, #35
ARM GAS  C:\Users\CHRIST~1\AppData\Local\Temp\ccslI7ZX.s 			page 50


 2087 0018 0122     		mov	r2, #1
 2088 001a FFF7FEFF 		bl	I2CWriteBit
 708:.\mpu6050.c   **** }
 2089              		.loc 1 708 0
 2090 001e BD46     		mov	sp, r7
 2091 0020 02B0     		add	sp, sp, #8
 2092              		@ sp needed
 2093 0022 80BD     		pop	{r7, pc}
 2094              	.L170:
 2095              		.align	2
 2096              	.L169:
 2097 0024 00000000 		.word	devAddr
 2098              		.cfi_endproc
 2099              	.LFE49:
 2100              		.size	MPU6050_setSlave1FIFOEnabled, .-MPU6050_setSlave1FIFOEnabled
 2101              		.section	.text.MPU6050_getSlave0FIFOEnabled,"ax",%progbits
 2102              		.align	2
 2103              		.global	MPU6050_getSlave0FIFOEnabled
 2104              		.code	16
 2105              		.thumb_func
 2106              		.type	MPU6050_getSlave0FIFOEnabled, %function
 2107              	MPU6050_getSlave0FIFOEnabled:
 2108              	.LFB50:
 709:.\mpu6050.c   **** /** Get Slave 0 FIFO enabled value.
 710:.\mpu6050.c   ****  * When set to 1, this bit enables EXT_SENS_DATA registers (Registers 73 to 96)
 711:.\mpu6050.c   ****  * associated with Slave 0 to be written into the FIFO buffer.
 712:.\mpu6050.c   ****  * @return Current Slave 0 FIFO enabled value
 713:.\mpu6050.c   ****  * @see MPU6050_RA_FIFO_EN
 714:.\mpu6050.c   ****  */
 715:.\mpu6050.c   **** bool MPU6050_getSlave0FIFOEnabled() {
 2109              		.loc 1 715 0
 2110              		.cfi_startproc
 2111 0000 80B5     		push	{r7, lr}
 2112              		.cfi_def_cfa_offset 8
 2113              		.cfi_offset 7, -8
 2114              		.cfi_offset 14, -4
 2115 0002 00AF     		add	r7, sp, #0
 2116              		.cfi_def_cfa_register 7
 716:.\mpu6050.c   ****     I2CReadBit(devAddr, MPU6050_RA_FIFO_EN, MPU6050_SLV0_FIFO_EN_BIT, buffer);
 2117              		.loc 1 716 0
 2118 0004 074B     		ldr	r3, .L173
 2119 0006 1A78     		ldrb	r2, [r3]
 2120 0008 074B     		ldr	r3, .L173+4
 2121 000a 101C     		mov	r0, r2
 2122 000c 2321     		mov	r1, #35
 2123 000e 0022     		mov	r2, #0
 2124 0010 FFF7FEFF 		bl	I2CReadBit
 717:.\mpu6050.c   ****     return buffer[0];
 2125              		.loc 1 717 0
 2126 0014 044B     		ldr	r3, .L173+4
 2127 0016 1B78     		ldrb	r3, [r3]
 2128 0018 5A1E     		sub	r2, r3, #1
 2129 001a 9341     		sbc	r3, r3, r2
 2130 001c DBB2     		uxtb	r3, r3
 718:.\mpu6050.c   **** }
 2131              		.loc 1 718 0
 2132 001e 181C     		mov	r0, r3
ARM GAS  C:\Users\CHRIST~1\AppData\Local\Temp\ccslI7ZX.s 			page 51


 2133 0020 BD46     		mov	sp, r7
 2134              		@ sp needed
 2135 0022 80BD     		pop	{r7, pc}
 2136              	.L174:
 2137              		.align	2
 2138              	.L173:
 2139 0024 00000000 		.word	devAddr
 2140 0028 00000000 		.word	buffer
 2141              		.cfi_endproc
 2142              	.LFE50:
 2143              		.size	MPU6050_getSlave0FIFOEnabled, .-MPU6050_getSlave0FIFOEnabled
 2144              		.section	.text.MPU6050_setSlave0FIFOEnabled,"ax",%progbits
 2145              		.align	2
 2146              		.global	MPU6050_setSlave0FIFOEnabled
 2147              		.code	16
 2148              		.thumb_func
 2149              		.type	MPU6050_setSlave0FIFOEnabled, %function
 2150              	MPU6050_setSlave0FIFOEnabled:
 2151              	.LFB51:
 719:.\mpu6050.c   **** /** Set Slave 0 FIFO enabled value.
 720:.\mpu6050.c   ****  * @param enabled New Slave 0 FIFO enabled value
 721:.\mpu6050.c   ****  * @see getSlave0FIFOEnabled()
 722:.\mpu6050.c   ****  * @see MPU6050_RA_FIFO_EN
 723:.\mpu6050.c   ****  */
 724:.\mpu6050.c   **** void MPU6050_setSlave0FIFOEnabled(bool enabled) {
 2152              		.loc 1 724 0
 2153              		.cfi_startproc
 2154 0000 80B5     		push	{r7, lr}
 2155              		.cfi_def_cfa_offset 8
 2156              		.cfi_offset 7, -8
 2157              		.cfi_offset 14, -4
 2158 0002 82B0     		sub	sp, sp, #8
 2159              		.cfi_def_cfa_offset 16
 2160 0004 00AF     		add	r7, sp, #0
 2161              		.cfi_def_cfa_register 7
 2162 0006 021C     		mov	r2, r0
 2163 0008 FB1D     		add	r3, r7, #7
 2164 000a 1A70     		strb	r2, [r3]
 725:.\mpu6050.c   ****     I2CWriteBit(devAddr, MPU6050_RA_FIFO_EN, MPU6050_SLV0_FIFO_EN_BIT, enabled);
 2165              		.loc 1 725 0
 2166 000c 054B     		ldr	r3, .L176
 2167 000e 1A78     		ldrb	r2, [r3]
 2168 0010 FB1D     		add	r3, r7, #7
 2169 0012 1B78     		ldrb	r3, [r3]
 2170 0014 101C     		mov	r0, r2
 2171 0016 2321     		mov	r1, #35
 2172 0018 0022     		mov	r2, #0
 2173 001a FFF7FEFF 		bl	I2CWriteBit
 726:.\mpu6050.c   **** }
 2174              		.loc 1 726 0
 2175 001e BD46     		mov	sp, r7
 2176 0020 02B0     		add	sp, sp, #8
 2177              		@ sp needed
 2178 0022 80BD     		pop	{r7, pc}
 2179              	.L177:
 2180              		.align	2
 2181              	.L176:
ARM GAS  C:\Users\CHRIST~1\AppData\Local\Temp\ccslI7ZX.s 			page 52


 2182 0024 00000000 		.word	devAddr
 2183              		.cfi_endproc
 2184              	.LFE51:
 2185              		.size	MPU6050_setSlave0FIFOEnabled, .-MPU6050_setSlave0FIFOEnabled
 2186              		.section	.text.MPU6050_getMultiMasterEnabled,"ax",%progbits
 2187              		.align	2
 2188              		.global	MPU6050_getMultiMasterEnabled
 2189              		.code	16
 2190              		.thumb_func
 2191              		.type	MPU6050_getMultiMasterEnabled, %function
 2192              	MPU6050_getMultiMasterEnabled:
 2193              	.LFB52:
 727:.\mpu6050.c   **** 
 728:.\mpu6050.c   **** // I2C_MST_CTRL register
 729:.\mpu6050.c   **** 
 730:.\mpu6050.c   **** /** Get multi-master enabled value.
 731:.\mpu6050.c   ****  * Multi-master capability allows multiple I2C masters to operate on the same
 732:.\mpu6050.c   ****  * bus. In circuits where multi-master capability is required, set MULT_MST_EN
 733:.\mpu6050.c   ****  * to 1. This will increase current drawn by approximately 30uA.
 734:.\mpu6050.c   ****  *
 735:.\mpu6050.c   ****  * In circuits where multi-master capability is required, the state of the I2C
 736:.\mpu6050.c   ****  * bus must always be monitored by each separate I2C Master. Before an I2C
 737:.\mpu6050.c   ****  * Master can assume arbitration of the bus, it must first confirm that no other
 738:.\mpu6050.c   ****  * I2C Master has arbitration of the bus. When MULT_MST_EN is set to 1, the
 739:.\mpu6050.c   ****  * MPU-60X0's bus arbitration detection logic is turned on, enabling it to
 740:.\mpu6050.c   ****  * detect when the bus is available.
 741:.\mpu6050.c   ****  *
 742:.\mpu6050.c   ****  * @return Current multi-master enabled value
 743:.\mpu6050.c   ****  * @see MPU6050_RA_I2C_MST_CTRL
 744:.\mpu6050.c   ****  */
 745:.\mpu6050.c   **** bool MPU6050_getMultiMasterEnabled() {
 2194              		.loc 1 745 0
 2195              		.cfi_startproc
 2196 0000 80B5     		push	{r7, lr}
 2197              		.cfi_def_cfa_offset 8
 2198              		.cfi_offset 7, -8
 2199              		.cfi_offset 14, -4
 2200 0002 00AF     		add	r7, sp, #0
 2201              		.cfi_def_cfa_register 7
 746:.\mpu6050.c   ****     I2CReadBit(devAddr, MPU6050_RA_I2C_MST_CTRL, MPU6050_MULT_MST_EN_BIT, buffer);
 2202              		.loc 1 746 0
 2203 0004 074B     		ldr	r3, .L180
 2204 0006 1A78     		ldrb	r2, [r3]
 2205 0008 074B     		ldr	r3, .L180+4
 2206 000a 101C     		mov	r0, r2
 2207 000c 2421     		mov	r1, #36
 2208 000e 0722     		mov	r2, #7
 2209 0010 FFF7FEFF 		bl	I2CReadBit
 747:.\mpu6050.c   ****     return buffer[0];
 2210              		.loc 1 747 0
 2211 0014 044B     		ldr	r3, .L180+4
 2212 0016 1B78     		ldrb	r3, [r3]
 2213 0018 5A1E     		sub	r2, r3, #1
 2214 001a 9341     		sbc	r3, r3, r2
 2215 001c DBB2     		uxtb	r3, r3
 748:.\mpu6050.c   **** }
 2216              		.loc 1 748 0
ARM GAS  C:\Users\CHRIST~1\AppData\Local\Temp\ccslI7ZX.s 			page 53


 2217 001e 181C     		mov	r0, r3
 2218 0020 BD46     		mov	sp, r7
 2219              		@ sp needed
 2220 0022 80BD     		pop	{r7, pc}
 2221              	.L181:
 2222              		.align	2
 2223              	.L180:
 2224 0024 00000000 		.word	devAddr
 2225 0028 00000000 		.word	buffer
 2226              		.cfi_endproc
 2227              	.LFE52:
 2228              		.size	MPU6050_getMultiMasterEnabled, .-MPU6050_getMultiMasterEnabled
 2229              		.section	.text.MPU6050_setMultiMasterEnabled,"ax",%progbits
 2230              		.align	2
 2231              		.global	MPU6050_setMultiMasterEnabled
 2232              		.code	16
 2233              		.thumb_func
 2234              		.type	MPU6050_setMultiMasterEnabled, %function
 2235              	MPU6050_setMultiMasterEnabled:
 2236              	.LFB53:
 749:.\mpu6050.c   **** /** Set multi-master enabled value.
 750:.\mpu6050.c   ****  * @param enabled New multi-master enabled value
 751:.\mpu6050.c   ****  * @see getMultiMasterEnabled()
 752:.\mpu6050.c   ****  * @see MPU6050_RA_I2C_MST_CTRL
 753:.\mpu6050.c   ****  */
 754:.\mpu6050.c   **** void MPU6050_setMultiMasterEnabled(bool enabled) {
 2237              		.loc 1 754 0
 2238              		.cfi_startproc
 2239 0000 80B5     		push	{r7, lr}
 2240              		.cfi_def_cfa_offset 8
 2241              		.cfi_offset 7, -8
 2242              		.cfi_offset 14, -4
 2243 0002 82B0     		sub	sp, sp, #8
 2244              		.cfi_def_cfa_offset 16
 2245 0004 00AF     		add	r7, sp, #0
 2246              		.cfi_def_cfa_register 7
 2247 0006 021C     		mov	r2, r0
 2248 0008 FB1D     		add	r3, r7, #7
 2249 000a 1A70     		strb	r2, [r3]
 755:.\mpu6050.c   ****     I2CWriteBit(devAddr, MPU6050_RA_I2C_MST_CTRL, MPU6050_MULT_MST_EN_BIT, enabled);
 2250              		.loc 1 755 0
 2251 000c 054B     		ldr	r3, .L183
 2252 000e 1A78     		ldrb	r2, [r3]
 2253 0010 FB1D     		add	r3, r7, #7
 2254 0012 1B78     		ldrb	r3, [r3]
 2255 0014 101C     		mov	r0, r2
 2256 0016 2421     		mov	r1, #36
 2257 0018 0722     		mov	r2, #7
 2258 001a FFF7FEFF 		bl	I2CWriteBit
 756:.\mpu6050.c   **** }
 2259              		.loc 1 756 0
 2260 001e BD46     		mov	sp, r7
 2261 0020 02B0     		add	sp, sp, #8
 2262              		@ sp needed
 2263 0022 80BD     		pop	{r7, pc}
 2264              	.L184:
 2265              		.align	2
ARM GAS  C:\Users\CHRIST~1\AppData\Local\Temp\ccslI7ZX.s 			page 54


 2266              	.L183:
 2267 0024 00000000 		.word	devAddr
 2268              		.cfi_endproc
 2269              	.LFE53:
 2270              		.size	MPU6050_setMultiMasterEnabled, .-MPU6050_setMultiMasterEnabled
 2271              		.section	.text.MPU6050_getWaitForExternalSensorEnabled,"ax",%progbits
 2272              		.align	2
 2273              		.global	MPU6050_getWaitForExternalSensorEnabled
 2274              		.code	16
 2275              		.thumb_func
 2276              		.type	MPU6050_getWaitForExternalSensorEnabled, %function
 2277              	MPU6050_getWaitForExternalSensorEnabled:
 2278              	.LFB54:
 757:.\mpu6050.c   **** /** Get wait-for-external-sensor-data enabled value.
 758:.\mpu6050.c   ****  * When the WAIT_FOR_ES bit is set to 1, the Data Ready interrupt will be
 759:.\mpu6050.c   ****  * delayed until External Sensor data from the Slave Devices are loaded into the
 760:.\mpu6050.c   ****  * EXT_SENS_DATA registers. This is used to ensure that both the internal sensor
 761:.\mpu6050.c   ****  * data (i.e. from gyro and accel) and external sensor data have been loaded to
 762:.\mpu6050.c   ****  * their respective data registers (i.e. the data is synced) when the Data Ready
 763:.\mpu6050.c   ****  * interrupt is triggered.
 764:.\mpu6050.c   ****  *
 765:.\mpu6050.c   ****  * @return Current wait-for-external-sensor-data enabled value
 766:.\mpu6050.c   ****  * @see MPU6050_RA_I2C_MST_CTRL
 767:.\mpu6050.c   ****  */
 768:.\mpu6050.c   **** bool MPU6050_getWaitForExternalSensorEnabled() {
 2279              		.loc 1 768 0
 2280              		.cfi_startproc
 2281 0000 80B5     		push	{r7, lr}
 2282              		.cfi_def_cfa_offset 8
 2283              		.cfi_offset 7, -8
 2284              		.cfi_offset 14, -4
 2285 0002 00AF     		add	r7, sp, #0
 2286              		.cfi_def_cfa_register 7
 769:.\mpu6050.c   ****     I2CReadBit(devAddr, MPU6050_RA_I2C_MST_CTRL, MPU6050_WAIT_FOR_ES_BIT, buffer);
 2287              		.loc 1 769 0
 2288 0004 074B     		ldr	r3, .L187
 2289 0006 1A78     		ldrb	r2, [r3]
 2290 0008 074B     		ldr	r3, .L187+4
 2291 000a 101C     		mov	r0, r2
 2292 000c 2421     		mov	r1, #36
 2293 000e 0622     		mov	r2, #6
 2294 0010 FFF7FEFF 		bl	I2CReadBit
 770:.\mpu6050.c   ****     return buffer[0];
 2295              		.loc 1 770 0
 2296 0014 044B     		ldr	r3, .L187+4
 2297 0016 1B78     		ldrb	r3, [r3]
 2298 0018 5A1E     		sub	r2, r3, #1
 2299 001a 9341     		sbc	r3, r3, r2
 2300 001c DBB2     		uxtb	r3, r3
 771:.\mpu6050.c   **** }
 2301              		.loc 1 771 0
 2302 001e 181C     		mov	r0, r3
 2303 0020 BD46     		mov	sp, r7
 2304              		@ sp needed
 2305 0022 80BD     		pop	{r7, pc}
 2306              	.L188:
 2307              		.align	2
ARM GAS  C:\Users\CHRIST~1\AppData\Local\Temp\ccslI7ZX.s 			page 55


 2308              	.L187:
 2309 0024 00000000 		.word	devAddr
 2310 0028 00000000 		.word	buffer
 2311              		.cfi_endproc
 2312              	.LFE54:
 2313              		.size	MPU6050_getWaitForExternalSensorEnabled, .-MPU6050_getWaitForExternalSensorEnabled
 2314              		.section	.text.MPU6050_setWaitForExternalSensorEnabled,"ax",%progbits
 2315              		.align	2
 2316              		.global	MPU6050_setWaitForExternalSensorEnabled
 2317              		.code	16
 2318              		.thumb_func
 2319              		.type	MPU6050_setWaitForExternalSensorEnabled, %function
 2320              	MPU6050_setWaitForExternalSensorEnabled:
 2321              	.LFB55:
 772:.\mpu6050.c   **** /** Set wait-for-external-sensor-data enabled value.
 773:.\mpu6050.c   ****  * @param enabled New wait-for-external-sensor-data enabled value
 774:.\mpu6050.c   ****  * @see getWaitForExternalSensorEnabled()
 775:.\mpu6050.c   ****  * @see MPU6050_RA_I2C_MST_CTRL
 776:.\mpu6050.c   ****  */
 777:.\mpu6050.c   **** void MPU6050_setWaitForExternalSensorEnabled(bool enabled) {
 2322              		.loc 1 777 0
 2323              		.cfi_startproc
 2324 0000 80B5     		push	{r7, lr}
 2325              		.cfi_def_cfa_offset 8
 2326              		.cfi_offset 7, -8
 2327              		.cfi_offset 14, -4
 2328 0002 82B0     		sub	sp, sp, #8
 2329              		.cfi_def_cfa_offset 16
 2330 0004 00AF     		add	r7, sp, #0
 2331              		.cfi_def_cfa_register 7
 2332 0006 021C     		mov	r2, r0
 2333 0008 FB1D     		add	r3, r7, #7
 2334 000a 1A70     		strb	r2, [r3]
 778:.\mpu6050.c   ****     I2CWriteBit(devAddr, MPU6050_RA_I2C_MST_CTRL, MPU6050_WAIT_FOR_ES_BIT, enabled);
 2335              		.loc 1 778 0
 2336 000c 054B     		ldr	r3, .L190
 2337 000e 1A78     		ldrb	r2, [r3]
 2338 0010 FB1D     		add	r3, r7, #7
 2339 0012 1B78     		ldrb	r3, [r3]
 2340 0014 101C     		mov	r0, r2
 2341 0016 2421     		mov	r1, #36
 2342 0018 0622     		mov	r2, #6
 2343 001a FFF7FEFF 		bl	I2CWriteBit
 779:.\mpu6050.c   **** }
 2344              		.loc 1 779 0
 2345 001e BD46     		mov	sp, r7
 2346 0020 02B0     		add	sp, sp, #8
 2347              		@ sp needed
 2348 0022 80BD     		pop	{r7, pc}
 2349              	.L191:
 2350              		.align	2
 2351              	.L190:
 2352 0024 00000000 		.word	devAddr
 2353              		.cfi_endproc
 2354              	.LFE55:
 2355              		.size	MPU6050_setWaitForExternalSensorEnabled, .-MPU6050_setWaitForExternalSensorEnabled
 2356              		.section	.text.MPU6050_getSlave3FIFOEnabled,"ax",%progbits
ARM GAS  C:\Users\CHRIST~1\AppData\Local\Temp\ccslI7ZX.s 			page 56


 2357              		.align	2
 2358              		.global	MPU6050_getSlave3FIFOEnabled
 2359              		.code	16
 2360              		.thumb_func
 2361              		.type	MPU6050_getSlave3FIFOEnabled, %function
 2362              	MPU6050_getSlave3FIFOEnabled:
 2363              	.LFB56:
 780:.\mpu6050.c   **** /** Get Slave 3 FIFO enabled value.
 781:.\mpu6050.c   ****  * When set to 1, this bit enables EXT_SENS_DATA registers (Registers 73 to 96)
 782:.\mpu6050.c   ****  * associated with Slave 3 to be written into the FIFO buffer.
 783:.\mpu6050.c   ****  * @return Current Slave 3 FIFO enabled value
 784:.\mpu6050.c   ****  * @see MPU6050_RA_MST_CTRL
 785:.\mpu6050.c   ****  */
 786:.\mpu6050.c   **** bool MPU6050_getSlave3FIFOEnabled() {
 2364              		.loc 1 786 0
 2365              		.cfi_startproc
 2366 0000 80B5     		push	{r7, lr}
 2367              		.cfi_def_cfa_offset 8
 2368              		.cfi_offset 7, -8
 2369              		.cfi_offset 14, -4
 2370 0002 00AF     		add	r7, sp, #0
 2371              		.cfi_def_cfa_register 7
 787:.\mpu6050.c   ****     I2CReadBit(devAddr, MPU6050_RA_I2C_MST_CTRL, MPU6050_SLV_3_FIFO_EN_BIT, buffer);
 2372              		.loc 1 787 0
 2373 0004 074B     		ldr	r3, .L194
 2374 0006 1A78     		ldrb	r2, [r3]
 2375 0008 074B     		ldr	r3, .L194+4
 2376 000a 101C     		mov	r0, r2
 2377 000c 2421     		mov	r1, #36
 2378 000e 0522     		mov	r2, #5
 2379 0010 FFF7FEFF 		bl	I2CReadBit
 788:.\mpu6050.c   ****     return buffer[0];
 2380              		.loc 1 788 0
 2381 0014 044B     		ldr	r3, .L194+4
 2382 0016 1B78     		ldrb	r3, [r3]
 2383 0018 5A1E     		sub	r2, r3, #1
 2384 001a 9341     		sbc	r3, r3, r2
 2385 001c DBB2     		uxtb	r3, r3
 789:.\mpu6050.c   **** }
 2386              		.loc 1 789 0
 2387 001e 181C     		mov	r0, r3
 2388 0020 BD46     		mov	sp, r7
 2389              		@ sp needed
 2390 0022 80BD     		pop	{r7, pc}
 2391              	.L195:
 2392              		.align	2
 2393              	.L194:
 2394 0024 00000000 		.word	devAddr
 2395 0028 00000000 		.word	buffer
 2396              		.cfi_endproc
 2397              	.LFE56:
 2398              		.size	MPU6050_getSlave3FIFOEnabled, .-MPU6050_getSlave3FIFOEnabled
 2399              		.section	.text.MPU6050_setSlave3FIFOEnabled,"ax",%progbits
 2400              		.align	2
 2401              		.global	MPU6050_setSlave3FIFOEnabled
 2402              		.code	16
 2403              		.thumb_func
ARM GAS  C:\Users\CHRIST~1\AppData\Local\Temp\ccslI7ZX.s 			page 57


 2404              		.type	MPU6050_setSlave3FIFOEnabled, %function
 2405              	MPU6050_setSlave3FIFOEnabled:
 2406              	.LFB57:
 790:.\mpu6050.c   **** /** Set Slave 3 FIFO enabled value.
 791:.\mpu6050.c   ****  * @param enabled New Slave 3 FIFO enabled value
 792:.\mpu6050.c   ****  * @see getSlave3FIFOEnabled()
 793:.\mpu6050.c   ****  * @see MPU6050_RA_MST_CTRL
 794:.\mpu6050.c   ****  */
 795:.\mpu6050.c   **** void MPU6050_setSlave3FIFOEnabled(bool enabled) {
 2407              		.loc 1 795 0
 2408              		.cfi_startproc
 2409 0000 80B5     		push	{r7, lr}
 2410              		.cfi_def_cfa_offset 8
 2411              		.cfi_offset 7, -8
 2412              		.cfi_offset 14, -4
 2413 0002 82B0     		sub	sp, sp, #8
 2414              		.cfi_def_cfa_offset 16
 2415 0004 00AF     		add	r7, sp, #0
 2416              		.cfi_def_cfa_register 7
 2417 0006 021C     		mov	r2, r0
 2418 0008 FB1D     		add	r3, r7, #7
 2419 000a 1A70     		strb	r2, [r3]
 796:.\mpu6050.c   ****     I2CWriteBit(devAddr, MPU6050_RA_I2C_MST_CTRL, MPU6050_SLV_3_FIFO_EN_BIT, enabled);
 2420              		.loc 1 796 0
 2421 000c 054B     		ldr	r3, .L197
 2422 000e 1A78     		ldrb	r2, [r3]
 2423 0010 FB1D     		add	r3, r7, #7
 2424 0012 1B78     		ldrb	r3, [r3]
 2425 0014 101C     		mov	r0, r2
 2426 0016 2421     		mov	r1, #36
 2427 0018 0522     		mov	r2, #5
 2428 001a FFF7FEFF 		bl	I2CWriteBit
 797:.\mpu6050.c   **** }
 2429              		.loc 1 797 0
 2430 001e BD46     		mov	sp, r7
 2431 0020 02B0     		add	sp, sp, #8
 2432              		@ sp needed
 2433 0022 80BD     		pop	{r7, pc}
 2434              	.L198:
 2435              		.align	2
 2436              	.L197:
 2437 0024 00000000 		.word	devAddr
 2438              		.cfi_endproc
 2439              	.LFE57:
 2440              		.size	MPU6050_setSlave3FIFOEnabled, .-MPU6050_setSlave3FIFOEnabled
 2441              		.section	.text.MPU6050_getSlaveReadWriteTransitionEnabled,"ax",%progbits
 2442              		.align	2
 2443              		.global	MPU6050_getSlaveReadWriteTransitionEnabled
 2444              		.code	16
 2445              		.thumb_func
 2446              		.type	MPU6050_getSlaveReadWriteTransitionEnabled, %function
 2447              	MPU6050_getSlaveReadWriteTransitionEnabled:
 2448              	.LFB58:
 798:.\mpu6050.c   **** /** Get slave read/write transition enabled value.
 799:.\mpu6050.c   ****  * The I2C_MST_P_NSR bit configures the I2C Master's transition from one slave
 800:.\mpu6050.c   ****  * read to the next slave read. If the bit equals 0, there will be a restart
 801:.\mpu6050.c   ****  * between reads. If the bit equals 1, there will be a stop followed by a start
ARM GAS  C:\Users\CHRIST~1\AppData\Local\Temp\ccslI7ZX.s 			page 58


 802:.\mpu6050.c   ****  * of the following read. When a write transaction follows a read transaction,
 803:.\mpu6050.c   ****  * the stop followed by a start of the successive write will be always used.
 804:.\mpu6050.c   ****  *
 805:.\mpu6050.c   ****  * @return Current slave read/write transition enabled value
 806:.\mpu6050.c   ****  * @see MPU6050_RA_I2C_MST_CTRL
 807:.\mpu6050.c   ****  */
 808:.\mpu6050.c   **** bool MPU6050_getSlaveReadWriteTransitionEnabled() {
 2449              		.loc 1 808 0
 2450              		.cfi_startproc
 2451 0000 80B5     		push	{r7, lr}
 2452              		.cfi_def_cfa_offset 8
 2453              		.cfi_offset 7, -8
 2454              		.cfi_offset 14, -4
 2455 0002 00AF     		add	r7, sp, #0
 2456              		.cfi_def_cfa_register 7
 809:.\mpu6050.c   ****     I2CReadBit(devAddr, MPU6050_RA_I2C_MST_CTRL, I2C_MPU6050_I2C_MST_P_NSR_BIT, buffer);
 2457              		.loc 1 809 0
 2458 0004 074B     		ldr	r3, .L201
 2459 0006 1A78     		ldrb	r2, [r3]
 2460 0008 074B     		ldr	r3, .L201+4
 2461 000a 101C     		mov	r0, r2
 2462 000c 2421     		mov	r1, #36
 2463 000e 0422     		mov	r2, #4
 2464 0010 FFF7FEFF 		bl	I2CReadBit
 810:.\mpu6050.c   ****     return buffer[0];
 2465              		.loc 1 810 0
 2466 0014 044B     		ldr	r3, .L201+4
 2467 0016 1B78     		ldrb	r3, [r3]
 2468 0018 5A1E     		sub	r2, r3, #1
 2469 001a 9341     		sbc	r3, r3, r2
 2470 001c DBB2     		uxtb	r3, r3
 811:.\mpu6050.c   **** }
 2471              		.loc 1 811 0
 2472 001e 181C     		mov	r0, r3
 2473 0020 BD46     		mov	sp, r7
 2474              		@ sp needed
 2475 0022 80BD     		pop	{r7, pc}
 2476              	.L202:
 2477              		.align	2
 2478              	.L201:
 2479 0024 00000000 		.word	devAddr
 2480 0028 00000000 		.word	buffer
 2481              		.cfi_endproc
 2482              	.LFE58:
 2483              		.size	MPU6050_getSlaveReadWriteTransitionEnabled, .-MPU6050_getSlaveReadWriteTransitionEnabled
 2484              		.section	.text.MPU6050_setSlaveReadWriteTransitionEnabled,"ax",%progbits
 2485              		.align	2
 2486              		.global	MPU6050_setSlaveReadWriteTransitionEnabled
 2487              		.code	16
 2488              		.thumb_func
 2489              		.type	MPU6050_setSlaveReadWriteTransitionEnabled, %function
 2490              	MPU6050_setSlaveReadWriteTransitionEnabled:
 2491              	.LFB59:
 812:.\mpu6050.c   **** /** Set slave read/write transition enabled value.
 813:.\mpu6050.c   ****  * @param enabled New slave read/write transition enabled value
 814:.\mpu6050.c   ****  * @see getSlaveReadWriteTransitionEnabled()
 815:.\mpu6050.c   ****  * @see MPU6050_RA_I2C_MST_CTRL
ARM GAS  C:\Users\CHRIST~1\AppData\Local\Temp\ccslI7ZX.s 			page 59


 816:.\mpu6050.c   ****  */
 817:.\mpu6050.c   **** void MPU6050_setSlaveReadWriteTransitionEnabled(bool enabled) {
 2492              		.loc 1 817 0
 2493              		.cfi_startproc
 2494 0000 80B5     		push	{r7, lr}
 2495              		.cfi_def_cfa_offset 8
 2496              		.cfi_offset 7, -8
 2497              		.cfi_offset 14, -4
 2498 0002 82B0     		sub	sp, sp, #8
 2499              		.cfi_def_cfa_offset 16
 2500 0004 00AF     		add	r7, sp, #0
 2501              		.cfi_def_cfa_register 7
 2502 0006 021C     		mov	r2, r0
 2503 0008 FB1D     		add	r3, r7, #7
 2504 000a 1A70     		strb	r2, [r3]
 818:.\mpu6050.c   ****     I2CWriteBit(devAddr, MPU6050_RA_I2C_MST_CTRL, I2C_MPU6050_I2C_MST_P_NSR_BIT, enabled);
 2505              		.loc 1 818 0
 2506 000c 054B     		ldr	r3, .L204
 2507 000e 1A78     		ldrb	r2, [r3]
 2508 0010 FB1D     		add	r3, r7, #7
 2509 0012 1B78     		ldrb	r3, [r3]
 2510 0014 101C     		mov	r0, r2
 2511 0016 2421     		mov	r1, #36
 2512 0018 0422     		mov	r2, #4
 2513 001a FFF7FEFF 		bl	I2CWriteBit
 819:.\mpu6050.c   **** }
 2514              		.loc 1 819 0
 2515 001e BD46     		mov	sp, r7
 2516 0020 02B0     		add	sp, sp, #8
 2517              		@ sp needed
 2518 0022 80BD     		pop	{r7, pc}
 2519              	.L205:
 2520              		.align	2
 2521              	.L204:
 2522 0024 00000000 		.word	devAddr
 2523              		.cfi_endproc
 2524              	.LFE59:
 2525              		.size	MPU6050_setSlaveReadWriteTransitionEnabled, .-MPU6050_setSlaveReadWriteTransitionEnabled
 2526              		.section	.text.MPU6050_getMasterClockSpeed,"ax",%progbits
 2527              		.align	2
 2528              		.global	MPU6050_getMasterClockSpeed
 2529              		.code	16
 2530              		.thumb_func
 2531              		.type	MPU6050_getMasterClockSpeed, %function
 2532              	MPU6050_getMasterClockSpeed:
 2533              	.LFB60:
 820:.\mpu6050.c   **** /** Get I2C master clock speed.
 821:.\mpu6050.c   ****  * I2C_MST_CLK is a 4 bit unsigned value which configures a divider on the
 822:.\mpu6050.c   ****  * MPU-60X0 internal 8MHz clock. It sets the I2C master clock speed according to
 823:.\mpu6050.c   ****  * the following table:
 824:.\mpu6050.c   ****  *
 825:.\mpu6050.c   ****  * <pre>
 826:.\mpu6050.c   ****  * I2C_MST_CLK | I2C Master Clock Speed | 8MHz Clock Divider
 827:.\mpu6050.c   ****  * ------------+------------------------+-------------------
 828:.\mpu6050.c   ****  * 0           | 348kHz                 | 23
 829:.\mpu6050.c   ****  * 1           | 333kHz                 | 24
 830:.\mpu6050.c   ****  * 2           | 320kHz                 | 25
ARM GAS  C:\Users\CHRIST~1\AppData\Local\Temp\ccslI7ZX.s 			page 60


 831:.\mpu6050.c   ****  * 3           | 308kHz                 | 26
 832:.\mpu6050.c   ****  * 4           | 296kHz                 | 27
 833:.\mpu6050.c   ****  * 5           | 286kHz                 | 28
 834:.\mpu6050.c   ****  * 6           | 276kHz                 | 29
 835:.\mpu6050.c   ****  * 7           | 267kHz                 | 30
 836:.\mpu6050.c   ****  * 8           | 258kHz                 | 31
 837:.\mpu6050.c   ****  * 9           | 500kHz                 | 16
 838:.\mpu6050.c   ****  * 10          | 471kHz                 | 17
 839:.\mpu6050.c   ****  * 11          | 444kHz                 | 18
 840:.\mpu6050.c   ****  * 12          | 421kHz                 | 19
 841:.\mpu6050.c   ****  * 13          | 400kHz                 | 20
 842:.\mpu6050.c   ****  * 14          | 381kHz                 | 21
 843:.\mpu6050.c   ****  * 15          | 364kHz                 | 22
 844:.\mpu6050.c   ****  * </pre>
 845:.\mpu6050.c   ****  *
 846:.\mpu6050.c   ****  * @return Current I2C master clock speed
 847:.\mpu6050.c   ****  * @see MPU6050_RA_I2C_MST_CTRL
 848:.\mpu6050.c   ****  */
 849:.\mpu6050.c   **** uint8_t MPU6050_getMasterClockSpeed() {
 2534              		.loc 1 849 0
 2535              		.cfi_startproc
 2536 0000 80B5     		push	{r7, lr}
 2537              		.cfi_def_cfa_offset 8
 2538              		.cfi_offset 7, -8
 2539              		.cfi_offset 14, -4
 2540 0002 82B0     		sub	sp, sp, #8
 2541              		.cfi_def_cfa_offset 16
 2542 0004 02AF     		add	r7, sp, #8
 2543              		.cfi_def_cfa 7, 8
 850:.\mpu6050.c   ****     I2CReadBits(devAddr, MPU6050_RA_I2C_MST_CTRL, I2C_MPU6050_I2C_MST_CLK_BIT, I2C_MPU6050_I2C_MST_
 2544              		.loc 1 850 0
 2545 0006 074B     		ldr	r3, .L208
 2546 0008 1B78     		ldrb	r3, [r3]
 2547 000a 074A     		ldr	r2, .L208+4
 2548 000c 0092     		str	r2, [sp]
 2549 000e 181C     		mov	r0, r3
 2550 0010 2421     		mov	r1, #36
 2551 0012 0322     		mov	r2, #3
 2552 0014 0423     		mov	r3, #4
 2553 0016 FFF7FEFF 		bl	I2CReadBits
 851:.\mpu6050.c   ****     return buffer[0];
 2554              		.loc 1 851 0
 2555 001a 034B     		ldr	r3, .L208+4
 2556 001c 1B78     		ldrb	r3, [r3]
 852:.\mpu6050.c   **** }
 2557              		.loc 1 852 0
 2558 001e 181C     		mov	r0, r3
 2559 0020 BD46     		mov	sp, r7
 2560              		@ sp needed
 2561 0022 80BD     		pop	{r7, pc}
 2562              	.L209:
 2563              		.align	2
 2564              	.L208:
 2565 0024 00000000 		.word	devAddr
 2566 0028 00000000 		.word	buffer
 2567              		.cfi_endproc
 2568              	.LFE60:
ARM GAS  C:\Users\CHRIST~1\AppData\Local\Temp\ccslI7ZX.s 			page 61


 2569              		.size	MPU6050_getMasterClockSpeed, .-MPU6050_getMasterClockSpeed
 2570              		.section	.text.MPU6050_setMasterClockSpeed,"ax",%progbits
 2571              		.align	2
 2572              		.global	MPU6050_setMasterClockSpeed
 2573              		.code	16
 2574              		.thumb_func
 2575              		.type	MPU6050_setMasterClockSpeed, %function
 2576              	MPU6050_setMasterClockSpeed:
 2577              	.LFB61:
 853:.\mpu6050.c   **** /** Set I2C master clock speed.
 854:.\mpu6050.c   ****  * @reparam speed Current I2C master clock speed
 855:.\mpu6050.c   ****  * @see MPU6050_RA_I2C_MST_CTRL
 856:.\mpu6050.c   ****  */
 857:.\mpu6050.c   **** void MPU6050_setMasterClockSpeed(uint8_t speed) {
 2578              		.loc 1 857 0
 2579              		.cfi_startproc
 2580 0000 80B5     		push	{r7, lr}
 2581              		.cfi_def_cfa_offset 8
 2582              		.cfi_offset 7, -8
 2583              		.cfi_offset 14, -4
 2584 0002 84B0     		sub	sp, sp, #16
 2585              		.cfi_def_cfa_offset 24
 2586 0004 02AF     		add	r7, sp, #8
 2587              		.cfi_def_cfa 7, 16
 2588 0006 021C     		mov	r2, r0
 2589 0008 FB1D     		add	r3, r7, #7
 2590 000a 1A70     		strb	r2, [r3]
 858:.\mpu6050.c   ****     I2CWriteBits(devAddr, MPU6050_RA_I2C_MST_CTRL, I2C_MPU6050_I2C_MST_CLK_BIT, I2C_MPU6050_I2C_MST
 2591              		.loc 1 858 0
 2592 000c 064B     		ldr	r3, .L211
 2593 000e 1B78     		ldrb	r3, [r3]
 2594 0010 FA1D     		add	r2, r7, #7
 2595 0012 1278     		ldrb	r2, [r2]
 2596 0014 0092     		str	r2, [sp]
 2597 0016 181C     		mov	r0, r3
 2598 0018 2421     		mov	r1, #36
 2599 001a 0322     		mov	r2, #3
 2600 001c 0423     		mov	r3, #4
 2601 001e FFF7FEFF 		bl	I2CWriteBits
 859:.\mpu6050.c   **** }
 2602              		.loc 1 859 0
 2603 0022 BD46     		mov	sp, r7
 2604 0024 02B0     		add	sp, sp, #8
 2605              		@ sp needed
 2606 0026 80BD     		pop	{r7, pc}
 2607              	.L212:
 2608              		.align	2
 2609              	.L211:
 2610 0028 00000000 		.word	devAddr
 2611              		.cfi_endproc
 2612              	.LFE61:
 2613              		.size	MPU6050_setMasterClockSpeed, .-MPU6050_setMasterClockSpeed
 2614              		.section	.text.MPU6050_getSlaveAddress,"ax",%progbits
 2615              		.align	2
 2616              		.global	MPU6050_getSlaveAddress
 2617              		.code	16
 2618              		.thumb_func
ARM GAS  C:\Users\CHRIST~1\AppData\Local\Temp\ccslI7ZX.s 			page 62


 2619              		.type	MPU6050_getSlaveAddress, %function
 2620              	MPU6050_getSlaveAddress:
 2621              	.LFB62:
 860:.\mpu6050.c   **** 
 861:.\mpu6050.c   **** // I2C_SLV* registers (Slave 0-3)
 862:.\mpu6050.c   **** 
 863:.\mpu6050.c   **** /** Get the I2C address of the specified slave (0-3).
 864:.\mpu6050.c   ****  * Note that Bit 7 (MSB) controls read/write mode. If Bit 7 is set, it's a read
 865:.\mpu6050.c   ****  * operation, and if it is cleared, then it's a write operation. The remaining
 866:.\mpu6050.c   ****  * bits (6-0) are the 7-bit device address of the slave device.
 867:.\mpu6050.c   ****  *
 868:.\mpu6050.c   ****  * In read mode, the result of the read is placed in the lowest available 
 869:.\mpu6050.c   ****  * EXT_SENS_DATA register. For further information regarding the allocation of
 870:.\mpu6050.c   ****  * read results, please refer to the EXT_SENS_DATA register description
 871:.\mpu6050.c   ****  * (Registers 73 - 96).
 872:.\mpu6050.c   ****  *
 873:.\mpu6050.c   ****  * The MPU-6050 supports a total of five slaves, but Slave 4 has unique
 874:.\mpu6050.c   ****  * characteristics, and so it has its own functions (getSlave4* and setSlave4*).
 875:.\mpu6050.c   ****  *
 876:.\mpu6050.c   ****  * I2C data transactions are performed at the Sample Rate, as defined in
 877:.\mpu6050.c   ****  * Register 25. The user is responsible for ensuring that I2C data transactions
 878:.\mpu6050.c   ****  * to and from each enabled Slave can be completed within a single period of the
 879:.\mpu6050.c   ****  * Sample Rate.
 880:.\mpu6050.c   ****  *
 881:.\mpu6050.c   ****  * The I2C slave access rate can be reduced relative to the Sample Rate. This
 882:.\mpu6050.c   ****  * reduced access rate is determined by I2C_MST_DLY (Register 52). Whether a
 883:.\mpu6050.c   ****  * slave's access rate is reduced relative to the Sample Rate is determined by
 884:.\mpu6050.c   ****  * I2C_MST_DELAY_CTRL (Register 103).
 885:.\mpu6050.c   ****  *
 886:.\mpu6050.c   ****  * The processing order for the slaves is fixed. The sequence followed for
 887:.\mpu6050.c   ****  * processing the slaves is Slave 0, Slave 1, Slave 2, Slave 3 and Slave 4. If a
 888:.\mpu6050.c   ****  * particular Slave is disabled it will be skipped.
 889:.\mpu6050.c   ****  *
 890:.\mpu6050.c   ****  * Each slave can either be accessed at the sample rate or at a reduced sample
 891:.\mpu6050.c   ****  * rate. In a case where some slaves are accessed at the Sample Rate and some
 892:.\mpu6050.c   ****  * slaves are accessed at the reduced rate, the sequence of accessing the slaves
 893:.\mpu6050.c   ****  * (Slave 0 to Slave 4) is still followed. However, the reduced rate slaves will
 894:.\mpu6050.c   ****  * be skipped if their access rate dictates that they should not be accessed
 895:.\mpu6050.c   ****  * during that particular cycle. For further information regarding the reduced
 896:.\mpu6050.c   ****  * access rate, please refer to Register 52. Whether a slave is accessed at the
 897:.\mpu6050.c   ****  * Sample Rate or at the reduced rate is determined by the Delay Enable bits in
 898:.\mpu6050.c   ****  * Register 103.
 899:.\mpu6050.c   ****  *
 900:.\mpu6050.c   ****  * @param num Slave number (0-3)
 901:.\mpu6050.c   ****  * @return Current address for specified slave
 902:.\mpu6050.c   ****  * @see MPU6050_RA_I2C_SLV0_ADDR
 903:.\mpu6050.c   ****  */
 904:.\mpu6050.c   **** uint8_t MPU6050_getSlaveAddress(uint8_t num) {
 2622              		.loc 1 904 0
 2623              		.cfi_startproc
 2624 0000 80B5     		push	{r7, lr}
 2625              		.cfi_def_cfa_offset 8
 2626              		.cfi_offset 7, -8
 2627              		.cfi_offset 14, -4
 2628 0002 82B0     		sub	sp, sp, #8
 2629              		.cfi_def_cfa_offset 16
 2630 0004 00AF     		add	r7, sp, #0
ARM GAS  C:\Users\CHRIST~1\AppData\Local\Temp\ccslI7ZX.s 			page 63


 2631              		.cfi_def_cfa_register 7
 2632 0006 021C     		mov	r2, r0
 2633 0008 FB1D     		add	r3, r7, #7
 2634 000a 1A70     		strb	r2, [r3]
 905:.\mpu6050.c   ****     if (num > 3) return 0;
 2635              		.loc 1 905 0
 2636 000c FB1D     		add	r3, r7, #7
 2637 000e 1B78     		ldrb	r3, [r3]
 2638 0010 032B     		cmp	r3, #3
 2639 0012 01D9     		bls	.L214
 2640              		.loc 1 905 0 is_stmt 0 discriminator 1
 2641 0014 0023     		mov	r3, #0
 2642 0016 11E0     		b	.L215
 2643              	.L214:
 906:.\mpu6050.c   ****     I2CReadByte(devAddr, MPU6050_RA_I2C_SLV0_ADDR + num*3, buffer);
 2644              		.loc 1 906 0 is_stmt 1
 2645 0018 0A4B     		ldr	r3, .L216
 2646 001a 1978     		ldrb	r1, [r3]
 2647 001c FB1D     		add	r3, r7, #7
 2648 001e 1B78     		ldrb	r3, [r3]
 2649 0020 1A1C     		add	r2, r3, #0
 2650 0022 9218     		add	r2, r2, r2
 2651 0024 D318     		add	r3, r2, r3
 2652 0026 DBB2     		uxtb	r3, r3
 2653 0028 2533     		add	r3, r3, #37
 2654 002a DAB2     		uxtb	r2, r3
 2655 002c 064B     		ldr	r3, .L216+4
 2656 002e 081C     		mov	r0, r1
 2657 0030 111C     		mov	r1, r2
 2658 0032 1A1C     		mov	r2, r3
 2659 0034 FFF7FEFF 		bl	I2CReadByte
 907:.\mpu6050.c   ****     return buffer[0];
 2660              		.loc 1 907 0
 2661 0038 034B     		ldr	r3, .L216+4
 2662 003a 1B78     		ldrb	r3, [r3]
 2663              	.L215:
 908:.\mpu6050.c   **** }
 2664              		.loc 1 908 0
 2665 003c 181C     		mov	r0, r3
 2666 003e BD46     		mov	sp, r7
 2667 0040 02B0     		add	sp, sp, #8
 2668              		@ sp needed
 2669 0042 80BD     		pop	{r7, pc}
 2670              	.L217:
 2671              		.align	2
 2672              	.L216:
 2673 0044 00000000 		.word	devAddr
 2674 0048 00000000 		.word	buffer
 2675              		.cfi_endproc
 2676              	.LFE62:
 2677              		.size	MPU6050_getSlaveAddress, .-MPU6050_getSlaveAddress
 2678              		.section	.text.MPU6050_setSlaveAddress,"ax",%progbits
 2679              		.align	2
 2680              		.global	MPU6050_setSlaveAddress
 2681              		.code	16
 2682              		.thumb_func
 2683              		.type	MPU6050_setSlaveAddress, %function
ARM GAS  C:\Users\CHRIST~1\AppData\Local\Temp\ccslI7ZX.s 			page 64


 2684              	MPU6050_setSlaveAddress:
 2685              	.LFB63:
 909:.\mpu6050.c   **** /** Set the I2C address of the specified slave (0-3).
 910:.\mpu6050.c   ****  * @param num Slave number (0-3)
 911:.\mpu6050.c   ****  * @param address New address for specified slave
 912:.\mpu6050.c   ****  * @see getSlaveAddress()
 913:.\mpu6050.c   ****  * @see MPU6050_RA_I2C_SLV0_ADDR
 914:.\mpu6050.c   ****  */
 915:.\mpu6050.c   **** void MPU6050_setSlaveAddress(uint8_t num, uint8_t address) {
 2686              		.loc 1 915 0
 2687              		.cfi_startproc
 2688 0000 80B5     		push	{r7, lr}
 2689              		.cfi_def_cfa_offset 8
 2690              		.cfi_offset 7, -8
 2691              		.cfi_offset 14, -4
 2692 0002 82B0     		sub	sp, sp, #8
 2693              		.cfi_def_cfa_offset 16
 2694 0004 00AF     		add	r7, sp, #0
 2695              		.cfi_def_cfa_register 7
 2696 0006 0A1C     		mov	r2, r1
 2697 0008 FB1D     		add	r3, r7, #7
 2698 000a 011C     		add	r1, r0, #0
 2699 000c 1970     		strb	r1, [r3]
 2700 000e BB1D     		add	r3, r7, #6
 2701 0010 1A70     		strb	r2, [r3]
 916:.\mpu6050.c   ****     if (num > 3) return;
 2702              		.loc 1 916 0
 2703 0012 FB1D     		add	r3, r7, #7
 2704 0014 1B78     		ldrb	r3, [r3]
 2705 0016 032B     		cmp	r3, #3
 2706 0018 00D9     		bls	.L219
 2707              		.loc 1 916 0 is_stmt 0 discriminator 1
 2708 001a 10E0     		b	.L218
 2709              	.L219:
 917:.\mpu6050.c   ****     I2CWriteByte(devAddr, MPU6050_RA_I2C_SLV0_ADDR + num*3, address);
 2710              		.loc 1 917 0 is_stmt 1
 2711 001c 094B     		ldr	r3, .L221
 2712 001e 1978     		ldrb	r1, [r3]
 2713 0020 FB1D     		add	r3, r7, #7
 2714 0022 1B78     		ldrb	r3, [r3]
 2715 0024 1A1C     		add	r2, r3, #0
 2716 0026 9218     		add	r2, r2, r2
 2717 0028 D318     		add	r3, r2, r3
 2718 002a DBB2     		uxtb	r3, r3
 2719 002c 2533     		add	r3, r3, #37
 2720 002e DAB2     		uxtb	r2, r3
 2721 0030 BB1D     		add	r3, r7, #6
 2722 0032 1B78     		ldrb	r3, [r3]
 2723 0034 081C     		mov	r0, r1
 2724 0036 111C     		mov	r1, r2
 2725 0038 1A1C     		mov	r2, r3
 2726 003a FFF7FEFF 		bl	I2CWriteByte
 2727              	.L218:
 918:.\mpu6050.c   **** }
 2728              		.loc 1 918 0
 2729 003e BD46     		mov	sp, r7
 2730 0040 02B0     		add	sp, sp, #8
ARM GAS  C:\Users\CHRIST~1\AppData\Local\Temp\ccslI7ZX.s 			page 65


 2731              		@ sp needed
 2732 0042 80BD     		pop	{r7, pc}
 2733              	.L222:
 2734              		.align	2
 2735              	.L221:
 2736 0044 00000000 		.word	devAddr
 2737              		.cfi_endproc
 2738              	.LFE63:
 2739              		.size	MPU6050_setSlaveAddress, .-MPU6050_setSlaveAddress
 2740              		.section	.text.MPU6050_getSlaveRegister,"ax",%progbits
 2741              		.align	2
 2742              		.global	MPU6050_getSlaveRegister
 2743              		.code	16
 2744              		.thumb_func
 2745              		.type	MPU6050_getSlaveRegister, %function
 2746              	MPU6050_getSlaveRegister:
 2747              	.LFB64:
 919:.\mpu6050.c   **** /** Get the active internal register for the specified slave (0-3).
 920:.\mpu6050.c   ****  * Read/write operations for this slave will be done to whatever internal
 921:.\mpu6050.c   ****  * register address is stored in this MPU register.
 922:.\mpu6050.c   ****  *
 923:.\mpu6050.c   ****  * The MPU-6050 supports a total of five slaves, but Slave 4 has unique
 924:.\mpu6050.c   ****  * characteristics, and so it has its own functions.
 925:.\mpu6050.c   ****  *
 926:.\mpu6050.c   ****  * @param num Slave number (0-3)
 927:.\mpu6050.c   ****  * @return Current active register for specified slave
 928:.\mpu6050.c   ****  * @see MPU6050_RA_I2C_SLV0_REG
 929:.\mpu6050.c   ****  */
 930:.\mpu6050.c   **** uint8_t MPU6050_getSlaveRegister(uint8_t num) {
 2748              		.loc 1 930 0
 2749              		.cfi_startproc
 2750 0000 80B5     		push	{r7, lr}
 2751              		.cfi_def_cfa_offset 8
 2752              		.cfi_offset 7, -8
 2753              		.cfi_offset 14, -4
 2754 0002 82B0     		sub	sp, sp, #8
 2755              		.cfi_def_cfa_offset 16
 2756 0004 00AF     		add	r7, sp, #0
 2757              		.cfi_def_cfa_register 7
 2758 0006 021C     		mov	r2, r0
 2759 0008 FB1D     		add	r3, r7, #7
 2760 000a 1A70     		strb	r2, [r3]
 931:.\mpu6050.c   ****     if (num > 3) return 0;
 2761              		.loc 1 931 0
 2762 000c FB1D     		add	r3, r7, #7
 2763 000e 1B78     		ldrb	r3, [r3]
 2764 0010 032B     		cmp	r3, #3
 2765 0012 01D9     		bls	.L224
 2766              		.loc 1 931 0 is_stmt 0 discriminator 1
 2767 0014 0023     		mov	r3, #0
 2768 0016 11E0     		b	.L225
 2769              	.L224:
 932:.\mpu6050.c   ****     I2CReadByte(devAddr, MPU6050_RA_I2C_SLV0_REG + num*3, buffer);
 2770              		.loc 1 932 0 is_stmt 1
 2771 0018 0A4B     		ldr	r3, .L226
 2772 001a 1978     		ldrb	r1, [r3]
 2773 001c FB1D     		add	r3, r7, #7
ARM GAS  C:\Users\CHRIST~1\AppData\Local\Temp\ccslI7ZX.s 			page 66


 2774 001e 1B78     		ldrb	r3, [r3]
 2775 0020 1A1C     		add	r2, r3, #0
 2776 0022 9218     		add	r2, r2, r2
 2777 0024 D318     		add	r3, r2, r3
 2778 0026 DBB2     		uxtb	r3, r3
 2779 0028 2633     		add	r3, r3, #38
 2780 002a DAB2     		uxtb	r2, r3
 2781 002c 064B     		ldr	r3, .L226+4
 2782 002e 081C     		mov	r0, r1
 2783 0030 111C     		mov	r1, r2
 2784 0032 1A1C     		mov	r2, r3
 2785 0034 FFF7FEFF 		bl	I2CReadByte
 933:.\mpu6050.c   ****     return buffer[0];
 2786              		.loc 1 933 0
 2787 0038 034B     		ldr	r3, .L226+4
 2788 003a 1B78     		ldrb	r3, [r3]
 2789              	.L225:
 934:.\mpu6050.c   **** }
 2790              		.loc 1 934 0
 2791 003c 181C     		mov	r0, r3
 2792 003e BD46     		mov	sp, r7
 2793 0040 02B0     		add	sp, sp, #8
 2794              		@ sp needed
 2795 0042 80BD     		pop	{r7, pc}
 2796              	.L227:
 2797              		.align	2
 2798              	.L226:
 2799 0044 00000000 		.word	devAddr
 2800 0048 00000000 		.word	buffer
 2801              		.cfi_endproc
 2802              	.LFE64:
 2803              		.size	MPU6050_getSlaveRegister, .-MPU6050_getSlaveRegister
 2804              		.section	.text.MPU6050_setSlaveRegister,"ax",%progbits
 2805              		.align	2
 2806              		.global	MPU6050_setSlaveRegister
 2807              		.code	16
 2808              		.thumb_func
 2809              		.type	MPU6050_setSlaveRegister, %function
 2810              	MPU6050_setSlaveRegister:
 2811              	.LFB65:
 935:.\mpu6050.c   **** /** Set the active internal register for the specified slave (0-3).
 936:.\mpu6050.c   ****  * @param num Slave number (0-3)
 937:.\mpu6050.c   ****  * @param reg New active register for specified slave
 938:.\mpu6050.c   ****  * @see getSlaveRegister()
 939:.\mpu6050.c   ****  * @see MPU6050_RA_I2C_SLV0_REG
 940:.\mpu6050.c   ****  */
 941:.\mpu6050.c   **** void MPU6050_setSlaveRegister(uint8_t num, uint8_t reg) {
 2812              		.loc 1 941 0
 2813              		.cfi_startproc
 2814 0000 80B5     		push	{r7, lr}
 2815              		.cfi_def_cfa_offset 8
 2816              		.cfi_offset 7, -8
 2817              		.cfi_offset 14, -4
 2818 0002 82B0     		sub	sp, sp, #8
 2819              		.cfi_def_cfa_offset 16
 2820 0004 00AF     		add	r7, sp, #0
 2821              		.cfi_def_cfa_register 7
ARM GAS  C:\Users\CHRIST~1\AppData\Local\Temp\ccslI7ZX.s 			page 67


 2822 0006 0A1C     		mov	r2, r1
 2823 0008 FB1D     		add	r3, r7, #7
 2824 000a 011C     		add	r1, r0, #0
 2825 000c 1970     		strb	r1, [r3]
 2826 000e BB1D     		add	r3, r7, #6
 2827 0010 1A70     		strb	r2, [r3]
 942:.\mpu6050.c   ****     if (num > 3) return;
 2828              		.loc 1 942 0
 2829 0012 FB1D     		add	r3, r7, #7
 2830 0014 1B78     		ldrb	r3, [r3]
 2831 0016 032B     		cmp	r3, #3
 2832 0018 00D9     		bls	.L229
 2833              		.loc 1 942 0 is_stmt 0 discriminator 1
 2834 001a 10E0     		b	.L228
 2835              	.L229:
 943:.\mpu6050.c   ****     I2CWriteByte(devAddr, MPU6050_RA_I2C_SLV0_REG + num*3, reg);
 2836              		.loc 1 943 0 is_stmt 1
 2837 001c 094B     		ldr	r3, .L231
 2838 001e 1978     		ldrb	r1, [r3]
 2839 0020 FB1D     		add	r3, r7, #7
 2840 0022 1B78     		ldrb	r3, [r3]
 2841 0024 1A1C     		add	r2, r3, #0
 2842 0026 9218     		add	r2, r2, r2
 2843 0028 D318     		add	r3, r2, r3
 2844 002a DBB2     		uxtb	r3, r3
 2845 002c 2633     		add	r3, r3, #38
 2846 002e DAB2     		uxtb	r2, r3
 2847 0030 BB1D     		add	r3, r7, #6
 2848 0032 1B78     		ldrb	r3, [r3]
 2849 0034 081C     		mov	r0, r1
 2850 0036 111C     		mov	r1, r2
 2851 0038 1A1C     		mov	r2, r3
 2852 003a FFF7FEFF 		bl	I2CWriteByte
 2853              	.L228:
 944:.\mpu6050.c   **** }
 2854              		.loc 1 944 0
 2855 003e BD46     		mov	sp, r7
 2856 0040 02B0     		add	sp, sp, #8
 2857              		@ sp needed
 2858 0042 80BD     		pop	{r7, pc}
 2859              	.L232:
 2860              		.align	2
 2861              	.L231:
 2862 0044 00000000 		.word	devAddr
 2863              		.cfi_endproc
 2864              	.LFE65:
 2865              		.size	MPU6050_setSlaveRegister, .-MPU6050_setSlaveRegister
 2866              		.section	.text.MPU6050_getSlaveEnabled,"ax",%progbits
 2867              		.align	2
 2868              		.global	MPU6050_getSlaveEnabled
 2869              		.code	16
 2870              		.thumb_func
 2871              		.type	MPU6050_getSlaveEnabled, %function
 2872              	MPU6050_getSlaveEnabled:
 2873              	.LFB66:
 945:.\mpu6050.c   **** /** Get the enabled value for the specified slave (0-3).
 946:.\mpu6050.c   ****  * When set to 1, this bit enables Slave 0 for data transfer operations. When
ARM GAS  C:\Users\CHRIST~1\AppData\Local\Temp\ccslI7ZX.s 			page 68


 947:.\mpu6050.c   ****  * cleared to 0, this bit disables Slave 0 from data transfer operations.
 948:.\mpu6050.c   ****  * @param num Slave number (0-3)
 949:.\mpu6050.c   ****  * @return Current enabled value for specified slave
 950:.\mpu6050.c   ****  * @see MPU6050_RA_I2C_SLV0_CTRL
 951:.\mpu6050.c   ****  */
 952:.\mpu6050.c   **** bool MPU6050_getSlaveEnabled(uint8_t num) {
 2874              		.loc 1 952 0
 2875              		.cfi_startproc
 2876 0000 80B5     		push	{r7, lr}
 2877              		.cfi_def_cfa_offset 8
 2878              		.cfi_offset 7, -8
 2879              		.cfi_offset 14, -4
 2880 0002 82B0     		sub	sp, sp, #8
 2881              		.cfi_def_cfa_offset 16
 2882 0004 00AF     		add	r7, sp, #0
 2883              		.cfi_def_cfa_register 7
 2884 0006 021C     		mov	r2, r0
 2885 0008 FB1D     		add	r3, r7, #7
 2886 000a 1A70     		strb	r2, [r3]
 953:.\mpu6050.c   ****     if (num > 3) return 0;
 2887              		.loc 1 953 0
 2888 000c FB1D     		add	r3, r7, #7
 2889 000e 1B78     		ldrb	r3, [r3]
 2890 0010 032B     		cmp	r3, #3
 2891 0012 01D9     		bls	.L234
 2892              		.loc 1 953 0 is_stmt 0 discriminator 1
 2893 0014 0023     		mov	r3, #0
 2894 0016 14E0     		b	.L235
 2895              	.L234:
 954:.\mpu6050.c   ****     I2CReadBit(devAddr, MPU6050_RA_I2C_SLV0_CTRL + num*3, I2C_MPU6050_I2C_SLV_EN_BIT, buffer);
 2896              		.loc 1 954 0 is_stmt 1
 2897 0018 0C4B     		ldr	r3, .L236
 2898 001a 1978     		ldrb	r1, [r3]
 2899 001c FB1D     		add	r3, r7, #7
 2900 001e 1B78     		ldrb	r3, [r3]
 2901 0020 1A1C     		add	r2, r3, #0
 2902 0022 9218     		add	r2, r2, r2
 2903 0024 D318     		add	r3, r2, r3
 2904 0026 DBB2     		uxtb	r3, r3
 2905 0028 2733     		add	r3, r3, #39
 2906 002a DAB2     		uxtb	r2, r3
 2907 002c 084B     		ldr	r3, .L236+4
 2908 002e 081C     		mov	r0, r1
 2909 0030 111C     		mov	r1, r2
 2910 0032 0722     		mov	r2, #7
 2911 0034 FFF7FEFF 		bl	I2CReadBit
 955:.\mpu6050.c   ****     return buffer[0];
 2912              		.loc 1 955 0
 2913 0038 054B     		ldr	r3, .L236+4
 2914 003a 1B78     		ldrb	r3, [r3]
 2915 003c 5A1E     		sub	r2, r3, #1
 2916 003e 9341     		sbc	r3, r3, r2
 2917 0040 DBB2     		uxtb	r3, r3
 2918              	.L235:
 956:.\mpu6050.c   **** }
 2919              		.loc 1 956 0
 2920 0042 181C     		mov	r0, r3
ARM GAS  C:\Users\CHRIST~1\AppData\Local\Temp\ccslI7ZX.s 			page 69


 2921 0044 BD46     		mov	sp, r7
 2922 0046 02B0     		add	sp, sp, #8
 2923              		@ sp needed
 2924 0048 80BD     		pop	{r7, pc}
 2925              	.L237:
 2926 004a C046     		.align	2
 2927              	.L236:
 2928 004c 00000000 		.word	devAddr
 2929 0050 00000000 		.word	buffer
 2930              		.cfi_endproc
 2931              	.LFE66:
 2932              		.size	MPU6050_getSlaveEnabled, .-MPU6050_getSlaveEnabled
 2933              		.section	.text.MPU6050_setSlaveEnabled,"ax",%progbits
 2934              		.align	2
 2935              		.global	MPU6050_setSlaveEnabled
 2936              		.code	16
 2937              		.thumb_func
 2938              		.type	MPU6050_setSlaveEnabled, %function
 2939              	MPU6050_setSlaveEnabled:
 2940              	.LFB67:
 957:.\mpu6050.c   **** /** Set the enabled value for the specified slave (0-3).
 958:.\mpu6050.c   ****  * @param num Slave number (0-3)
 959:.\mpu6050.c   ****  * @param enabled New enabled value for specified slave
 960:.\mpu6050.c   ****  * @see getSlaveEnabled()
 961:.\mpu6050.c   ****  * @see MPU6050_RA_I2C_SLV0_CTRL
 962:.\mpu6050.c   ****  */
 963:.\mpu6050.c   **** void MPU6050_setSlaveEnabled(uint8_t num, bool enabled) {
 2941              		.loc 1 963 0
 2942              		.cfi_startproc
 2943 0000 80B5     		push	{r7, lr}
 2944              		.cfi_def_cfa_offset 8
 2945              		.cfi_offset 7, -8
 2946              		.cfi_offset 14, -4
 2947 0002 82B0     		sub	sp, sp, #8
 2948              		.cfi_def_cfa_offset 16
 2949 0004 00AF     		add	r7, sp, #0
 2950              		.cfi_def_cfa_register 7
 2951 0006 0A1C     		mov	r2, r1
 2952 0008 FB1D     		add	r3, r7, #7
 2953 000a 011C     		add	r1, r0, #0
 2954 000c 1970     		strb	r1, [r3]
 2955 000e BB1D     		add	r3, r7, #6
 2956 0010 1A70     		strb	r2, [r3]
 964:.\mpu6050.c   ****     if (num > 3) return;
 2957              		.loc 1 964 0
 2958 0012 FB1D     		add	r3, r7, #7
 2959 0014 1B78     		ldrb	r3, [r3]
 2960 0016 032B     		cmp	r3, #3
 2961 0018 00D9     		bls	.L239
 2962              		.loc 1 964 0 is_stmt 0 discriminator 1
 2963 001a 10E0     		b	.L238
 2964              	.L239:
 965:.\mpu6050.c   ****     I2CWriteBit(devAddr, MPU6050_RA_I2C_SLV0_CTRL + num*3, I2C_MPU6050_I2C_SLV_EN_BIT, enabled);
 2965              		.loc 1 965 0 is_stmt 1
 2966 001c 094B     		ldr	r3, .L241
 2967 001e 1978     		ldrb	r1, [r3]
 2968 0020 FB1D     		add	r3, r7, #7
ARM GAS  C:\Users\CHRIST~1\AppData\Local\Temp\ccslI7ZX.s 			page 70


 2969 0022 1B78     		ldrb	r3, [r3]
 2970 0024 1A1C     		add	r2, r3, #0
 2971 0026 9218     		add	r2, r2, r2
 2972 0028 D318     		add	r3, r2, r3
 2973 002a DBB2     		uxtb	r3, r3
 2974 002c 2733     		add	r3, r3, #39
 2975 002e DAB2     		uxtb	r2, r3
 2976 0030 BB1D     		add	r3, r7, #6
 2977 0032 1B78     		ldrb	r3, [r3]
 2978 0034 081C     		mov	r0, r1
 2979 0036 111C     		mov	r1, r2
 2980 0038 0722     		mov	r2, #7
 2981 003a FFF7FEFF 		bl	I2CWriteBit
 2982              	.L238:
 966:.\mpu6050.c   **** }
 2983              		.loc 1 966 0
 2984 003e BD46     		mov	sp, r7
 2985 0040 02B0     		add	sp, sp, #8
 2986              		@ sp needed
 2987 0042 80BD     		pop	{r7, pc}
 2988              	.L242:
 2989              		.align	2
 2990              	.L241:
 2991 0044 00000000 		.word	devAddr
 2992              		.cfi_endproc
 2993              	.LFE67:
 2994              		.size	MPU6050_setSlaveEnabled, .-MPU6050_setSlaveEnabled
 2995              		.section	.text.MPU6050_getSlaveWordByteSwap,"ax",%progbits
 2996              		.align	2
 2997              		.global	MPU6050_getSlaveWordByteSwap
 2998              		.code	16
 2999              		.thumb_func
 3000              		.type	MPU6050_getSlaveWordByteSwap, %function
 3001              	MPU6050_getSlaveWordByteSwap:
 3002              	.LFB68:
 967:.\mpu6050.c   **** /** Get word pair byte-swapping enabled for the specified slave (0-3).
 968:.\mpu6050.c   ****  * When set to 1, this bit enables byte swapping. When byte swapping is enabled,
 969:.\mpu6050.c   ****  * the high and low bytes of a word pair are swapped. Please refer to
 970:.\mpu6050.c   ****  * I2C_SLV0_GRP for the pairing convention of the word pairs. When cleared to 0,
 971:.\mpu6050.c   ****  * bytes transferred to and from Slave 0 will be written to EXT_SENS_DATA
 972:.\mpu6050.c   ****  * registers in the order they were transferred.
 973:.\mpu6050.c   ****  *
 974:.\mpu6050.c   ****  * @param num Slave number (0-3)
 975:.\mpu6050.c   ****  * @return Current word pair byte-swapping enabled value for specified slave
 976:.\mpu6050.c   ****  * @see MPU6050_RA_I2C_SLV0_CTRL
 977:.\mpu6050.c   ****  */
 978:.\mpu6050.c   **** bool MPU6050_getSlaveWordByteSwap(uint8_t num) {
 3003              		.loc 1 978 0
 3004              		.cfi_startproc
 3005 0000 80B5     		push	{r7, lr}
 3006              		.cfi_def_cfa_offset 8
 3007              		.cfi_offset 7, -8
 3008              		.cfi_offset 14, -4
 3009 0002 82B0     		sub	sp, sp, #8
 3010              		.cfi_def_cfa_offset 16
 3011 0004 00AF     		add	r7, sp, #0
 3012              		.cfi_def_cfa_register 7
ARM GAS  C:\Users\CHRIST~1\AppData\Local\Temp\ccslI7ZX.s 			page 71


 3013 0006 021C     		mov	r2, r0
 3014 0008 FB1D     		add	r3, r7, #7
 3015 000a 1A70     		strb	r2, [r3]
 979:.\mpu6050.c   ****     if (num > 3) return 0;
 3016              		.loc 1 979 0
 3017 000c FB1D     		add	r3, r7, #7
 3018 000e 1B78     		ldrb	r3, [r3]
 3019 0010 032B     		cmp	r3, #3
 3020 0012 01D9     		bls	.L244
 3021              		.loc 1 979 0 is_stmt 0 discriminator 1
 3022 0014 0023     		mov	r3, #0
 3023 0016 14E0     		b	.L245
 3024              	.L244:
 980:.\mpu6050.c   ****     I2CReadBit(devAddr, MPU6050_RA_I2C_SLV0_CTRL + num*3, I2C_MPU6050_I2C_SLV_BYTE_SW_BIT, buffer);
 3025              		.loc 1 980 0 is_stmt 1
 3026 0018 0C4B     		ldr	r3, .L246
 3027 001a 1978     		ldrb	r1, [r3]
 3028 001c FB1D     		add	r3, r7, #7
 3029 001e 1B78     		ldrb	r3, [r3]
 3030 0020 1A1C     		add	r2, r3, #0
 3031 0022 9218     		add	r2, r2, r2
 3032 0024 D318     		add	r3, r2, r3
 3033 0026 DBB2     		uxtb	r3, r3
 3034 0028 2733     		add	r3, r3, #39
 3035 002a DAB2     		uxtb	r2, r3
 3036 002c 084B     		ldr	r3, .L246+4
 3037 002e 081C     		mov	r0, r1
 3038 0030 111C     		mov	r1, r2
 3039 0032 0622     		mov	r2, #6
 3040 0034 FFF7FEFF 		bl	I2CReadBit
 981:.\mpu6050.c   ****     return buffer[0];
 3041              		.loc 1 981 0
 3042 0038 054B     		ldr	r3, .L246+4
 3043 003a 1B78     		ldrb	r3, [r3]
 3044 003c 5A1E     		sub	r2, r3, #1
 3045 003e 9341     		sbc	r3, r3, r2
 3046 0040 DBB2     		uxtb	r3, r3
 3047              	.L245:
 982:.\mpu6050.c   **** }
 3048              		.loc 1 982 0
 3049 0042 181C     		mov	r0, r3
 3050 0044 BD46     		mov	sp, r7
 3051 0046 02B0     		add	sp, sp, #8
 3052              		@ sp needed
 3053 0048 80BD     		pop	{r7, pc}
 3054              	.L247:
 3055 004a C046     		.align	2
 3056              	.L246:
 3057 004c 00000000 		.word	devAddr
 3058 0050 00000000 		.word	buffer
 3059              		.cfi_endproc
 3060              	.LFE68:
 3061              		.size	MPU6050_getSlaveWordByteSwap, .-MPU6050_getSlaveWordByteSwap
 3062              		.section	.text.MPU6050_setSlaveWordByteSwap,"ax",%progbits
 3063              		.align	2
 3064              		.global	MPU6050_setSlaveWordByteSwap
 3065              		.code	16
ARM GAS  C:\Users\CHRIST~1\AppData\Local\Temp\ccslI7ZX.s 			page 72


 3066              		.thumb_func
 3067              		.type	MPU6050_setSlaveWordByteSwap, %function
 3068              	MPU6050_setSlaveWordByteSwap:
 3069              	.LFB69:
 983:.\mpu6050.c   **** /** Set word pair byte-swapping enabled for the specified slave (0-3).
 984:.\mpu6050.c   ****  * @param num Slave number (0-3)
 985:.\mpu6050.c   ****  * @param enabled New word pair byte-swapping enabled value for specified slave
 986:.\mpu6050.c   ****  * @see getSlaveWordByteSwap()
 987:.\mpu6050.c   ****  * @see MPU6050_RA_I2C_SLV0_CTRL
 988:.\mpu6050.c   ****  */
 989:.\mpu6050.c   **** void MPU6050_setSlaveWordByteSwap(uint8_t num, bool enabled) {
 3070              		.loc 1 989 0
 3071              		.cfi_startproc
 3072 0000 80B5     		push	{r7, lr}
 3073              		.cfi_def_cfa_offset 8
 3074              		.cfi_offset 7, -8
 3075              		.cfi_offset 14, -4
 3076 0002 82B0     		sub	sp, sp, #8
 3077              		.cfi_def_cfa_offset 16
 3078 0004 00AF     		add	r7, sp, #0
 3079              		.cfi_def_cfa_register 7
 3080 0006 0A1C     		mov	r2, r1
 3081 0008 FB1D     		add	r3, r7, #7
 3082 000a 011C     		add	r1, r0, #0
 3083 000c 1970     		strb	r1, [r3]
 3084 000e BB1D     		add	r3, r7, #6
 3085 0010 1A70     		strb	r2, [r3]
 990:.\mpu6050.c   ****     if (num > 3) return;
 3086              		.loc 1 990 0
 3087 0012 FB1D     		add	r3, r7, #7
 3088 0014 1B78     		ldrb	r3, [r3]
 3089 0016 032B     		cmp	r3, #3
 3090 0018 00D9     		bls	.L249
 3091              		.loc 1 990 0 is_stmt 0 discriminator 1
 3092 001a 10E0     		b	.L248
 3093              	.L249:
 991:.\mpu6050.c   ****     I2CWriteBit(devAddr, MPU6050_RA_I2C_SLV0_CTRL + num*3, I2C_MPU6050_I2C_SLV_BYTE_SW_BIT, enabled
 3094              		.loc 1 991 0 is_stmt 1
 3095 001c 094B     		ldr	r3, .L251
 3096 001e 1978     		ldrb	r1, [r3]
 3097 0020 FB1D     		add	r3, r7, #7
 3098 0022 1B78     		ldrb	r3, [r3]
 3099 0024 1A1C     		add	r2, r3, #0
 3100 0026 9218     		add	r2, r2, r2
 3101 0028 D318     		add	r3, r2, r3
 3102 002a DBB2     		uxtb	r3, r3
 3103 002c 2733     		add	r3, r3, #39
 3104 002e DAB2     		uxtb	r2, r3
 3105 0030 BB1D     		add	r3, r7, #6
 3106 0032 1B78     		ldrb	r3, [r3]
 3107 0034 081C     		mov	r0, r1
 3108 0036 111C     		mov	r1, r2
 3109 0038 0622     		mov	r2, #6
 3110 003a FFF7FEFF 		bl	I2CWriteBit
 3111              	.L248:
 992:.\mpu6050.c   **** }
 3112              		.loc 1 992 0
ARM GAS  C:\Users\CHRIST~1\AppData\Local\Temp\ccslI7ZX.s 			page 73


 3113 003e BD46     		mov	sp, r7
 3114 0040 02B0     		add	sp, sp, #8
 3115              		@ sp needed
 3116 0042 80BD     		pop	{r7, pc}
 3117              	.L252:
 3118              		.align	2
 3119              	.L251:
 3120 0044 00000000 		.word	devAddr
 3121              		.cfi_endproc
 3122              	.LFE69:
 3123              		.size	MPU6050_setSlaveWordByteSwap, .-MPU6050_setSlaveWordByteSwap
 3124              		.section	.text.MPU6050_getSlaveWriteMode,"ax",%progbits
 3125              		.align	2
 3126              		.global	MPU6050_getSlaveWriteMode
 3127              		.code	16
 3128              		.thumb_func
 3129              		.type	MPU6050_getSlaveWriteMode, %function
 3130              	MPU6050_getSlaveWriteMode:
 3131              	.LFB70:
 993:.\mpu6050.c   **** /** Get write mode for the specified slave (0-3).
 994:.\mpu6050.c   ****  * When set to 1, the transaction will read or write data only. When cleared to
 995:.\mpu6050.c   ****  * 0, the transaction will write a register address prior to reading or writing
 996:.\mpu6050.c   ****  * data. This should equal 0 when specifying the register address within the
 997:.\mpu6050.c   ****  * Slave device to/from which the ensuing data transaction will take place.
 998:.\mpu6050.c   ****  *
 999:.\mpu6050.c   ****  * @param num Slave number (0-3)
1000:.\mpu6050.c   ****  * @return Current write mode for specified slave (0 = register address + data, 1 = data only)
1001:.\mpu6050.c   ****  * @see MPU6050_RA_I2C_SLV0_CTRL
1002:.\mpu6050.c   ****  */
1003:.\mpu6050.c   **** bool MPU6050_getSlaveWriteMode(uint8_t num) {
 3132              		.loc 1 1003 0
 3133              		.cfi_startproc
 3134 0000 80B5     		push	{r7, lr}
 3135              		.cfi_def_cfa_offset 8
 3136              		.cfi_offset 7, -8
 3137              		.cfi_offset 14, -4
 3138 0002 82B0     		sub	sp, sp, #8
 3139              		.cfi_def_cfa_offset 16
 3140 0004 00AF     		add	r7, sp, #0
 3141              		.cfi_def_cfa_register 7
 3142 0006 021C     		mov	r2, r0
 3143 0008 FB1D     		add	r3, r7, #7
 3144 000a 1A70     		strb	r2, [r3]
1004:.\mpu6050.c   ****     if (num > 3) return 0;
 3145              		.loc 1 1004 0
 3146 000c FB1D     		add	r3, r7, #7
 3147 000e 1B78     		ldrb	r3, [r3]
 3148 0010 032B     		cmp	r3, #3
 3149 0012 01D9     		bls	.L254
 3150              		.loc 1 1004 0 is_stmt 0 discriminator 1
 3151 0014 0023     		mov	r3, #0
 3152 0016 14E0     		b	.L255
 3153              	.L254:
1005:.\mpu6050.c   ****     I2CReadBit(devAddr, MPU6050_RA_I2C_SLV0_CTRL + num*3, I2C_MPU6050_I2C_SLV_REG_DIS_BIT, buffer);
 3154              		.loc 1 1005 0 is_stmt 1
 3155 0018 0C4B     		ldr	r3, .L256
 3156 001a 1978     		ldrb	r1, [r3]
ARM GAS  C:\Users\CHRIST~1\AppData\Local\Temp\ccslI7ZX.s 			page 74


 3157 001c FB1D     		add	r3, r7, #7
 3158 001e 1B78     		ldrb	r3, [r3]
 3159 0020 1A1C     		add	r2, r3, #0
 3160 0022 9218     		add	r2, r2, r2
 3161 0024 D318     		add	r3, r2, r3
 3162 0026 DBB2     		uxtb	r3, r3
 3163 0028 2733     		add	r3, r3, #39
 3164 002a DAB2     		uxtb	r2, r3
 3165 002c 084B     		ldr	r3, .L256+4
 3166 002e 081C     		mov	r0, r1
 3167 0030 111C     		mov	r1, r2
 3168 0032 0522     		mov	r2, #5
 3169 0034 FFF7FEFF 		bl	I2CReadBit
1006:.\mpu6050.c   ****     return buffer[0];
 3170              		.loc 1 1006 0
 3171 0038 054B     		ldr	r3, .L256+4
 3172 003a 1B78     		ldrb	r3, [r3]
 3173 003c 5A1E     		sub	r2, r3, #1
 3174 003e 9341     		sbc	r3, r3, r2
 3175 0040 DBB2     		uxtb	r3, r3
 3176              	.L255:
1007:.\mpu6050.c   **** }
 3177              		.loc 1 1007 0
 3178 0042 181C     		mov	r0, r3
 3179 0044 BD46     		mov	sp, r7
 3180 0046 02B0     		add	sp, sp, #8
 3181              		@ sp needed
 3182 0048 80BD     		pop	{r7, pc}
 3183              	.L257:
 3184 004a C046     		.align	2
 3185              	.L256:
 3186 004c 00000000 		.word	devAddr
 3187 0050 00000000 		.word	buffer
 3188              		.cfi_endproc
 3189              	.LFE70:
 3190              		.size	MPU6050_getSlaveWriteMode, .-MPU6050_getSlaveWriteMode
 3191              		.section	.text.MPU6050_setSlaveWriteMode,"ax",%progbits
 3192              		.align	2
 3193              		.global	MPU6050_setSlaveWriteMode
 3194              		.code	16
 3195              		.thumb_func
 3196              		.type	MPU6050_setSlaveWriteMode, %function
 3197              	MPU6050_setSlaveWriteMode:
 3198              	.LFB71:
1008:.\mpu6050.c   **** /** Set write mode for the specified slave (0-3).
1009:.\mpu6050.c   ****  * @param num Slave number (0-3)
1010:.\mpu6050.c   ****  * @param mode New write mode for specified slave (0 = register address + data, 1 = data only)
1011:.\mpu6050.c   ****  * @see getSlaveWriteMode()
1012:.\mpu6050.c   ****  * @see MPU6050_RA_I2C_SLV0_CTRL
1013:.\mpu6050.c   ****  */
1014:.\mpu6050.c   **** void MPU6050_setSlaveWriteMode(uint8_t num, bool mode) {
 3199              		.loc 1 1014 0
 3200              		.cfi_startproc
 3201 0000 80B5     		push	{r7, lr}
 3202              		.cfi_def_cfa_offset 8
 3203              		.cfi_offset 7, -8
 3204              		.cfi_offset 14, -4
ARM GAS  C:\Users\CHRIST~1\AppData\Local\Temp\ccslI7ZX.s 			page 75


 3205 0002 82B0     		sub	sp, sp, #8
 3206              		.cfi_def_cfa_offset 16
 3207 0004 00AF     		add	r7, sp, #0
 3208              		.cfi_def_cfa_register 7
 3209 0006 0A1C     		mov	r2, r1
 3210 0008 FB1D     		add	r3, r7, #7
 3211 000a 011C     		add	r1, r0, #0
 3212 000c 1970     		strb	r1, [r3]
 3213 000e BB1D     		add	r3, r7, #6
 3214 0010 1A70     		strb	r2, [r3]
1015:.\mpu6050.c   ****     if (num > 3) return;
 3215              		.loc 1 1015 0
 3216 0012 FB1D     		add	r3, r7, #7
 3217 0014 1B78     		ldrb	r3, [r3]
 3218 0016 032B     		cmp	r3, #3
 3219 0018 00D9     		bls	.L259
 3220              		.loc 1 1015 0 is_stmt 0 discriminator 1
 3221 001a 10E0     		b	.L258
 3222              	.L259:
1016:.\mpu6050.c   ****     I2CWriteBit(devAddr, MPU6050_RA_I2C_SLV0_CTRL + num*3, I2C_MPU6050_I2C_SLV_REG_DIS_BIT, mode);
 3223              		.loc 1 1016 0 is_stmt 1
 3224 001c 094B     		ldr	r3, .L261
 3225 001e 1978     		ldrb	r1, [r3]
 3226 0020 FB1D     		add	r3, r7, #7
 3227 0022 1B78     		ldrb	r3, [r3]
 3228 0024 1A1C     		add	r2, r3, #0
 3229 0026 9218     		add	r2, r2, r2
 3230 0028 D318     		add	r3, r2, r3
 3231 002a DBB2     		uxtb	r3, r3
 3232 002c 2733     		add	r3, r3, #39
 3233 002e DAB2     		uxtb	r2, r3
 3234 0030 BB1D     		add	r3, r7, #6
 3235 0032 1B78     		ldrb	r3, [r3]
 3236 0034 081C     		mov	r0, r1
 3237 0036 111C     		mov	r1, r2
 3238 0038 0522     		mov	r2, #5
 3239 003a FFF7FEFF 		bl	I2CWriteBit
 3240              	.L258:
1017:.\mpu6050.c   **** }
 3241              		.loc 1 1017 0
 3242 003e BD46     		mov	sp, r7
 3243 0040 02B0     		add	sp, sp, #8
 3244              		@ sp needed
 3245 0042 80BD     		pop	{r7, pc}
 3246              	.L262:
 3247              		.align	2
 3248              	.L261:
 3249 0044 00000000 		.word	devAddr
 3250              		.cfi_endproc
 3251              	.LFE71:
 3252              		.size	MPU6050_setSlaveWriteMode, .-MPU6050_setSlaveWriteMode
 3253              		.section	.text.MPU6050_getSlaveWordGroupOffset,"ax",%progbits
 3254              		.align	2
 3255              		.global	MPU6050_getSlaveWordGroupOffset
 3256              		.code	16
 3257              		.thumb_func
 3258              		.type	MPU6050_getSlaveWordGroupOffset, %function
ARM GAS  C:\Users\CHRIST~1\AppData\Local\Temp\ccslI7ZX.s 			page 76


 3259              	MPU6050_getSlaveWordGroupOffset:
 3260              	.LFB72:
1018:.\mpu6050.c   **** /** Get word pair grouping order offset for the specified slave (0-3).
1019:.\mpu6050.c   ****  * This sets specifies the grouping order of word pairs received from registers.
1020:.\mpu6050.c   ****  * When cleared to 0, bytes from register addresses 0 and 1, 2 and 3, etc (even,
1021:.\mpu6050.c   ****  * then odd register addresses) are paired to form a word. When set to 1, bytes
1022:.\mpu6050.c   ****  * from register addresses are paired 1 and 2, 3 and 4, etc. (odd, then even
1023:.\mpu6050.c   ****  * register addresses) are paired to form a word.
1024:.\mpu6050.c   ****  *
1025:.\mpu6050.c   ****  * @param num Slave number (0-3)
1026:.\mpu6050.c   ****  * @return Current word pair grouping order offset for specified slave
1027:.\mpu6050.c   ****  * @see MPU6050_RA_I2C_SLV0_CTRL
1028:.\mpu6050.c   ****  */
1029:.\mpu6050.c   **** bool MPU6050_getSlaveWordGroupOffset(uint8_t num) {
 3261              		.loc 1 1029 0
 3262              		.cfi_startproc
 3263 0000 80B5     		push	{r7, lr}
 3264              		.cfi_def_cfa_offset 8
 3265              		.cfi_offset 7, -8
 3266              		.cfi_offset 14, -4
 3267 0002 82B0     		sub	sp, sp, #8
 3268              		.cfi_def_cfa_offset 16
 3269 0004 00AF     		add	r7, sp, #0
 3270              		.cfi_def_cfa_register 7
 3271 0006 021C     		mov	r2, r0
 3272 0008 FB1D     		add	r3, r7, #7
 3273 000a 1A70     		strb	r2, [r3]
1030:.\mpu6050.c   ****     if (num > 3) return 0;
 3274              		.loc 1 1030 0
 3275 000c FB1D     		add	r3, r7, #7
 3276 000e 1B78     		ldrb	r3, [r3]
 3277 0010 032B     		cmp	r3, #3
 3278 0012 01D9     		bls	.L264
 3279              		.loc 1 1030 0 is_stmt 0 discriminator 1
 3280 0014 0023     		mov	r3, #0
 3281 0016 14E0     		b	.L265
 3282              	.L264:
1031:.\mpu6050.c   ****     I2CReadBit(devAddr, MPU6050_RA_I2C_SLV0_CTRL + num*3, I2C_MPU6050_I2C_SLV_GRP_BIT, buffer);
 3283              		.loc 1 1031 0 is_stmt 1
 3284 0018 0C4B     		ldr	r3, .L266
 3285 001a 1978     		ldrb	r1, [r3]
 3286 001c FB1D     		add	r3, r7, #7
 3287 001e 1B78     		ldrb	r3, [r3]
 3288 0020 1A1C     		add	r2, r3, #0
 3289 0022 9218     		add	r2, r2, r2
 3290 0024 D318     		add	r3, r2, r3
 3291 0026 DBB2     		uxtb	r3, r3
 3292 0028 2733     		add	r3, r3, #39
 3293 002a DAB2     		uxtb	r2, r3
 3294 002c 084B     		ldr	r3, .L266+4
 3295 002e 081C     		mov	r0, r1
 3296 0030 111C     		mov	r1, r2
 3297 0032 0422     		mov	r2, #4
 3298 0034 FFF7FEFF 		bl	I2CReadBit
1032:.\mpu6050.c   ****     return buffer[0];
 3299              		.loc 1 1032 0
 3300 0038 054B     		ldr	r3, .L266+4
ARM GAS  C:\Users\CHRIST~1\AppData\Local\Temp\ccslI7ZX.s 			page 77


 3301 003a 1B78     		ldrb	r3, [r3]
 3302 003c 5A1E     		sub	r2, r3, #1
 3303 003e 9341     		sbc	r3, r3, r2
 3304 0040 DBB2     		uxtb	r3, r3
 3305              	.L265:
1033:.\mpu6050.c   **** }
 3306              		.loc 1 1033 0
 3307 0042 181C     		mov	r0, r3
 3308 0044 BD46     		mov	sp, r7
 3309 0046 02B0     		add	sp, sp, #8
 3310              		@ sp needed
 3311 0048 80BD     		pop	{r7, pc}
 3312              	.L267:
 3313 004a C046     		.align	2
 3314              	.L266:
 3315 004c 00000000 		.word	devAddr
 3316 0050 00000000 		.word	buffer
 3317              		.cfi_endproc
 3318              	.LFE72:
 3319              		.size	MPU6050_getSlaveWordGroupOffset, .-MPU6050_getSlaveWordGroupOffset
 3320              		.section	.text.MPU6050_setSlaveWordGroupOffset,"ax",%progbits
 3321              		.align	2
 3322              		.global	MPU6050_setSlaveWordGroupOffset
 3323              		.code	16
 3324              		.thumb_func
 3325              		.type	MPU6050_setSlaveWordGroupOffset, %function
 3326              	MPU6050_setSlaveWordGroupOffset:
 3327              	.LFB73:
1034:.\mpu6050.c   **** /** Set word pair grouping order offset for the specified slave (0-3).
1035:.\mpu6050.c   ****  * @param num Slave number (0-3)
1036:.\mpu6050.c   ****  * @param enabled New word pair grouping order offset for specified slave
1037:.\mpu6050.c   ****  * @see getSlaveWordGroupOffset()
1038:.\mpu6050.c   ****  * @see MPU6050_RA_I2C_SLV0_CTRL
1039:.\mpu6050.c   ****  */
1040:.\mpu6050.c   **** void MPU6050_setSlaveWordGroupOffset(uint8_t num, bool enabled) {
 3328              		.loc 1 1040 0
 3329              		.cfi_startproc
 3330 0000 80B5     		push	{r7, lr}
 3331              		.cfi_def_cfa_offset 8
 3332              		.cfi_offset 7, -8
 3333              		.cfi_offset 14, -4
 3334 0002 82B0     		sub	sp, sp, #8
 3335              		.cfi_def_cfa_offset 16
 3336 0004 00AF     		add	r7, sp, #0
 3337              		.cfi_def_cfa_register 7
 3338 0006 0A1C     		mov	r2, r1
 3339 0008 FB1D     		add	r3, r7, #7
 3340 000a 011C     		add	r1, r0, #0
 3341 000c 1970     		strb	r1, [r3]
 3342 000e BB1D     		add	r3, r7, #6
 3343 0010 1A70     		strb	r2, [r3]
1041:.\mpu6050.c   ****     if (num > 3) return;
 3344              		.loc 1 1041 0
 3345 0012 FB1D     		add	r3, r7, #7
 3346 0014 1B78     		ldrb	r3, [r3]
 3347 0016 032B     		cmp	r3, #3
 3348 0018 00D9     		bls	.L269
ARM GAS  C:\Users\CHRIST~1\AppData\Local\Temp\ccslI7ZX.s 			page 78


 3349              		.loc 1 1041 0 is_stmt 0 discriminator 1
 3350 001a 10E0     		b	.L268
 3351              	.L269:
1042:.\mpu6050.c   ****     I2CWriteBit(devAddr, MPU6050_RA_I2C_SLV0_CTRL + num*3, I2C_MPU6050_I2C_SLV_GRP_BIT, enabled);
 3352              		.loc 1 1042 0 is_stmt 1
 3353 001c 094B     		ldr	r3, .L271
 3354 001e 1978     		ldrb	r1, [r3]
 3355 0020 FB1D     		add	r3, r7, #7
 3356 0022 1B78     		ldrb	r3, [r3]
 3357 0024 1A1C     		add	r2, r3, #0
 3358 0026 9218     		add	r2, r2, r2
 3359 0028 D318     		add	r3, r2, r3
 3360 002a DBB2     		uxtb	r3, r3
 3361 002c 2733     		add	r3, r3, #39
 3362 002e DAB2     		uxtb	r2, r3
 3363 0030 BB1D     		add	r3, r7, #6
 3364 0032 1B78     		ldrb	r3, [r3]
 3365 0034 081C     		mov	r0, r1
 3366 0036 111C     		mov	r1, r2
 3367 0038 0422     		mov	r2, #4
 3368 003a FFF7FEFF 		bl	I2CWriteBit
 3369              	.L268:
1043:.\mpu6050.c   **** }
 3370              		.loc 1 1043 0
 3371 003e BD46     		mov	sp, r7
 3372 0040 02B0     		add	sp, sp, #8
 3373              		@ sp needed
 3374 0042 80BD     		pop	{r7, pc}
 3375              	.L272:
 3376              		.align	2
 3377              	.L271:
 3378 0044 00000000 		.word	devAddr
 3379              		.cfi_endproc
 3380              	.LFE73:
 3381              		.size	MPU6050_setSlaveWordGroupOffset, .-MPU6050_setSlaveWordGroupOffset
 3382              		.section	.text.MPU6050_getSlaveDataLength,"ax",%progbits
 3383              		.align	2
 3384              		.global	MPU6050_getSlaveDataLength
 3385              		.code	16
 3386              		.thumb_func
 3387              		.type	MPU6050_getSlaveDataLength, %function
 3388              	MPU6050_getSlaveDataLength:
 3389              	.LFB74:
1044:.\mpu6050.c   **** /** Get number of bytes to read for the specified slave (0-3).
1045:.\mpu6050.c   ****  * Specifies the number of bytes transferred to and from Slave 0. Clearing this
1046:.\mpu6050.c   ****  * bit to 0 is equivalent to disabling the register by writing 0 to I2C_SLV0_EN.
1047:.\mpu6050.c   ****  * @param num Slave number (0-3)
1048:.\mpu6050.c   ****  * @return Number of bytes to read for specified slave
1049:.\mpu6050.c   ****  * @see MPU6050_RA_I2C_SLV0_CTRL
1050:.\mpu6050.c   ****  */
1051:.\mpu6050.c   **** uint8_t MPU6050_getSlaveDataLength(uint8_t num) {
 3390              		.loc 1 1051 0
 3391              		.cfi_startproc
 3392 0000 80B5     		push	{r7, lr}
 3393              		.cfi_def_cfa_offset 8
 3394              		.cfi_offset 7, -8
 3395              		.cfi_offset 14, -4
ARM GAS  C:\Users\CHRIST~1\AppData\Local\Temp\ccslI7ZX.s 			page 79


 3396 0002 84B0     		sub	sp, sp, #16
 3397              		.cfi_def_cfa_offset 24
 3398 0004 02AF     		add	r7, sp, #8
 3399              		.cfi_def_cfa 7, 16
 3400 0006 021C     		mov	r2, r0
 3401 0008 FB1D     		add	r3, r7, #7
 3402 000a 1A70     		strb	r2, [r3]
1052:.\mpu6050.c   ****     if (num > 3) return 0;
 3403              		.loc 1 1052 0
 3404 000c FB1D     		add	r3, r7, #7
 3405 000e 1B78     		ldrb	r3, [r3]
 3406 0010 032B     		cmp	r3, #3
 3407 0012 01D9     		bls	.L274
 3408              		.loc 1 1052 0 is_stmt 0 discriminator 1
 3409 0014 0023     		mov	r3, #0
 3410 0016 13E0     		b	.L275
 3411              	.L274:
1053:.\mpu6050.c   ****     I2CReadBits(devAddr, MPU6050_RA_I2C_SLV0_CTRL + num*3, I2C_MPU6050_I2C_SLV_LEN_BIT, I2C_MPU6050
 3412              		.loc 1 1053 0 is_stmt 1
 3413 0018 0B4B     		ldr	r3, .L276
 3414 001a 1978     		ldrb	r1, [r3]
 3415 001c FB1D     		add	r3, r7, #7
 3416 001e 1B78     		ldrb	r3, [r3]
 3417 0020 1A1C     		add	r2, r3, #0
 3418 0022 9218     		add	r2, r2, r2
 3419 0024 D318     		add	r3, r2, r3
 3420 0026 DBB2     		uxtb	r3, r3
 3421 0028 2733     		add	r3, r3, #39
 3422 002a DBB2     		uxtb	r3, r3
 3423 002c 074A     		ldr	r2, .L276+4
 3424 002e 0092     		str	r2, [sp]
 3425 0030 081C     		mov	r0, r1
 3426 0032 191C     		mov	r1, r3
 3427 0034 0322     		mov	r2, #3
 3428 0036 0423     		mov	r3, #4
 3429 0038 FFF7FEFF 		bl	I2CReadBits
1054:.\mpu6050.c   ****     return buffer[0];
 3430              		.loc 1 1054 0
 3431 003c 034B     		ldr	r3, .L276+4
 3432 003e 1B78     		ldrb	r3, [r3]
 3433              	.L275:
1055:.\mpu6050.c   **** }
 3434              		.loc 1 1055 0
 3435 0040 181C     		mov	r0, r3
 3436 0042 BD46     		mov	sp, r7
 3437 0044 02B0     		add	sp, sp, #8
 3438              		@ sp needed
 3439 0046 80BD     		pop	{r7, pc}
 3440              	.L277:
 3441              		.align	2
 3442              	.L276:
 3443 0048 00000000 		.word	devAddr
 3444 004c 00000000 		.word	buffer
 3445              		.cfi_endproc
 3446              	.LFE74:
 3447              		.size	MPU6050_getSlaveDataLength, .-MPU6050_getSlaveDataLength
 3448              		.section	.text.MPU6050_setSlaveDataLength,"ax",%progbits
ARM GAS  C:\Users\CHRIST~1\AppData\Local\Temp\ccslI7ZX.s 			page 80


 3449              		.align	2
 3450              		.global	MPU6050_setSlaveDataLength
 3451              		.code	16
 3452              		.thumb_func
 3453              		.type	MPU6050_setSlaveDataLength, %function
 3454              	MPU6050_setSlaveDataLength:
 3455              	.LFB75:
1056:.\mpu6050.c   **** /** Set number of bytes to read for the specified slave (0-3).
1057:.\mpu6050.c   ****  * @param num Slave number (0-3)
1058:.\mpu6050.c   ****  * @param length Number of bytes to read for specified slave
1059:.\mpu6050.c   ****  * @see getSlaveDataLength()
1060:.\mpu6050.c   ****  * @see MPU6050_RA_I2C_SLV0_CTRL
1061:.\mpu6050.c   ****  */
1062:.\mpu6050.c   **** void MPU6050_setSlaveDataLength(uint8_t num, uint8_t length) {
 3456              		.loc 1 1062 0
 3457              		.cfi_startproc
 3458 0000 80B5     		push	{r7, lr}
 3459              		.cfi_def_cfa_offset 8
 3460              		.cfi_offset 7, -8
 3461              		.cfi_offset 14, -4
 3462 0002 84B0     		sub	sp, sp, #16
 3463              		.cfi_def_cfa_offset 24
 3464 0004 02AF     		add	r7, sp, #8
 3465              		.cfi_def_cfa 7, 16
 3466 0006 0A1C     		mov	r2, r1
 3467 0008 FB1D     		add	r3, r7, #7
 3468 000a 011C     		add	r1, r0, #0
 3469 000c 1970     		strb	r1, [r3]
 3470 000e BB1D     		add	r3, r7, #6
 3471 0010 1A70     		strb	r2, [r3]
1063:.\mpu6050.c   ****     if (num > 3) return;
 3472              		.loc 1 1063 0
 3473 0012 FB1D     		add	r3, r7, #7
 3474 0014 1B78     		ldrb	r3, [r3]
 3475 0016 032B     		cmp	r3, #3
 3476 0018 00D9     		bls	.L279
 3477              		.loc 1 1063 0 is_stmt 0 discriminator 1
 3478 001a 12E0     		b	.L278
 3479              	.L279:
1064:.\mpu6050.c   ****     I2CWriteBits(devAddr, MPU6050_RA_I2C_SLV0_CTRL + num*3, I2C_MPU6050_I2C_SLV_LEN_BIT, I2C_MPU605
 3480              		.loc 1 1064 0 is_stmt 1
 3481 001c 0A4B     		ldr	r3, .L281
 3482 001e 1978     		ldrb	r1, [r3]
 3483 0020 FB1D     		add	r3, r7, #7
 3484 0022 1B78     		ldrb	r3, [r3]
 3485 0024 1A1C     		add	r2, r3, #0
 3486 0026 9218     		add	r2, r2, r2
 3487 0028 D318     		add	r3, r2, r3
 3488 002a DBB2     		uxtb	r3, r3
 3489 002c 2733     		add	r3, r3, #39
 3490 002e DBB2     		uxtb	r3, r3
 3491 0030 BA1D     		add	r2, r7, #6
 3492 0032 1278     		ldrb	r2, [r2]
 3493 0034 0092     		str	r2, [sp]
 3494 0036 081C     		mov	r0, r1
 3495 0038 191C     		mov	r1, r3
 3496 003a 0322     		mov	r2, #3
ARM GAS  C:\Users\CHRIST~1\AppData\Local\Temp\ccslI7ZX.s 			page 81


 3497 003c 0423     		mov	r3, #4
 3498 003e FFF7FEFF 		bl	I2CWriteBits
 3499              	.L278:
1065:.\mpu6050.c   **** }
 3500              		.loc 1 1065 0
 3501 0042 BD46     		mov	sp, r7
 3502 0044 02B0     		add	sp, sp, #8
 3503              		@ sp needed
 3504 0046 80BD     		pop	{r7, pc}
 3505              	.L282:
 3506              		.align	2
 3507              	.L281:
 3508 0048 00000000 		.word	devAddr
 3509              		.cfi_endproc
 3510              	.LFE75:
 3511              		.size	MPU6050_setSlaveDataLength, .-MPU6050_setSlaveDataLength
 3512              		.section	.text.MPU6050_getSlave4Address,"ax",%progbits
 3513              		.align	2
 3514              		.global	MPU6050_getSlave4Address
 3515              		.code	16
 3516              		.thumb_func
 3517              		.type	MPU6050_getSlave4Address, %function
 3518              	MPU6050_getSlave4Address:
 3519              	.LFB76:
1066:.\mpu6050.c   **** 
1067:.\mpu6050.c   **** // I2C_SLV* registers (Slave 4)
1068:.\mpu6050.c   **** 
1069:.\mpu6050.c   **** /** Get the I2C address of Slave 4.
1070:.\mpu6050.c   ****  * Note that Bit 7 (MSB) controls read/write mode. If Bit 7 is set, it's a read
1071:.\mpu6050.c   ****  * operation, and if it is cleared, then it's a write operation. The remaining
1072:.\mpu6050.c   ****  * bits (6-0) are the 7-bit device address of the slave device.
1073:.\mpu6050.c   ****  *
1074:.\mpu6050.c   ****  * @return Current address for Slave 4
1075:.\mpu6050.c   ****  * @see getSlaveAddress()
1076:.\mpu6050.c   ****  * @see MPU6050_RA_I2C_SLV4_ADDR
1077:.\mpu6050.c   ****  */
1078:.\mpu6050.c   **** uint8_t MPU6050_getSlave4Address() {
 3520              		.loc 1 1078 0
 3521              		.cfi_startproc
 3522 0000 80B5     		push	{r7, lr}
 3523              		.cfi_def_cfa_offset 8
 3524              		.cfi_offset 7, -8
 3525              		.cfi_offset 14, -4
 3526 0002 00AF     		add	r7, sp, #0
 3527              		.cfi_def_cfa_register 7
1079:.\mpu6050.c   ****     I2CReadByte(devAddr, MPU6050_RA_I2C_SLV4_ADDR, buffer);
 3528              		.loc 1 1079 0
 3529 0004 064B     		ldr	r3, .L285
 3530 0006 1A78     		ldrb	r2, [r3]
 3531 0008 064B     		ldr	r3, .L285+4
 3532 000a 101C     		mov	r0, r2
 3533 000c 3121     		mov	r1, #49
 3534 000e 1A1C     		mov	r2, r3
 3535 0010 FFF7FEFF 		bl	I2CReadByte
1080:.\mpu6050.c   ****     return buffer[0];
 3536              		.loc 1 1080 0
 3537 0014 034B     		ldr	r3, .L285+4
ARM GAS  C:\Users\CHRIST~1\AppData\Local\Temp\ccslI7ZX.s 			page 82


 3538 0016 1B78     		ldrb	r3, [r3]
1081:.\mpu6050.c   **** }
 3539              		.loc 1 1081 0
 3540 0018 181C     		mov	r0, r3
 3541 001a BD46     		mov	sp, r7
 3542              		@ sp needed
 3543 001c 80BD     		pop	{r7, pc}
 3544              	.L286:
 3545 001e C046     		.align	2
 3546              	.L285:
 3547 0020 00000000 		.word	devAddr
 3548 0024 00000000 		.word	buffer
 3549              		.cfi_endproc
 3550              	.LFE76:
 3551              		.size	MPU6050_getSlave4Address, .-MPU6050_getSlave4Address
 3552              		.section	.text.MPU6050_setSlave4Address,"ax",%progbits
 3553              		.align	2
 3554              		.global	MPU6050_setSlave4Address
 3555              		.code	16
 3556              		.thumb_func
 3557              		.type	MPU6050_setSlave4Address, %function
 3558              	MPU6050_setSlave4Address:
 3559              	.LFB77:
1082:.\mpu6050.c   **** /** Set the I2C address of Slave 4.
1083:.\mpu6050.c   ****  * @param address New address for Slave 4
1084:.\mpu6050.c   ****  * @see getSlave4Address()
1085:.\mpu6050.c   ****  * @see MPU6050_RA_I2C_SLV4_ADDR
1086:.\mpu6050.c   ****  */
1087:.\mpu6050.c   **** void MPU6050_setSlave4Address(uint8_t address) {
 3560              		.loc 1 1087 0
 3561              		.cfi_startproc
 3562 0000 80B5     		push	{r7, lr}
 3563              		.cfi_def_cfa_offset 8
 3564              		.cfi_offset 7, -8
 3565              		.cfi_offset 14, -4
 3566 0002 82B0     		sub	sp, sp, #8
 3567              		.cfi_def_cfa_offset 16
 3568 0004 00AF     		add	r7, sp, #0
 3569              		.cfi_def_cfa_register 7
 3570 0006 021C     		mov	r2, r0
 3571 0008 FB1D     		add	r3, r7, #7
 3572 000a 1A70     		strb	r2, [r3]
1088:.\mpu6050.c   ****     I2CWriteByte(devAddr, MPU6050_RA_I2C_SLV4_ADDR, address);
 3573              		.loc 1 1088 0
 3574 000c 054B     		ldr	r3, .L288
 3575 000e 1A78     		ldrb	r2, [r3]
 3576 0010 FB1D     		add	r3, r7, #7
 3577 0012 1B78     		ldrb	r3, [r3]
 3578 0014 101C     		mov	r0, r2
 3579 0016 3121     		mov	r1, #49
 3580 0018 1A1C     		mov	r2, r3
 3581 001a FFF7FEFF 		bl	I2CWriteByte
1089:.\mpu6050.c   **** }
 3582              		.loc 1 1089 0
 3583 001e BD46     		mov	sp, r7
 3584 0020 02B0     		add	sp, sp, #8
 3585              		@ sp needed
ARM GAS  C:\Users\CHRIST~1\AppData\Local\Temp\ccslI7ZX.s 			page 83


 3586 0022 80BD     		pop	{r7, pc}
 3587              	.L289:
 3588              		.align	2
 3589              	.L288:
 3590 0024 00000000 		.word	devAddr
 3591              		.cfi_endproc
 3592              	.LFE77:
 3593              		.size	MPU6050_setSlave4Address, .-MPU6050_setSlave4Address
 3594              		.section	.text.MPU6050_getSlave4Register,"ax",%progbits
 3595              		.align	2
 3596              		.global	MPU6050_getSlave4Register
 3597              		.code	16
 3598              		.thumb_func
 3599              		.type	MPU6050_getSlave4Register, %function
 3600              	MPU6050_getSlave4Register:
 3601              	.LFB78:
1090:.\mpu6050.c   **** /** Get the active internal register for the Slave 4.
1091:.\mpu6050.c   ****  * Read/write operations for this slave will be done to whatever internal
1092:.\mpu6050.c   ****  * register address is stored in this MPU register.
1093:.\mpu6050.c   ****  *
1094:.\mpu6050.c   ****  * @return Current active register for Slave 4
1095:.\mpu6050.c   ****  * @see MPU6050_RA_I2C_SLV4_REG
1096:.\mpu6050.c   ****  */
1097:.\mpu6050.c   **** uint8_t MPU6050_getSlave4Register() {
 3602              		.loc 1 1097 0
 3603              		.cfi_startproc
 3604 0000 80B5     		push	{r7, lr}
 3605              		.cfi_def_cfa_offset 8
 3606              		.cfi_offset 7, -8
 3607              		.cfi_offset 14, -4
 3608 0002 00AF     		add	r7, sp, #0
 3609              		.cfi_def_cfa_register 7
1098:.\mpu6050.c   ****     I2CReadByte(devAddr, MPU6050_RA_I2C_SLV4_REG, buffer);
 3610              		.loc 1 1098 0
 3611 0004 064B     		ldr	r3, .L292
 3612 0006 1A78     		ldrb	r2, [r3]
 3613 0008 064B     		ldr	r3, .L292+4
 3614 000a 101C     		mov	r0, r2
 3615 000c 3221     		mov	r1, #50
 3616 000e 1A1C     		mov	r2, r3
 3617 0010 FFF7FEFF 		bl	I2CReadByte
1099:.\mpu6050.c   ****     return buffer[0];
 3618              		.loc 1 1099 0
 3619 0014 034B     		ldr	r3, .L292+4
 3620 0016 1B78     		ldrb	r3, [r3]
1100:.\mpu6050.c   **** }
 3621              		.loc 1 1100 0
 3622 0018 181C     		mov	r0, r3
 3623 001a BD46     		mov	sp, r7
 3624              		@ sp needed
 3625 001c 80BD     		pop	{r7, pc}
 3626              	.L293:
 3627 001e C046     		.align	2
 3628              	.L292:
 3629 0020 00000000 		.word	devAddr
 3630 0024 00000000 		.word	buffer
 3631              		.cfi_endproc
ARM GAS  C:\Users\CHRIST~1\AppData\Local\Temp\ccslI7ZX.s 			page 84


 3632              	.LFE78:
 3633              		.size	MPU6050_getSlave4Register, .-MPU6050_getSlave4Register
 3634              		.section	.text.MPU6050_setSlave4Register,"ax",%progbits
 3635              		.align	2
 3636              		.global	MPU6050_setSlave4Register
 3637              		.code	16
 3638              		.thumb_func
 3639              		.type	MPU6050_setSlave4Register, %function
 3640              	MPU6050_setSlave4Register:
 3641              	.LFB79:
1101:.\mpu6050.c   **** /** Set the active internal register for Slave 4.
1102:.\mpu6050.c   ****  * @param reg New active register for Slave 4
1103:.\mpu6050.c   ****  * @see getSlave4Register()
1104:.\mpu6050.c   ****  * @see MPU6050_RA_I2C_SLV4_REG
1105:.\mpu6050.c   ****  */
1106:.\mpu6050.c   **** void MPU6050_setSlave4Register(uint8_t reg) {
 3642              		.loc 1 1106 0
 3643              		.cfi_startproc
 3644 0000 80B5     		push	{r7, lr}
 3645              		.cfi_def_cfa_offset 8
 3646              		.cfi_offset 7, -8
 3647              		.cfi_offset 14, -4
 3648 0002 82B0     		sub	sp, sp, #8
 3649              		.cfi_def_cfa_offset 16
 3650 0004 00AF     		add	r7, sp, #0
 3651              		.cfi_def_cfa_register 7
 3652 0006 021C     		mov	r2, r0
 3653 0008 FB1D     		add	r3, r7, #7
 3654 000a 1A70     		strb	r2, [r3]
1107:.\mpu6050.c   ****     I2CWriteByte(devAddr, MPU6050_RA_I2C_SLV4_REG, reg);
 3655              		.loc 1 1107 0
 3656 000c 054B     		ldr	r3, .L295
 3657 000e 1A78     		ldrb	r2, [r3]
 3658 0010 FB1D     		add	r3, r7, #7
 3659 0012 1B78     		ldrb	r3, [r3]
 3660 0014 101C     		mov	r0, r2
 3661 0016 3221     		mov	r1, #50
 3662 0018 1A1C     		mov	r2, r3
 3663 001a FFF7FEFF 		bl	I2CWriteByte
1108:.\mpu6050.c   **** }
 3664              		.loc 1 1108 0
 3665 001e BD46     		mov	sp, r7
 3666 0020 02B0     		add	sp, sp, #8
 3667              		@ sp needed
 3668 0022 80BD     		pop	{r7, pc}
 3669              	.L296:
 3670              		.align	2
 3671              	.L295:
 3672 0024 00000000 		.word	devAddr
 3673              		.cfi_endproc
 3674              	.LFE79:
 3675              		.size	MPU6050_setSlave4Register, .-MPU6050_setSlave4Register
 3676              		.section	.text.MPU6050_setSlave4OutputByte,"ax",%progbits
 3677              		.align	2
 3678              		.global	MPU6050_setSlave4OutputByte
 3679              		.code	16
 3680              		.thumb_func
ARM GAS  C:\Users\CHRIST~1\AppData\Local\Temp\ccslI7ZX.s 			page 85


 3681              		.type	MPU6050_setSlave4OutputByte, %function
 3682              	MPU6050_setSlave4OutputByte:
 3683              	.LFB80:
1109:.\mpu6050.c   **** /** Set new byte to write to Slave 4.
1110:.\mpu6050.c   ****  * This register stores the data to be written into the Slave 4. If I2C_SLV4_RW
1111:.\mpu6050.c   ****  * is set 1 (set to read), this register has no effect.
1112:.\mpu6050.c   ****  * @param data New byte to write to Slave 4
1113:.\mpu6050.c   ****  * @see MPU6050_RA_I2C_SLV4_DO
1114:.\mpu6050.c   ****  */
1115:.\mpu6050.c   **** void MPU6050_setSlave4OutputByte(uint8_t data) {
 3684              		.loc 1 1115 0
 3685              		.cfi_startproc
 3686 0000 80B5     		push	{r7, lr}
 3687              		.cfi_def_cfa_offset 8
 3688              		.cfi_offset 7, -8
 3689              		.cfi_offset 14, -4
 3690 0002 82B0     		sub	sp, sp, #8
 3691              		.cfi_def_cfa_offset 16
 3692 0004 00AF     		add	r7, sp, #0
 3693              		.cfi_def_cfa_register 7
 3694 0006 021C     		mov	r2, r0
 3695 0008 FB1D     		add	r3, r7, #7
 3696 000a 1A70     		strb	r2, [r3]
1116:.\mpu6050.c   ****     I2CWriteByte(devAddr, MPU6050_RA_I2C_SLV4_DO, data);
 3697              		.loc 1 1116 0
 3698 000c 054B     		ldr	r3, .L298
 3699 000e 1A78     		ldrb	r2, [r3]
 3700 0010 FB1D     		add	r3, r7, #7
 3701 0012 1B78     		ldrb	r3, [r3]
 3702 0014 101C     		mov	r0, r2
 3703 0016 3321     		mov	r1, #51
 3704 0018 1A1C     		mov	r2, r3
 3705 001a FFF7FEFF 		bl	I2CWriteByte
1117:.\mpu6050.c   **** }
 3706              		.loc 1 1117 0
 3707 001e BD46     		mov	sp, r7
 3708 0020 02B0     		add	sp, sp, #8
 3709              		@ sp needed
 3710 0022 80BD     		pop	{r7, pc}
 3711              	.L299:
 3712              		.align	2
 3713              	.L298:
 3714 0024 00000000 		.word	devAddr
 3715              		.cfi_endproc
 3716              	.LFE80:
 3717              		.size	MPU6050_setSlave4OutputByte, .-MPU6050_setSlave4OutputByte
 3718              		.section	.text.MPU6050_getSlave4Enabled,"ax",%progbits
 3719              		.align	2
 3720              		.global	MPU6050_getSlave4Enabled
 3721              		.code	16
 3722              		.thumb_func
 3723              		.type	MPU6050_getSlave4Enabled, %function
 3724              	MPU6050_getSlave4Enabled:
 3725              	.LFB81:
1118:.\mpu6050.c   **** /** Get the enabled value for the Slave 4.
1119:.\mpu6050.c   ****  * When set to 1, this bit enables Slave 4 for data transfer operations. When
1120:.\mpu6050.c   ****  * cleared to 0, this bit disables Slave 4 from data transfer operations.
ARM GAS  C:\Users\CHRIST~1\AppData\Local\Temp\ccslI7ZX.s 			page 86


1121:.\mpu6050.c   ****  * @return Current enabled value for Slave 4
1122:.\mpu6050.c   ****  * @see MPU6050_RA_I2C_SLV4_CTRL
1123:.\mpu6050.c   ****  */
1124:.\mpu6050.c   **** bool MPU6050_getSlave4Enabled() {
 3726              		.loc 1 1124 0
 3727              		.cfi_startproc
 3728 0000 80B5     		push	{r7, lr}
 3729              		.cfi_def_cfa_offset 8
 3730              		.cfi_offset 7, -8
 3731              		.cfi_offset 14, -4
 3732 0002 00AF     		add	r7, sp, #0
 3733              		.cfi_def_cfa_register 7
1125:.\mpu6050.c   ****     I2CReadBit(devAddr, MPU6050_RA_I2C_SLV4_CTRL, I2C_MPU6050_I2C_SLV4_EN_BIT, buffer);
 3734              		.loc 1 1125 0
 3735 0004 074B     		ldr	r3, .L302
 3736 0006 1A78     		ldrb	r2, [r3]
 3737 0008 074B     		ldr	r3, .L302+4
 3738 000a 101C     		mov	r0, r2
 3739 000c 3421     		mov	r1, #52
 3740 000e 0722     		mov	r2, #7
 3741 0010 FFF7FEFF 		bl	I2CReadBit
1126:.\mpu6050.c   ****     return buffer[0];
 3742              		.loc 1 1126 0
 3743 0014 044B     		ldr	r3, .L302+4
 3744 0016 1B78     		ldrb	r3, [r3]
 3745 0018 5A1E     		sub	r2, r3, #1
 3746 001a 9341     		sbc	r3, r3, r2
 3747 001c DBB2     		uxtb	r3, r3
1127:.\mpu6050.c   **** }
 3748              		.loc 1 1127 0
 3749 001e 181C     		mov	r0, r3
 3750 0020 BD46     		mov	sp, r7
 3751              		@ sp needed
 3752 0022 80BD     		pop	{r7, pc}
 3753              	.L303:
 3754              		.align	2
 3755              	.L302:
 3756 0024 00000000 		.word	devAddr
 3757 0028 00000000 		.word	buffer
 3758              		.cfi_endproc
 3759              	.LFE81:
 3760              		.size	MPU6050_getSlave4Enabled, .-MPU6050_getSlave4Enabled
 3761              		.section	.text.MPU6050_setSlave4Enabled,"ax",%progbits
 3762              		.align	2
 3763              		.global	MPU6050_setSlave4Enabled
 3764              		.code	16
 3765              		.thumb_func
 3766              		.type	MPU6050_setSlave4Enabled, %function
 3767              	MPU6050_setSlave4Enabled:
 3768              	.LFB82:
1128:.\mpu6050.c   **** /** Set the enabled value for Slave 4.
1129:.\mpu6050.c   ****  * @param enabled New enabled value for Slave 4
1130:.\mpu6050.c   ****  * @see getSlave4Enabled()
1131:.\mpu6050.c   ****  * @see MPU6050_RA_I2C_SLV4_CTRL
1132:.\mpu6050.c   ****  */
1133:.\mpu6050.c   **** void MPU6050_setSlave4Enabled(bool enabled) {
 3769              		.loc 1 1133 0
ARM GAS  C:\Users\CHRIST~1\AppData\Local\Temp\ccslI7ZX.s 			page 87


 3770              		.cfi_startproc
 3771 0000 80B5     		push	{r7, lr}
 3772              		.cfi_def_cfa_offset 8
 3773              		.cfi_offset 7, -8
 3774              		.cfi_offset 14, -4
 3775 0002 82B0     		sub	sp, sp, #8
 3776              		.cfi_def_cfa_offset 16
 3777 0004 00AF     		add	r7, sp, #0
 3778              		.cfi_def_cfa_register 7
 3779 0006 021C     		mov	r2, r0
 3780 0008 FB1D     		add	r3, r7, #7
 3781 000a 1A70     		strb	r2, [r3]
1134:.\mpu6050.c   ****     I2CWriteBit(devAddr, MPU6050_RA_I2C_SLV4_CTRL, I2C_MPU6050_I2C_SLV4_EN_BIT, enabled);
 3782              		.loc 1 1134 0
 3783 000c 054B     		ldr	r3, .L305
 3784 000e 1A78     		ldrb	r2, [r3]
 3785 0010 FB1D     		add	r3, r7, #7
 3786 0012 1B78     		ldrb	r3, [r3]
 3787 0014 101C     		mov	r0, r2
 3788 0016 3421     		mov	r1, #52
 3789 0018 0722     		mov	r2, #7
 3790 001a FFF7FEFF 		bl	I2CWriteBit
1135:.\mpu6050.c   **** }
 3791              		.loc 1 1135 0
 3792 001e BD46     		mov	sp, r7
 3793 0020 02B0     		add	sp, sp, #8
 3794              		@ sp needed
 3795 0022 80BD     		pop	{r7, pc}
 3796              	.L306:
 3797              		.align	2
 3798              	.L305:
 3799 0024 00000000 		.word	devAddr
 3800              		.cfi_endproc
 3801              	.LFE82:
 3802              		.size	MPU6050_setSlave4Enabled, .-MPU6050_setSlave4Enabled
 3803              		.section	.text.MPU6050_getSlave4InterruptEnabled,"ax",%progbits
 3804              		.align	2
 3805              		.global	MPU6050_getSlave4InterruptEnabled
 3806              		.code	16
 3807              		.thumb_func
 3808              		.type	MPU6050_getSlave4InterruptEnabled, %function
 3809              	MPU6050_getSlave4InterruptEnabled:
 3810              	.LFB83:
1136:.\mpu6050.c   **** /** Get the enabled value for Slave 4 transaction interrupts.
1137:.\mpu6050.c   ****  * When set to 1, this bit enables the generation of an interrupt signal upon
1138:.\mpu6050.c   ****  * completion of a Slave 4 transaction. When cleared to 0, this bit disables the
1139:.\mpu6050.c   ****  * generation of an interrupt signal upon completion of a Slave 4 transaction.
1140:.\mpu6050.c   ****  * The interrupt status can be observed in Register 54.
1141:.\mpu6050.c   ****  *
1142:.\mpu6050.c   ****  * @return Current enabled value for Slave 4 transaction interrupts.
1143:.\mpu6050.c   ****  * @see MPU6050_RA_I2C_SLV4_CTRL
1144:.\mpu6050.c   ****  */
1145:.\mpu6050.c   **** bool MPU6050_getSlave4InterruptEnabled() {
 3811              		.loc 1 1145 0
 3812              		.cfi_startproc
 3813 0000 80B5     		push	{r7, lr}
 3814              		.cfi_def_cfa_offset 8
ARM GAS  C:\Users\CHRIST~1\AppData\Local\Temp\ccslI7ZX.s 			page 88


 3815              		.cfi_offset 7, -8
 3816              		.cfi_offset 14, -4
 3817 0002 00AF     		add	r7, sp, #0
 3818              		.cfi_def_cfa_register 7
1146:.\mpu6050.c   ****     I2CReadBit(devAddr, MPU6050_RA_I2C_SLV4_CTRL, I2C_MPU6050_I2C_SLV4_INT_EN_BIT, buffer);
 3819              		.loc 1 1146 0
 3820 0004 074B     		ldr	r3, .L309
 3821 0006 1A78     		ldrb	r2, [r3]
 3822 0008 074B     		ldr	r3, .L309+4
 3823 000a 101C     		mov	r0, r2
 3824 000c 3421     		mov	r1, #52
 3825 000e 0622     		mov	r2, #6
 3826 0010 FFF7FEFF 		bl	I2CReadBit
1147:.\mpu6050.c   ****     return buffer[0];
 3827              		.loc 1 1147 0
 3828 0014 044B     		ldr	r3, .L309+4
 3829 0016 1B78     		ldrb	r3, [r3]
 3830 0018 5A1E     		sub	r2, r3, #1
 3831 001a 9341     		sbc	r3, r3, r2
 3832 001c DBB2     		uxtb	r3, r3
1148:.\mpu6050.c   **** }
 3833              		.loc 1 1148 0
 3834 001e 181C     		mov	r0, r3
 3835 0020 BD46     		mov	sp, r7
 3836              		@ sp needed
 3837 0022 80BD     		pop	{r7, pc}
 3838              	.L310:
 3839              		.align	2
 3840              	.L309:
 3841 0024 00000000 		.word	devAddr
 3842 0028 00000000 		.word	buffer
 3843              		.cfi_endproc
 3844              	.LFE83:
 3845              		.size	MPU6050_getSlave4InterruptEnabled, .-MPU6050_getSlave4InterruptEnabled
 3846              		.section	.text.MPU6050_setSlave4InterruptEnabled,"ax",%progbits
 3847              		.align	2
 3848              		.global	MPU6050_setSlave4InterruptEnabled
 3849              		.code	16
 3850              		.thumb_func
 3851              		.type	MPU6050_setSlave4InterruptEnabled, %function
 3852              	MPU6050_setSlave4InterruptEnabled:
 3853              	.LFB84:
1149:.\mpu6050.c   **** /** Set the enabled value for Slave 4 transaction interrupts.
1150:.\mpu6050.c   ****  * @param enabled New enabled value for Slave 4 transaction interrupts.
1151:.\mpu6050.c   ****  * @see getSlave4InterruptEnabled()
1152:.\mpu6050.c   ****  * @see MPU6050_RA_I2C_SLV4_CTRL
1153:.\mpu6050.c   ****  */
1154:.\mpu6050.c   **** void MPU6050_setSlave4InterruptEnabled(bool enabled) {
 3854              		.loc 1 1154 0
 3855              		.cfi_startproc
 3856 0000 80B5     		push	{r7, lr}
 3857              		.cfi_def_cfa_offset 8
 3858              		.cfi_offset 7, -8
 3859              		.cfi_offset 14, -4
 3860 0002 82B0     		sub	sp, sp, #8
 3861              		.cfi_def_cfa_offset 16
 3862 0004 00AF     		add	r7, sp, #0
ARM GAS  C:\Users\CHRIST~1\AppData\Local\Temp\ccslI7ZX.s 			page 89


 3863              		.cfi_def_cfa_register 7
 3864 0006 021C     		mov	r2, r0
 3865 0008 FB1D     		add	r3, r7, #7
 3866 000a 1A70     		strb	r2, [r3]
1155:.\mpu6050.c   ****     I2CWriteBit(devAddr, MPU6050_RA_I2C_SLV4_CTRL, I2C_MPU6050_I2C_SLV4_INT_EN_BIT, enabled);
 3867              		.loc 1 1155 0
 3868 000c 054B     		ldr	r3, .L312
 3869 000e 1A78     		ldrb	r2, [r3]
 3870 0010 FB1D     		add	r3, r7, #7
 3871 0012 1B78     		ldrb	r3, [r3]
 3872 0014 101C     		mov	r0, r2
 3873 0016 3421     		mov	r1, #52
 3874 0018 0622     		mov	r2, #6
 3875 001a FFF7FEFF 		bl	I2CWriteBit
1156:.\mpu6050.c   **** }
 3876              		.loc 1 1156 0
 3877 001e BD46     		mov	sp, r7
 3878 0020 02B0     		add	sp, sp, #8
 3879              		@ sp needed
 3880 0022 80BD     		pop	{r7, pc}
 3881              	.L313:
 3882              		.align	2
 3883              	.L312:
 3884 0024 00000000 		.word	devAddr
 3885              		.cfi_endproc
 3886              	.LFE84:
 3887              		.size	MPU6050_setSlave4InterruptEnabled, .-MPU6050_setSlave4InterruptEnabled
 3888              		.section	.text.MPU6050_getSlave4WriteMode,"ax",%progbits
 3889              		.align	2
 3890              		.global	MPU6050_getSlave4WriteMode
 3891              		.code	16
 3892              		.thumb_func
 3893              		.type	MPU6050_getSlave4WriteMode, %function
 3894              	MPU6050_getSlave4WriteMode:
 3895              	.LFB85:
1157:.\mpu6050.c   **** /** Get write mode for Slave 4.
1158:.\mpu6050.c   ****  * When set to 1, the transaction will read or write data only. When cleared to
1159:.\mpu6050.c   ****  * 0, the transaction will write a register address prior to reading or writing
1160:.\mpu6050.c   ****  * data. This should equal 0 when specifying the register address within the
1161:.\mpu6050.c   ****  * Slave device to/from which the ensuing data transaction will take place.
1162:.\mpu6050.c   ****  *
1163:.\mpu6050.c   ****  * @return Current write mode for Slave 4 (0 = register address + data, 1 = data only)
1164:.\mpu6050.c   ****  * @see MPU6050_RA_I2C_SLV4_CTRL
1165:.\mpu6050.c   ****  */
1166:.\mpu6050.c   **** bool MPU6050_getSlave4WriteMode() {
 3896              		.loc 1 1166 0
 3897              		.cfi_startproc
 3898 0000 80B5     		push	{r7, lr}
 3899              		.cfi_def_cfa_offset 8
 3900              		.cfi_offset 7, -8
 3901              		.cfi_offset 14, -4
 3902 0002 00AF     		add	r7, sp, #0
 3903              		.cfi_def_cfa_register 7
1167:.\mpu6050.c   ****     I2CReadBit(devAddr, MPU6050_RA_I2C_SLV4_CTRL, I2C_MPU6050_I2C_SLV4_REG_DIS_BIT, buffer);
 3904              		.loc 1 1167 0
 3905 0004 074B     		ldr	r3, .L316
 3906 0006 1A78     		ldrb	r2, [r3]
ARM GAS  C:\Users\CHRIST~1\AppData\Local\Temp\ccslI7ZX.s 			page 90


 3907 0008 074B     		ldr	r3, .L316+4
 3908 000a 101C     		mov	r0, r2
 3909 000c 3421     		mov	r1, #52
 3910 000e 0522     		mov	r2, #5
 3911 0010 FFF7FEFF 		bl	I2CReadBit
1168:.\mpu6050.c   ****     return buffer[0];
 3912              		.loc 1 1168 0
 3913 0014 044B     		ldr	r3, .L316+4
 3914 0016 1B78     		ldrb	r3, [r3]
 3915 0018 5A1E     		sub	r2, r3, #1
 3916 001a 9341     		sbc	r3, r3, r2
 3917 001c DBB2     		uxtb	r3, r3
1169:.\mpu6050.c   **** }
 3918              		.loc 1 1169 0
 3919 001e 181C     		mov	r0, r3
 3920 0020 BD46     		mov	sp, r7
 3921              		@ sp needed
 3922 0022 80BD     		pop	{r7, pc}
 3923              	.L317:
 3924              		.align	2
 3925              	.L316:
 3926 0024 00000000 		.word	devAddr
 3927 0028 00000000 		.word	buffer
 3928              		.cfi_endproc
 3929              	.LFE85:
 3930              		.size	MPU6050_getSlave4WriteMode, .-MPU6050_getSlave4WriteMode
 3931              		.section	.text.MPU6050_setSlave4WriteMode,"ax",%progbits
 3932              		.align	2
 3933              		.global	MPU6050_setSlave4WriteMode
 3934              		.code	16
 3935              		.thumb_func
 3936              		.type	MPU6050_setSlave4WriteMode, %function
 3937              	MPU6050_setSlave4WriteMode:
 3938              	.LFB86:
1170:.\mpu6050.c   **** /** Set write mode for the Slave 4.
1171:.\mpu6050.c   ****  * @param mode New write mode for Slave 4 (0 = register address + data, 1 = data only)
1172:.\mpu6050.c   ****  * @see getSlave4WriteMode()
1173:.\mpu6050.c   ****  * @see MPU6050_RA_I2C_SLV4_CTRL
1174:.\mpu6050.c   ****  */
1175:.\mpu6050.c   **** void MPU6050_setSlave4WriteMode(bool mode) {
 3939              		.loc 1 1175 0
 3940              		.cfi_startproc
 3941 0000 80B5     		push	{r7, lr}
 3942              		.cfi_def_cfa_offset 8
 3943              		.cfi_offset 7, -8
 3944              		.cfi_offset 14, -4
 3945 0002 82B0     		sub	sp, sp, #8
 3946              		.cfi_def_cfa_offset 16
 3947 0004 00AF     		add	r7, sp, #0
 3948              		.cfi_def_cfa_register 7
 3949 0006 021C     		mov	r2, r0
 3950 0008 FB1D     		add	r3, r7, #7
 3951 000a 1A70     		strb	r2, [r3]
1176:.\mpu6050.c   ****     I2CWriteBit(devAddr, MPU6050_RA_I2C_SLV4_CTRL, I2C_MPU6050_I2C_SLV4_REG_DIS_BIT, mode);
 3952              		.loc 1 1176 0
 3953 000c 054B     		ldr	r3, .L319
 3954 000e 1A78     		ldrb	r2, [r3]
ARM GAS  C:\Users\CHRIST~1\AppData\Local\Temp\ccslI7ZX.s 			page 91


 3955 0010 FB1D     		add	r3, r7, #7
 3956 0012 1B78     		ldrb	r3, [r3]
 3957 0014 101C     		mov	r0, r2
 3958 0016 3421     		mov	r1, #52
 3959 0018 0522     		mov	r2, #5
 3960 001a FFF7FEFF 		bl	I2CWriteBit
1177:.\mpu6050.c   **** }
 3961              		.loc 1 1177 0
 3962 001e BD46     		mov	sp, r7
 3963 0020 02B0     		add	sp, sp, #8
 3964              		@ sp needed
 3965 0022 80BD     		pop	{r7, pc}
 3966              	.L320:
 3967              		.align	2
 3968              	.L319:
 3969 0024 00000000 		.word	devAddr
 3970              		.cfi_endproc
 3971              	.LFE86:
 3972              		.size	MPU6050_setSlave4WriteMode, .-MPU6050_setSlave4WriteMode
 3973              		.section	.text.MPU6050_getSlave4MasterDelay,"ax",%progbits
 3974              		.align	2
 3975              		.global	MPU6050_getSlave4MasterDelay
 3976              		.code	16
 3977              		.thumb_func
 3978              		.type	MPU6050_getSlave4MasterDelay, %function
 3979              	MPU6050_getSlave4MasterDelay:
 3980              	.LFB87:
1178:.\mpu6050.c   **** /** Get Slave 4 master delay value.
1179:.\mpu6050.c   ****  * This configures the reduced access rate of I2C slaves relative to the Sample
1180:.\mpu6050.c   ****  * Rate. When a slave's access rate is decreased relative to the Sample Rate,
1181:.\mpu6050.c   ****  * the slave is accessed every:
1182:.\mpu6050.c   ****  *
1183:.\mpu6050.c   ****  *     1 / (1 + I2C_MST_DLY) samples
1184:.\mpu6050.c   ****  *
1185:.\mpu6050.c   ****  * This base Sample Rate in turn is determined by SMPLRT_DIV (register 25) and
1186:.\mpu6050.c   ****  * DLPF_CFG (register 26). Whether a slave's access rate is reduced relative to
1187:.\mpu6050.c   ****  * the Sample Rate is determined by I2C_MST_DELAY_CTRL (register 103). For
1188:.\mpu6050.c   ****  * further information regarding the Sample Rate, please refer to register 25.
1189:.\mpu6050.c   ****  *
1190:.\mpu6050.c   ****  * @return Current Slave 4 master delay value
1191:.\mpu6050.c   ****  * @see MPU6050_RA_I2C_SLV4_CTRL
1192:.\mpu6050.c   ****  */
1193:.\mpu6050.c   **** uint8_t MPU6050_getSlave4MasterDelay() {
 3981              		.loc 1 1193 0
 3982              		.cfi_startproc
 3983 0000 80B5     		push	{r7, lr}
 3984              		.cfi_def_cfa_offset 8
 3985              		.cfi_offset 7, -8
 3986              		.cfi_offset 14, -4
 3987 0002 82B0     		sub	sp, sp, #8
 3988              		.cfi_def_cfa_offset 16
 3989 0004 02AF     		add	r7, sp, #8
 3990              		.cfi_def_cfa 7, 8
1194:.\mpu6050.c   ****     I2CReadBits(devAddr, MPU6050_RA_I2C_SLV4_CTRL, I2C_MPU6050_I2C_SLV4_MST_DLY_BIT, I2C_MPU6050_I2
 3991              		.loc 1 1194 0
 3992 0006 074B     		ldr	r3, .L323
 3993 0008 1B78     		ldrb	r3, [r3]
ARM GAS  C:\Users\CHRIST~1\AppData\Local\Temp\ccslI7ZX.s 			page 92


 3994 000a 074A     		ldr	r2, .L323+4
 3995 000c 0092     		str	r2, [sp]
 3996 000e 181C     		mov	r0, r3
 3997 0010 3421     		mov	r1, #52
 3998 0012 0422     		mov	r2, #4
 3999 0014 0523     		mov	r3, #5
 4000 0016 FFF7FEFF 		bl	I2CReadBits
1195:.\mpu6050.c   ****     return buffer[0];
 4001              		.loc 1 1195 0
 4002 001a 034B     		ldr	r3, .L323+4
 4003 001c 1B78     		ldrb	r3, [r3]
1196:.\mpu6050.c   **** }
 4004              		.loc 1 1196 0
 4005 001e 181C     		mov	r0, r3
 4006 0020 BD46     		mov	sp, r7
 4007              		@ sp needed
 4008 0022 80BD     		pop	{r7, pc}
 4009              	.L324:
 4010              		.align	2
 4011              	.L323:
 4012 0024 00000000 		.word	devAddr
 4013 0028 00000000 		.word	buffer
 4014              		.cfi_endproc
 4015              	.LFE87:
 4016              		.size	MPU6050_getSlave4MasterDelay, .-MPU6050_getSlave4MasterDelay
 4017              		.section	.text.MPU6050_setSlave4MasterDelay,"ax",%progbits
 4018              		.align	2
 4019              		.global	MPU6050_setSlave4MasterDelay
 4020              		.code	16
 4021              		.thumb_func
 4022              		.type	MPU6050_setSlave4MasterDelay, %function
 4023              	MPU6050_setSlave4MasterDelay:
 4024              	.LFB88:
1197:.\mpu6050.c   **** /** Set Slave 4 master delay value.
1198:.\mpu6050.c   ****  * @param delay New Slave 4 master delay value
1199:.\mpu6050.c   ****  * @see getSlave4MasterDelay()
1200:.\mpu6050.c   ****  * @see MPU6050_RA_I2C_SLV4_CTRL
1201:.\mpu6050.c   ****  */
1202:.\mpu6050.c   **** void MPU6050_setSlave4MasterDelay(uint8_t delay) {
 4025              		.loc 1 1202 0
 4026              		.cfi_startproc
 4027 0000 80B5     		push	{r7, lr}
 4028              		.cfi_def_cfa_offset 8
 4029              		.cfi_offset 7, -8
 4030              		.cfi_offset 14, -4
 4031 0002 84B0     		sub	sp, sp, #16
 4032              		.cfi_def_cfa_offset 24
 4033 0004 02AF     		add	r7, sp, #8
 4034              		.cfi_def_cfa 7, 16
 4035 0006 021C     		mov	r2, r0
 4036 0008 FB1D     		add	r3, r7, #7
 4037 000a 1A70     		strb	r2, [r3]
1203:.\mpu6050.c   ****     I2CWriteBits(devAddr, MPU6050_RA_I2C_SLV4_CTRL, I2C_MPU6050_I2C_SLV4_MST_DLY_BIT, I2C_MPU6050_I
 4038              		.loc 1 1203 0
 4039 000c 064B     		ldr	r3, .L326
 4040 000e 1B78     		ldrb	r3, [r3]
 4041 0010 FA1D     		add	r2, r7, #7
ARM GAS  C:\Users\CHRIST~1\AppData\Local\Temp\ccslI7ZX.s 			page 93


 4042 0012 1278     		ldrb	r2, [r2]
 4043 0014 0092     		str	r2, [sp]
 4044 0016 181C     		mov	r0, r3
 4045 0018 3421     		mov	r1, #52
 4046 001a 0422     		mov	r2, #4
 4047 001c 0523     		mov	r3, #5
 4048 001e FFF7FEFF 		bl	I2CWriteBits
1204:.\mpu6050.c   **** }
 4049              		.loc 1 1204 0
 4050 0022 BD46     		mov	sp, r7
 4051 0024 02B0     		add	sp, sp, #8
 4052              		@ sp needed
 4053 0026 80BD     		pop	{r7, pc}
 4054              	.L327:
 4055              		.align	2
 4056              	.L326:
 4057 0028 00000000 		.word	devAddr
 4058              		.cfi_endproc
 4059              	.LFE88:
 4060              		.size	MPU6050_setSlave4MasterDelay, .-MPU6050_setSlave4MasterDelay
 4061              		.section	.text.MPU6050_getSlate4InputByte,"ax",%progbits
 4062              		.align	2
 4063              		.global	MPU6050_getSlate4InputByte
 4064              		.code	16
 4065              		.thumb_func
 4066              		.type	MPU6050_getSlate4InputByte, %function
 4067              	MPU6050_getSlate4InputByte:
 4068              	.LFB89:
1205:.\mpu6050.c   **** /** Get last available byte read from Slave 4.
1206:.\mpu6050.c   ****  * This register stores the data read from Slave 4. This field is populated
1207:.\mpu6050.c   ****  * after a read transaction.
1208:.\mpu6050.c   ****  * @return Last available byte read from to Slave 4
1209:.\mpu6050.c   ****  * @see MPU6050_RA_I2C_SLV4_DI
1210:.\mpu6050.c   ****  */
1211:.\mpu6050.c   **** uint8_t MPU6050_getSlate4InputByte() {
 4069              		.loc 1 1211 0
 4070              		.cfi_startproc
 4071 0000 80B5     		push	{r7, lr}
 4072              		.cfi_def_cfa_offset 8
 4073              		.cfi_offset 7, -8
 4074              		.cfi_offset 14, -4
 4075 0002 00AF     		add	r7, sp, #0
 4076              		.cfi_def_cfa_register 7
1212:.\mpu6050.c   ****     I2CReadByte(devAddr, MPU6050_RA_I2C_SLV4_DI, buffer);
 4077              		.loc 1 1212 0
 4078 0004 064B     		ldr	r3, .L330
 4079 0006 1A78     		ldrb	r2, [r3]
 4080 0008 064B     		ldr	r3, .L330+4
 4081 000a 101C     		mov	r0, r2
 4082 000c 3521     		mov	r1, #53
 4083 000e 1A1C     		mov	r2, r3
 4084 0010 FFF7FEFF 		bl	I2CReadByte
1213:.\mpu6050.c   ****     return buffer[0];
 4085              		.loc 1 1213 0
 4086 0014 034B     		ldr	r3, .L330+4
 4087 0016 1B78     		ldrb	r3, [r3]
1214:.\mpu6050.c   **** }
ARM GAS  C:\Users\CHRIST~1\AppData\Local\Temp\ccslI7ZX.s 			page 94


 4088              		.loc 1 1214 0
 4089 0018 181C     		mov	r0, r3
 4090 001a BD46     		mov	sp, r7
 4091              		@ sp needed
 4092 001c 80BD     		pop	{r7, pc}
 4093              	.L331:
 4094 001e C046     		.align	2
 4095              	.L330:
 4096 0020 00000000 		.word	devAddr
 4097 0024 00000000 		.word	buffer
 4098              		.cfi_endproc
 4099              	.LFE89:
 4100              		.size	MPU6050_getSlate4InputByte, .-MPU6050_getSlate4InputByte
 4101              		.section	.text.MPU6050_getPassthroughStatus,"ax",%progbits
 4102              		.align	2
 4103              		.global	MPU6050_getPassthroughStatus
 4104              		.code	16
 4105              		.thumb_func
 4106              		.type	MPU6050_getPassthroughStatus, %function
 4107              	MPU6050_getPassthroughStatus:
 4108              	.LFB90:
1215:.\mpu6050.c   **** 
1216:.\mpu6050.c   **** // I2C_MST_STATUS register
1217:.\mpu6050.c   **** 
1218:.\mpu6050.c   **** /** Get FSYNC interrupt status.
1219:.\mpu6050.c   ****  * This bit reflects the status of the FSYNC interrupt from an external device
1220:.\mpu6050.c   ****  * into the MPU-60X0. This is used as a way to pass an external interrupt
1221:.\mpu6050.c   ****  * through the MPU-60X0 to the host application processor. When set to 1, this
1222:.\mpu6050.c   ****  * bit will cause an interrupt if FSYNC_INT_EN is asserted in INT_PIN_CFG
1223:.\mpu6050.c   ****  * (Register 55).
1224:.\mpu6050.c   ****  * @return FSYNC interrupt status
1225:.\mpu6050.c   ****  * @see MPU6050_RA_I2C_MST_STATUS
1226:.\mpu6050.c   ****  */
1227:.\mpu6050.c   **** bool MPU6050_getPassthroughStatus() {
 4109              		.loc 1 1227 0
 4110              		.cfi_startproc
 4111 0000 80B5     		push	{r7, lr}
 4112              		.cfi_def_cfa_offset 8
 4113              		.cfi_offset 7, -8
 4114              		.cfi_offset 14, -4
 4115 0002 00AF     		add	r7, sp, #0
 4116              		.cfi_def_cfa_register 7
1228:.\mpu6050.c   ****     I2CReadBit(devAddr, MPU6050_RA_I2C_MST_STATUS, MPU6050_MST_PASS_THROUGH_BIT, buffer);
 4117              		.loc 1 1228 0
 4118 0004 074B     		ldr	r3, .L334
 4119 0006 1A78     		ldrb	r2, [r3]
 4120 0008 074B     		ldr	r3, .L334+4
 4121 000a 101C     		mov	r0, r2
 4122 000c 3621     		mov	r1, #54
 4123 000e 0722     		mov	r2, #7
 4124 0010 FFF7FEFF 		bl	I2CReadBit
1229:.\mpu6050.c   ****     return buffer[0];
 4125              		.loc 1 1229 0
 4126 0014 044B     		ldr	r3, .L334+4
 4127 0016 1B78     		ldrb	r3, [r3]
 4128 0018 5A1E     		sub	r2, r3, #1
 4129 001a 9341     		sbc	r3, r3, r2
ARM GAS  C:\Users\CHRIST~1\AppData\Local\Temp\ccslI7ZX.s 			page 95


 4130 001c DBB2     		uxtb	r3, r3
1230:.\mpu6050.c   **** }
 4131              		.loc 1 1230 0
 4132 001e 181C     		mov	r0, r3
 4133 0020 BD46     		mov	sp, r7
 4134              		@ sp needed
 4135 0022 80BD     		pop	{r7, pc}
 4136              	.L335:
 4137              		.align	2
 4138              	.L334:
 4139 0024 00000000 		.word	devAddr
 4140 0028 00000000 		.word	buffer
 4141              		.cfi_endproc
 4142              	.LFE90:
 4143              		.size	MPU6050_getPassthroughStatus, .-MPU6050_getPassthroughStatus
 4144              		.section	.text.MPU6050_getSlave4IsDone,"ax",%progbits
 4145              		.align	2
 4146              		.global	MPU6050_getSlave4IsDone
 4147              		.code	16
 4148              		.thumb_func
 4149              		.type	MPU6050_getSlave4IsDone, %function
 4150              	MPU6050_getSlave4IsDone:
 4151              	.LFB91:
1231:.\mpu6050.c   **** /** Get Slave 4 transaction done status.
1232:.\mpu6050.c   ****  * Automatically sets to 1 when a Slave 4 transaction has completed. This
1233:.\mpu6050.c   ****  * triggers an interrupt if the I2C_MST_INT_EN bit in the INT_ENABLE register
1234:.\mpu6050.c   ****  * (Register 56) is asserted and if the SLV_4_DONE_INT bit is asserted in the
1235:.\mpu6050.c   ****  * I2C_SLV4_CTRL register (Register 52).
1236:.\mpu6050.c   ****  * @return Slave 4 transaction done status
1237:.\mpu6050.c   ****  * @see MPU6050_RA_I2C_MST_STATUS
1238:.\mpu6050.c   ****  */
1239:.\mpu6050.c   **** bool MPU6050_getSlave4IsDone() {
 4152              		.loc 1 1239 0
 4153              		.cfi_startproc
 4154 0000 80B5     		push	{r7, lr}
 4155              		.cfi_def_cfa_offset 8
 4156              		.cfi_offset 7, -8
 4157              		.cfi_offset 14, -4
 4158 0002 00AF     		add	r7, sp, #0
 4159              		.cfi_def_cfa_register 7
1240:.\mpu6050.c   ****     I2CReadBit(devAddr, MPU6050_RA_I2C_MST_STATUS, MPU6050_MST_I2C_SLV4_DONE_BIT, buffer);
 4160              		.loc 1 1240 0
 4161 0004 074B     		ldr	r3, .L338
 4162 0006 1A78     		ldrb	r2, [r3]
 4163 0008 074B     		ldr	r3, .L338+4
 4164 000a 101C     		mov	r0, r2
 4165 000c 3621     		mov	r1, #54
 4166 000e 0622     		mov	r2, #6
 4167 0010 FFF7FEFF 		bl	I2CReadBit
1241:.\mpu6050.c   ****     return buffer[0];
 4168              		.loc 1 1241 0
 4169 0014 044B     		ldr	r3, .L338+4
 4170 0016 1B78     		ldrb	r3, [r3]
 4171 0018 5A1E     		sub	r2, r3, #1
 4172 001a 9341     		sbc	r3, r3, r2
 4173 001c DBB2     		uxtb	r3, r3
1242:.\mpu6050.c   **** }
ARM GAS  C:\Users\CHRIST~1\AppData\Local\Temp\ccslI7ZX.s 			page 96


 4174              		.loc 1 1242 0
 4175 001e 181C     		mov	r0, r3
 4176 0020 BD46     		mov	sp, r7
 4177              		@ sp needed
 4178 0022 80BD     		pop	{r7, pc}
 4179              	.L339:
 4180              		.align	2
 4181              	.L338:
 4182 0024 00000000 		.word	devAddr
 4183 0028 00000000 		.word	buffer
 4184              		.cfi_endproc
 4185              	.LFE91:
 4186              		.size	MPU6050_getSlave4IsDone, .-MPU6050_getSlave4IsDone
 4187              		.section	.text.MPU6050_getLostArbitration,"ax",%progbits
 4188              		.align	2
 4189              		.global	MPU6050_getLostArbitration
 4190              		.code	16
 4191              		.thumb_func
 4192              		.type	MPU6050_getLostArbitration, %function
 4193              	MPU6050_getLostArbitration:
 4194              	.LFB92:
1243:.\mpu6050.c   **** /** Get master arbitration lost status.
1244:.\mpu6050.c   ****  * This bit automatically sets to 1 when the I2C Master has lost arbitration of
1245:.\mpu6050.c   ****  * the auxiliary I2C bus (an error condition). This triggers an interrupt if the
1246:.\mpu6050.c   ****  * I2C_MST_INT_EN bit in the INT_ENABLE register (Register 56) is asserted.
1247:.\mpu6050.c   ****  * @return Master arbitration lost status
1248:.\mpu6050.c   ****  * @see MPU6050_RA_I2C_MST_STATUS
1249:.\mpu6050.c   ****  */
1250:.\mpu6050.c   **** bool MPU6050_getLostArbitration() {
 4195              		.loc 1 1250 0
 4196              		.cfi_startproc
 4197 0000 80B5     		push	{r7, lr}
 4198              		.cfi_def_cfa_offset 8
 4199              		.cfi_offset 7, -8
 4200              		.cfi_offset 14, -4
 4201 0002 00AF     		add	r7, sp, #0
 4202              		.cfi_def_cfa_register 7
1251:.\mpu6050.c   ****     I2CReadBit(devAddr, MPU6050_RA_I2C_MST_STATUS, MPU6050_MST_I2C_LOST_ARB_BIT, buffer);
 4203              		.loc 1 1251 0
 4204 0004 074B     		ldr	r3, .L342
 4205 0006 1A78     		ldrb	r2, [r3]
 4206 0008 074B     		ldr	r3, .L342+4
 4207 000a 101C     		mov	r0, r2
 4208 000c 3621     		mov	r1, #54
 4209 000e 0522     		mov	r2, #5
 4210 0010 FFF7FEFF 		bl	I2CReadBit
1252:.\mpu6050.c   ****     return buffer[0];
 4211              		.loc 1 1252 0
 4212 0014 044B     		ldr	r3, .L342+4
 4213 0016 1B78     		ldrb	r3, [r3]
 4214 0018 5A1E     		sub	r2, r3, #1
 4215 001a 9341     		sbc	r3, r3, r2
 4216 001c DBB2     		uxtb	r3, r3
1253:.\mpu6050.c   **** }
 4217              		.loc 1 1253 0
 4218 001e 181C     		mov	r0, r3
 4219 0020 BD46     		mov	sp, r7
ARM GAS  C:\Users\CHRIST~1\AppData\Local\Temp\ccslI7ZX.s 			page 97


 4220              		@ sp needed
 4221 0022 80BD     		pop	{r7, pc}
 4222              	.L343:
 4223              		.align	2
 4224              	.L342:
 4225 0024 00000000 		.word	devAddr
 4226 0028 00000000 		.word	buffer
 4227              		.cfi_endproc
 4228              	.LFE92:
 4229              		.size	MPU6050_getLostArbitration, .-MPU6050_getLostArbitration
 4230              		.section	.text.MPU6050_getSlave4Nack,"ax",%progbits
 4231              		.align	2
 4232              		.global	MPU6050_getSlave4Nack
 4233              		.code	16
 4234              		.thumb_func
 4235              		.type	MPU6050_getSlave4Nack, %function
 4236              	MPU6050_getSlave4Nack:
 4237              	.LFB93:
1254:.\mpu6050.c   **** /** Get Slave 4 NACK status.
1255:.\mpu6050.c   ****  * This bit automatically sets to 1 when the I2C Master receives a NACK in a
1256:.\mpu6050.c   ****  * transaction with Slave 4. This triggers an interrupt if the I2C_MST_INT_EN
1257:.\mpu6050.c   ****  * bit in the INT_ENABLE register (Register 56) is asserted.
