ARM GAS  C:\Users\Eric\AppData\Local\Temp\ccfZjnId.s 			page 1


   1              		.cpu cortex-m0
   2              		.fpu softvfp
   3              		.eabi_attribute 20, 1
   4              		.eabi_attribute 21, 1
   5              		.eabi_attribute 23, 3
   6              		.eabi_attribute 24, 1
   7              		.eabi_attribute 25, 1
   8              		.eabi_attribute 26, 1
   9              		.eabi_attribute 30, 6
  10              		.eabi_attribute 34, 0
  11              		.eabi_attribute 18, 4
  12              		.code	16
  13              		.file	"I2C_1_I2C_MASTER.c"
  14              		.text
  15              	.Ltext0:
  16              		.cfi_sections	.debug_frame
  17              		.comm	I2C_1_mstrStatus,2,2
  18              		.comm	I2C_1_mstrControl,1,1
  19              		.comm	I2C_1_mstrRdBufPtr,4,4
  20              		.comm	I2C_1_mstrRdBufSize,4,4
  21              		.comm	I2C_1_mstrRdBufIndex,4,4
  22              		.comm	I2C_1_mstrWrBufPtr,4,4
  23              		.comm	I2C_1_mstrWrBufSize,4,4
  24              		.comm	I2C_1_mstrWrBufIndex,4,4
  25              		.comm	I2C_1_mstrWrBufIndexTmp,4,4
  26              		.section	.text.I2C_1_I2CMasterWriteBuf,"ax",%progbits
  27              		.align	2
  28              		.global	I2C_1_I2CMasterWriteBuf
  29              		.code	16
  30              		.thumb_func
  31              		.type	I2C_1_I2CMasterWriteBuf, %function
  32              	I2C_1_I2CMasterWriteBuf:
  33              	.LFB0:
  34              		.file 1 ".\\Generated_Source\\PSoC4\\I2C_1_I2C_MASTER.c"
   1:.\Generated_Source\PSoC4/I2C_1_I2C_MASTER.c **** /*******************************************************************************
   2:.\Generated_Source\PSoC4/I2C_1_I2C_MASTER.c **** * File Name: I2C_1_I2C_MASTER.c
   3:.\Generated_Source\PSoC4/I2C_1_I2C_MASTER.c **** * Version 1.20
   4:.\Generated_Source\PSoC4/I2C_1_I2C_MASTER.c **** *
   5:.\Generated_Source\PSoC4/I2C_1_I2C_MASTER.c **** * Description:
   6:.\Generated_Source\PSoC4/I2C_1_I2C_MASTER.c **** *  This file provides the source code to the API for the SCB Component in
   7:.\Generated_Source\PSoC4/I2C_1_I2C_MASTER.c **** *  I2C Master mode.
   8:.\Generated_Source\PSoC4/I2C_1_I2C_MASTER.c **** *
   9:.\Generated_Source\PSoC4/I2C_1_I2C_MASTER.c **** * Note:
  10:.\Generated_Source\PSoC4/I2C_1_I2C_MASTER.c **** *
  11:.\Generated_Source\PSoC4/I2C_1_I2C_MASTER.c **** *******************************************************************************
  12:.\Generated_Source\PSoC4/I2C_1_I2C_MASTER.c **** * Copyright 2013-2014, Cypress Semiconductor Corporation.  All rights reserved.
  13:.\Generated_Source\PSoC4/I2C_1_I2C_MASTER.c **** * You may use this file only in accordance with the license, terms, conditions,
  14:.\Generated_Source\PSoC4/I2C_1_I2C_MASTER.c **** * disclaimers, and limitations in the end user license agreement accompanying
  15:.\Generated_Source\PSoC4/I2C_1_I2C_MASTER.c **** * the software package with which this file was provided.
  16:.\Generated_Source\PSoC4/I2C_1_I2C_MASTER.c **** *******************************************************************************/
  17:.\Generated_Source\PSoC4/I2C_1_I2C_MASTER.c **** 
  18:.\Generated_Source\PSoC4/I2C_1_I2C_MASTER.c **** #include "I2C_1_PVT.h"
  19:.\Generated_Source\PSoC4/I2C_1_I2C_MASTER.c **** #include "I2C_1_I2C_PVT.h"
  20:.\Generated_Source\PSoC4/I2C_1_I2C_MASTER.c **** 
  21:.\Generated_Source\PSoC4/I2C_1_I2C_MASTER.c **** #if(I2C_1_I2C_MASTER_CONST)
  22:.\Generated_Source\PSoC4/I2C_1_I2C_MASTER.c **** 
  23:.\Generated_Source\PSoC4/I2C_1_I2C_MASTER.c **** /***************************************
ARM GAS  C:\Users\Eric\AppData\Local\Temp\ccfZjnId.s 			page 2


  24:.\Generated_Source\PSoC4/I2C_1_I2C_MASTER.c **** *      I2C Master Private Vars
  25:.\Generated_Source\PSoC4/I2C_1_I2C_MASTER.c **** ***************************************/
  26:.\Generated_Source\PSoC4/I2C_1_I2C_MASTER.c **** 
  27:.\Generated_Source\PSoC4/I2C_1_I2C_MASTER.c **** /* Master variables */
  28:.\Generated_Source\PSoC4/I2C_1_I2C_MASTER.c **** volatile uint16 I2C_1_mstrStatus;      /* Master Status byte  */
  29:.\Generated_Source\PSoC4/I2C_1_I2C_MASTER.c **** volatile uint8  I2C_1_mstrControl;     /* Master Control byte */
  30:.\Generated_Source\PSoC4/I2C_1_I2C_MASTER.c **** 
  31:.\Generated_Source\PSoC4/I2C_1_I2C_MASTER.c **** /* Receive buffer variables */
  32:.\Generated_Source\PSoC4/I2C_1_I2C_MASTER.c **** volatile uint8 * I2C_1_mstrRdBufPtr;   /* Pointer to Master Read buffer */
  33:.\Generated_Source\PSoC4/I2C_1_I2C_MASTER.c **** volatile uint32  I2C_1_mstrRdBufSize;  /* Master Read buffer size       */
  34:.\Generated_Source\PSoC4/I2C_1_I2C_MASTER.c **** volatile uint32  I2C_1_mstrRdBufIndex; /* Master Read buffer Index      */
  35:.\Generated_Source\PSoC4/I2C_1_I2C_MASTER.c **** 
  36:.\Generated_Source\PSoC4/I2C_1_I2C_MASTER.c **** /* Transmit buffer variables */
  37:.\Generated_Source\PSoC4/I2C_1_I2C_MASTER.c **** volatile uint8 * I2C_1_mstrWrBufPtr;   /* Pointer to Master Write buffer */
  38:.\Generated_Source\PSoC4/I2C_1_I2C_MASTER.c **** volatile uint32  I2C_1_mstrWrBufSize;  /* Master Write buffer size       */
  39:.\Generated_Source\PSoC4/I2C_1_I2C_MASTER.c **** volatile uint32  I2C_1_mstrWrBufIndex; /* Master Write buffer Index      */
  40:.\Generated_Source\PSoC4/I2C_1_I2C_MASTER.c **** volatile uint32  I2C_1_mstrWrBufIndexTmp; /* Master Write buffer Index Tmp */
  41:.\Generated_Source\PSoC4/I2C_1_I2C_MASTER.c **** 
  42:.\Generated_Source\PSoC4/I2C_1_I2C_MASTER.c **** 
  43:.\Generated_Source\PSoC4/I2C_1_I2C_MASTER.c **** /*******************************************************************************
  44:.\Generated_Source\PSoC4/I2C_1_I2C_MASTER.c **** * Function Name: I2C_1_I2CMasterWriteBuf
  45:.\Generated_Source\PSoC4/I2C_1_I2C_MASTER.c **** ********************************************************************************
  46:.\Generated_Source\PSoC4/I2C_1_I2C_MASTER.c **** *
  47:.\Generated_Source\PSoC4/I2C_1_I2C_MASTER.c **** * Summary:
  48:.\Generated_Source\PSoC4/I2C_1_I2C_MASTER.c **** * Automatically writes an entire buffer of data to a slave device.
  49:.\Generated_Source\PSoC4/I2C_1_I2C_MASTER.c **** * Once the data transfer is initiated by this function, further data transfer
  50:.\Generated_Source\PSoC4/I2C_1_I2C_MASTER.c **** * is handled by the included ISR.
  51:.\Generated_Source\PSoC4/I2C_1_I2C_MASTER.c **** * Enables the I2C interrupt and clears SCB_ I2C_MSTAT_WR_CMPLT status.
  52:.\Generated_Source\PSoC4/I2C_1_I2C_MASTER.c **** *
  53:.\Generated_Source\PSoC4/I2C_1_I2C_MASTER.c **** * Parameters:
  54:.\Generated_Source\PSoC4/I2C_1_I2C_MASTER.c **** *  slaveAddr: 7-bit slave address.
  55:.\Generated_Source\PSoC4/I2C_1_I2C_MASTER.c **** *  xferData:  Pointer to buffer of data to be sent.
  56:.\Generated_Source\PSoC4/I2C_1_I2C_MASTER.c **** *  cnt:       Size of buffer to send.
  57:.\Generated_Source\PSoC4/I2C_1_I2C_MASTER.c **** *  mode:      Transfer mode defines: start or restart condition generation at
  58:.\Generated_Source\PSoC4/I2C_1_I2C_MASTER.c **** *             begin of the transfer and complete the transfer or halt before
  59:.\Generated_Source\PSoC4/I2C_1_I2C_MASTER.c **** *             generating a stop.
  60:.\Generated_Source\PSoC4/I2C_1_I2C_MASTER.c **** *
  61:.\Generated_Source\PSoC4/I2C_1_I2C_MASTER.c **** * Return:
  62:.\Generated_Source\PSoC4/I2C_1_I2C_MASTER.c **** *  Error status.
  63:.\Generated_Source\PSoC4/I2C_1_I2C_MASTER.c **** *
  64:.\Generated_Source\PSoC4/I2C_1_I2C_MASTER.c **** * Global variables:
  65:.\Generated_Source\PSoC4/I2C_1_I2C_MASTER.c **** *  I2C_1_mstrStatus  - used to store current status of I2C Master.
  66:.\Generated_Source\PSoC4/I2C_1_I2C_MASTER.c **** *  I2C_1_state       - used to store current state of software FSM.
  67:.\Generated_Source\PSoC4/I2C_1_I2C_MASTER.c **** *  I2C_1_mstrControl - used to control master end of transaction with
  68:.\Generated_Source\PSoC4/I2C_1_I2C_MASTER.c **** *  or without the Stop generation.
  69:.\Generated_Source\PSoC4/I2C_1_I2C_MASTER.c **** *  I2C_1_mstrWrBufPtr - used to store pointer to master write buffer.
  70:.\Generated_Source\PSoC4/I2C_1_I2C_MASTER.c **** *  I2C_1_mstrWrBufIndex - used to current index within master write
  71:.\Generated_Source\PSoC4/I2C_1_I2C_MASTER.c **** *  buffer.
  72:.\Generated_Source\PSoC4/I2C_1_I2C_MASTER.c **** *  I2C_1_mstrWrBufSize - used to store master write buffer size.
  73:.\Generated_Source\PSoC4/I2C_1_I2C_MASTER.c **** *
  74:.\Generated_Source\PSoC4/I2C_1_I2C_MASTER.c **** *******************************************************************************/
  75:.\Generated_Source\PSoC4/I2C_1_I2C_MASTER.c **** uint32 I2C_1_I2CMasterWriteBuf(uint32 slaveAddress, uint8 * wrData, uint32 cnt, uint32 mode)
  76:.\Generated_Source\PSoC4/I2C_1_I2C_MASTER.c **** {
  35              		.loc 1 76 0
  36              		.cfi_startproc
  37 0000 80B5     		push	{r7, lr}
  38              	.LCFI0:
ARM GAS  C:\Users\Eric\AppData\Local\Temp\ccfZjnId.s 			page 3


  39              		.cfi_def_cfa_offset 8
  40              		.cfi_offset 7, -8
  41              		.cfi_offset 14, -4
  42 0002 86B0     		sub	sp, sp, #24
  43              	.LCFI1:
  44              		.cfi_def_cfa_offset 32
  45 0004 00AF     		add	r7, sp, #0
  46              	.LCFI2:
  47              		.cfi_def_cfa_register 7
  48 0006 F860     		str	r0, [r7, #12]
  49 0008 B960     		str	r1, [r7, #8]
  50 000a 7A60     		str	r2, [r7, #4]
  51 000c 3B60     		str	r3, [r7]
  77:.\Generated_Source\PSoC4/I2C_1_I2C_MASTER.c ****     uint32 errStatus;
  78:.\Generated_Source\PSoC4/I2C_1_I2C_MASTER.c **** 
  79:.\Generated_Source\PSoC4/I2C_1_I2C_MASTER.c ****     errStatus = I2C_1_I2C_MSTR_NOT_READY;
  52              		.loc 1 79 0
  53 000e 0423     		mov	r3, #4
  54 0010 7B61     		str	r3, [r7, #20]
  80:.\Generated_Source\PSoC4/I2C_1_I2C_MASTER.c **** 
  81:.\Generated_Source\PSoC4/I2C_1_I2C_MASTER.c ****     if(NULL != wrData)  /* Check buffer pointer */
  55              		.loc 1 81 0
  56 0012 BB68     		ldr	r3, [r7, #8]
  57 0014 002B     		cmp	r3, #0
  58 0016 20D0     		beq	.L2
  82:.\Generated_Source\PSoC4/I2C_1_I2C_MASTER.c ****     {
  83:.\Generated_Source\PSoC4/I2C_1_I2C_MASTER.c ****         /* Check FSM state and bus before generating Start/ReStart condition */
  84:.\Generated_Source\PSoC4/I2C_1_I2C_MASTER.c ****         if(I2C_1_CHECK_I2C_FSM_IDLE)
  59              		.loc 1 84 0
  60 0018 324B     		ldr	r3, .L10
  61 001a 1B78     		ldrb	r3, [r3]
  62 001c DBB2     		uxtb	r3, r3
  63 001e 102B     		cmp	r3, #16
  64 0020 0CD1     		bne	.L3
  85:.\Generated_Source\PSoC4/I2C_1_I2C_MASTER.c ****         {
  86:.\Generated_Source\PSoC4/I2C_1_I2C_MASTER.c ****             I2C_1_DisableInt();
  65              		.loc 1 86 0
  66 0022 0A20     		mov	r0, #10
  67 0024 FFF7FEFF 		bl	CyIntDisable
  87:.\Generated_Source\PSoC4/I2C_1_I2C_MASTER.c **** 
  88:.\Generated_Source\PSoC4/I2C_1_I2C_MASTER.c ****             /* Check bus state */
  89:.\Generated_Source\PSoC4/I2C_1_I2C_MASTER.c ****             errStatus = I2C_1_CHECK_I2C_STATUS(I2C_1_I2C_STATUS_BUS_BUSY) ?
  68              		.loc 1 89 0
  69 0028 2F4B     		ldr	r3, .L10+4
  70 002a 1A68     		ldr	r2, [r3]
  71 002c 0123     		mov	r3, #1
  72 002e 1340     		and	r3, r2
  73 0030 01D0     		beq	.L4
  74              		.loc 1 89 0 is_stmt 0 discriminator 1
  75 0032 0823     		mov	r3, #8
  76 0034 00E0     		b	.L5
  77              	.L4:
  78              		.loc 1 89 0 discriminator 2
  79 0036 0023     		mov	r3, #0
  80              	.L5:
  81              		.loc 1 89 0 discriminator 3
  82 0038 7B61     		str	r3, [r7, #20]
ARM GAS  C:\Users\Eric\AppData\Local\Temp\ccfZjnId.s 			page 4


  83 003a 0EE0     		b	.L2
  84              	.L3:
  90:.\Generated_Source\PSoC4/I2C_1_I2C_MASTER.c ****                             I2C_1_I2C_MSTR_BUS_BUSY : I2C_1_I2C_MSTR_NO_ERROR;
  91:.\Generated_Source\PSoC4/I2C_1_I2C_MASTER.c ****         }
  92:.\Generated_Source\PSoC4/I2C_1_I2C_MASTER.c ****         else if(I2C_1_CHECK_I2C_FSM_HALT)
  85              		.loc 1 92 0 is_stmt 1
  86 003c 294B     		ldr	r3, .L10
  87 003e 1B78     		ldrb	r3, [r3]
  88 0040 DBB2     		uxtb	r3, r3
  89 0042 602B     		cmp	r3, #96
  90 0044 09D1     		bne	.L2
  93:.\Generated_Source\PSoC4/I2C_1_I2C_MASTER.c ****         {
  94:.\Generated_Source\PSoC4/I2C_1_I2C_MASTER.c ****             I2C_1_mstrStatus &= (uint16) ~I2C_1_I2C_MSTAT_XFER_HALT;
  91              		.loc 1 94 0
  92 0046 294B     		ldr	r3, .L10+8
  93 0048 1B88     		ldrh	r3, [r3]
  94 004a 9BB2     		uxth	r3, r3
  95 004c 0822     		mov	r2, #8
  96 004e 9343     		bic	r3, r2
  97 0050 9AB2     		uxth	r2, r3
  98 0052 264B     		ldr	r3, .L10+8
  99 0054 1A80     		strh	r2, [r3]
  95:.\Generated_Source\PSoC4/I2C_1_I2C_MASTER.c ****                               errStatus  = I2C_1_I2C_MSTR_NO_ERROR;
 100              		.loc 1 95 0
 101 0056 0023     		mov	r3, #0
 102 0058 7B61     		str	r3, [r7, #20]
 103              	.L2:
  96:.\Generated_Source\PSoC4/I2C_1_I2C_MASTER.c ****         }
  97:.\Generated_Source\PSoC4/I2C_1_I2C_MASTER.c ****         else
  98:.\Generated_Source\PSoC4/I2C_1_I2C_MASTER.c ****         {
  99:.\Generated_Source\PSoC4/I2C_1_I2C_MASTER.c ****             /* Unexpected FSM state: exit */
 100:.\Generated_Source\PSoC4/I2C_1_I2C_MASTER.c ****         }
 101:.\Generated_Source\PSoC4/I2C_1_I2C_MASTER.c ****     }
 102:.\Generated_Source\PSoC4/I2C_1_I2C_MASTER.c **** 
 103:.\Generated_Source\PSoC4/I2C_1_I2C_MASTER.c **** 
 104:.\Generated_Source\PSoC4/I2C_1_I2C_MASTER.c ****     /* Check if master is ready to start  */
 105:.\Generated_Source\PSoC4/I2C_1_I2C_MASTER.c ****     if(I2C_1_I2C_MSTR_NO_ERROR == errStatus) /* No error proceed */
 104              		.loc 1 105 0
 105 005a 7B69     		ldr	r3, [r7, #20]
 106 005c 002B     		cmp	r3, #0
 107 005e 38D1     		bne	.L6
 106:.\Generated_Source\PSoC4/I2C_1_I2C_MASTER.c ****     {
 107:.\Generated_Source\PSoC4/I2C_1_I2C_MASTER.c ****         /* Set up write transaction */
 108:.\Generated_Source\PSoC4/I2C_1_I2C_MASTER.c ****         I2C_1_state = I2C_1_I2C_FSM_MSTR_WR_ADDR;
 108              		.loc 1 108 0
 109 0060 204B     		ldr	r3, .L10
 110 0062 2822     		mov	r2, #40
 111 0064 1A70     		strb	r2, [r3]
 109:.\Generated_Source\PSoC4/I2C_1_I2C_MASTER.c ****         I2C_1_mstrWrBufIndexTmp = 0u;
 112              		.loc 1 109 0
 113 0066 224B     		ldr	r3, .L10+12
 114 0068 0022     		mov	r2, #0
 115 006a 1A60     		str	r2, [r3]
 110:.\Generated_Source\PSoC4/I2C_1_I2C_MASTER.c ****         I2C_1_mstrWrBufIndex    = 0u;
 116              		.loc 1 110 0
 117 006c 214B     		ldr	r3, .L10+16
 118 006e 0022     		mov	r2, #0
ARM GAS  C:\Users\Eric\AppData\Local\Temp\ccfZjnId.s 			page 5


 119 0070 1A60     		str	r2, [r3]
 111:.\Generated_Source\PSoC4/I2C_1_I2C_MASTER.c ****         I2C_1_mstrWrBufSize     = cnt;
 120              		.loc 1 111 0
 121 0072 214B     		ldr	r3, .L10+20
 122 0074 7A68     		ldr	r2, [r7, #4]
 123 0076 1A60     		str	r2, [r3]
 112:.\Generated_Source\PSoC4/I2C_1_I2C_MASTER.c ****         I2C_1_mstrWrBufPtr      = (volatile uint8 *) wrData;
 124              		.loc 1 112 0
 125 0078 204B     		ldr	r3, .L10+24
 126 007a BA68     		ldr	r2, [r7, #8]
 127 007c 1A60     		str	r2, [r3]
 113:.\Generated_Source\PSoC4/I2C_1_I2C_MASTER.c ****         I2C_1_mstrControl       = (uint8) mode;
 128              		.loc 1 113 0
 129 007e 3B68     		ldr	r3, [r7]
 130 0080 DAB2     		uxtb	r2, r3
 131 0082 1F4B     		ldr	r3, .L10+28
 132 0084 1A70     		strb	r2, [r3]
 114:.\Generated_Source\PSoC4/I2C_1_I2C_MASTER.c **** 
 115:.\Generated_Source\PSoC4/I2C_1_I2C_MASTER.c ****         slaveAddress = I2C_1_GET_I2C_8BIT_ADDRESS(slaveAddress);
 133              		.loc 1 115 0
 134 0086 FB68     		ldr	r3, [r7, #12]
 135 0088 5A00     		lsl	r2, r3, #1
 136 008a FF23     		mov	r3, #255
 137 008c 1340     		and	r3, r2
 138 008e FB60     		str	r3, [r7, #12]
 116:.\Generated_Source\PSoC4/I2C_1_I2C_MASTER.c **** 
 117:.\Generated_Source\PSoC4/I2C_1_I2C_MASTER.c ****         I2C_1_mstrStatus &= (uint16) ~I2C_1_I2C_MSTAT_WR_CMPLT;
 139              		.loc 1 117 0
 140 0090 164B     		ldr	r3, .L10+8
 141 0092 1B88     		ldrh	r3, [r3]
 142 0094 9BB2     		uxth	r3, r3
 143 0096 0222     		mov	r2, #2
 144 0098 9343     		bic	r3, r2
 145 009a 9AB2     		uxth	r2, r3
 146 009c 134B     		ldr	r3, .L10+8
 147 009e 1A80     		strh	r2, [r3]
 118:.\Generated_Source\PSoC4/I2C_1_I2C_MASTER.c **** 
 119:.\Generated_Source\PSoC4/I2C_1_I2C_MASTER.c ****         I2C_1_ClearMasterInterruptSource(I2C_1_INTR_MASTER_ALL);
 148              		.loc 1 119 0
 149 00a0 184B     		ldr	r3, .L10+32
 150 00a2 194A     		ldr	r2, .L10+36
 151 00a4 1A60     		str	r2, [r3]
 120:.\Generated_Source\PSoC4/I2C_1_I2C_MASTER.c ****         I2C_1_ClearTxInterruptSource(I2C_1_INTR_TX_UNDERFLOW);
 152              		.loc 1 120 0
 153 00a6 194B     		ldr	r3, .L10+40
 154 00a8 4022     		mov	r2, #64
 155 00aa 1A60     		str	r2, [r3]
 121:.\Generated_Source\PSoC4/I2C_1_I2C_MASTER.c ****         /* The TX and RX FIFO have to be EMPTY */
 122:.\Generated_Source\PSoC4/I2C_1_I2C_MASTER.c **** 
 123:.\Generated_Source\PSoC4/I2C_1_I2C_MASTER.c ****         /* Generate Start or ReStart */
 124:.\Generated_Source\PSoC4/I2C_1_I2C_MASTER.c ****         if(I2C_1_CHECK_I2C_MODE_RESTART(mode))
 156              		.loc 1 124 0
 157 00ac 3A68     		ldr	r2, [r7]
 158 00ae 0123     		mov	r3, #1
 159 00b0 1340     		and	r3, r2
 160 00b2 05D0     		beq	.L7
 125:.\Generated_Source\PSoC4/I2C_1_I2C_MASTER.c ****         {
ARM GAS  C:\Users\Eric\AppData\Local\Temp\ccfZjnId.s 			page 6


 126:.\Generated_Source\PSoC4/I2C_1_I2C_MASTER.c ****             I2C_1_I2C_MASTER_GENERATE_RESTART;
 161              		.loc 1 126 0
 162 00b4 FFF7FEFF 		bl	I2C_1_I2CReStartGeneration
 127:.\Generated_Source\PSoC4/I2C_1_I2C_MASTER.c ****             I2C_1_TX_FIFO_WR_REG = slaveAddress;
 163              		.loc 1 127 0
 164 00b8 154B     		ldr	r3, .L10+44
 165 00ba FA68     		ldr	r2, [r7, #12]
 166 00bc 1A60     		str	r2, [r3]
 167 00be 05E0     		b	.L8
 168              	.L7:
 128:.\Generated_Source\PSoC4/I2C_1_I2C_MASTER.c ****         }
 129:.\Generated_Source\PSoC4/I2C_1_I2C_MASTER.c ****         else
 130:.\Generated_Source\PSoC4/I2C_1_I2C_MASTER.c ****         {
 131:.\Generated_Source\PSoC4/I2C_1_I2C_MASTER.c ****             I2C_1_TX_FIFO_WR_REG = slaveAddress;
 169              		.loc 1 131 0
 170 00c0 134B     		ldr	r3, .L10+44
 171 00c2 FA68     		ldr	r2, [r7, #12]
 172 00c4 1A60     		str	r2, [r3]
 132:.\Generated_Source\PSoC4/I2C_1_I2C_MASTER.c ****             I2C_1_I2C_MASTER_GENERATE_START;
 173              		.loc 1 132 0
 174 00c6 134B     		ldr	r3, .L10+48
 175 00c8 0222     		mov	r2, #2
 176 00ca 1A60     		str	r2, [r3]
 177              	.L8:
 133:.\Generated_Source\PSoC4/I2C_1_I2C_MASTER.c ****         }
 134:.\Generated_Source\PSoC4/I2C_1_I2C_MASTER.c **** 
 135:.\Generated_Source\PSoC4/I2C_1_I2C_MASTER.c ****          /* Catch when address is sent */
 136:.\Generated_Source\PSoC4/I2C_1_I2C_MASTER.c ****         I2C_1_SetTxInterruptMode(I2C_1_INTR_TX_UNDERFLOW);
 178              		.loc 1 136 0
 179 00cc 124B     		ldr	r3, .L10+52
 180 00ce 4022     		mov	r2, #64
 181 00d0 1A60     		str	r2, [r3]
 182              	.L6:
 137:.\Generated_Source\PSoC4/I2C_1_I2C_MASTER.c ****     }
 138:.\Generated_Source\PSoC4/I2C_1_I2C_MASTER.c **** 
 139:.\Generated_Source\PSoC4/I2C_1_I2C_MASTER.c ****     I2C_1_EnableInt();
 183              		.loc 1 139 0
 184 00d2 0A20     		mov	r0, #10
 185 00d4 FFF7FEFF 		bl	CyIntEnable
 140:.\Generated_Source\PSoC4/I2C_1_I2C_MASTER.c **** 
 141:.\Generated_Source\PSoC4/I2C_1_I2C_MASTER.c ****     return(errStatus);
 186              		.loc 1 141 0
 187 00d8 7B69     		ldr	r3, [r7, #20]
 142:.\Generated_Source\PSoC4/I2C_1_I2C_MASTER.c **** }
 188              		.loc 1 142 0
 189 00da 181C     		mov	r0, r3
 190 00dc BD46     		mov	sp, r7
 191 00de 06B0     		add	sp, sp, #24
 192              		@ sp needed for prologue
 193 00e0 80BD     		pop	{r7, pc}
 194              	.L11:
 195 00e2 C046     		.align	2
 196              	.L10:
 197 00e4 00000000 		.word	I2C_1_state
 198 00e8 64000640 		.word	1074135140
 199 00ec 00000000 		.word	I2C_1_mstrStatus
 200 00f0 00000000 		.word	I2C_1_mstrWrBufIndexTmp
ARM GAS  C:\Users\Eric\AppData\Local\Temp\ccfZjnId.s 			page 7


 201 00f4 00000000 		.word	I2C_1_mstrWrBufIndex
 202 00f8 00000000 		.word	I2C_1_mstrWrBufSize
 203 00fc 00000000 		.word	I2C_1_mstrWrBufPtr
 204 0100 00000000 		.word	I2C_1_mstrControl
 205 0104 000F0640 		.word	1074138880
 206 0108 17030000 		.word	791
 207 010c 800F0640 		.word	1074139008
 208 0110 40020640 		.word	1074135616
 209 0114 68000640 		.word	1074135144
 210 0118 880F0640 		.word	1074139016
 211              		.cfi_endproc
 212              	.LFE0:
 213              		.size	I2C_1_I2CMasterWriteBuf, .-I2C_1_I2CMasterWriteBuf
 214              		.section	.text.I2C_1_I2CMasterReadBuf,"ax",%progbits
 215              		.align	2
 216              		.global	I2C_1_I2CMasterReadBuf
 217              		.code	16
 218              		.thumb_func
 219              		.type	I2C_1_I2CMasterReadBuf, %function
 220              	I2C_1_I2CMasterReadBuf:
 221              	.LFB1:
 143:.\Generated_Source\PSoC4/I2C_1_I2C_MASTER.c **** 
 144:.\Generated_Source\PSoC4/I2C_1_I2C_MASTER.c **** 
 145:.\Generated_Source\PSoC4/I2C_1_I2C_MASTER.c **** /*******************************************************************************
 146:.\Generated_Source\PSoC4/I2C_1_I2C_MASTER.c **** * Function Name: I2C_1_I2CMasterReadBuf
 147:.\Generated_Source\PSoC4/I2C_1_I2C_MASTER.c **** ********************************************************************************
 148:.\Generated_Source\PSoC4/I2C_1_I2C_MASTER.c **** *
 149:.\Generated_Source\PSoC4/I2C_1_I2C_MASTER.c **** * Summary:
 150:.\Generated_Source\PSoC4/I2C_1_I2C_MASTER.c **** *  Automatically reads an entire buffer of data from a slave device.
 151:.\Generated_Source\PSoC4/I2C_1_I2C_MASTER.c **** *  Once the data transfer is initiated by this function, further data transfer
 152:.\Generated_Source\PSoC4/I2C_1_I2C_MASTER.c **** *  is handled by the included ISR.
 153:.\Generated_Source\PSoC4/I2C_1_I2C_MASTER.c **** * Enables the I2C interrupt and clears SCB_ I2C_MSTAT_RD_CMPLT status.
 154:.\Generated_Source\PSoC4/I2C_1_I2C_MASTER.c **** *
 155:.\Generated_Source\PSoC4/I2C_1_I2C_MASTER.c **** * Parameters:
 156:.\Generated_Source\PSoC4/I2C_1_I2C_MASTER.c **** *  slaveAddr: 7-bit slave address.
 157:.\Generated_Source\PSoC4/I2C_1_I2C_MASTER.c **** *  xferData:  Pointer to buffer where to put data from slave.
 158:.\Generated_Source\PSoC4/I2C_1_I2C_MASTER.c **** *  cnt:       Size of buffer to read.
 159:.\Generated_Source\PSoC4/I2C_1_I2C_MASTER.c **** *  mode:      Transfer mode defines: start or restart condition generation at
 160:.\Generated_Source\PSoC4/I2C_1_I2C_MASTER.c **** *             begin of the transfer and complete the transfer or halt before
 161:.\Generated_Source\PSoC4/I2C_1_I2C_MASTER.c **** *             generating a stop.
 162:.\Generated_Source\PSoC4/I2C_1_I2C_MASTER.c **** *
 163:.\Generated_Source\PSoC4/I2C_1_I2C_MASTER.c **** * Return:
 164:.\Generated_Source\PSoC4/I2C_1_I2C_MASTER.c **** *  Error status.
 165:.\Generated_Source\PSoC4/I2C_1_I2C_MASTER.c **** *
 166:.\Generated_Source\PSoC4/I2C_1_I2C_MASTER.c **** * Global variables:
 167:.\Generated_Source\PSoC4/I2C_1_I2C_MASTER.c **** *  I2C_1_mstrStatus  - used to store current status of I2C Master.
 168:.\Generated_Source\PSoC4/I2C_1_I2C_MASTER.c **** *  I2C_1_state       - used to store current state of software FSM.
 169:.\Generated_Source\PSoC4/I2C_1_I2C_MASTER.c **** *  I2C_1_mstrControl - used to control master end of transaction with
 170:.\Generated_Source\PSoC4/I2C_1_I2C_MASTER.c **** *  or without the Stop generation.
 171:.\Generated_Source\PSoC4/I2C_1_I2C_MASTER.c **** *  I2C_1_mstrRdBufPtr - used to store pointer to master write buffer.
 172:.\Generated_Source\PSoC4/I2C_1_I2C_MASTER.c **** *  I2C_1_mstrRdBufIndex - used to current index within master write
 173:.\Generated_Source\PSoC4/I2C_1_I2C_MASTER.c **** *  buffer.
 174:.\Generated_Source\PSoC4/I2C_1_I2C_MASTER.c **** *  I2C_1_mstrRdBufSize - used to store master write buffer size.
 175:.\Generated_Source\PSoC4/I2C_1_I2C_MASTER.c **** *
 176:.\Generated_Source\PSoC4/I2C_1_I2C_MASTER.c **** *******************************************************************************/
 177:.\Generated_Source\PSoC4/I2C_1_I2C_MASTER.c **** uint32 I2C_1_I2CMasterReadBuf(uint32 slaveAddress, uint8 * rdData, uint32 cnt, uint32 mode)
 178:.\Generated_Source\PSoC4/I2C_1_I2C_MASTER.c **** {
ARM GAS  C:\Users\Eric\AppData\Local\Temp\ccfZjnId.s 			page 8


 222              		.loc 1 178 0
 223              		.cfi_startproc
 224 0000 80B5     		push	{r7, lr}
 225              	.LCFI3:
 226              		.cfi_def_cfa_offset 8
 227              		.cfi_offset 7, -8
 228              		.cfi_offset 14, -4
 229 0002 86B0     		sub	sp, sp, #24
 230              	.LCFI4:
 231              		.cfi_def_cfa_offset 32
 232 0004 00AF     		add	r7, sp, #0
 233              	.LCFI5:
 234              		.cfi_def_cfa_register 7
 235 0006 F860     		str	r0, [r7, #12]
 236 0008 B960     		str	r1, [r7, #8]
 237 000a 7A60     		str	r2, [r7, #4]
 238 000c 3B60     		str	r3, [r7]
 179:.\Generated_Source\PSoC4/I2C_1_I2C_MASTER.c ****     uint32 errStatus;
 180:.\Generated_Source\PSoC4/I2C_1_I2C_MASTER.c **** 
 181:.\Generated_Source\PSoC4/I2C_1_I2C_MASTER.c ****     errStatus = I2C_1_I2C_MSTR_NOT_READY;
 239              		.loc 1 181 0
 240 000e 0423     		mov	r3, #4
 241 0010 7B61     		str	r3, [r7, #20]
 182:.\Generated_Source\PSoC4/I2C_1_I2C_MASTER.c **** 
 183:.\Generated_Source\PSoC4/I2C_1_I2C_MASTER.c ****     if(NULL != rdData)
 242              		.loc 1 183 0
 243 0012 BB68     		ldr	r3, [r7, #8]
 244 0014 002B     		cmp	r3, #0
 245 0016 20D0     		beq	.L13
 184:.\Generated_Source\PSoC4/I2C_1_I2C_MASTER.c ****     {
 185:.\Generated_Source\PSoC4/I2C_1_I2C_MASTER.c ****         /* Check FSM state and bus before generating Start/ReStart condition */
 186:.\Generated_Source\PSoC4/I2C_1_I2C_MASTER.c ****         if(I2C_1_CHECK_I2C_FSM_IDLE)
 246              		.loc 1 186 0
 247 0018 374B     		ldr	r3, .L22
 248 001a 1B78     		ldrb	r3, [r3]
 249 001c DBB2     		uxtb	r3, r3
 250 001e 102B     		cmp	r3, #16
 251 0020 0CD1     		bne	.L14
 187:.\Generated_Source\PSoC4/I2C_1_I2C_MASTER.c ****         {
 188:.\Generated_Source\PSoC4/I2C_1_I2C_MASTER.c ****             I2C_1_DisableInt();
 252              		.loc 1 188 0
 253 0022 0A20     		mov	r0, #10
 254 0024 FFF7FEFF 		bl	CyIntDisable
 189:.\Generated_Source\PSoC4/I2C_1_I2C_MASTER.c **** 
 190:.\Generated_Source\PSoC4/I2C_1_I2C_MASTER.c ****             /* Check bus state */
 191:.\Generated_Source\PSoC4/I2C_1_I2C_MASTER.c ****             errStatus = I2C_1_CHECK_I2C_STATUS(I2C_1_I2C_STATUS_BUS_BUSY) ?
 255              		.loc 1 191 0
 256 0028 344B     		ldr	r3, .L22+4
 257 002a 1A68     		ldr	r2, [r3]
 258 002c 0123     		mov	r3, #1
 259 002e 1340     		and	r3, r2
 260 0030 01D0     		beq	.L15
 261              		.loc 1 191 0 is_stmt 0 discriminator 1
 262 0032 0823     		mov	r3, #8
 263 0034 00E0     		b	.L16
 264              	.L15:
 265              		.loc 1 191 0 discriminator 2
ARM GAS  C:\Users\Eric\AppData\Local\Temp\ccfZjnId.s 			page 9


 266 0036 0023     		mov	r3, #0
 267              	.L16:
 268              		.loc 1 191 0 discriminator 3
 269 0038 7B61     		str	r3, [r7, #20]
 270 003a 0EE0     		b	.L13
 271              	.L14:
 192:.\Generated_Source\PSoC4/I2C_1_I2C_MASTER.c ****                             I2C_1_I2C_MSTR_BUS_BUSY : I2C_1_I2C_MSTR_NO_ERROR;
 193:.\Generated_Source\PSoC4/I2C_1_I2C_MASTER.c ****         }
 194:.\Generated_Source\PSoC4/I2C_1_I2C_MASTER.c ****         else if(I2C_1_CHECK_I2C_FSM_HALT)
 272              		.loc 1 194 0 is_stmt 1
 273 003c 2E4B     		ldr	r3, .L22
 274 003e 1B78     		ldrb	r3, [r3]
 275 0040 DBB2     		uxtb	r3, r3
 276 0042 602B     		cmp	r3, #96
 277 0044 09D1     		bne	.L13
 195:.\Generated_Source\PSoC4/I2C_1_I2C_MASTER.c ****         {
 196:.\Generated_Source\PSoC4/I2C_1_I2C_MASTER.c ****             I2C_1_mstrStatus &= (uint16) ~I2C_1_I2C_MSTAT_XFER_HALT;
 278              		.loc 1 196 0
 279 0046 2E4B     		ldr	r3, .L22+8
 280 0048 1B88     		ldrh	r3, [r3]
 281 004a 9BB2     		uxth	r3, r3
 282 004c 0822     		mov	r2, #8
 283 004e 9343     		bic	r3, r2
 284 0050 9AB2     		uxth	r2, r3
 285 0052 2B4B     		ldr	r3, .L22+8
 286 0054 1A80     		strh	r2, [r3]
 197:.\Generated_Source\PSoC4/I2C_1_I2C_MASTER.c ****                               errStatus  =  I2C_1_I2C_MSTR_NO_ERROR;
 287              		.loc 1 197 0
 288 0056 0023     		mov	r3, #0
 289 0058 7B61     		str	r3, [r7, #20]
 290              	.L13:
 198:.\Generated_Source\PSoC4/I2C_1_I2C_MASTER.c ****         }
 199:.\Generated_Source\PSoC4/I2C_1_I2C_MASTER.c ****         else
 200:.\Generated_Source\PSoC4/I2C_1_I2C_MASTER.c ****         {
 201:.\Generated_Source\PSoC4/I2C_1_I2C_MASTER.c ****             /* Unexpected FSM state: exit */
 202:.\Generated_Source\PSoC4/I2C_1_I2C_MASTER.c ****         }
 203:.\Generated_Source\PSoC4/I2C_1_I2C_MASTER.c ****     }
 204:.\Generated_Source\PSoC4/I2C_1_I2C_MASTER.c **** 
 205:.\Generated_Source\PSoC4/I2C_1_I2C_MASTER.c ****     /* Check master ready to proceed */
 206:.\Generated_Source\PSoC4/I2C_1_I2C_MASTER.c ****     if(I2C_1_I2C_MSTR_NO_ERROR == errStatus) /* No error proceed */
 291              		.loc 1 206 0
 292 005a 7B69     		ldr	r3, [r7, #20]
 293 005c 002B     		cmp	r3, #0
 294 005e 43D1     		bne	.L17
 207:.\Generated_Source\PSoC4/I2C_1_I2C_MASTER.c ****     {
 208:.\Generated_Source\PSoC4/I2C_1_I2C_MASTER.c ****         /* Set up read transaction */
 209:.\Generated_Source\PSoC4/I2C_1_I2C_MASTER.c ****         I2C_1_state = I2C_1_I2C_FSM_MSTR_RD_ADDR;
 295              		.loc 1 209 0
 296 0060 254B     		ldr	r3, .L22
 297 0062 2922     		mov	r2, #41
 298 0064 1A70     		strb	r2, [r3]
 210:.\Generated_Source\PSoC4/I2C_1_I2C_MASTER.c ****         I2C_1_mstrRdBufIndex = 0u;
 299              		.loc 1 210 0
 300 0066 274B     		ldr	r3, .L22+12
 301 0068 0022     		mov	r2, #0
 302 006a 1A60     		str	r2, [r3]
 211:.\Generated_Source\PSoC4/I2C_1_I2C_MASTER.c ****         I2C_1_mstrRdBufSize  = cnt;
ARM GAS  C:\Users\Eric\AppData\Local\Temp\ccfZjnId.s 			page 10


 303              		.loc 1 211 0
 304 006c 264B     		ldr	r3, .L22+16
 305 006e 7A68     		ldr	r2, [r7, #4]
 306 0070 1A60     		str	r2, [r3]
 212:.\Generated_Source\PSoC4/I2C_1_I2C_MASTER.c ****         I2C_1_mstrRdBufPtr   = (volatile uint8 *) rdData;
 307              		.loc 1 212 0
 308 0072 264B     		ldr	r3, .L22+20
 309 0074 BA68     		ldr	r2, [r7, #8]
 310 0076 1A60     		str	r2, [r3]
 213:.\Generated_Source\PSoC4/I2C_1_I2C_MASTER.c ****         I2C_1_mstrControl    = (uint8) mode;
 311              		.loc 1 213 0
 312 0078 3B68     		ldr	r3, [r7]
 313 007a DAB2     		uxtb	r2, r3
 314 007c 244B     		ldr	r3, .L22+24
 315 007e 1A70     		strb	r2, [r3]
 214:.\Generated_Source\PSoC4/I2C_1_I2C_MASTER.c **** 
 215:.\Generated_Source\PSoC4/I2C_1_I2C_MASTER.c ****         slaveAddress = (I2C_1_GET_I2C_8BIT_ADDRESS(slaveAddress) | I2C_1_I2C_READ_FLAG);
 316              		.loc 1 215 0
 317 0080 FB68     		ldr	r3, [r7, #12]
 318 0082 5A00     		lsl	r2, r3, #1
 319 0084 FF23     		mov	r3, #255
 320 0086 1340     		and	r3, r2
 321 0088 0122     		mov	r2, #1
 322 008a 1343     		orr	r3, r2
 323 008c FB60     		str	r3, [r7, #12]
 216:.\Generated_Source\PSoC4/I2C_1_I2C_MASTER.c **** 
 217:.\Generated_Source\PSoC4/I2C_1_I2C_MASTER.c ****         I2C_1_mstrStatus &= (uint16) ~I2C_1_I2C_MSTAT_RD_CMPLT;
 324              		.loc 1 217 0
 325 008e 1C4B     		ldr	r3, .L22+8
 326 0090 1B88     		ldrh	r3, [r3]
 327 0092 9BB2     		uxth	r3, r3
 328 0094 0122     		mov	r2, #1
 329 0096 9343     		bic	r3, r2
 330 0098 9AB2     		uxth	r2, r3
 331 009a 194B     		ldr	r3, .L22+8
 332 009c 1A80     		strh	r2, [r3]
 218:.\Generated_Source\PSoC4/I2C_1_I2C_MASTER.c **** 
 219:.\Generated_Source\PSoC4/I2C_1_I2C_MASTER.c ****         I2C_1_ClearMasterInterruptSource(I2C_1_INTR_MASTER_ALL);
 333              		.loc 1 219 0
 334 009e 1D4B     		ldr	r3, .L22+28
 335 00a0 1D4A     		ldr	r2, .L22+32
 336 00a2 1A60     		str	r2, [r3]
 220:.\Generated_Source\PSoC4/I2C_1_I2C_MASTER.c **** 
 221:.\Generated_Source\PSoC4/I2C_1_I2C_MASTER.c ****         /* The TX and RX FIFO have to be EMPTY */
 222:.\Generated_Source\PSoC4/I2C_1_I2C_MASTER.c **** 
 223:.\Generated_Source\PSoC4/I2C_1_I2C_MASTER.c ****         /* Generate Start or ReStart */
 224:.\Generated_Source\PSoC4/I2C_1_I2C_MASTER.c ****         if(I2C_1_CHECK_I2C_MODE_RESTART(mode))
 337              		.loc 1 224 0
 338 00a4 3A68     		ldr	r2, [r7]
 339 00a6 0123     		mov	r3, #1
 340 00a8 1340     		and	r3, r2
 341 00aa 05D0     		beq	.L18
 225:.\Generated_Source\PSoC4/I2C_1_I2C_MASTER.c ****         {
 226:.\Generated_Source\PSoC4/I2C_1_I2C_MASTER.c ****             I2C_1_I2C_MASTER_GENERATE_RESTART;
 342              		.loc 1 226 0
 343 00ac FFF7FEFF 		bl	I2C_1_I2CReStartGeneration
 227:.\Generated_Source\PSoC4/I2C_1_I2C_MASTER.c ****             I2C_1_TX_FIFO_WR_REG = (slaveAddress);
ARM GAS  C:\Users\Eric\AppData\Local\Temp\ccfZjnId.s 			page 11


 344              		.loc 1 227 0
 345 00b0 1A4B     		ldr	r3, .L22+36
 346 00b2 FA68     		ldr	r2, [r7, #12]
 347 00b4 1A60     		str	r2, [r3]
 348 00b6 05E0     		b	.L19
 349              	.L18:
 228:.\Generated_Source\PSoC4/I2C_1_I2C_MASTER.c ****         }
 229:.\Generated_Source\PSoC4/I2C_1_I2C_MASTER.c ****         else
 230:.\Generated_Source\PSoC4/I2C_1_I2C_MASTER.c ****         {
 231:.\Generated_Source\PSoC4/I2C_1_I2C_MASTER.c ****             I2C_1_TX_FIFO_WR_REG = (slaveAddress);
 350              		.loc 1 231 0
 351 00b8 184B     		ldr	r3, .L22+36
 352 00ba FA68     		ldr	r2, [r7, #12]
 353 00bc 1A60     		str	r2, [r3]
 232:.\Generated_Source\PSoC4/I2C_1_I2C_MASTER.c ****             I2C_1_I2C_MASTER_GENERATE_START;
 354              		.loc 1 232 0
 355 00be 184B     		ldr	r3, .L22+40
 356 00c0 0222     		mov	r2, #2
 357 00c2 1A60     		str	r2, [r3]
 358              	.L19:
 233:.\Generated_Source\PSoC4/I2C_1_I2C_MASTER.c ****         }
 234:.\Generated_Source\PSoC4/I2C_1_I2C_MASTER.c **** 
 235:.\Generated_Source\PSoC4/I2C_1_I2C_MASTER.c ****         /* Prepare reading */
 236:.\Generated_Source\PSoC4/I2C_1_I2C_MASTER.c ****         if(I2C_1_mstrRdBufSize < I2C_1_I2C_FIFO_SIZE) /* Reading byte-by-byte */
 359              		.loc 1 236 0
 360 00c4 104B     		ldr	r3, .L22+16
 361 00c6 1B68     		ldr	r3, [r3]
 362 00c8 072B     		cmp	r3, #7
 363 00ca 03D8     		bhi	.L20
 237:.\Generated_Source\PSoC4/I2C_1_I2C_MASTER.c ****         {
 238:.\Generated_Source\PSoC4/I2C_1_I2C_MASTER.c ****             I2C_1_SetRxInterruptMode(I2C_1_INTR_RX_NOT_EMPTY);
 364              		.loc 1 238 0
 365 00cc 154B     		ldr	r3, .L22+44
 366 00ce 0422     		mov	r2, #4
 367 00d0 1A60     		str	r2, [r3]
 368 00d2 09E0     		b	.L17
 369              	.L20:
 239:.\Generated_Source\PSoC4/I2C_1_I2C_MASTER.c ****         }
 240:.\Generated_Source\PSoC4/I2C_1_I2C_MASTER.c ****         else /* Reading use RX FIFO */
 241:.\Generated_Source\PSoC4/I2C_1_I2C_MASTER.c ****         {
 242:.\Generated_Source\PSoC4/I2C_1_I2C_MASTER.c ****             I2C_1_ENABLE_MASTER_AUTO_DATA_ACK;
 370              		.loc 1 242 0
 371 00d4 144B     		ldr	r3, .L22+48
 372 00d6 144A     		ldr	r2, .L22+48
 373 00d8 1268     		ldr	r2, [r2]
 374 00da 8021     		mov	r1, #128
 375 00dc 4900     		lsl	r1, r1, #1
 376 00de 0A43     		orr	r2, r1
 377 00e0 1A60     		str	r2, [r3]
 243:.\Generated_Source\PSoC4/I2C_1_I2C_MASTER.c ****             I2C_1_SetRxInterruptMode(I2C_1_INTR_RX_FULL);
 378              		.loc 1 243 0
 379 00e2 104B     		ldr	r3, .L22+44
 380 00e4 0822     		mov	r2, #8
 381 00e6 1A60     		str	r2, [r3]
 382              	.L17:
 244:.\Generated_Source\PSoC4/I2C_1_I2C_MASTER.c ****         }
 245:.\Generated_Source\PSoC4/I2C_1_I2C_MASTER.c ****     }
ARM GAS  C:\Users\Eric\AppData\Local\Temp\ccfZjnId.s 			page 12


 246:.\Generated_Source\PSoC4/I2C_1_I2C_MASTER.c **** 
 247:.\Generated_Source\PSoC4/I2C_1_I2C_MASTER.c ****     I2C_1_EnableInt();
 383              		.loc 1 247 0
 384 00e8 0A20     		mov	r0, #10
 385 00ea FFF7FEFF 		bl	CyIntEnable
 248:.\Generated_Source\PSoC4/I2C_1_I2C_MASTER.c **** 
 249:.\Generated_Source\PSoC4/I2C_1_I2C_MASTER.c ****     return(errStatus);
 386              		.loc 1 249 0
 387 00ee 7B69     		ldr	r3, [r7, #20]
 250:.\Generated_Source\PSoC4/I2C_1_I2C_MASTER.c **** }
 388              		.loc 1 250 0
 389 00f0 181C     		mov	r0, r3
 390 00f2 BD46     		mov	sp, r7
 391 00f4 06B0     		add	sp, sp, #24
 392              		@ sp needed for prologue
 393 00f6 80BD     		pop	{r7, pc}
 394              	.L23:
 395              		.align	2
 396              	.L22:
 397 00f8 00000000 		.word	I2C_1_state
 398 00fc 64000640 		.word	1074135140
 399 0100 00000000 		.word	I2C_1_mstrStatus
 400 0104 00000000 		.word	I2C_1_mstrRdBufIndex
 401 0108 00000000 		.word	I2C_1_mstrRdBufSize
 402 010c 00000000 		.word	I2C_1_mstrRdBufPtr
 403 0110 00000000 		.word	I2C_1_mstrControl
 404 0114 000F0640 		.word	1074138880
 405 0118 17030000 		.word	791
 406 011c 40020640 		.word	1074135616
 407 0120 68000640 		.word	1074135144
 408 0124 C80F0640 		.word	1074139080
 409 0128 60000640 		.word	1074135136
 410              		.cfi_endproc
 411              	.LFE1:
 412              		.size	I2C_1_I2CMasterReadBuf, .-I2C_1_I2CMasterReadBuf
 413              		.section	.text.I2C_1_I2CMasterSendStart,"ax",%progbits
 414              		.align	2
 415              		.global	I2C_1_I2CMasterSendStart
 416              		.code	16
 417              		.thumb_func
 418              		.type	I2C_1_I2CMasterSendStart, %function
 419              	I2C_1_I2CMasterSendStart:
 420              	.LFB2:
 251:.\Generated_Source\PSoC4/I2C_1_I2C_MASTER.c **** 
 252:.\Generated_Source\PSoC4/I2C_1_I2C_MASTER.c **** 
 253:.\Generated_Source\PSoC4/I2C_1_I2C_MASTER.c **** /*******************************************************************************
 254:.\Generated_Source\PSoC4/I2C_1_I2C_MASTER.c **** * Function Name: I2C_1_I2CMasterSendStart
 255:.\Generated_Source\PSoC4/I2C_1_I2C_MASTER.c **** ********************************************************************************
 256:.\Generated_Source\PSoC4/I2C_1_I2C_MASTER.c **** *
 257:.\Generated_Source\PSoC4/I2C_1_I2C_MASTER.c **** * Summary:
 258:.\Generated_Source\PSoC4/I2C_1_I2C_MASTER.c **** *  Generates Start condition and sends slave address with read/write bit.
 259:.\Generated_Source\PSoC4/I2C_1_I2C_MASTER.c **** *  Disables the I2C interrupt.
 260:.\Generated_Source\PSoC4/I2C_1_I2C_MASTER.c **** *  This function is blocking and does not return until start condition and
 261:.\Generated_Source\PSoC4/I2C_1_I2C_MASTER.c **** *  address byte are sent and ACK/NACK response is received or errors occurred.
 262:.\Generated_Source\PSoC4/I2C_1_I2C_MASTER.c **** *
 263:.\Generated_Source\PSoC4/I2C_1_I2C_MASTER.c **** * Parameters:
 264:.\Generated_Source\PSoC4/I2C_1_I2C_MASTER.c **** *  slaveAddress: Right justified 7-bit Slave address (valid range 8 to 120).
ARM GAS  C:\Users\Eric\AppData\Local\Temp\ccfZjnId.s 			page 13


 265:.\Generated_Source\PSoC4/I2C_1_I2C_MASTER.c **** *  bitRnW:       Direction of the following transfer. It is defined by
 266:.\Generated_Source\PSoC4/I2C_1_I2C_MASTER.c **** *                read/write bit within address byte.
 267:.\Generated_Source\PSoC4/I2C_1_I2C_MASTER.c **** *
 268:.\Generated_Source\PSoC4/I2C_1_I2C_MASTER.c **** * Return:
 269:.\Generated_Source\PSoC4/I2C_1_I2C_MASTER.c **** *  Erorr status.
 270:.\Generated_Source\PSoC4/I2C_1_I2C_MASTER.c **** *
 271:.\Generated_Source\PSoC4/I2C_1_I2C_MASTER.c **** * Global variables:
 272:.\Generated_Source\PSoC4/I2C_1_I2C_MASTER.c **** *  I2C_1_state - used to store current state of software FSM.
 273:.\Generated_Source\PSoC4/I2C_1_I2C_MASTER.c **** *
 274:.\Generated_Source\PSoC4/I2C_1_I2C_MASTER.c **** *******************************************************************************/
 275:.\Generated_Source\PSoC4/I2C_1_I2C_MASTER.c **** uint32 I2C_1_I2CMasterSendStart(uint32 slaveAddress, uint32 bitRnW)
 276:.\Generated_Source\PSoC4/I2C_1_I2C_MASTER.c **** {
 421              		.loc 1 276 0
 422              		.cfi_startproc
 423 0000 80B5     		push	{r7, lr}
 424              	.LCFI6:
 425              		.cfi_def_cfa_offset 8
 426              		.cfi_offset 7, -8
 427              		.cfi_offset 14, -4
 428 0002 84B0     		sub	sp, sp, #16
 429              	.LCFI7:
 430              		.cfi_def_cfa_offset 24
 431 0004 00AF     		add	r7, sp, #0
 432              	.LCFI8:
 433              		.cfi_def_cfa_register 7
 434 0006 7860     		str	r0, [r7, #4]
 435 0008 3960     		str	r1, [r7]
 277:.\Generated_Source\PSoC4/I2C_1_I2C_MASTER.c ****     uint32  resetIp;
 278:.\Generated_Source\PSoC4/I2C_1_I2C_MASTER.c ****     uint32 errStatus;
 279:.\Generated_Source\PSoC4/I2C_1_I2C_MASTER.c **** 
 280:.\Generated_Source\PSoC4/I2C_1_I2C_MASTER.c ****     resetIp   = 0u;
 436              		.loc 1 280 0
 437 000a 0023     		mov	r3, #0
 438 000c FB60     		str	r3, [r7, #12]
 281:.\Generated_Source\PSoC4/I2C_1_I2C_MASTER.c ****     errStatus = I2C_1_I2C_MSTR_NOT_READY;
 439              		.loc 1 281 0
 440 000e 0423     		mov	r3, #4
 441 0010 BB60     		str	r3, [r7, #8]
 282:.\Generated_Source\PSoC4/I2C_1_I2C_MASTER.c **** 
 283:.\Generated_Source\PSoC4/I2C_1_I2C_MASTER.c ****     /* Check FSM state before generating Start condition */
 284:.\Generated_Source\PSoC4/I2C_1_I2C_MASTER.c ****     if(I2C_1_CHECK_I2C_FSM_IDLE)
 442              		.loc 1 284 0
 443 0012 374B     		ldr	r3, .L35
 444 0014 1B78     		ldrb	r3, [r3]
 445 0016 DBB2     		uxtb	r3, r3
 446 0018 102B     		cmp	r3, #16
 447 001a 64D1     		bne	.L25
 285:.\Generated_Source\PSoC4/I2C_1_I2C_MASTER.c ****     {
 286:.\Generated_Source\PSoC4/I2C_1_I2C_MASTER.c ****         /* If bus is free, generate Start condition */
 287:.\Generated_Source\PSoC4/I2C_1_I2C_MASTER.c ****         if(I2C_1_CHECK_I2C_STATUS(I2C_1_I2C_STATUS_BUS_BUSY))
 448              		.loc 1 287 0
 449 001c 354B     		ldr	r3, .L35+4
 450 001e 1A68     		ldr	r2, [r3]
 451 0020 0123     		mov	r3, #1
 452 0022 1340     		and	r3, r2
 453 0024 02D0     		beq	.L26
 288:.\Generated_Source\PSoC4/I2C_1_I2C_MASTER.c ****         {
ARM GAS  C:\Users\Eric\AppData\Local\Temp\ccfZjnId.s 			page 14


 289:.\Generated_Source\PSoC4/I2C_1_I2C_MASTER.c ****             errStatus = I2C_1_I2C_MSTR_BUS_BUSY;
 454              		.loc 1 289 0
 455 0026 0823     		mov	r3, #8
 456 0028 BB60     		str	r3, [r7, #8]
 457 002a 5CE0     		b	.L25
 458              	.L26:
 290:.\Generated_Source\PSoC4/I2C_1_I2C_MASTER.c ****         }
 291:.\Generated_Source\PSoC4/I2C_1_I2C_MASTER.c ****         else
 292:.\Generated_Source\PSoC4/I2C_1_I2C_MASTER.c ****         {
 293:.\Generated_Source\PSoC4/I2C_1_I2C_MASTER.c ****             I2C_1_DisableInt();
 459              		.loc 1 293 0
 460 002c 0A20     		mov	r0, #10
 461 002e FFF7FEFF 		bl	CyIntDisable
 294:.\Generated_Source\PSoC4/I2C_1_I2C_MASTER.c **** 
 295:.\Generated_Source\PSoC4/I2C_1_I2C_MASTER.c ****             slaveAddress = I2C_1_GET_I2C_8BIT_ADDRESS(slaveAddress);
 462              		.loc 1 295 0
 463 0032 7B68     		ldr	r3, [r7, #4]
 464 0034 5A00     		lsl	r2, r3, #1
 465 0036 FF23     		mov	r3, #255
 466 0038 1340     		and	r3, r2
 467 003a 7B60     		str	r3, [r7, #4]
 296:.\Generated_Source\PSoC4/I2C_1_I2C_MASTER.c **** 
 297:.\Generated_Source\PSoC4/I2C_1_I2C_MASTER.c ****             if(0u == bitRnW) /* Write direction */
 468              		.loc 1 297 0
 469 003c 3B68     		ldr	r3, [r7]
 470 003e 002B     		cmp	r3, #0
 471 0040 03D1     		bne	.L27
 298:.\Generated_Source\PSoC4/I2C_1_I2C_MASTER.c ****             {
 299:.\Generated_Source\PSoC4/I2C_1_I2C_MASTER.c ****                 I2C_1_state = I2C_1_I2C_FSM_MSTR_WR_DATA;
 472              		.loc 1 299 0
 473 0042 2B4B     		ldr	r3, .L35
 474 0044 2422     		mov	r2, #36
 475 0046 1A70     		strb	r2, [r3]
 476 0048 06E0     		b	.L28
 477              	.L27:
 300:.\Generated_Source\PSoC4/I2C_1_I2C_MASTER.c ****             }
 301:.\Generated_Source\PSoC4/I2C_1_I2C_MASTER.c ****             else /* Read direction */
 302:.\Generated_Source\PSoC4/I2C_1_I2C_MASTER.c ****             {
 303:.\Generated_Source\PSoC4/I2C_1_I2C_MASTER.c ****                 I2C_1_state = I2C_1_I2C_FSM_MSTR_RD_DATA;
 478              		.loc 1 303 0
 479 004a 294B     		ldr	r3, .L35
 480 004c 2522     		mov	r2, #37
 481 004e 1A70     		strb	r2, [r3]
 304:.\Generated_Source\PSoC4/I2C_1_I2C_MASTER.c ****                          slaveAddress |= I2C_1_I2C_READ_FLAG;
 482              		.loc 1 304 0
 483 0050 7B68     		ldr	r3, [r7, #4]
 484 0052 0122     		mov	r2, #1
 485 0054 1343     		orr	r3, r2
 486 0056 7B60     		str	r3, [r7, #4]
 487              	.L28:
 305:.\Generated_Source\PSoC4/I2C_1_I2C_MASTER.c ****             }
 306:.\Generated_Source\PSoC4/I2C_1_I2C_MASTER.c **** 
 307:.\Generated_Source\PSoC4/I2C_1_I2C_MASTER.c ****             /* The TX and RX FIFO have to be EMPTY */
 308:.\Generated_Source\PSoC4/I2C_1_I2C_MASTER.c **** 
 309:.\Generated_Source\PSoC4/I2C_1_I2C_MASTER.c ****             I2C_1_TX_FIFO_WR_REG = slaveAddress; /* Put address in TX FIFO */
 488              		.loc 1 309 0
 489 0058 274B     		ldr	r3, .L35+8
ARM GAS  C:\Users\Eric\AppData\Local\Temp\ccfZjnId.s 			page 15


 490 005a 7A68     		ldr	r2, [r7, #4]
 491 005c 1A60     		str	r2, [r3]
 310:.\Generated_Source\PSoC4/I2C_1_I2C_MASTER.c ****             I2C_1_ClearMasterInterruptSource(I2C_1_INTR_MASTER_ALL);
 492              		.loc 1 310 0
 493 005e 274B     		ldr	r3, .L35+12
 494 0060 274A     		ldr	r2, .L35+16
 495 0062 1A60     		str	r2, [r3]
 311:.\Generated_Source\PSoC4/I2C_1_I2C_MASTER.c **** 
 312:.\Generated_Source\PSoC4/I2C_1_I2C_MASTER.c ****             I2C_1_I2C_MASTER_GENERATE_START;
 496              		.loc 1 312 0
 497 0064 274B     		ldr	r3, .L35+20
 498 0066 0222     		mov	r2, #2
 499 0068 1A60     		str	r2, [r3]
 313:.\Generated_Source\PSoC4/I2C_1_I2C_MASTER.c **** 
 314:.\Generated_Source\PSoC4/I2C_1_I2C_MASTER.c **** 
 315:.\Generated_Source\PSoC4/I2C_1_I2C_MASTER.c ****             while(!I2C_1_CHECK_INTR_MASTER(I2C_1_INTR_MASTER_I2C_ACK      |
 500              		.loc 1 315 0
 501 006a C046     		mov	r8, r8
 502              	.L29:
 503              		.loc 1 315 0 is_stmt 0 discriminator 1
 504 006c 234B     		ldr	r3, .L35+12
 505 006e 1A68     		ldr	r2, [r3]
 506 0070 254B     		ldr	r3, .L35+24
 507 0072 1340     		and	r3, r2
 508 0074 FAD0     		beq	.L29
 316:.\Generated_Source\PSoC4/I2C_1_I2C_MASTER.c ****                                                       I2C_1_INTR_MASTER_I2C_NACK     |
 317:.\Generated_Source\PSoC4/I2C_1_I2C_MASTER.c ****                                                       I2C_1_INTR_MASTER_I2C_ARB_LOST |
 318:.\Generated_Source\PSoC4/I2C_1_I2C_MASTER.c ****                                                       I2C_1_INTR_MASTER_I2C_BUS_ERROR))
 319:.\Generated_Source\PSoC4/I2C_1_I2C_MASTER.c ****             {
 320:.\Generated_Source\PSoC4/I2C_1_I2C_MASTER.c ****                 /*
 321:.\Generated_Source\PSoC4/I2C_1_I2C_MASTER.c ****                 * Write: wait until address has been transferred
 322:.\Generated_Source\PSoC4/I2C_1_I2C_MASTER.c ****                 * Read : wait until address has been transferred, data byte is going to RX FIFO as 
 323:.\Generated_Source\PSoC4/I2C_1_I2C_MASTER.c ****                 */
 324:.\Generated_Source\PSoC4/I2C_1_I2C_MASTER.c ****             }
 325:.\Generated_Source\PSoC4/I2C_1_I2C_MASTER.c **** 
 326:.\Generated_Source\PSoC4/I2C_1_I2C_MASTER.c ****             /* Check the results of the address phase */
 327:.\Generated_Source\PSoC4/I2C_1_I2C_MASTER.c ****             if(I2C_1_CHECK_INTR_MASTER(I2C_1_INTR_MASTER_I2C_ACK))
 509              		.loc 1 327 0 is_stmt 1
 510 0076 214B     		ldr	r3, .L35+12
 511 0078 1A68     		ldr	r2, [r3]
 512 007a 0423     		mov	r3, #4
 513 007c 1340     		and	r3, r2
 514 007e 02D0     		beq	.L30
 328:.\Generated_Source\PSoC4/I2C_1_I2C_MASTER.c ****             {
 329:.\Generated_Source\PSoC4/I2C_1_I2C_MASTER.c ****                 errStatus = I2C_1_I2C_MSTR_NO_ERROR;
 515              		.loc 1 329 0
 516 0080 0023     		mov	r3, #0
 517 0082 BB60     		str	r3, [r7, #8]
 518 0084 1CE0     		b	.L31
 519              	.L30:
 330:.\Generated_Source\PSoC4/I2C_1_I2C_MASTER.c ****             }
 331:.\Generated_Source\PSoC4/I2C_1_I2C_MASTER.c ****             else if(I2C_1_CHECK_INTR_MASTER(I2C_1_INTR_MASTER_I2C_NACK))
 520              		.loc 1 331 0
 521 0086 1D4B     		ldr	r3, .L35+12
 522 0088 1A68     		ldr	r2, [r3]
 523 008a 0223     		mov	r3, #2
 524 008c 1340     		and	r3, r2
ARM GAS  C:\Users\Eric\AppData\Local\Temp\ccfZjnId.s 			page 16


 525 008e 02D0     		beq	.L32
 332:.\Generated_Source\PSoC4/I2C_1_I2C_MASTER.c ****             {
 333:.\Generated_Source\PSoC4/I2C_1_I2C_MASTER.c ****                 errStatus = I2C_1_I2C_MSTR_ERR_LB_NAK;
 526              		.loc 1 333 0
 527 0090 0223     		mov	r3, #2
 528 0092 BB60     		str	r3, [r7, #8]
 529 0094 14E0     		b	.L31
 530              	.L32:
 334:.\Generated_Source\PSoC4/I2C_1_I2C_MASTER.c ****             }
 335:.\Generated_Source\PSoC4/I2C_1_I2C_MASTER.c ****             else if(I2C_1_CHECK_INTR_MASTER(I2C_1_INTR_MASTER_I2C_ARB_LOST))
 531              		.loc 1 335 0
 532 0096 194B     		ldr	r3, .L35+12
 533 0098 1A68     		ldr	r2, [r3]
 534 009a 0123     		mov	r3, #1
 535 009c 1340     		and	r3, r2
 536 009e 07D0     		beq	.L33
 336:.\Generated_Source\PSoC4/I2C_1_I2C_MASTER.c ****             {
 337:.\Generated_Source\PSoC4/I2C_1_I2C_MASTER.c ****                 I2C_1_state = I2C_1_I2C_FSM_IDLE;
 537              		.loc 1 337 0
 538 00a0 134B     		ldr	r3, .L35
 539 00a2 1022     		mov	r2, #16
 540 00a4 1A70     		strb	r2, [r3]
 338:.\Generated_Source\PSoC4/I2C_1_I2C_MASTER.c ****                              errStatus = I2C_1_I2C_MSTR_ERR_ARB_LOST;
 541              		.loc 1 338 0
 542 00a6 0123     		mov	r3, #1
 543 00a8 BB60     		str	r3, [r7, #8]
 339:.\Generated_Source\PSoC4/I2C_1_I2C_MASTER.c ****                              resetIp   = I2C_1_I2C_RESET_ERROR;
 544              		.loc 1 339 0
 545 00aa 0123     		mov	r3, #1
 546 00ac FB60     		str	r3, [r7, #12]
 547 00ae 07E0     		b	.L31
 548              	.L33:
 340:.\Generated_Source\PSoC4/I2C_1_I2C_MASTER.c ****             }
 341:.\Generated_Source\PSoC4/I2C_1_I2C_MASTER.c ****             else /* I2C_1_INTR_MASTER_I2C_BUS_ERROR set is else condition */
 342:.\Generated_Source\PSoC4/I2C_1_I2C_MASTER.c ****             {
 343:.\Generated_Source\PSoC4/I2C_1_I2C_MASTER.c ****                 I2C_1_state = I2C_1_I2C_FSM_IDLE;
 549              		.loc 1 343 0
 550 00b0 0F4B     		ldr	r3, .L35
 551 00b2 1022     		mov	r2, #16
 552 00b4 1A70     		strb	r2, [r3]
 344:.\Generated_Source\PSoC4/I2C_1_I2C_MASTER.c ****                              errStatus = I2C_1_I2C_MSTR_ERR_BUS_ERR;
 553              		.loc 1 344 0
 554 00b6 8023     		mov	r3, #128
 555 00b8 5B00     		lsl	r3, r3, #1
 556 00ba BB60     		str	r3, [r7, #8]
 345:.\Generated_Source\PSoC4/I2C_1_I2C_MASTER.c ****                              resetIp   = I2C_1_I2C_RESET_ERROR;
 557              		.loc 1 345 0
 558 00bc 0123     		mov	r3, #1
 559 00be FB60     		str	r3, [r7, #12]
 560              	.L31:
 346:.\Generated_Source\PSoC4/I2C_1_I2C_MASTER.c ****             }
 347:.\Generated_Source\PSoC4/I2C_1_I2C_MASTER.c **** 
 348:.\Generated_Source\PSoC4/I2C_1_I2C_MASTER.c ****             I2C_1_ClearMasterInterruptSource(I2C_1_INTR_MASTER_I2C_ACK      |
 561              		.loc 1 348 0
 562 00c0 0E4B     		ldr	r3, .L35+12
 563 00c2 114A     		ldr	r2, .L35+24
 564 00c4 1A60     		str	r2, [r3]
ARM GAS  C:\Users\Eric\AppData\Local\Temp\ccfZjnId.s 			page 17


 349:.\Generated_Source\PSoC4/I2C_1_I2C_MASTER.c ****                                                         I2C_1_INTR_MASTER_I2C_NACK     |
 350:.\Generated_Source\PSoC4/I2C_1_I2C_MASTER.c ****                                                         I2C_1_INTR_MASTER_I2C_ARB_LOST |
 351:.\Generated_Source\PSoC4/I2C_1_I2C_MASTER.c ****                                                         I2C_1_INTR_MASTER_I2C_BUS_ERROR);
 352:.\Generated_Source\PSoC4/I2C_1_I2C_MASTER.c **** 
 353:.\Generated_Source\PSoC4/I2C_1_I2C_MASTER.c ****             /* Reset block in case of: LOST_ARB or BUS_ERR */
 354:.\Generated_Source\PSoC4/I2C_1_I2C_MASTER.c ****             if(0u != resetIp)
 565              		.loc 1 354 0
 566 00c6 FB68     		ldr	r3, [r7, #12]
 567 00c8 002B     		cmp	r3, #0
 568 00ca 0CD0     		beq	.L25
 355:.\Generated_Source\PSoC4/I2C_1_I2C_MASTER.c ****             {
 356:.\Generated_Source\PSoC4/I2C_1_I2C_MASTER.c ****                 I2C_1_SCB_SW_RESET;
 569              		.loc 1 356 0
 570 00cc 0F4B     		ldr	r3, .L35+28
 571 00ce 0F4A     		ldr	r2, .L35+28
 572 00d0 1268     		ldr	r2, [r2]
 573 00d2 5200     		lsl	r2, r2, #1
 574 00d4 5208     		lsr	r2, r2, #1
 575 00d6 1A60     		str	r2, [r3]
 576 00d8 0C4B     		ldr	r3, .L35+28
 577 00da 0C4A     		ldr	r2, .L35+28
 578 00dc 1268     		ldr	r2, [r2]
 579 00de 8021     		mov	r1, #128
 580 00e0 0906     		lsl	r1, r1, #24
 581 00e2 0A43     		orr	r2, r1
 582 00e4 1A60     		str	r2, [r3]
 583              	.L25:
 357:.\Generated_Source\PSoC4/I2C_1_I2C_MASTER.c ****             }
 358:.\Generated_Source\PSoC4/I2C_1_I2C_MASTER.c ****         }
 359:.\Generated_Source\PSoC4/I2C_1_I2C_MASTER.c ****     }
 360:.\Generated_Source\PSoC4/I2C_1_I2C_MASTER.c **** 
 361:.\Generated_Source\PSoC4/I2C_1_I2C_MASTER.c ****     return(errStatus);
 584              		.loc 1 361 0
 585 00e6 BB68     		ldr	r3, [r7, #8]
 362:.\Generated_Source\PSoC4/I2C_1_I2C_MASTER.c **** }
 586              		.loc 1 362 0
 587 00e8 181C     		mov	r0, r3
 588 00ea BD46     		mov	sp, r7
 589 00ec 04B0     		add	sp, sp, #16
 590              		@ sp needed for prologue
 591 00ee 80BD     		pop	{r7, pc}
 592              	.L36:
 593              		.align	2
 594              	.L35:
 595 00f0 00000000 		.word	I2C_1_state
 596 00f4 64000640 		.word	1074135140
 597 00f8 40020640 		.word	1074135616
 598 00fc 000F0640 		.word	1074138880
 599 0100 17030000 		.word	791
 600 0104 68000640 		.word	1074135144
 601 0108 07010000 		.word	263
 602 010c 00000640 		.word	1074135040
 603              		.cfi_endproc
 604              	.LFE2:
 605              		.size	I2C_1_I2CMasterSendStart, .-I2C_1_I2CMasterSendStart
 606              		.section	.text.I2C_1_I2CMasterSendRestart,"ax",%progbits
 607              		.align	2
ARM GAS  C:\Users\Eric\AppData\Local\Temp\ccfZjnId.s 			page 18


 608              		.global	I2C_1_I2CMasterSendRestart
 609              		.code	16
 610              		.thumb_func
 611              		.type	I2C_1_I2CMasterSendRestart, %function
 612              	I2C_1_I2CMasterSendRestart:
 613              	.LFB3:
 363:.\Generated_Source\PSoC4/I2C_1_I2C_MASTER.c **** 
 364:.\Generated_Source\PSoC4/I2C_1_I2C_MASTER.c **** 
 365:.\Generated_Source\PSoC4/I2C_1_I2C_MASTER.c **** /*******************************************************************************
 366:.\Generated_Source\PSoC4/I2C_1_I2C_MASTER.c **** * Function Name: I2C_1_I2CMasterSendRestart
 367:.\Generated_Source\PSoC4/I2C_1_I2C_MASTER.c **** ********************************************************************************
 368:.\Generated_Source\PSoC4/I2C_1_I2C_MASTER.c **** *
 369:.\Generated_Source\PSoC4/I2C_1_I2C_MASTER.c **** * Summary:
 370:.\Generated_Source\PSoC4/I2C_1_I2C_MASTER.c **** *  Generates Restart condition and sends slave address with read/write bit.
 371:.\Generated_Source\PSoC4/I2C_1_I2C_MASTER.c **** *  This function is blocking and does not return until start condition and
 372:.\Generated_Source\PSoC4/I2C_1_I2C_MASTER.c **** *  address are sent and ACK/NACK response is received or errors occurred.
 373:.\Generated_Source\PSoC4/I2C_1_I2C_MASTER.c **** *
 374:.\Generated_Source\PSoC4/I2C_1_I2C_MASTER.c **** * Parameters:
 375:.\Generated_Source\PSoC4/I2C_1_I2C_MASTER.c **** *  slaveAddress: Right justified 7-bit Slave address (valid range 8 to 120).
 376:.\Generated_Source\PSoC4/I2C_1_I2C_MASTER.c **** *  bitRnW:       Direction of the following transfer. It is defined by
 377:.\Generated_Source\PSoC4/I2C_1_I2C_MASTER.c **** *                read/write bit within address byte.
 378:.\Generated_Source\PSoC4/I2C_1_I2C_MASTER.c **** *
 379:.\Generated_Source\PSoC4/I2C_1_I2C_MASTER.c **** * Return:
 380:.\Generated_Source\PSoC4/I2C_1_I2C_MASTER.c **** *  Error status
 381:.\Generated_Source\PSoC4/I2C_1_I2C_MASTER.c **** *
 382:.\Generated_Source\PSoC4/I2C_1_I2C_MASTER.c **** *
 383:.\Generated_Source\PSoC4/I2C_1_I2C_MASTER.c **** * Global variables:
 384:.\Generated_Source\PSoC4/I2C_1_I2C_MASTER.c **** *  I2C_1_state - used to store current state of software FSM.
 385:.\Generated_Source\PSoC4/I2C_1_I2C_MASTER.c **** *
 386:.\Generated_Source\PSoC4/I2C_1_I2C_MASTER.c **** *******************************************************************************/
 387:.\Generated_Source\PSoC4/I2C_1_I2C_MASTER.c **** uint32 I2C_1_I2CMasterSendRestart(uint32 slaveAddress, uint32 bitRnW)
 388:.\Generated_Source\PSoC4/I2C_1_I2C_MASTER.c **** {
 614              		.loc 1 388 0
 615              		.cfi_startproc
 616 0000 80B5     		push	{r7, lr}
 617              	.LCFI9:
 618              		.cfi_def_cfa_offset 8
 619              		.cfi_offset 7, -8
 620              		.cfi_offset 14, -4
 621 0002 84B0     		sub	sp, sp, #16
 622              	.LCFI10:
 623              		.cfi_def_cfa_offset 24
 624 0004 00AF     		add	r7, sp, #0
 625              	.LCFI11:
 626              		.cfi_def_cfa_register 7
 627 0006 7860     		str	r0, [r7, #4]
 628 0008 3960     		str	r1, [r7]
 389:.\Generated_Source\PSoC4/I2C_1_I2C_MASTER.c ****     uint32 resetIp;
 390:.\Generated_Source\PSoC4/I2C_1_I2C_MASTER.c ****     uint32 errStatus;
 391:.\Generated_Source\PSoC4/I2C_1_I2C_MASTER.c **** 
 392:.\Generated_Source\PSoC4/I2C_1_I2C_MASTER.c ****     resetIp   = 0u;
 629              		.loc 1 392 0
 630 000a 0023     		mov	r3, #0
 631 000c FB60     		str	r3, [r7, #12]
 393:.\Generated_Source\PSoC4/I2C_1_I2C_MASTER.c ****     errStatus = I2C_1_I2C_MSTR_NOT_READY;
 632              		.loc 1 393 0
 633 000e 0423     		mov	r3, #4
ARM GAS  C:\Users\Eric\AppData\Local\Temp\ccfZjnId.s 			page 19


 634 0010 BB60     		str	r3, [r7, #8]
 394:.\Generated_Source\PSoC4/I2C_1_I2C_MASTER.c **** 
 395:.\Generated_Source\PSoC4/I2C_1_I2C_MASTER.c ****     /* Check FSM state before generating ReStart condition */
 396:.\Generated_Source\PSoC4/I2C_1_I2C_MASTER.c ****     if(I2C_1_CHECK_I2C_MASTER_ACTIVE)
 635              		.loc 1 396 0
 636 0012 364B     		ldr	r3, .L48
 637 0014 1B78     		ldrb	r3, [r3]
 638 0016 DAB2     		uxtb	r2, r3
 639 0018 2023     		mov	r3, #32
 640 001a 1340     		and	r3, r2
 641 001c DBB2     		uxtb	r3, r3
 642 001e 002B     		cmp	r3, #0
 643 0020 5ED0     		beq	.L38
 397:.\Generated_Source\PSoC4/I2C_1_I2C_MASTER.c ****     {
 398:.\Generated_Source\PSoC4/I2C_1_I2C_MASTER.c ****         slaveAddress = I2C_1_GET_I2C_8BIT_ADDRESS(slaveAddress);
 644              		.loc 1 398 0
 645 0022 7B68     		ldr	r3, [r7, #4]
 646 0024 5A00     		lsl	r2, r3, #1
 647 0026 FF23     		mov	r3, #255
 648 0028 1340     		and	r3, r2
 649 002a 7B60     		str	r3, [r7, #4]
 399:.\Generated_Source\PSoC4/I2C_1_I2C_MASTER.c **** 
 400:.\Generated_Source\PSoC4/I2C_1_I2C_MASTER.c ****         if(0u == bitRnW) /* Write direction */
 650              		.loc 1 400 0
 651 002c 3B68     		ldr	r3, [r7]
 652 002e 002B     		cmp	r3, #0
 653 0030 03D1     		bne	.L39
 401:.\Generated_Source\PSoC4/I2C_1_I2C_MASTER.c ****         {
 402:.\Generated_Source\PSoC4/I2C_1_I2C_MASTER.c ****             I2C_1_state = I2C_1_I2C_FSM_MSTR_WR_DATA;
 654              		.loc 1 402 0
 655 0032 2E4B     		ldr	r3, .L48
 656 0034 2422     		mov	r2, #36
 657 0036 1A70     		strb	r2, [r3]
 658 0038 06E0     		b	.L40
 659              	.L39:
 403:.\Generated_Source\PSoC4/I2C_1_I2C_MASTER.c ****         }
 404:.\Generated_Source\PSoC4/I2C_1_I2C_MASTER.c ****         else  /* Read direction */
 405:.\Generated_Source\PSoC4/I2C_1_I2C_MASTER.c ****         {
 406:.\Generated_Source\PSoC4/I2C_1_I2C_MASTER.c ****             I2C_1_state  = I2C_1_I2C_FSM_MSTR_RD_DATA;
 660              		.loc 1 406 0
 661 003a 2C4B     		ldr	r3, .L48
 662 003c 2522     		mov	r2, #37
 663 003e 1A70     		strb	r2, [r3]
 407:.\Generated_Source\PSoC4/I2C_1_I2C_MASTER.c ****                       slaveAddress |= I2C_1_I2C_READ_FLAG;
 664              		.loc 1 407 0
 665 0040 7B68     		ldr	r3, [r7, #4]
 666 0042 0122     		mov	r2, #1
 667 0044 1343     		orr	r3, r2
 668 0046 7B60     		str	r3, [r7, #4]
 669              	.L40:
 408:.\Generated_Source\PSoC4/I2C_1_I2C_MASTER.c ****         }
 409:.\Generated_Source\PSoC4/I2C_1_I2C_MASTER.c **** 
 410:.\Generated_Source\PSoC4/I2C_1_I2C_MASTER.c ****         /* The TX and RX FIFO have to be EMPTY */
 411:.\Generated_Source\PSoC4/I2C_1_I2C_MASTER.c **** 
 412:.\Generated_Source\PSoC4/I2C_1_I2C_MASTER.c ****         /* Clean-up interrupt status */
 413:.\Generated_Source\PSoC4/I2C_1_I2C_MASTER.c ****         I2C_1_ClearMasterInterruptSource(I2C_1_INTR_MASTER_ALL);
 670              		.loc 1 413 0
ARM GAS  C:\Users\Eric\AppData\Local\Temp\ccfZjnId.s 			page 20


 671 0048 294B     		ldr	r3, .L48+4
 672 004a 2A4A     		ldr	r2, .L48+8
 673 004c 1A60     		str	r2, [r3]
 414:.\Generated_Source\PSoC4/I2C_1_I2C_MASTER.c **** 
 415:.\Generated_Source\PSoC4/I2C_1_I2C_MASTER.c ****         /* Proper ReStart sequence is: generate ReStart then put address byte in the TX FIFO.
 416:.\Generated_Source\PSoC4/I2C_1_I2C_MASTER.c ****         * Otherwise master treats address in the TX FIFO as data byte if previous transfer is write
 417:.\Generated_Source\PSoC4/I2C_1_I2C_MASTER.c ****         * The write transfer continue instead of ReStart.
 418:.\Generated_Source\PSoC4/I2C_1_I2C_MASTER.c ****         */
 419:.\Generated_Source\PSoC4/I2C_1_I2C_MASTER.c ****         I2C_1_I2C_MASTER_GENERATE_RESTART;
 674              		.loc 1 419 0
 675 004e FFF7FEFF 		bl	I2C_1_I2CReStartGeneration
 420:.\Generated_Source\PSoC4/I2C_1_I2C_MASTER.c **** 
 421:.\Generated_Source\PSoC4/I2C_1_I2C_MASTER.c ****         while(I2C_1_CHECK_I2C_MASTER_CMD(I2C_1_I2C_MASTER_CMD_M_START))
 676              		.loc 1 421 0
 677 0052 C046     		mov	r8, r8
 678              	.L41:
 679              		.loc 1 421 0 is_stmt 0 discriminator 1
 680 0054 284B     		ldr	r3, .L48+12
 681 0056 1A68     		ldr	r2, [r3]
 682 0058 0123     		mov	r3, #1
 683 005a 1340     		and	r3, r2
 684 005c FAD1     		bne	.L41
 422:.\Generated_Source\PSoC4/I2C_1_I2C_MASTER.c ****         {
 423:.\Generated_Source\PSoC4/I2C_1_I2C_MASTER.c ****             /* Wait until ReStart has been generated */
 424:.\Generated_Source\PSoC4/I2C_1_I2C_MASTER.c ****         }
 425:.\Generated_Source\PSoC4/I2C_1_I2C_MASTER.c **** 
 426:.\Generated_Source\PSoC4/I2C_1_I2C_MASTER.c ****         /* Put address into TX FIFO */
 427:.\Generated_Source\PSoC4/I2C_1_I2C_MASTER.c ****         I2C_1_TX_FIFO_WR_REG = slaveAddress;
 685              		.loc 1 427 0 is_stmt 1
 686 005e 274B     		ldr	r3, .L48+16
 687 0060 7A68     		ldr	r2, [r7, #4]
 688 0062 1A60     		str	r2, [r3]
 428:.\Generated_Source\PSoC4/I2C_1_I2C_MASTER.c **** 
 429:.\Generated_Source\PSoC4/I2C_1_I2C_MASTER.c ****         /* Wait for address to be transferred */
 430:.\Generated_Source\PSoC4/I2C_1_I2C_MASTER.c ****         while(!I2C_1_CHECK_INTR_MASTER(I2C_1_INTR_MASTER_I2C_ACK      |
 689              		.loc 1 430 0
 690 0064 C046     		mov	r8, r8
 691              	.L42:
 692              		.loc 1 430 0 is_stmt 0 discriminator 1
 693 0066 224B     		ldr	r3, .L48+4
 694 0068 1A68     		ldr	r2, [r3]
 695 006a 254B     		ldr	r3, .L48+20
 696 006c 1340     		and	r3, r2
 697 006e FAD0     		beq	.L42
 431:.\Generated_Source\PSoC4/I2C_1_I2C_MASTER.c ****                                                   I2C_1_INTR_MASTER_I2C_NACK     |
 432:.\Generated_Source\PSoC4/I2C_1_I2C_MASTER.c ****                                                   I2C_1_INTR_MASTER_I2C_ARB_LOST |
 433:.\Generated_Source\PSoC4/I2C_1_I2C_MASTER.c ****                                                   I2C_1_INTR_MASTER_I2C_BUS_ERROR))
 434:.\Generated_Source\PSoC4/I2C_1_I2C_MASTER.c ****         {
 435:.\Generated_Source\PSoC4/I2C_1_I2C_MASTER.c ****             /* Wait until address has been transferred */
 436:.\Generated_Source\PSoC4/I2C_1_I2C_MASTER.c ****         }
 437:.\Generated_Source\PSoC4/I2C_1_I2C_MASTER.c **** 
 438:.\Generated_Source\PSoC4/I2C_1_I2C_MASTER.c ****         /* Check results of address phase */
 439:.\Generated_Source\PSoC4/I2C_1_I2C_MASTER.c ****         if(I2C_1_CHECK_INTR_MASTER(I2C_1_INTR_MASTER_I2C_ACK))
 698              		.loc 1 439 0 is_stmt 1
 699 0070 1F4B     		ldr	r3, .L48+4
 700 0072 1A68     		ldr	r2, [r3]
 701 0074 0423     		mov	r3, #4
ARM GAS  C:\Users\Eric\AppData\Local\Temp\ccfZjnId.s 			page 21


 702 0076 1340     		and	r3, r2
 703 0078 02D0     		beq	.L43
 440:.\Generated_Source\PSoC4/I2C_1_I2C_MASTER.c ****         {
 441:.\Generated_Source\PSoC4/I2C_1_I2C_MASTER.c ****             errStatus = I2C_1_I2C_MSTR_NO_ERROR;
 704              		.loc 1 441 0
 705 007a 0023     		mov	r3, #0
 706 007c BB60     		str	r3, [r7, #8]
 707 007e 1CE0     		b	.L44
 708              	.L43:
 442:.\Generated_Source\PSoC4/I2C_1_I2C_MASTER.c ****         }
 443:.\Generated_Source\PSoC4/I2C_1_I2C_MASTER.c ****         else if(I2C_1_CHECK_INTR_MASTER(I2C_1_INTR_MASTER_I2C_NACK))
 709              		.loc 1 443 0
 710 0080 1B4B     		ldr	r3, .L48+4
 711 0082 1A68     		ldr	r2, [r3]
 712 0084 0223     		mov	r3, #2
 713 0086 1340     		and	r3, r2
 714 0088 02D0     		beq	.L45
 444:.\Generated_Source\PSoC4/I2C_1_I2C_MASTER.c ****         {
 445:.\Generated_Source\PSoC4/I2C_1_I2C_MASTER.c ****              errStatus = I2C_1_I2C_MSTR_ERR_LB_NAK;
 715              		.loc 1 445 0
 716 008a 0223     		mov	r3, #2
 717 008c BB60     		str	r3, [r7, #8]
 718 008e 14E0     		b	.L44
 719              	.L45:
 446:.\Generated_Source\PSoC4/I2C_1_I2C_MASTER.c ****         }
 447:.\Generated_Source\PSoC4/I2C_1_I2C_MASTER.c ****         else if(I2C_1_CHECK_INTR_MASTER(I2C_1_INTR_MASTER_I2C_ARB_LOST))
 720              		.loc 1 447 0
 721 0090 174B     		ldr	r3, .L48+4
 722 0092 1A68     		ldr	r2, [r3]
 723 0094 0123     		mov	r3, #1
 724 0096 1340     		and	r3, r2
 725 0098 07D0     		beq	.L46
 448:.\Generated_Source\PSoC4/I2C_1_I2C_MASTER.c ****         {
 449:.\Generated_Source\PSoC4/I2C_1_I2C_MASTER.c ****             I2C_1_state = I2C_1_I2C_FSM_IDLE;
 726              		.loc 1 449 0
 727 009a 144B     		ldr	r3, .L48
 728 009c 1022     		mov	r2, #16
 729 009e 1A70     		strb	r2, [r3]
 450:.\Generated_Source\PSoC4/I2C_1_I2C_MASTER.c ****                          errStatus = I2C_1_I2C_MSTR_ERR_ARB_LOST;
 730              		.loc 1 450 0
 731 00a0 0123     		mov	r3, #1
 732 00a2 BB60     		str	r3, [r7, #8]
 451:.\Generated_Source\PSoC4/I2C_1_I2C_MASTER.c ****                          resetIp   = I2C_1_I2C_RESET_ERROR;
 733              		.loc 1 451 0
 734 00a4 0123     		mov	r3, #1
 735 00a6 FB60     		str	r3, [r7, #12]
 736 00a8 07E0     		b	.L44
 737              	.L46:
 452:.\Generated_Source\PSoC4/I2C_1_I2C_MASTER.c ****         }
 453:.\Generated_Source\PSoC4/I2C_1_I2C_MASTER.c ****         else /* I2C_1_INTR_MASTER_I2C_BUS_ERROR set is else condition */
 454:.\Generated_Source\PSoC4/I2C_1_I2C_MASTER.c ****         {
 455:.\Generated_Source\PSoC4/I2C_1_I2C_MASTER.c ****             I2C_1_state = I2C_1_I2C_FSM_IDLE;
 738              		.loc 1 455 0
 739 00aa 104B     		ldr	r3, .L48
 740 00ac 1022     		mov	r2, #16
 741 00ae 1A70     		strb	r2, [r3]
 456:.\Generated_Source\PSoC4/I2C_1_I2C_MASTER.c ****                          errStatus = I2C_1_I2C_MSTR_ERR_BUS_ERR;
ARM GAS  C:\Users\Eric\AppData\Local\Temp\ccfZjnId.s 			page 22


 742              		.loc 1 456 0
 743 00b0 8023     		mov	r3, #128
 744 00b2 5B00     		lsl	r3, r3, #1
 745 00b4 BB60     		str	r3, [r7, #8]
 457:.\Generated_Source\PSoC4/I2C_1_I2C_MASTER.c ****                          resetIp   = I2C_1_I2C_RESET_ERROR;
 746              		.loc 1 457 0
 747 00b6 0123     		mov	r3, #1
 748 00b8 FB60     		str	r3, [r7, #12]
 749              	.L44:
 458:.\Generated_Source\PSoC4/I2C_1_I2C_MASTER.c ****         }
 459:.\Generated_Source\PSoC4/I2C_1_I2C_MASTER.c **** 
 460:.\Generated_Source\PSoC4/I2C_1_I2C_MASTER.c ****         I2C_1_ClearMasterInterruptSource(I2C_1_INTR_MASTER_I2C_ACK      |
 750              		.loc 1 460 0
 751 00ba 0D4B     		ldr	r3, .L48+4
 752 00bc 104A     		ldr	r2, .L48+20
 753 00be 1A60     		str	r2, [r3]
 461:.\Generated_Source\PSoC4/I2C_1_I2C_MASTER.c ****                                                     I2C_1_INTR_MASTER_I2C_NACK     |
 462:.\Generated_Source\PSoC4/I2C_1_I2C_MASTER.c ****                                                     I2C_1_INTR_MASTER_I2C_ARB_LOST |
 463:.\Generated_Source\PSoC4/I2C_1_I2C_MASTER.c ****                                                     I2C_1_INTR_MASTER_I2C_BUS_ERROR);
 464:.\Generated_Source\PSoC4/I2C_1_I2C_MASTER.c **** 
 465:.\Generated_Source\PSoC4/I2C_1_I2C_MASTER.c ****         /* Reset block in case of: LOST_ARB or BUS_ERR */
 466:.\Generated_Source\PSoC4/I2C_1_I2C_MASTER.c ****         if(0u != resetIp)
 754              		.loc 1 466 0
 755 00c0 FB68     		ldr	r3, [r7, #12]
 756 00c2 002B     		cmp	r3, #0
 757 00c4 0CD0     		beq	.L38
 467:.\Generated_Source\PSoC4/I2C_1_I2C_MASTER.c ****         {
 468:.\Generated_Source\PSoC4/I2C_1_I2C_MASTER.c ****             I2C_1_SCB_SW_RESET;
 758              		.loc 1 468 0
 759 00c6 0F4B     		ldr	r3, .L48+24
 760 00c8 0E4A     		ldr	r2, .L48+24
 761 00ca 1268     		ldr	r2, [r2]
 762 00cc 5200     		lsl	r2, r2, #1
 763 00ce 5208     		lsr	r2, r2, #1
 764 00d0 1A60     		str	r2, [r3]
 765 00d2 0C4B     		ldr	r3, .L48+24
 766 00d4 0B4A     		ldr	r2, .L48+24
 767 00d6 1268     		ldr	r2, [r2]
 768 00d8 8021     		mov	r1, #128
 769 00da 0906     		lsl	r1, r1, #24
 770 00dc 0A43     		orr	r2, r1
 771 00de 1A60     		str	r2, [r3]
 772              	.L38:
 469:.\Generated_Source\PSoC4/I2C_1_I2C_MASTER.c ****         }
 470:.\Generated_Source\PSoC4/I2C_1_I2C_MASTER.c ****     }
 471:.\Generated_Source\PSoC4/I2C_1_I2C_MASTER.c **** 
 472:.\Generated_Source\PSoC4/I2C_1_I2C_MASTER.c ****     return(errStatus);
 773              		.loc 1 472 0
 774 00e0 BB68     		ldr	r3, [r7, #8]
 473:.\Generated_Source\PSoC4/I2C_1_I2C_MASTER.c **** }
 775              		.loc 1 473 0
 776 00e2 181C     		mov	r0, r3
 777 00e4 BD46     		mov	sp, r7
 778 00e6 04B0     		add	sp, sp, #16
 779              		@ sp needed for prologue
 780 00e8 80BD     		pop	{r7, pc}
 781              	.L49:
ARM GAS  C:\Users\Eric\AppData\Local\Temp\ccfZjnId.s 			page 23


 782 00ea C046     		.align	2
 783              	.L48:
 784 00ec 00000000 		.word	I2C_1_state
 785 00f0 000F0640 		.word	1074138880
 786 00f4 17030000 		.word	791
 787 00f8 68000640 		.word	1074135144
 788 00fc 40020640 		.word	1074135616
 789 0100 07010000 		.word	263
 790 0104 00000640 		.word	1074135040
 791              		.cfi_endproc
 792              	.LFE3:
 793              		.size	I2C_1_I2CMasterSendRestart, .-I2C_1_I2CMasterSendRestart
 794              		.section	.text.I2C_1_I2CMasterSendStop,"ax",%progbits
 795              		.align	2
 796              		.global	I2C_1_I2CMasterSendStop
 797              		.code	16
 798              		.thumb_func
 799              		.type	I2C_1_I2CMasterSendStop, %function
 800              	I2C_1_I2CMasterSendStop:
 801              	.LFB4:
 474:.\Generated_Source\PSoC4/I2C_1_I2C_MASTER.c **** 
 475:.\Generated_Source\PSoC4/I2C_1_I2C_MASTER.c **** 
 476:.\Generated_Source\PSoC4/I2C_1_I2C_MASTER.c **** /*******************************************************************************
 477:.\Generated_Source\PSoC4/I2C_1_I2C_MASTER.c **** * Function Name: I2C_1_I2CMasterSendStop
 478:.\Generated_Source\PSoC4/I2C_1_I2C_MASTER.c **** ********************************************************************************
 479:.\Generated_Source\PSoC4/I2C_1_I2C_MASTER.c **** *
 480:.\Generated_Source\PSoC4/I2C_1_I2C_MASTER.c **** * Summary:
 481:.\Generated_Source\PSoC4/I2C_1_I2C_MASTER.c **** *  Generates Stop condition on the bus.
 482:.\Generated_Source\PSoC4/I2C_1_I2C_MASTER.c **** *  At least one byte has to be read if start or restart condition with read
 483:.\Generated_Source\PSoC4/I2C_1_I2C_MASTER.c **** *  direction was generated before.
 484:.\Generated_Source\PSoC4/I2C_1_I2C_MASTER.c **** *  This function is blocking and does not return until a stop condition
 485:.\Generated_Source\PSoC4/I2C_1_I2C_MASTER.c **** *  is generated or error occurred.
 486:.\Generated_Source\PSoC4/I2C_1_I2C_MASTER.c **** *
 487:.\Generated_Source\PSoC4/I2C_1_I2C_MASTER.c **** * Parameters:
 488:.\Generated_Source\PSoC4/I2C_1_I2C_MASTER.c **** *  None
 489:.\Generated_Source\PSoC4/I2C_1_I2C_MASTER.c **** *
 490:.\Generated_Source\PSoC4/I2C_1_I2C_MASTER.c **** * Return:
 491:.\Generated_Source\PSoC4/I2C_1_I2C_MASTER.c **** *  Error status
 492:.\Generated_Source\PSoC4/I2C_1_I2C_MASTER.c **** *
 493:.\Generated_Source\PSoC4/I2C_1_I2C_MASTER.c **** * Side Effects:
 494:.\Generated_Source\PSoC4/I2C_1_I2C_MASTER.c **** *  A valid Start or ReStart condition must be generated before calling
 495:.\Generated_Source\PSoC4/I2C_1_I2C_MASTER.c **** *  this function. This function does nothing if Start or ReStart condition
 496:.\Generated_Source\PSoC4/I2C_1_I2C_MASTER.c **** *  failed before this function was called.
 497:.\Generated_Source\PSoC4/I2C_1_I2C_MASTER.c **** *  For read transfer, at least one byte has to be read before Stop generation.
 498:.\Generated_Source\PSoC4/I2C_1_I2C_MASTER.c **** *
 499:.\Generated_Source\PSoC4/I2C_1_I2C_MASTER.c **** * Global variables:
 500:.\Generated_Source\PSoC4/I2C_1_I2C_MASTER.c **** *  I2C_1_state - used to store current state of software FSM.
 501:.\Generated_Source\PSoC4/I2C_1_I2C_MASTER.c **** *
 502:.\Generated_Source\PSoC4/I2C_1_I2C_MASTER.c **** *******************************************************************************/
 503:.\Generated_Source\PSoC4/I2C_1_I2C_MASTER.c **** uint32 I2C_1_I2CMasterSendStop(void)
 504:.\Generated_Source\PSoC4/I2C_1_I2C_MASTER.c **** {
 802              		.loc 1 504 0
 803              		.cfi_startproc
 804 0000 80B5     		push	{r7, lr}
 805              	.LCFI12:
 806              		.cfi_def_cfa_offset 8
 807              		.cfi_offset 7, -8
ARM GAS  C:\Users\Eric\AppData\Local\Temp\ccfZjnId.s 			page 24


 808              		.cfi_offset 14, -4
 809 0002 82B0     		sub	sp, sp, #8
 810              	.LCFI13:
 811              		.cfi_def_cfa_offset 16
 812 0004 00AF     		add	r7, sp, #0
 813              	.LCFI14:
 814              		.cfi_def_cfa_register 7
 505:.\Generated_Source\PSoC4/I2C_1_I2C_MASTER.c ****     uint32 resetIp;
 506:.\Generated_Source\PSoC4/I2C_1_I2C_MASTER.c ****     uint32 errStatus;
 507:.\Generated_Source\PSoC4/I2C_1_I2C_MASTER.c **** 
 508:.\Generated_Source\PSoC4/I2C_1_I2C_MASTER.c ****     resetIp   = 0u;
 815              		.loc 1 508 0
 816 0006 0023     		mov	r3, #0
 817 0008 7B60     		str	r3, [r7, #4]
 509:.\Generated_Source\PSoC4/I2C_1_I2C_MASTER.c ****     errStatus = I2C_1_I2C_MSTR_NOT_READY;
 818              		.loc 1 509 0
 819 000a 0423     		mov	r3, #4
 820 000c 3B60     		str	r3, [r7]
 510:.\Generated_Source\PSoC4/I2C_1_I2C_MASTER.c **** 
 511:.\Generated_Source\PSoC4/I2C_1_I2C_MASTER.c ****     /* Check FSM state before generating Stop condition */
 512:.\Generated_Source\PSoC4/I2C_1_I2C_MASTER.c ****     if(I2C_1_CHECK_I2C_MASTER_ACTIVE)
 821              		.loc 1 512 0
 822 000e 254B     		ldr	r3, .L59
 823 0010 1B78     		ldrb	r3, [r3]
 824 0012 DAB2     		uxtb	r2, r3
 825 0014 2023     		mov	r3, #32
 826 0016 1340     		and	r3, r2
 827 0018 DBB2     		uxtb	r3, r3
 828 001a 002B     		cmp	r3, #0
 829 001c 3CD0     		beq	.L51
 513:.\Generated_Source\PSoC4/I2C_1_I2C_MASTER.c ****     {
 514:.\Generated_Source\PSoC4/I2C_1_I2C_MASTER.c ****         /*
 515:.\Generated_Source\PSoC4/I2C_1_I2C_MASTER.c ****         * Write direction: generates Stop
 516:.\Generated_Source\PSoC4/I2C_1_I2C_MASTER.c ****         * Read  direction: generates NACK and Stop
 517:.\Generated_Source\PSoC4/I2C_1_I2C_MASTER.c ****         */
 518:.\Generated_Source\PSoC4/I2C_1_I2C_MASTER.c ****         I2C_1_I2C_MASTER_GENERATE_STOP;
 830              		.loc 1 518 0
 831 001e 224B     		ldr	r3, .L59+4
 832 0020 224A     		ldr	r2, .L59+8
 833 0022 1168     		ldr	r1, [r2]
 834 0024 2022     		mov	r2, #32
 835 0026 0A40     		and	r2, r1
 836 0028 01D0     		beq	.L52
 837              		.loc 1 518 0 is_stmt 0 discriminator 1
 838 002a 1822     		mov	r2, #24
 839 002c 00E0     		b	.L53
 840              	.L52:
 841              		.loc 1 518 0 discriminator 2
 842 002e 1022     		mov	r2, #16
 843              	.L53:
 844              		.loc 1 518 0 discriminator 3
 845 0030 1A60     		str	r2, [r3]
 519:.\Generated_Source\PSoC4/I2C_1_I2C_MASTER.c **** 
 520:.\Generated_Source\PSoC4/I2C_1_I2C_MASTER.c ****         while(!I2C_1_CHECK_INTR_MASTER(I2C_1_INTR_MASTER_I2C_STOP     |
 846              		.loc 1 520 0 is_stmt 1
 847 0032 C046     		mov	r8, r8
 848              	.L54:
ARM GAS  C:\Users\Eric\AppData\Local\Temp\ccfZjnId.s 			page 25


 849              		.loc 1 520 0 is_stmt 0 discriminator 1
 850 0034 1E4B     		ldr	r3, .L59+12
 851 0036 1A68     		ldr	r2, [r3]
 852 0038 1E4B     		ldr	r3, .L59+16
 853 003a 1340     		and	r3, r2
 854 003c FAD0     		beq	.L54
 521:.\Generated_Source\PSoC4/I2C_1_I2C_MASTER.c ****                                                   I2C_1_INTR_MASTER_I2C_ARB_LOST |
 522:.\Generated_Source\PSoC4/I2C_1_I2C_MASTER.c ****                                                   I2C_1_INTR_MASTER_I2C_BUS_ERROR))
 523:.\Generated_Source\PSoC4/I2C_1_I2C_MASTER.c ****         {
 524:.\Generated_Source\PSoC4/I2C_1_I2C_MASTER.c ****             /* Wait until Stop has been generated */
 525:.\Generated_Source\PSoC4/I2C_1_I2C_MASTER.c ****         }
 526:.\Generated_Source\PSoC4/I2C_1_I2C_MASTER.c **** 
 527:.\Generated_Source\PSoC4/I2C_1_I2C_MASTER.c ****         /* Check Stop generation */
 528:.\Generated_Source\PSoC4/I2C_1_I2C_MASTER.c ****         if(I2C_1_CHECK_INTR_MASTER(I2C_1_INTR_MASTER_I2C_STOP))
 855              		.loc 1 528 0 is_stmt 1
 856 003e 1C4B     		ldr	r3, .L59+12
 857 0040 1A68     		ldr	r2, [r3]
 858 0042 1023     		mov	r3, #16
 859 0044 1340     		and	r3, r2
 860 0046 02D0     		beq	.L55
 529:.\Generated_Source\PSoC4/I2C_1_I2C_MASTER.c ****         {
 530:.\Generated_Source\PSoC4/I2C_1_I2C_MASTER.c ****             errStatus = I2C_1_I2C_MSTR_NO_ERROR;
 861              		.loc 1 530 0
 862 0048 0023     		mov	r3, #0
 863 004a 3B60     		str	r3, [r7]
 864 004c 0EE0     		b	.L56
 865              	.L55:
 531:.\Generated_Source\PSoC4/I2C_1_I2C_MASTER.c ****         }
 532:.\Generated_Source\PSoC4/I2C_1_I2C_MASTER.c ****         else if(I2C_1_CHECK_INTR_MASTER(I2C_1_INTR_MASTER_I2C_ARB_LOST))
 866              		.loc 1 532 0
 867 004e 184B     		ldr	r3, .L59+12
 868 0050 1A68     		ldr	r2, [r3]
 869 0052 0123     		mov	r3, #1
 870 0054 1340     		and	r3, r2
 871 0056 04D0     		beq	.L57
 533:.\Generated_Source\PSoC4/I2C_1_I2C_MASTER.c ****         {
 534:.\Generated_Source\PSoC4/I2C_1_I2C_MASTER.c ****             errStatus = I2C_1_I2C_MSTR_ERR_ARB_LOST;
 872              		.loc 1 534 0
 873 0058 0123     		mov	r3, #1
 874 005a 3B60     		str	r3, [r7]
 535:.\Generated_Source\PSoC4/I2C_1_I2C_MASTER.c ****             resetIp   = I2C_1_I2C_RESET_ERROR;
 875              		.loc 1 535 0
 876 005c 0123     		mov	r3, #1
 877 005e 7B60     		str	r3, [r7, #4]
 878 0060 04E0     		b	.L56
 879              	.L57:
 536:.\Generated_Source\PSoC4/I2C_1_I2C_MASTER.c ****         }
 537:.\Generated_Source\PSoC4/I2C_1_I2C_MASTER.c ****         else /* I2C_1_INTR_MASTER_I2C_BUS_ERROR is set */
 538:.\Generated_Source\PSoC4/I2C_1_I2C_MASTER.c ****         {
 539:.\Generated_Source\PSoC4/I2C_1_I2C_MASTER.c ****             errStatus = I2C_1_I2C_MSTR_ERR_BUS_ERR;
 880              		.loc 1 539 0
 881 0062 8023     		mov	r3, #128
 882 0064 5B00     		lsl	r3, r3, #1
 883 0066 3B60     		str	r3, [r7]
 540:.\Generated_Source\PSoC4/I2C_1_I2C_MASTER.c ****             resetIp   = I2C_1_I2C_RESET_ERROR;
 884              		.loc 1 540 0
 885 0068 0123     		mov	r3, #1
ARM GAS  C:\Users\Eric\AppData\Local\Temp\ccfZjnId.s 			page 26


 886 006a 7B60     		str	r3, [r7, #4]
 887              	.L56:
 541:.\Generated_Source\PSoC4/I2C_1_I2C_MASTER.c ****         }
 542:.\Generated_Source\PSoC4/I2C_1_I2C_MASTER.c **** 
 543:.\Generated_Source\PSoC4/I2C_1_I2C_MASTER.c ****         I2C_1_ClearMasterInterruptSource(I2C_1_INTR_MASTER_I2C_STOP     |
 888              		.loc 1 543 0
 889 006c 104B     		ldr	r3, .L59+12
 890 006e 114A     		ldr	r2, .L59+16
 891 0070 1A60     		str	r2, [r3]
 544:.\Generated_Source\PSoC4/I2C_1_I2C_MASTER.c ****                                                     I2C_1_INTR_MASTER_I2C_ARB_LOST |
 545:.\Generated_Source\PSoC4/I2C_1_I2C_MASTER.c ****                                                     I2C_1_INTR_MASTER_I2C_BUS_ERROR);
 546:.\Generated_Source\PSoC4/I2C_1_I2C_MASTER.c **** 
 547:.\Generated_Source\PSoC4/I2C_1_I2C_MASTER.c ****         I2C_1_state = I2C_1_I2C_FSM_IDLE;
 892              		.loc 1 547 0
 893 0072 0C4B     		ldr	r3, .L59
 894 0074 1022     		mov	r2, #16
 895 0076 1A70     		strb	r2, [r3]
 548:.\Generated_Source\PSoC4/I2C_1_I2C_MASTER.c **** 
 549:.\Generated_Source\PSoC4/I2C_1_I2C_MASTER.c ****         /* Reset block in case of: LOST_ARB or BUS_ERR */
 550:.\Generated_Source\PSoC4/I2C_1_I2C_MASTER.c ****         if(0u != resetIp)
 896              		.loc 1 550 0
 897 0078 7B68     		ldr	r3, [r7, #4]
 898 007a 002B     		cmp	r3, #0
 899 007c 0CD0     		beq	.L51
 551:.\Generated_Source\PSoC4/I2C_1_I2C_MASTER.c ****         {
 552:.\Generated_Source\PSoC4/I2C_1_I2C_MASTER.c ****             I2C_1_SCB_SW_RESET;
 900              		.loc 1 552 0
 901 007e 0E4B     		ldr	r3, .L59+20
 902 0080 0D4A     		ldr	r2, .L59+20
 903 0082 1268     		ldr	r2, [r2]
 904 0084 5200     		lsl	r2, r2, #1
 905 0086 5208     		lsr	r2, r2, #1
 906 0088 1A60     		str	r2, [r3]
 907 008a 0B4B     		ldr	r3, .L59+20
 908 008c 0A4A     		ldr	r2, .L59+20
 909 008e 1268     		ldr	r2, [r2]
 910 0090 8021     		mov	r1, #128
 911 0092 0906     		lsl	r1, r1, #24
 912 0094 0A43     		orr	r2, r1
 913 0096 1A60     		str	r2, [r3]
 914              	.L51:
 553:.\Generated_Source\PSoC4/I2C_1_I2C_MASTER.c ****         }
 554:.\Generated_Source\PSoC4/I2C_1_I2C_MASTER.c ****     }
 555:.\Generated_Source\PSoC4/I2C_1_I2C_MASTER.c **** 
 556:.\Generated_Source\PSoC4/I2C_1_I2C_MASTER.c ****     return(errStatus);
 915              		.loc 1 556 0
 916 0098 3B68     		ldr	r3, [r7]
 557:.\Generated_Source\PSoC4/I2C_1_I2C_MASTER.c **** }
 917              		.loc 1 557 0
 918 009a 181C     		mov	r0, r3
 919 009c BD46     		mov	sp, r7
 920 009e 02B0     		add	sp, sp, #8
 921              		@ sp needed for prologue
 922 00a0 80BD     		pop	{r7, pc}
 923              	.L60:
 924 00a2 C046     		.align	2
 925              	.L59:
ARM GAS  C:\Users\Eric\AppData\Local\Temp\ccfZjnId.s 			page 27


 926 00a4 00000000 		.word	I2C_1_state
 927 00a8 68000640 		.word	1074135144
 928 00ac 64000640 		.word	1074135140
 929 00b0 000F0640 		.word	1074138880
 930 00b4 11010000 		.word	273
 931 00b8 00000640 		.word	1074135040
 932              		.cfi_endproc
 933              	.LFE4:
 934              		.size	I2C_1_I2CMasterSendStop, .-I2C_1_I2CMasterSendStop
 935              		.section	.text.I2C_1_I2CMasterWriteByte,"ax",%progbits
 936              		.align	2
 937              		.global	I2C_1_I2CMasterWriteByte
 938              		.code	16
 939              		.thumb_func
 940              		.type	I2C_1_I2CMasterWriteByte, %function
 941              	I2C_1_I2CMasterWriteByte:
 942              	.LFB5:
 558:.\Generated_Source\PSoC4/I2C_1_I2C_MASTER.c **** 
 559:.\Generated_Source\PSoC4/I2C_1_I2C_MASTER.c **** 
 560:.\Generated_Source\PSoC4/I2C_1_I2C_MASTER.c **** /*******************************************************************************
 561:.\Generated_Source\PSoC4/I2C_1_I2C_MASTER.c **** * Function Name: I2C_1_I2CMasterWriteByte
 562:.\Generated_Source\PSoC4/I2C_1_I2C_MASTER.c **** ********************************************************************************
 563:.\Generated_Source\PSoC4/I2C_1_I2C_MASTER.c **** *
 564:.\Generated_Source\PSoC4/I2C_1_I2C_MASTER.c **** * Summary:
 565:.\Generated_Source\PSoC4/I2C_1_I2C_MASTER.c **** *  Sends one byte to a slave.
 566:.\Generated_Source\PSoC4/I2C_1_I2C_MASTER.c **** *  This function is blocking and does not return until byte is transmitted
 567:.\Generated_Source\PSoC4/I2C_1_I2C_MASTER.c **** *  or error occurred.
 568:.\Generated_Source\PSoC4/I2C_1_I2C_MASTER.c **** *
 569:.\Generated_Source\PSoC4/I2C_1_I2C_MASTER.c **** * Parameters:
 570:.\Generated_Source\PSoC4/I2C_1_I2C_MASTER.c **** *  data: The data byte to send to the slave.
 571:.\Generated_Source\PSoC4/I2C_1_I2C_MASTER.c **** *
 572:.\Generated_Source\PSoC4/I2C_1_I2C_MASTER.c **** * Return:
 573:.\Generated_Source\PSoC4/I2C_1_I2C_MASTER.c **** *  Error status
 574:.\Generated_Source\PSoC4/I2C_1_I2C_MASTER.c **** *
 575:.\Generated_Source\PSoC4/I2C_1_I2C_MASTER.c **** * Side Effects:
 576:.\Generated_Source\PSoC4/I2C_1_I2C_MASTER.c **** *  A valid Start or ReStart condition must be generated before calling
 577:.\Generated_Source\PSoC4/I2C_1_I2C_MASTER.c **** *  this function. This function does nothing if Start or ReStart condition
 578:.\Generated_Source\PSoC4/I2C_1_I2C_MASTER.c **** *  failed before this function was called.
 579:.\Generated_Source\PSoC4/I2C_1_I2C_MASTER.c **** *
 580:.\Generated_Source\PSoC4/I2C_1_I2C_MASTER.c **** * Global variables:
 581:.\Generated_Source\PSoC4/I2C_1_I2C_MASTER.c **** *  I2C_1_state - used to store current state of software FSM.
 582:.\Generated_Source\PSoC4/I2C_1_I2C_MASTER.c **** *
 583:.\Generated_Source\PSoC4/I2C_1_I2C_MASTER.c **** *******************************************************************************/
 584:.\Generated_Source\PSoC4/I2C_1_I2C_MASTER.c **** uint32 I2C_1_I2CMasterWriteByte(uint32 theByte)
 585:.\Generated_Source\PSoC4/I2C_1_I2C_MASTER.c **** {
 943              		.loc 1 585 0
 944              		.cfi_startproc
 945 0000 80B5     		push	{r7, lr}
 946              	.LCFI15:
 947              		.cfi_def_cfa_offset 8
 948              		.cfi_offset 7, -8
 949              		.cfi_offset 14, -4
 950 0002 84B0     		sub	sp, sp, #16
 951              	.LCFI16:
 952              		.cfi_def_cfa_offset 24
 953 0004 00AF     		add	r7, sp, #0
 954              	.LCFI17:
ARM GAS  C:\Users\Eric\AppData\Local\Temp\ccfZjnId.s 			page 28


 955              		.cfi_def_cfa_register 7
 956 0006 7860     		str	r0, [r7, #4]
 586:.\Generated_Source\PSoC4/I2C_1_I2C_MASTER.c ****     uint32 resetIp;
 587:.\Generated_Source\PSoC4/I2C_1_I2C_MASTER.c ****     uint32 errStatus;
 588:.\Generated_Source\PSoC4/I2C_1_I2C_MASTER.c **** 
 589:.\Generated_Source\PSoC4/I2C_1_I2C_MASTER.c ****     resetIp   = 0u;
 957              		.loc 1 589 0
 958 0008 0023     		mov	r3, #0
 959 000a FB60     		str	r3, [r7, #12]
 590:.\Generated_Source\PSoC4/I2C_1_I2C_MASTER.c ****     errStatus = I2C_1_I2C_MSTR_NOT_READY;
 960              		.loc 1 590 0
 961 000c 0423     		mov	r3, #4
 962 000e BB60     		str	r3, [r7, #8]
 591:.\Generated_Source\PSoC4/I2C_1_I2C_MASTER.c **** 
 592:.\Generated_Source\PSoC4/I2C_1_I2C_MASTER.c ****     /* Check FSM state before write byte */
 593:.\Generated_Source\PSoC4/I2C_1_I2C_MASTER.c ****     if(I2C_1_CHECK_I2C_MASTER_ACTIVE)
 963              		.loc 1 593 0
 964 0010 294B     		ldr	r3, .L69
 965 0012 1B78     		ldrb	r3, [r3]
 966 0014 DAB2     		uxtb	r2, r3
 967 0016 2023     		mov	r3, #32
 968 0018 1340     		and	r3, r2
 969 001a DBB2     		uxtb	r3, r3
 970 001c 002B     		cmp	r3, #0
 971 001e 46D0     		beq	.L62
 594:.\Generated_Source\PSoC4/I2C_1_I2C_MASTER.c ****     {
 595:.\Generated_Source\PSoC4/I2C_1_I2C_MASTER.c ****         I2C_1_TX_FIFO_WR_REG = theByte;
 972              		.loc 1 595 0
 973 0020 264B     		ldr	r3, .L69+4
 974 0022 7A68     		ldr	r2, [r7, #4]
 975 0024 1A60     		str	r2, [r3]
 596:.\Generated_Source\PSoC4/I2C_1_I2C_MASTER.c **** 
 597:.\Generated_Source\PSoC4/I2C_1_I2C_MASTER.c ****         while(!I2C_1_CHECK_INTR_MASTER(I2C_1_INTR_MASTER_I2C_ACK      |
 976              		.loc 1 597 0
 977 0026 C046     		mov	r8, r8
 978              	.L63:
 979              		.loc 1 597 0 is_stmt 0 discriminator 1
 980 0028 254B     		ldr	r3, .L69+8
 981 002a 1A68     		ldr	r2, [r3]
 982 002c 254B     		ldr	r3, .L69+12
 983 002e 1340     		and	r3, r2
 984 0030 FAD0     		beq	.L63
 598:.\Generated_Source\PSoC4/I2C_1_I2C_MASTER.c ****                                                   I2C_1_INTR_MASTER_I2C_NACK     |
 599:.\Generated_Source\PSoC4/I2C_1_I2C_MASTER.c ****                                                   I2C_1_INTR_MASTER_I2C_ARB_LOST |
 600:.\Generated_Source\PSoC4/I2C_1_I2C_MASTER.c ****                                                   I2C_1_INTR_MASTER_I2C_BUS_ERROR))
 601:.\Generated_Source\PSoC4/I2C_1_I2C_MASTER.c ****         {
 602:.\Generated_Source\PSoC4/I2C_1_I2C_MASTER.c ****             /* Wait until byte has been transferred */
 603:.\Generated_Source\PSoC4/I2C_1_I2C_MASTER.c ****         }
 604:.\Generated_Source\PSoC4/I2C_1_I2C_MASTER.c **** 
 605:.\Generated_Source\PSoC4/I2C_1_I2C_MASTER.c ****         /* Check the results after byte was sent */
 606:.\Generated_Source\PSoC4/I2C_1_I2C_MASTER.c ****         if(I2C_1_CHECK_INTR_MASTER(I2C_1_INTR_MASTER_I2C_ACK))
 985              		.loc 1 606 0 is_stmt 1
 986 0032 234B     		ldr	r3, .L69+8
 987 0034 1A68     		ldr	r2, [r3]
 988 0036 0423     		mov	r3, #4
 989 0038 1340     		and	r3, r2
 990 003a 05D0     		beq	.L64
ARM GAS  C:\Users\Eric\AppData\Local\Temp\ccfZjnId.s 			page 29


 607:.\Generated_Source\PSoC4/I2C_1_I2C_MASTER.c ****         {
 608:.\Generated_Source\PSoC4/I2C_1_I2C_MASTER.c ****             I2C_1_state = I2C_1_I2C_FSM_MSTR_HALT;
 991              		.loc 1 608 0
 992 003c 1E4B     		ldr	r3, .L69
 993 003e 6022     		mov	r2, #96
 994 0040 1A70     		strb	r2, [r3]
 609:.\Generated_Source\PSoC4/I2C_1_I2C_MASTER.c ****                          errStatus = I2C_1_I2C_MSTR_NO_ERROR;
 995              		.loc 1 609 0
 996 0042 0023     		mov	r3, #0
 997 0044 BB60     		str	r3, [r7, #8]
 998 0046 1FE0     		b	.L65
 999              	.L64:
 610:.\Generated_Source\PSoC4/I2C_1_I2C_MASTER.c ****         }
 611:.\Generated_Source\PSoC4/I2C_1_I2C_MASTER.c ****         else if(I2C_1_CHECK_INTR_MASTER(I2C_1_INTR_MASTER_I2C_NACK))
 1000              		.loc 1 611 0
 1001 0048 1D4B     		ldr	r3, .L69+8
 1002 004a 1A68     		ldr	r2, [r3]
 1003 004c 0223     		mov	r3, #2
 1004 004e 1340     		and	r3, r2
 1005 0050 05D0     		beq	.L66
 612:.\Generated_Source\PSoC4/I2C_1_I2C_MASTER.c ****         {
 613:.\Generated_Source\PSoC4/I2C_1_I2C_MASTER.c ****             I2C_1_state = I2C_1_I2C_FSM_MSTR_HALT;
 1006              		.loc 1 613 0
 1007 0052 194B     		ldr	r3, .L69
 1008 0054 6022     		mov	r2, #96
 1009 0056 1A70     		strb	r2, [r3]
 614:.\Generated_Source\PSoC4/I2C_1_I2C_MASTER.c ****                          errStatus = I2C_1_I2C_MSTR_ERR_LB_NAK;
 1010              		.loc 1 614 0
 1011 0058 0223     		mov	r3, #2
 1012 005a BB60     		str	r3, [r7, #8]
 1013 005c 14E0     		b	.L65
 1014              	.L66:
 615:.\Generated_Source\PSoC4/I2C_1_I2C_MASTER.c ****         }
 616:.\Generated_Source\PSoC4/I2C_1_I2C_MASTER.c ****         else if(I2C_1_CHECK_INTR_MASTER(I2C_1_INTR_MASTER_I2C_ARB_LOST))
 1015              		.loc 1 616 0
 1016 005e 184B     		ldr	r3, .L69+8
 1017 0060 1A68     		ldr	r2, [r3]
 1018 0062 0123     		mov	r3, #1
 1019 0064 1340     		and	r3, r2
 1020 0066 07D0     		beq	.L67
 617:.\Generated_Source\PSoC4/I2C_1_I2C_MASTER.c ****         {
 618:.\Generated_Source\PSoC4/I2C_1_I2C_MASTER.c ****             I2C_1_state = I2C_1_I2C_FSM_IDLE;
 1021              		.loc 1 618 0
 1022 0068 134B     		ldr	r3, .L69
 1023 006a 1022     		mov	r2, #16
 1024 006c 1A70     		strb	r2, [r3]
 619:.\Generated_Source\PSoC4/I2C_1_I2C_MASTER.c ****                          errStatus = I2C_1_I2C_MSTR_ERR_ARB_LOST;
 1025              		.loc 1 619 0
 1026 006e 0123     		mov	r3, #1
 1027 0070 BB60     		str	r3, [r7, #8]
 620:.\Generated_Source\PSoC4/I2C_1_I2C_MASTER.c ****                          resetIp   = I2C_1_I2C_RESET_ERROR;
 1028              		.loc 1 620 0
 1029 0072 0123     		mov	r3, #1
 1030 0074 FB60     		str	r3, [r7, #12]
 1031 0076 07E0     		b	.L65
 1032              	.L67:
 621:.\Generated_Source\PSoC4/I2C_1_I2C_MASTER.c ****         }
ARM GAS  C:\Users\Eric\AppData\Local\Temp\ccfZjnId.s 			page 30


 622:.\Generated_Source\PSoC4/I2C_1_I2C_MASTER.c ****         else /* I2C_1_INTR_MASTER_I2C_BUS_ERROR set is */
 623:.\Generated_Source\PSoC4/I2C_1_I2C_MASTER.c ****         {
 624:.\Generated_Source\PSoC4/I2C_1_I2C_MASTER.c ****             I2C_1_state = I2C_1_I2C_FSM_IDLE;
 1033              		.loc 1 624 0
 1034 0078 0F4B     		ldr	r3, .L69
 1035 007a 1022     		mov	r2, #16
 1036 007c 1A70     		strb	r2, [r3]
 625:.\Generated_Source\PSoC4/I2C_1_I2C_MASTER.c ****                          errStatus = I2C_1_I2C_MSTR_ERR_BUS_ERR;
 1037              		.loc 1 625 0
 1038 007e 8023     		mov	r3, #128
 1039 0080 5B00     		lsl	r3, r3, #1
 1040 0082 BB60     		str	r3, [r7, #8]
 626:.\Generated_Source\PSoC4/I2C_1_I2C_MASTER.c ****                          resetIp   = I2C_1_I2C_RESET_ERROR;
 1041              		.loc 1 626 0
 1042 0084 0123     		mov	r3, #1
 1043 0086 FB60     		str	r3, [r7, #12]
 1044              	.L65:
 627:.\Generated_Source\PSoC4/I2C_1_I2C_MASTER.c ****         }
 628:.\Generated_Source\PSoC4/I2C_1_I2C_MASTER.c **** 
 629:.\Generated_Source\PSoC4/I2C_1_I2C_MASTER.c ****         I2C_1_ClearMasterInterruptSource(I2C_1_INTR_MASTER_I2C_ACK      |
 1045              		.loc 1 629 0
 1046 0088 0D4B     		ldr	r3, .L69+8
 1047 008a 0E4A     		ldr	r2, .L69+12
 1048 008c 1A60     		str	r2, [r3]
 630:.\Generated_Source\PSoC4/I2C_1_I2C_MASTER.c ****                                                     I2C_1_INTR_MASTER_I2C_NACK     |
 631:.\Generated_Source\PSoC4/I2C_1_I2C_MASTER.c ****                                                     I2C_1_INTR_MASTER_I2C_ARB_LOST |
 632:.\Generated_Source\PSoC4/I2C_1_I2C_MASTER.c ****                                                     I2C_1_INTR_MASTER_I2C_BUS_ERROR);
 633:.\Generated_Source\PSoC4/I2C_1_I2C_MASTER.c **** 
 634:.\Generated_Source\PSoC4/I2C_1_I2C_MASTER.c ****         /* Reset block in case of: LOST_ARB or BUS_ERR */
 635:.\Generated_Source\PSoC4/I2C_1_I2C_MASTER.c ****         if(0u != resetIp)
 1049              		.loc 1 635 0
 1050 008e FB68     		ldr	r3, [r7, #12]
 1051 0090 002B     		cmp	r3, #0
 1052 0092 0CD0     		beq	.L62
 636:.\Generated_Source\PSoC4/I2C_1_I2C_MASTER.c ****         {
 637:.\Generated_Source\PSoC4/I2C_1_I2C_MASTER.c ****             I2C_1_SCB_SW_RESET;
 1053              		.loc 1 637 0
 1054 0094 0C4B     		ldr	r3, .L69+16
 1055 0096 0C4A     		ldr	r2, .L69+16
 1056 0098 1268     		ldr	r2, [r2]
 1057 009a 5200     		lsl	r2, r2, #1
 1058 009c 5208     		lsr	r2, r2, #1
 1059 009e 1A60     		str	r2, [r3]
 1060 00a0 094B     		ldr	r3, .L69+16
 1061 00a2 094A     		ldr	r2, .L69+16
 1062 00a4 1268     		ldr	r2, [r2]
 1063 00a6 8021     		mov	r1, #128
 1064 00a8 0906     		lsl	r1, r1, #24
 1065 00aa 0A43     		orr	r2, r1
 1066 00ac 1A60     		str	r2, [r3]
 1067              	.L62:
 638:.\Generated_Source\PSoC4/I2C_1_I2C_MASTER.c ****         }
 639:.\Generated_Source\PSoC4/I2C_1_I2C_MASTER.c ****     }
 640:.\Generated_Source\PSoC4/I2C_1_I2C_MASTER.c **** 
 641:.\Generated_Source\PSoC4/I2C_1_I2C_MASTER.c ****     return(errStatus);
 1068              		.loc 1 641 0
 1069 00ae BB68     		ldr	r3, [r7, #8]
ARM GAS  C:\Users\Eric\AppData\Local\Temp\ccfZjnId.s 			page 31


 642:.\Generated_Source\PSoC4/I2C_1_I2C_MASTER.c **** }
 1070              		.loc 1 642 0
 1071 00b0 181C     		mov	r0, r3
 1072 00b2 BD46     		mov	sp, r7
 1073 00b4 04B0     		add	sp, sp, #16
 1074              		@ sp needed for prologue
 1075 00b6 80BD     		pop	{r7, pc}
 1076              	.L70:
 1077              		.align	2
 1078              	.L69:
 1079 00b8 00000000 		.word	I2C_1_state
 1080 00bc 40020640 		.word	1074135616
 1081 00c0 000F0640 		.word	1074138880
 1082 00c4 07010000 		.word	263
 1083 00c8 00000640 		.word	1074135040
 1084              		.cfi_endproc
 1085              	.LFE5:
 1086              		.size	I2C_1_I2CMasterWriteByte, .-I2C_1_I2CMasterWriteByte
 1087              		.section	.text.I2C_1_I2CMasterReadByte,"ax",%progbits
 1088              		.align	2
 1089              		.global	I2C_1_I2CMasterReadByte
 1090              		.code	16
 1091              		.thumb_func
 1092              		.type	I2C_1_I2CMasterReadByte, %function
 1093              	I2C_1_I2CMasterReadByte:
 1094              	.LFB6:
 643:.\Generated_Source\PSoC4/I2C_1_I2C_MASTER.c **** 
 644:.\Generated_Source\PSoC4/I2C_1_I2C_MASTER.c **** 
 645:.\Generated_Source\PSoC4/I2C_1_I2C_MASTER.c **** /*******************************************************************************
 646:.\Generated_Source\PSoC4/I2C_1_I2C_MASTER.c **** * Function Name: I2C_1_I2CMasterReadByte
 647:.\Generated_Source\PSoC4/I2C_1_I2C_MASTER.c **** ********************************************************************************
 648:.\Generated_Source\PSoC4/I2C_1_I2C_MASTER.c **** *
 649:.\Generated_Source\PSoC4/I2C_1_I2C_MASTER.c **** * Summary:
 650:.\Generated_Source\PSoC4/I2C_1_I2C_MASTER.c **** *  Reads one byte from a slave and ACKs or NAKs received byte.
 651:.\Generated_Source\PSoC4/I2C_1_I2C_MASTER.c **** *  This function does not generate NAK explicitly. The following call
 652:.\Generated_Source\PSoC4/I2C_1_I2C_MASTER.c **** *  SCB_I2CMasterSendStop() or SCB_I2CMasterSendRestart() will generate NAK and
 653:.\Generated_Source\PSoC4/I2C_1_I2C_MASTER.c **** *  Stop or ReStart condition appropriately.
 654:.\Generated_Source\PSoC4/I2C_1_I2C_MASTER.c **** *  This function is blocking and does not return until byte is received
 655:.\Generated_Source\PSoC4/I2C_1_I2C_MASTER.c **** *  or error occurred.
 656:.\Generated_Source\PSoC4/I2C_1_I2C_MASTER.c **** *
 657:.\Generated_Source\PSoC4/I2C_1_I2C_MASTER.c **** * Parameters:
 658:.\Generated_Source\PSoC4/I2C_1_I2C_MASTER.c **** *  ackNack: Response to received byte.
 659:.\Generated_Source\PSoC4/I2C_1_I2C_MASTER.c **** *
 660:.\Generated_Source\PSoC4/I2C_1_I2C_MASTER.c **** * Return:
 661:.\Generated_Source\PSoC4/I2C_1_I2C_MASTER.c **** *  Byte read from the slave. In case of error the MSB of returned data
 662:.\Generated_Source\PSoC4/I2C_1_I2C_MASTER.c **** *  is set to 1.
 663:.\Generated_Source\PSoC4/I2C_1_I2C_MASTER.c **** *
 664:.\Generated_Source\PSoC4/I2C_1_I2C_MASTER.c **** * Side Effects:
 665:.\Generated_Source\PSoC4/I2C_1_I2C_MASTER.c **** *  A valid Start or ReStart condition must be generated before calling this
 666:.\Generated_Source\PSoC4/I2C_1_I2C_MASTER.c **** *  function. This function does nothing and returns invalid byte value
 667:.\Generated_Source\PSoC4/I2C_1_I2C_MASTER.c **** *  if Start or ReStart conditions failed before this function was called.
 668:.\Generated_Source\PSoC4/I2C_1_I2C_MASTER.c **** *
 669:.\Generated_Source\PSoC4/I2C_1_I2C_MASTER.c **** * Global variables:
 670:.\Generated_Source\PSoC4/I2C_1_I2C_MASTER.c **** *  I2C_1_state - used to store current state of software FSM.
 671:.\Generated_Source\PSoC4/I2C_1_I2C_MASTER.c **** *
 672:.\Generated_Source\PSoC4/I2C_1_I2C_MASTER.c **** *******************************************************************************/
 673:.\Generated_Source\PSoC4/I2C_1_I2C_MASTER.c **** uint32 I2C_1_I2CMasterReadByte(uint32 ackNack)
ARM GAS  C:\Users\Eric\AppData\Local\Temp\ccfZjnId.s 			page 32


 674:.\Generated_Source\PSoC4/I2C_1_I2C_MASTER.c **** {
 1095              		.loc 1 674 0
 1096              		.cfi_startproc
 1097 0000 80B5     		push	{r7, lr}
 1098              	.LCFI18:
 1099              		.cfi_def_cfa_offset 8
 1100              		.cfi_offset 7, -8
 1101              		.cfi_offset 14, -4
 1102 0002 84B0     		sub	sp, sp, #16
 1103              	.LCFI19:
 1104              		.cfi_def_cfa_offset 24
 1105 0004 00AF     		add	r7, sp, #0
 1106              	.LCFI20:
 1107              		.cfi_def_cfa_register 7
 1108 0006 7860     		str	r0, [r7, #4]
 675:.\Generated_Source\PSoC4/I2C_1_I2C_MASTER.c ****     uint32 theByte;
 676:.\Generated_Source\PSoC4/I2C_1_I2C_MASTER.c **** 
 677:.\Generated_Source\PSoC4/I2C_1_I2C_MASTER.c ****     /* Return invalid byte in case BUS_ERR happen during receiving */
 678:.\Generated_Source\PSoC4/I2C_1_I2C_MASTER.c ****     theByte = I2C_1_I2C_INVALID_BYTE;
 1109              		.loc 1 678 0
 1110 0008 0123     		mov	r3, #1
 1111 000a 5B42     		neg	r3, r3
 1112 000c FB60     		str	r3, [r7, #12]
 679:.\Generated_Source\PSoC4/I2C_1_I2C_MASTER.c **** 
 680:.\Generated_Source\PSoC4/I2C_1_I2C_MASTER.c ****     /* Check FSM state before read byte */
 681:.\Generated_Source\PSoC4/I2C_1_I2C_MASTER.c ****     if(I2C_1_CHECK_I2C_MASTER_ACTIVE)
 1113              		.loc 1 681 0
 1114 000e 1F4B     		ldr	r3, .L78
 1115 0010 1B78     		ldrb	r3, [r3]
 1116 0012 DAB2     		uxtb	r2, r3
 1117 0014 2023     		mov	r3, #32
 1118 0016 1340     		and	r3, r2
 1119 0018 DBB2     		uxtb	r3, r3
 1120 001a 002B     		cmp	r3, #0
 1121 001c 30D0     		beq	.L72
 682:.\Generated_Source\PSoC4/I2C_1_I2C_MASTER.c ****     {
 683:.\Generated_Source\PSoC4/I2C_1_I2C_MASTER.c ****         while((!I2C_1_CHECK_INTR_RX(I2C_1_INTR_RX_NOT_EMPTY)) &&
 1122              		.loc 1 683 0
 1123 001e C046     		mov	r8, r8
 1124              	.L74:
 1125              		.loc 1 683 0 is_stmt 0 discriminator 1
 1126 0020 1B4B     		ldr	r3, .L78+4
 1127 0022 1A68     		ldr	r2, [r3]
 1128 0024 0423     		mov	r3, #4
 1129 0026 1340     		and	r3, r2
 1130 0028 04D1     		bne	.L73
 684:.\Generated_Source\PSoC4/I2C_1_I2C_MASTER.c ****               (!I2C_1_CHECK_INTR_MASTER(I2C_1_INTR_MASTER_I2C_ARB_LOST |
 1131              		.loc 1 684 0 is_stmt 1 discriminator 2
 1132 002a 1A4B     		ldr	r3, .L78+8
 1133 002c 1A68     		ldr	r2, [r3]
 1134 002e 1A4B     		ldr	r3, .L78+12
 1135 0030 1340     		and	r3, r2
 683:.\Generated_Source\PSoC4/I2C_1_I2C_MASTER.c ****         while((!I2C_1_CHECK_INTR_RX(I2C_1_INTR_RX_NOT_EMPTY)) &&
 1136              		.loc 1 683 0 discriminator 2
 1137 0032 F5D0     		beq	.L74
 1138              	.L73:
 685:.\Generated_Source\PSoC4/I2C_1_I2C_MASTER.c ****                                                   I2C_1_INTR_MASTER_I2C_BUS_ERROR)))
ARM GAS  C:\Users\Eric\AppData\Local\Temp\ccfZjnId.s 			page 33


 686:.\Generated_Source\PSoC4/I2C_1_I2C_MASTER.c ****         {
 687:.\Generated_Source\PSoC4/I2C_1_I2C_MASTER.c ****             /* Wait until byte has been received */
 688:.\Generated_Source\PSoC4/I2C_1_I2C_MASTER.c ****         }
 689:.\Generated_Source\PSoC4/I2C_1_I2C_MASTER.c **** 
 690:.\Generated_Source\PSoC4/I2C_1_I2C_MASTER.c ****         /* Check the results after the byte was sent */
 691:.\Generated_Source\PSoC4/I2C_1_I2C_MASTER.c ****         if(I2C_1_CHECK_INTR_RX(I2C_1_INTR_RX_NOT_EMPTY))
 1139              		.loc 1 691 0
 1140 0034 164B     		ldr	r3, .L78+4
 1141 0036 1A68     		ldr	r2, [r3]
 1142 0038 0423     		mov	r3, #4
 1143 003a 1340     		and	r3, r2
 1144 003c 10D0     		beq	.L75
 692:.\Generated_Source\PSoC4/I2C_1_I2C_MASTER.c ****         {
 693:.\Generated_Source\PSoC4/I2C_1_I2C_MASTER.c ****             theByte = I2C_1_RX_FIFO_RD_REG;
 1145              		.loc 1 693 0
 1146 003e 174B     		ldr	r3, .L78+16
 1147 0040 1B68     		ldr	r3, [r3]
 1148 0042 FB60     		str	r3, [r7, #12]
 694:.\Generated_Source\PSoC4/I2C_1_I2C_MASTER.c **** 
 695:.\Generated_Source\PSoC4/I2C_1_I2C_MASTER.c ****             I2C_1_ClearRxInterruptSource(I2C_1_INTR_RX_NOT_EMPTY);
 1149              		.loc 1 695 0
 1150 0044 124B     		ldr	r3, .L78+4
 1151 0046 0422     		mov	r2, #4
 1152 0048 1A60     		str	r2, [r3]
 696:.\Generated_Source\PSoC4/I2C_1_I2C_MASTER.c **** 
 697:.\Generated_Source\PSoC4/I2C_1_I2C_MASTER.c ****             if(0u == ackNack)
 1153              		.loc 1 697 0
 1154 004a 7B68     		ldr	r3, [r7, #4]
 1155 004c 002B     		cmp	r3, #0
 1156 004e 03D1     		bne	.L76
 698:.\Generated_Source\PSoC4/I2C_1_I2C_MASTER.c ****             {
 699:.\Generated_Source\PSoC4/I2C_1_I2C_MASTER.c ****                 I2C_1_I2C_MASTER_GENERATE_ACK;
 1157              		.loc 1 699 0
 1158 0050 134B     		ldr	r3, .L78+20
 1159 0052 0422     		mov	r2, #4
 1160 0054 1A60     		str	r2, [r3]
 1161 0056 13E0     		b	.L72
 1162              	.L76:
 700:.\Generated_Source\PSoC4/I2C_1_I2C_MASTER.c ****             }
 701:.\Generated_Source\PSoC4/I2C_1_I2C_MASTER.c ****             else
 702:.\Generated_Source\PSoC4/I2C_1_I2C_MASTER.c ****             {
 703:.\Generated_Source\PSoC4/I2C_1_I2C_MASTER.c ****                 /* NACK is generated by Stop or ReStart command*/
 704:.\Generated_Source\PSoC4/I2C_1_I2C_MASTER.c ****                 I2C_1_state = I2C_1_I2C_FSM_MSTR_HALT;
 1163              		.loc 1 704 0
 1164 0058 0C4B     		ldr	r3, .L78
 1165 005a 6022     		mov	r2, #96
 1166 005c 1A70     		strb	r2, [r3]
 1167 005e 0FE0     		b	.L72
 1168              	.L75:
 705:.\Generated_Source\PSoC4/I2C_1_I2C_MASTER.c ****             }
 706:.\Generated_Source\PSoC4/I2C_1_I2C_MASTER.c ****         }
 707:.\Generated_Source\PSoC4/I2C_1_I2C_MASTER.c ****         else
 708:.\Generated_Source\PSoC4/I2C_1_I2C_MASTER.c ****         {
 709:.\Generated_Source\PSoC4/I2C_1_I2C_MASTER.c ****             I2C_1_ClearMasterInterruptSource(I2C_1_INTR_MASTER_ALL);
 1169              		.loc 1 709 0
 1170 0060 0C4B     		ldr	r3, .L78+8
 1171 0062 104A     		ldr	r2, .L78+24
ARM GAS  C:\Users\Eric\AppData\Local\Temp\ccfZjnId.s 			page 34


 1172 0064 1A60     		str	r2, [r3]
 710:.\Generated_Source\PSoC4/I2C_1_I2C_MASTER.c **** 
 711:.\Generated_Source\PSoC4/I2C_1_I2C_MASTER.c ****             /* Reset block in case of: LOST_ARB or BUS_ERR */
 712:.\Generated_Source\PSoC4/I2C_1_I2C_MASTER.c ****             I2C_1_SCB_SW_RESET;
 1173              		.loc 1 712 0
 1174 0066 104B     		ldr	r3, .L78+28
 1175 0068 0F4A     		ldr	r2, .L78+28
 1176 006a 1268     		ldr	r2, [r2]
 1177 006c 5200     		lsl	r2, r2, #1
 1178 006e 5208     		lsr	r2, r2, #1
 1179 0070 1A60     		str	r2, [r3]
 1180 0072 0D4B     		ldr	r3, .L78+28
 1181 0074 0C4A     		ldr	r2, .L78+28
 1182 0076 1268     		ldr	r2, [r2]
 1183 0078 8021     		mov	r1, #128
 1184 007a 0906     		lsl	r1, r1, #24
 1185 007c 0A43     		orr	r2, r1
 1186 007e 1A60     		str	r2, [r3]
 1187              	.L72:
 713:.\Generated_Source\PSoC4/I2C_1_I2C_MASTER.c ****         }
 714:.\Generated_Source\PSoC4/I2C_1_I2C_MASTER.c ****     }
 715:.\Generated_Source\PSoC4/I2C_1_I2C_MASTER.c **** 
 716:.\Generated_Source\PSoC4/I2C_1_I2C_MASTER.c ****     return(theByte);
 1188              		.loc 1 716 0
 1189 0080 FB68     		ldr	r3, [r7, #12]
 717:.\Generated_Source\PSoC4/I2C_1_I2C_MASTER.c **** }
 1190              		.loc 1 717 0
 1191 0082 181C     		mov	r0, r3
 1192 0084 BD46     		mov	sp, r7
 1193 0086 04B0     		add	sp, sp, #16
 1194              		@ sp needed for prologue
 1195 0088 80BD     		pop	{r7, pc}
 1196              	.L79:
 1197 008a C046     		.align	2
 1198              	.L78:
 1199 008c 00000000 		.word	I2C_1_state
 1200 0090 C00F0640 		.word	1074139072
 1201 0094 000F0640 		.word	1074138880
 1202 0098 01010000 		.word	257
 1203 009c 40030640 		.word	1074135872
 1204 00a0 68000640 		.word	1074135144
 1205 00a4 17030000 		.word	791
 1206 00a8 00000640 		.word	1074135040
 1207              		.cfi_endproc
 1208              	.LFE6:
 1209              		.size	I2C_1_I2CMasterReadByte, .-I2C_1_I2CMasterReadByte
 1210              		.section	.text.I2C_1_I2CMasterGetReadBufSize,"ax",%progbits
 1211              		.align	2
 1212              		.global	I2C_1_I2CMasterGetReadBufSize
 1213              		.code	16
 1214              		.thumb_func
 1215              		.type	I2C_1_I2CMasterGetReadBufSize, %function
 1216              	I2C_1_I2CMasterGetReadBufSize:
 1217              	.LFB7:
 718:.\Generated_Source\PSoC4/I2C_1_I2C_MASTER.c **** 
 719:.\Generated_Source\PSoC4/I2C_1_I2C_MASTER.c **** 
 720:.\Generated_Source\PSoC4/I2C_1_I2C_MASTER.c **** /*******************************************************************************
ARM GAS  C:\Users\Eric\AppData\Local\Temp\ccfZjnId.s 			page 35


 721:.\Generated_Source\PSoC4/I2C_1_I2C_MASTER.c **** * Function Name: I2C_1_I2CMasterGetReadBufSize
 722:.\Generated_Source\PSoC4/I2C_1_I2C_MASTER.c **** ********************************************************************************
 723:.\Generated_Source\PSoC4/I2C_1_I2C_MASTER.c **** *
 724:.\Generated_Source\PSoC4/I2C_1_I2C_MASTER.c **** * Summary:
 725:.\Generated_Source\PSoC4/I2C_1_I2C_MASTER.c **** *  Returns the number of bytes that has been transferred with an
 726:.\Generated_Source\PSoC4/I2C_1_I2C_MASTER.c **** *  SCB_I2CMasterReadBuf() function.
 727:.\Generated_Source\PSoC4/I2C_1_I2C_MASTER.c **** *
 728:.\Generated_Source\PSoC4/I2C_1_I2C_MASTER.c **** * Parameters:
 729:.\Generated_Source\PSoC4/I2C_1_I2C_MASTER.c **** *  None
 730:.\Generated_Source\PSoC4/I2C_1_I2C_MASTER.c **** *
 731:.\Generated_Source\PSoC4/I2C_1_I2C_MASTER.c **** * Return:
 732:.\Generated_Source\PSoC4/I2C_1_I2C_MASTER.c **** *  Byte count of transfer. If the transfer is not yet complete, it returns
 733:.\Generated_Source\PSoC4/I2C_1_I2C_MASTER.c **** *  the byte count transferred so far.
 734:.\Generated_Source\PSoC4/I2C_1_I2C_MASTER.c **** *
 735:.\Generated_Source\PSoC4/I2C_1_I2C_MASTER.c **** * Side Effects:
 736:.\Generated_Source\PSoC4/I2C_1_I2C_MASTER.c **** *  This function returns not valid value if SCB_I2C_MSTAT_ERR_ARB_LOST
 737:.\Generated_Source\PSoC4/I2C_1_I2C_MASTER.c **** *  or SCB_I2C_MSTAT_ERR_BUS_ERROR occurred while read transfer.
 738:.\Generated_Source\PSoC4/I2C_1_I2C_MASTER.c **** *
 739:.\Generated_Source\PSoC4/I2C_1_I2C_MASTER.c **** * Global variables:
 740:.\Generated_Source\PSoC4/I2C_1_I2C_MASTER.c **** *  I2C_1_mstrRdBufIndex - used to current index within master read
 741:.\Generated_Source\PSoC4/I2C_1_I2C_MASTER.c **** *  buffer.
 742:.\Generated_Source\PSoC4/I2C_1_I2C_MASTER.c **** *
 743:.\Generated_Source\PSoC4/I2C_1_I2C_MASTER.c **** *******************************************************************************/
 744:.\Generated_Source\PSoC4/I2C_1_I2C_MASTER.c **** uint32 I2C_1_I2CMasterGetReadBufSize(void)
 745:.\Generated_Source\PSoC4/I2C_1_I2C_MASTER.c **** {
 1218              		.loc 1 745 0
 1219              		.cfi_startproc
 1220 0000 80B5     		push	{r7, lr}
 1221              	.LCFI21:
 1222              		.cfi_def_cfa_offset 8
 1223              		.cfi_offset 7, -8
 1224              		.cfi_offset 14, -4
 1225 0002 00AF     		add	r7, sp, #0
 1226              	.LCFI22:
 1227              		.cfi_def_cfa_register 7
 746:.\Generated_Source\PSoC4/I2C_1_I2C_MASTER.c ****     return(I2C_1_mstrRdBufIndex);
 1228              		.loc 1 746 0
 1229 0004 024B     		ldr	r3, .L82
 1230 0006 1B68     		ldr	r3, [r3]
 747:.\Generated_Source\PSoC4/I2C_1_I2C_MASTER.c **** }
 1231              		.loc 1 747 0
 1232 0008 181C     		mov	r0, r3
 1233 000a BD46     		mov	sp, r7
 1234              		@ sp needed for prologue
 1235 000c 80BD     		pop	{r7, pc}
 1236              	.L83:
 1237 000e C046     		.align	2
 1238              	.L82:
 1239 0010 00000000 		.word	I2C_1_mstrRdBufIndex
 1240              		.cfi_endproc
 1241              	.LFE7:
 1242              		.size	I2C_1_I2CMasterGetReadBufSize, .-I2C_1_I2CMasterGetReadBufSize
 1243              		.section	.text.I2C_1_I2CMasterGetWriteBufSize,"ax",%progbits
 1244              		.align	2
 1245              		.global	I2C_1_I2CMasterGetWriteBufSize
 1246              		.code	16
 1247              		.thumb_func
ARM GAS  C:\Users\Eric\AppData\Local\Temp\ccfZjnId.s 			page 36


 1248              		.type	I2C_1_I2CMasterGetWriteBufSize, %function
 1249              	I2C_1_I2CMasterGetWriteBufSize:
 1250              	.LFB8:
 748:.\Generated_Source\PSoC4/I2C_1_I2C_MASTER.c **** 
 749:.\Generated_Source\PSoC4/I2C_1_I2C_MASTER.c **** 
 750:.\Generated_Source\PSoC4/I2C_1_I2C_MASTER.c **** /*******************************************************************************
 751:.\Generated_Source\PSoC4/I2C_1_I2C_MASTER.c **** * Function Name: I2C_1_I2CMasterGetWriteBufSize
 752:.\Generated_Source\PSoC4/I2C_1_I2C_MASTER.c **** ********************************************************************************
 753:.\Generated_Source\PSoC4/I2C_1_I2C_MASTER.c **** *
 754:.\Generated_Source\PSoC4/I2C_1_I2C_MASTER.c **** * Summary:
 755:.\Generated_Source\PSoC4/I2C_1_I2C_MASTER.c **** *  Returns the number of bytes that have been transferred with an
 756:.\Generated_Source\PSoC4/I2C_1_I2C_MASTER.c **** *  SCB_I2CMasterWriteBuf() function.
 757:.\Generated_Source\PSoC4/I2C_1_I2C_MASTER.c **** *
 758:.\Generated_Source\PSoC4/I2C_1_I2C_MASTER.c **** * Parameters:
 759:.\Generated_Source\PSoC4/I2C_1_I2C_MASTER.c **** *  None
 760:.\Generated_Source\PSoC4/I2C_1_I2C_MASTER.c **** *
 761:.\Generated_Source\PSoC4/I2C_1_I2C_MASTER.c **** * Return:
 762:.\Generated_Source\PSoC4/I2C_1_I2C_MASTER.c **** *  Byte count of transfer. If the transfer is not yet complete, it returns
 763:.\Generated_Source\PSoC4/I2C_1_I2C_MASTER.c **** *  zero unit transfer completion.
 764:.\Generated_Source\PSoC4/I2C_1_I2C_MASTER.c **** *
 765:.\Generated_Source\PSoC4/I2C_1_I2C_MASTER.c **** * Side Effects:
 766:.\Generated_Source\PSoC4/I2C_1_I2C_MASTER.c **** *  This function returns not valid value if SCB_I2C_MSTAT_ERR_ARB_LOST
 767:.\Generated_Source\PSoC4/I2C_1_I2C_MASTER.c **** *  or SCB_I2C_MSTAT_ERR_BUS_ERROR occurred while read transfer.
 768:.\Generated_Source\PSoC4/I2C_1_I2C_MASTER.c **** *
 769:.\Generated_Source\PSoC4/I2C_1_I2C_MASTER.c **** * Global variables:
 770:.\Generated_Source\PSoC4/I2C_1_I2C_MASTER.c **** *  I2C_1_mstrWrBufIndex - used to current index within master write
 771:.\Generated_Source\PSoC4/I2C_1_I2C_MASTER.c **** *  buffer.
 772:.\Generated_Source\PSoC4/I2C_1_I2C_MASTER.c **** *
 773:.\Generated_Source\PSoC4/I2C_1_I2C_MASTER.c **** *******************************************************************************/
 774:.\Generated_Source\PSoC4/I2C_1_I2C_MASTER.c **** uint32 I2C_1_I2CMasterGetWriteBufSize(void)
 775:.\Generated_Source\PSoC4/I2C_1_I2C_MASTER.c **** {
 1251              		.loc 1 775 0
 1252              		.cfi_startproc
 1253 0000 80B5     		push	{r7, lr}
 1254              	.LCFI23:
 1255              		.cfi_def_cfa_offset 8
 1256              		.cfi_offset 7, -8
 1257              		.cfi_offset 14, -4
 1258 0002 00AF     		add	r7, sp, #0
 1259              	.LCFI24:
 1260              		.cfi_def_cfa_register 7
 776:.\Generated_Source\PSoC4/I2C_1_I2C_MASTER.c ****     return(I2C_1_mstrWrBufIndex);
 1261              		.loc 1 776 0
 1262 0004 024B     		ldr	r3, .L86
 1263 0006 1B68     		ldr	r3, [r3]
 777:.\Generated_Source\PSoC4/I2C_1_I2C_MASTER.c **** }
 1264              		.loc 1 777 0
 1265 0008 181C     		mov	r0, r3
 1266 000a BD46     		mov	sp, r7
 1267              		@ sp needed for prologue
 1268 000c 80BD     		pop	{r7, pc}
 1269              	.L87:
 1270 000e C046     		.align	2
 1271              	.L86:
 1272 0010 00000000 		.word	I2C_1_mstrWrBufIndex
 1273              		.cfi_endproc
 1274              	.LFE8:
ARM GAS  C:\Users\Eric\AppData\Local\Temp\ccfZjnId.s 			page 37


 1275              		.size	I2C_1_I2CMasterGetWriteBufSize, .-I2C_1_I2CMasterGetWriteBufSize
 1276              		.section	.text.I2C_1_I2CMasterClearReadBuf,"ax",%progbits
 1277              		.align	2
 1278              		.global	I2C_1_I2CMasterClearReadBuf
 1279              		.code	16
 1280              		.thumb_func
 1281              		.type	I2C_1_I2CMasterClearReadBuf, %function
 1282              	I2C_1_I2CMasterClearReadBuf:
 1283              	.LFB9:
 778:.\Generated_Source\PSoC4/I2C_1_I2C_MASTER.c **** 
 779:.\Generated_Source\PSoC4/I2C_1_I2C_MASTER.c **** 
 780:.\Generated_Source\PSoC4/I2C_1_I2C_MASTER.c **** /*******************************************************************************
 781:.\Generated_Source\PSoC4/I2C_1_I2C_MASTER.c **** * Function Name: I2C_1_I2CMasterClearReadBuf
 782:.\Generated_Source\PSoC4/I2C_1_I2C_MASTER.c **** ********************************************************************************
 783:.\Generated_Source\PSoC4/I2C_1_I2C_MASTER.c **** *
 784:.\Generated_Source\PSoC4/I2C_1_I2C_MASTER.c **** * Summary:
 785:.\Generated_Source\PSoC4/I2C_1_I2C_MASTER.c **** *  Resets the read buffer pointer back to the first byte in the buffer.
 786:.\Generated_Source\PSoC4/I2C_1_I2C_MASTER.c **** *
 787:.\Generated_Source\PSoC4/I2C_1_I2C_MASTER.c **** * Parameters:
 788:.\Generated_Source\PSoC4/I2C_1_I2C_MASTER.c **** *  None
 789:.\Generated_Source\PSoC4/I2C_1_I2C_MASTER.c **** *
 790:.\Generated_Source\PSoC4/I2C_1_I2C_MASTER.c **** * Return:
 791:.\Generated_Source\PSoC4/I2C_1_I2C_MASTER.c **** *  None
 792:.\Generated_Source\PSoC4/I2C_1_I2C_MASTER.c **** *
 793:.\Generated_Source\PSoC4/I2C_1_I2C_MASTER.c **** * Global variables:
 794:.\Generated_Source\PSoC4/I2C_1_I2C_MASTER.c **** *  I2C_1_mstrRdBufIndex - used to current index within master read
 795:.\Generated_Source\PSoC4/I2C_1_I2C_MASTER.c **** *   buffer.
 796:.\Generated_Source\PSoC4/I2C_1_I2C_MASTER.c **** *  I2C_1_mstrStatus - used to store current status of I2C Master.
 797:.\Generated_Source\PSoC4/I2C_1_I2C_MASTER.c **** *
 798:.\Generated_Source\PSoC4/I2C_1_I2C_MASTER.c **** *******************************************************************************/
 799:.\Generated_Source\PSoC4/I2C_1_I2C_MASTER.c **** void I2C_1_I2CMasterClearReadBuf(void)
 800:.\Generated_Source\PSoC4/I2C_1_I2C_MASTER.c **** {
 1284              		.loc 1 800 0
 1285              		.cfi_startproc
 1286 0000 80B5     		push	{r7, lr}
 1287              	.LCFI25:
 1288              		.cfi_def_cfa_offset 8
 1289              		.cfi_offset 7, -8
 1290              		.cfi_offset 14, -4
 1291 0002 00AF     		add	r7, sp, #0
 1292              	.LCFI26:
 1293              		.cfi_def_cfa_register 7
 801:.\Generated_Source\PSoC4/I2C_1_I2C_MASTER.c ****     I2C_1_mstrRdBufIndex = 0u;
 1294              		.loc 1 801 0
 1295 0004 064B     		ldr	r3, .L89
 1296 0006 0022     		mov	r2, #0
 1297 0008 1A60     		str	r2, [r3]
 802:.\Generated_Source\PSoC4/I2C_1_I2C_MASTER.c ****     I2C_1_mstrStatus    &= (uint16) ~I2C_1_I2C_MSTAT_RD_CMPLT;
 1298              		.loc 1 802 0
 1299 000a 064B     		ldr	r3, .L89+4
 1300 000c 1B88     		ldrh	r3, [r3]
 1301 000e 9BB2     		uxth	r3, r3
 1302 0010 0122     		mov	r2, #1
 1303 0012 9343     		bic	r3, r2
 1304 0014 9AB2     		uxth	r2, r3
 1305 0016 034B     		ldr	r3, .L89+4
 1306 0018 1A80     		strh	r2, [r3]
ARM GAS  C:\Users\Eric\AppData\Local\Temp\ccfZjnId.s 			page 38


 803:.\Generated_Source\PSoC4/I2C_1_I2C_MASTER.c **** }
 1307              		.loc 1 803 0
 1308 001a BD46     		mov	sp, r7
 1309              		@ sp needed for prologue
 1310 001c 80BD     		pop	{r7, pc}
 1311              	.L90:
 1312 001e C046     		.align	2
 1313              	.L89:
 1314 0020 00000000 		.word	I2C_1_mstrRdBufIndex
 1315 0024 00000000 		.word	I2C_1_mstrStatus
 1316              		.cfi_endproc
 1317              	.LFE9:
 1318              		.size	I2C_1_I2CMasterClearReadBuf, .-I2C_1_I2CMasterClearReadBuf
 1319              		.section	.text.I2C_1_I2CMasterClearWriteBuf,"ax",%progbits
 1320              		.align	2
 1321              		.global	I2C_1_I2CMasterClearWriteBuf
 1322              		.code	16
 1323              		.thumb_func
 1324              		.type	I2C_1_I2CMasterClearWriteBuf, %function
 1325              	I2C_1_I2CMasterClearWriteBuf:
 1326              	.LFB10:
 804:.\Generated_Source\PSoC4/I2C_1_I2C_MASTER.c **** 
 805:.\Generated_Source\PSoC4/I2C_1_I2C_MASTER.c **** 
 806:.\Generated_Source\PSoC4/I2C_1_I2C_MASTER.c **** /*******************************************************************************
 807:.\Generated_Source\PSoC4/I2C_1_I2C_MASTER.c **** * Function Name: I2C_1_I2CMasterClearWriteBuf
 808:.\Generated_Source\PSoC4/I2C_1_I2C_MASTER.c **** ********************************************************************************
 809:.\Generated_Source\PSoC4/I2C_1_I2C_MASTER.c **** *
 810:.\Generated_Source\PSoC4/I2C_1_I2C_MASTER.c **** * Summary:
 811:.\Generated_Source\PSoC4/I2C_1_I2C_MASTER.c **** *  Resets the write buffer pointer back to the first byte in the buffer.
 812:.\Generated_Source\PSoC4/I2C_1_I2C_MASTER.c **** *
 813:.\Generated_Source\PSoC4/I2C_1_I2C_MASTER.c **** * Parameters:
 814:.\Generated_Source\PSoC4/I2C_1_I2C_MASTER.c **** *  None
 815:.\Generated_Source\PSoC4/I2C_1_I2C_MASTER.c **** *
 816:.\Generated_Source\PSoC4/I2C_1_I2C_MASTER.c **** * Return:
 817:.\Generated_Source\PSoC4/I2C_1_I2C_MASTER.c **** *  None
 818:.\Generated_Source\PSoC4/I2C_1_I2C_MASTER.c **** *
 819:.\Generated_Source\PSoC4/I2C_1_I2C_MASTER.c **** * Global variables:
 820:.\Generated_Source\PSoC4/I2C_1_I2C_MASTER.c **** *  I2C_1_mstrRdBufIndex - used to current index within master read
 821:.\Generated_Source\PSoC4/I2C_1_I2C_MASTER.c **** *   buffer.
 822:.\Generated_Source\PSoC4/I2C_1_I2C_MASTER.c **** *  I2C_1_mstrStatus - used to store current status of I2C Master.
 823:.\Generated_Source\PSoC4/I2C_1_I2C_MASTER.c **** *
 824:.\Generated_Source\PSoC4/I2C_1_I2C_MASTER.c **** *******************************************************************************/
 825:.\Generated_Source\PSoC4/I2C_1_I2C_MASTER.c **** void I2C_1_I2CMasterClearWriteBuf(void)
 826:.\Generated_Source\PSoC4/I2C_1_I2C_MASTER.c **** {
 1327              		.loc 1 826 0
 1328              		.cfi_startproc
 1329 0000 80B5     		push	{r7, lr}
 1330              	.LCFI27:
 1331              		.cfi_def_cfa_offset 8
 1332              		.cfi_offset 7, -8
 1333              		.cfi_offset 14, -4
 1334 0002 00AF     		add	r7, sp, #0
 1335              	.LCFI28:
 1336              		.cfi_def_cfa_register 7
 827:.\Generated_Source\PSoC4/I2C_1_I2C_MASTER.c ****     I2C_1_mstrWrBufIndex = 0u;
 1337              		.loc 1 827 0
 1338 0004 064B     		ldr	r3, .L92
ARM GAS  C:\Users\Eric\AppData\Local\Temp\ccfZjnId.s 			page 39


 1339 0006 0022     		mov	r2, #0
 1340 0008 1A60     		str	r2, [r3]
 828:.\Generated_Source\PSoC4/I2C_1_I2C_MASTER.c ****     I2C_1_mstrStatus    &= (uint16) ~I2C_1_I2C_MSTAT_WR_CMPLT;
 1341              		.loc 1 828 0
 1342 000a 064B     		ldr	r3, .L92+4
 1343 000c 1B88     		ldrh	r3, [r3]
 1344 000e 9BB2     		uxth	r3, r3
 1345 0010 0222     		mov	r2, #2
 1346 0012 9343     		bic	r3, r2
 1347 0014 9AB2     		uxth	r2, r3
 1348 0016 034B     		ldr	r3, .L92+4
 1349 0018 1A80     		strh	r2, [r3]
 829:.\Generated_Source\PSoC4/I2C_1_I2C_MASTER.c **** }
 1350              		.loc 1 829 0
 1351 001a BD46     		mov	sp, r7
 1352              		@ sp needed for prologue
 1353 001c 80BD     		pop	{r7, pc}
 1354              	.L93:
 1355 001e C046     		.align	2
 1356              	.L92:
 1357 0020 00000000 		.word	I2C_1_mstrWrBufIndex
 1358 0024 00000000 		.word	I2C_1_mstrStatus
 1359              		.cfi_endproc
 1360              	.LFE10:
 1361              		.size	I2C_1_I2CMasterClearWriteBuf, .-I2C_1_I2CMasterClearWriteBuf
 1362              		.section	.text.I2C_1_I2CMasterStatus,"ax",%progbits
 1363              		.align	2
 1364              		.global	I2C_1_I2CMasterStatus
 1365              		.code	16
 1366              		.thumb_func
 1367              		.type	I2C_1_I2CMasterStatus, %function
 1368              	I2C_1_I2CMasterStatus:
 1369              	.LFB11:
 830:.\Generated_Source\PSoC4/I2C_1_I2C_MASTER.c **** 
 831:.\Generated_Source\PSoC4/I2C_1_I2C_MASTER.c **** 
 832:.\Generated_Source\PSoC4/I2C_1_I2C_MASTER.c **** /*******************************************************************************
 833:.\Generated_Source\PSoC4/I2C_1_I2C_MASTER.c **** * Function Name: I2C_1_I2CMasterStatus
 834:.\Generated_Source\PSoC4/I2C_1_I2C_MASTER.c **** ********************************************************************************
 835:.\Generated_Source\PSoC4/I2C_1_I2C_MASTER.c **** *
 836:.\Generated_Source\PSoC4/I2C_1_I2C_MASTER.c **** * Summary:
 837:.\Generated_Source\PSoC4/I2C_1_I2C_MASTER.c **** *  Returns the master's communication status.
 838:.\Generated_Source\PSoC4/I2C_1_I2C_MASTER.c **** *
 839:.\Generated_Source\PSoC4/I2C_1_I2C_MASTER.c **** * Parameters:
 840:.\Generated_Source\PSoC4/I2C_1_I2C_MASTER.c **** *  None
 841:.\Generated_Source\PSoC4/I2C_1_I2C_MASTER.c **** *
 842:.\Generated_Source\PSoC4/I2C_1_I2C_MASTER.c **** * Return:
 843:.\Generated_Source\PSoC4/I2C_1_I2C_MASTER.c **** *  Current status of I2C master.
 844:.\Generated_Source\PSoC4/I2C_1_I2C_MASTER.c **** *
 845:.\Generated_Source\PSoC4/I2C_1_I2C_MASTER.c **** * Global variables:
 846:.\Generated_Source\PSoC4/I2C_1_I2C_MASTER.c **** *  I2C_1_mstrStatus - used to store current status of I2C Master.
 847:.\Generated_Source\PSoC4/I2C_1_I2C_MASTER.c **** *
 848:.\Generated_Source\PSoC4/I2C_1_I2C_MASTER.c **** *******************************************************************************/
 849:.\Generated_Source\PSoC4/I2C_1_I2C_MASTER.c **** uint32 I2C_1_I2CMasterStatus(void)
 850:.\Generated_Source\PSoC4/I2C_1_I2C_MASTER.c **** {
 1370              		.loc 1 850 0
 1371              		.cfi_startproc
 1372 0000 80B5     		push	{r7, lr}
ARM GAS  C:\Users\Eric\AppData\Local\Temp\ccfZjnId.s 			page 40


 1373              	.LCFI29:
 1374              		.cfi_def_cfa_offset 8
 1375              		.cfi_offset 7, -8
 1376              		.cfi_offset 14, -4
 1377 0002 82B0     		sub	sp, sp, #8
 1378              	.LCFI30:
 1379              		.cfi_def_cfa_offset 16
 1380 0004 00AF     		add	r7, sp, #0
 1381              	.LCFI31:
 1382              		.cfi_def_cfa_register 7
 851:.\Generated_Source\PSoC4/I2C_1_I2C_MASTER.c ****     uint32 status;
 852:.\Generated_Source\PSoC4/I2C_1_I2C_MASTER.c **** 
 853:.\Generated_Source\PSoC4/I2C_1_I2C_MASTER.c ****     status = (uint32) I2C_1_mstrStatus;
 1383              		.loc 1 853 0
 1384 0006 0A4B     		ldr	r3, .L97
 1385 0008 1B88     		ldrh	r3, [r3]
 1386 000a 9BB2     		uxth	r3, r3
 1387 000c 7B60     		str	r3, [r7, #4]
 854:.\Generated_Source\PSoC4/I2C_1_I2C_MASTER.c **** 
 855:.\Generated_Source\PSoC4/I2C_1_I2C_MASTER.c ****     if(I2C_1_CHECK_I2C_MASTER_ACTIVE)
 1388              		.loc 1 855 0
 1389 000e 094B     		ldr	r3, .L97+4
 1390 0010 1B78     		ldrb	r3, [r3]
 1391 0012 DAB2     		uxtb	r2, r3
 1392 0014 2023     		mov	r3, #32
 1393 0016 1340     		and	r3, r2
 1394 0018 DBB2     		uxtb	r3, r3
 1395 001a 002B     		cmp	r3, #0
 1396 001c 03D0     		beq	.L95
 856:.\Generated_Source\PSoC4/I2C_1_I2C_MASTER.c ****     {
 857:.\Generated_Source\PSoC4/I2C_1_I2C_MASTER.c ****         /* Add status of master pending transaction: MSTAT_XFER_INP */
 858:.\Generated_Source\PSoC4/I2C_1_I2C_MASTER.c ****         status |= (uint32) I2C_1_I2C_MSTAT_XFER_INP;
 1397              		.loc 1 858 0
 1398 001e 7B68     		ldr	r3, [r7, #4]
 1399 0020 0422     		mov	r2, #4
 1400 0022 1343     		orr	r3, r2
 1401 0024 7B60     		str	r3, [r7, #4]
 1402              	.L95:
 859:.\Generated_Source\PSoC4/I2C_1_I2C_MASTER.c ****     }
 860:.\Generated_Source\PSoC4/I2C_1_I2C_MASTER.c **** 
 861:.\Generated_Source\PSoC4/I2C_1_I2C_MASTER.c ****     return(status);
 1403              		.loc 1 861 0
 1404 0026 7B68     		ldr	r3, [r7, #4]
 862:.\Generated_Source\PSoC4/I2C_1_I2C_MASTER.c **** }
 1405              		.loc 1 862 0
 1406 0028 181C     		mov	r0, r3
 1407 002a BD46     		mov	sp, r7
 1408 002c 02B0     		add	sp, sp, #8
 1409              		@ sp needed for prologue
 1410 002e 80BD     		pop	{r7, pc}
 1411              	.L98:
 1412              		.align	2
 1413              	.L97:
 1414 0030 00000000 		.word	I2C_1_mstrStatus
 1415 0034 00000000 		.word	I2C_1_state
 1416              		.cfi_endproc
 1417              	.LFE11:
ARM GAS  C:\Users\Eric\AppData\Local\Temp\ccfZjnId.s 			page 41


 1418              		.size	I2C_1_I2CMasterStatus, .-I2C_1_I2CMasterStatus
 1419              		.section	.text.I2C_1_I2CMasterClearStatus,"ax",%progbits
 1420              		.align	2
 1421              		.global	I2C_1_I2CMasterClearStatus
 1422              		.code	16
 1423              		.thumb_func
 1424              		.type	I2C_1_I2CMasterClearStatus, %function
 1425              	I2C_1_I2CMasterClearStatus:
 1426              	.LFB12:
 863:.\Generated_Source\PSoC4/I2C_1_I2C_MASTER.c **** 
 864:.\Generated_Source\PSoC4/I2C_1_I2C_MASTER.c **** 
 865:.\Generated_Source\PSoC4/I2C_1_I2C_MASTER.c **** /*******************************************************************************
 866:.\Generated_Source\PSoC4/I2C_1_I2C_MASTER.c **** * Function Name: I2C_1_I2CMasterClearStatus
 867:.\Generated_Source\PSoC4/I2C_1_I2C_MASTER.c **** ********************************************************************************
 868:.\Generated_Source\PSoC4/I2C_1_I2C_MASTER.c **** *
 869:.\Generated_Source\PSoC4/I2C_1_I2C_MASTER.c **** * Summary:
 870:.\Generated_Source\PSoC4/I2C_1_I2C_MASTER.c **** *  Clears all status flags and returns the master status.
 871:.\Generated_Source\PSoC4/I2C_1_I2C_MASTER.c **** *
 872:.\Generated_Source\PSoC4/I2C_1_I2C_MASTER.c **** * Parameters:
 873:.\Generated_Source\PSoC4/I2C_1_I2C_MASTER.c **** *  None
 874:.\Generated_Source\PSoC4/I2C_1_I2C_MASTER.c **** *
 875:.\Generated_Source\PSoC4/I2C_1_I2C_MASTER.c **** * Return:
 876:.\Generated_Source\PSoC4/I2C_1_I2C_MASTER.c **** *  Current status of I2C master.
 877:.\Generated_Source\PSoC4/I2C_1_I2C_MASTER.c **** *
 878:.\Generated_Source\PSoC4/I2C_1_I2C_MASTER.c **** * Global variables:
 879:.\Generated_Source\PSoC4/I2C_1_I2C_MASTER.c **** *  I2C_1_mstrStatus - used to store current status of I2C Master.
 880:.\Generated_Source\PSoC4/I2C_1_I2C_MASTER.c **** *
 881:.\Generated_Source\PSoC4/I2C_1_I2C_MASTER.c **** *******************************************************************************/
 882:.\Generated_Source\PSoC4/I2C_1_I2C_MASTER.c **** uint32 I2C_1_I2CMasterClearStatus(void)
 883:.\Generated_Source\PSoC4/I2C_1_I2C_MASTER.c **** {
 1427              		.loc 1 883 0
 1428              		.cfi_startproc
 1429 0000 80B5     		push	{r7, lr}
 1430              	.LCFI32:
 1431              		.cfi_def_cfa_offset 8
 1432              		.cfi_offset 7, -8
 1433              		.cfi_offset 14, -4
 1434 0002 82B0     		sub	sp, sp, #8
 1435              	.LCFI33:
 1436              		.cfi_def_cfa_offset 16
 1437 0004 00AF     		add	r7, sp, #0
 1438              	.LCFI34:
 1439              		.cfi_def_cfa_register 7
 884:.\Generated_Source\PSoC4/I2C_1_I2C_MASTER.c ****     uint32 status;
 885:.\Generated_Source\PSoC4/I2C_1_I2C_MASTER.c **** 
 886:.\Generated_Source\PSoC4/I2C_1_I2C_MASTER.c ****     /* Read and clear master status */
 887:.\Generated_Source\PSoC4/I2C_1_I2C_MASTER.c ****     status = (uint32) I2C_1_mstrStatus;
 1440              		.loc 1 887 0
 1441 0006 064B     		ldr	r3, .L101
 1442 0008 1B88     		ldrh	r3, [r3]
 1443 000a 9BB2     		uxth	r3, r3
 1444 000c 7B60     		str	r3, [r7, #4]
 888:.\Generated_Source\PSoC4/I2C_1_I2C_MASTER.c ****     I2C_1_mstrStatus = I2C_1_I2C_MSTAT_CLEAR;
 1445              		.loc 1 888 0
 1446 000e 044B     		ldr	r3, .L101
 1447 0010 0022     		mov	r2, #0
 1448 0012 1A80     		strh	r2, [r3]
ARM GAS  C:\Users\Eric\AppData\Local\Temp\ccfZjnId.s 			page 42


 889:.\Generated_Source\PSoC4/I2C_1_I2C_MASTER.c **** 
 890:.\Generated_Source\PSoC4/I2C_1_I2C_MASTER.c ****     return(status);
 1449              		.loc 1 890 0
 1450 0014 7B68     		ldr	r3, [r7, #4]
 891:.\Generated_Source\PSoC4/I2C_1_I2C_MASTER.c **** }
 1451              		.loc 1 891 0
 1452 0016 181C     		mov	r0, r3
 1453 0018 BD46     		mov	sp, r7
 1454 001a 02B0     		add	sp, sp, #8
 1455              		@ sp needed for prologue
 1456 001c 80BD     		pop	{r7, pc}
 1457              	.L102:
 1458 001e C046     		.align	2
 1459              	.L101:
 1460 0020 00000000 		.word	I2C_1_mstrStatus
 1461              		.cfi_endproc
 1462              	.LFE12:
 1463              		.size	I2C_1_I2CMasterClearStatus, .-I2C_1_I2CMasterClearStatus
 1464              		.section	.text.I2C_1_I2CReStartGeneration,"ax",%progbits
 1465              		.align	2
 1466              		.global	I2C_1_I2CReStartGeneration
 1467              		.code	16
 1468              		.thumb_func
 1469              		.type	I2C_1_I2CReStartGeneration, %function
 1470              	I2C_1_I2CReStartGeneration:
 1471              	.LFB13:
 892:.\Generated_Source\PSoC4/I2C_1_I2C_MASTER.c **** 
 893:.\Generated_Source\PSoC4/I2C_1_I2C_MASTER.c **** 
 894:.\Generated_Source\PSoC4/I2C_1_I2C_MASTER.c **** /*******************************************************************************
 895:.\Generated_Source\PSoC4/I2C_1_I2C_MASTER.c **** * Function Name: I2C_1_I2CReStartGeneration
 896:.\Generated_Source\PSoC4/I2C_1_I2C_MASTER.c **** ********************************************************************************
 897:.\Generated_Source\PSoC4/I2C_1_I2C_MASTER.c **** *
 898:.\Generated_Source\PSoC4/I2C_1_I2C_MASTER.c **** * Summary:
 899:.\Generated_Source\PSoC4/I2C_1_I2C_MASTER.c **** *  Generates a ReStart condition:
 900:.\Generated_Source\PSoC4/I2C_1_I2C_MASTER.c **** *  SCB IP V1 and later: Generates ReStart using the scb IP functionality
 901:.\Generated_Source\PSoC4/I2C_1_I2C_MASTER.c **** *    Sets the I2C_MASTER_CMD_M_START and I2C_MASTER_CMD_M_NACK (if the previous
 902:.\Generated_Source\PSoC4/I2C_1_I2C_MASTER.c **** *    transaction was read) bits in the SCB.I2C_MASTER_CMD register. This combination
 903:.\Generated_Source\PSoC4/I2C_1_I2C_MASTER.c **** *    forces the master to generate ReStart.
 904:.\Generated_Source\PSoC4/I2C_1_I2C_MASTER.c **** *
 905:.\Generated_Source\PSoC4/I2C_1_I2C_MASTER.c **** *  SCB IP V0: Generates Restart using the GPIO and scb IP functionality.
 906:.\Generated_Source\PSoC4/I2C_1_I2C_MASTER.c **** *   After the master completes write or read, the SCL is stretched. The master waits
 907:.\Generated_Source\PSoC4/I2C_1_I2C_MASTER.c **** *   until SDA line is released by the slave. Then the GPIO function is enabled and
 908:.\Generated_Source\PSoC4/I2C_1_I2C_MASTER.c **** *   the scb IP disabled as it already does not drive the bus. In case of the previous
 909:.\Generated_Source\PSoC4/I2C_1_I2C_MASTER.c **** *   transfer was read, the NACK is generated by the GPIO. The delay of tLOW is
 910:.\Generated_Source\PSoC4/I2C_1_I2C_MASTER.c **** *   added to manage the hold time. Set I2C_M_CMD.START and enable the scb IP.
 911:.\Generated_Source\PSoC4/I2C_1_I2C_MASTER.c **** *   The ReStart generation is started after the I2C function is enabled for the SCL.
 912:.\Generated_Source\PSoC4/I2C_1_I2C_MASTER.c **** *   Note1: the scb IP due re-enable generates Start but on the I2C bus it
 913:.\Generated_Source\PSoC4/I2C_1_I2C_MASTER.c **** *          appears as ReStart.
 914:.\Generated_Source\PSoC4/I2C_1_I2C_MASTER.c **** *   Note2: the I2C_M_CMD.START is queued if scb IP is disabled.
 915:.\Generated_Source\PSoC4/I2C_1_I2C_MASTER.c **** *   Note3: the I2C_STATUS_M_READ is cleared is address was NACKed before.
 916:.\Generated_Source\PSoC4/I2C_1_I2C_MASTER.c **** *
 917:.\Generated_Source\PSoC4/I2C_1_I2C_MASTER.c **** * Parameters:
 918:.\Generated_Source\PSoC4/I2C_1_I2C_MASTER.c **** *  None
 919:.\Generated_Source\PSoC4/I2C_1_I2C_MASTER.c **** *
 920:.\Generated_Source\PSoC4/I2C_1_I2C_MASTER.c **** * Return:
 921:.\Generated_Source\PSoC4/I2C_1_I2C_MASTER.c **** *  None
 922:.\Generated_Source\PSoC4/I2C_1_I2C_MASTER.c **** *
ARM GAS  C:\Users\Eric\AppData\Local\Temp\ccfZjnId.s 			page 43


 923:.\Generated_Source\PSoC4/I2C_1_I2C_MASTER.c **** * Side Effects:
 924:.\Generated_Source\PSoC4/I2C_1_I2C_MASTER.c **** *  SCB IP V0: The NACK generation by the GPIO may cause a greater SCL period than
 925:.\Generated_Source\PSoC4/I2C_1_I2C_MASTER.c **** *  expected for the selected master data rate.
 926:.\Generated_Source\PSoC4/I2C_1_I2C_MASTER.c **** *
 927:.\Generated_Source\PSoC4/I2C_1_I2C_MASTER.c **** *******************************************************************************/
 928:.\Generated_Source\PSoC4/I2C_1_I2C_MASTER.c **** void I2C_1_I2CReStartGeneration(void)
 929:.\Generated_Source\PSoC4/I2C_1_I2C_MASTER.c **** {
 1472              		.loc 1 929 0
 1473              		.cfi_startproc
 1474 0000 80B5     		push	{r7, lr}
 1475              	.LCFI35:
 1476              		.cfi_def_cfa_offset 8
 1477              		.cfi_offset 7, -8
 1478              		.cfi_offset 14, -4
 1479 0002 82B0     		sub	sp, sp, #8
 1480              	.LCFI36:
 1481              		.cfi_def_cfa_offset 16
 1482 0004 00AF     		add	r7, sp, #0
 1483              	.LCFI37:
 1484              		.cfi_def_cfa_register 7
 930:.\Generated_Source\PSoC4/I2C_1_I2C_MASTER.c **** #if(I2C_1_CY_SCBIP_V0)
 931:.\Generated_Source\PSoC4/I2C_1_I2C_MASTER.c ****     /* Generates Restart use GPIO and scb IP functionality. Ticket ID#143715,
 932:.\Generated_Source\PSoC4/I2C_1_I2C_MASTER.c ****     ID#145238 and ID#173656 */
 933:.\Generated_Source\PSoC4/I2C_1_I2C_MASTER.c ****     uint32 status = I2C_1_I2C_STATUS_REG;
 1485              		.loc 1 933 0
 1486 0006 264B     		ldr	r3, .L107
 1487 0008 1B68     		ldr	r3, [r3]
 1488 000a 7B60     		str	r3, [r7, #4]
 934:.\Generated_Source\PSoC4/I2C_1_I2C_MASTER.c **** 
 935:.\Generated_Source\PSoC4/I2C_1_I2C_MASTER.c ****     while(I2C_1_WAIT_SDA_SET_HIGH)
 1489              		.loc 1 935 0
 1490 000c C046     		mov	r8, r8
 1491              	.L104:
 1492              		.loc 1 935 0 is_stmt 0 discriminator 1
 1493 000e FFF7FEFF 		bl	I2C_1_sda_Read
 1494 0012 031C     		mov	r3, r0
 1495 0014 002B     		cmp	r3, #0
 1496 0016 FAD0     		beq	.L104
 936:.\Generated_Source\PSoC4/I2C_1_I2C_MASTER.c ****     {
 937:.\Generated_Source\PSoC4/I2C_1_I2C_MASTER.c ****         /* Wait when slave release SDA line: SCL tHIGH is complete */
 938:.\Generated_Source\PSoC4/I2C_1_I2C_MASTER.c ****     }
 939:.\Generated_Source\PSoC4/I2C_1_I2C_MASTER.c **** 
 940:.\Generated_Source\PSoC4/I2C_1_I2C_MASTER.c ****     /* Prepare DR register to drive SCL line */
 941:.\Generated_Source\PSoC4/I2C_1_I2C_MASTER.c ****     I2C_1_SET_I2C_SCL_DR(I2C_1_I2C_SCL_LOW);
 1497              		.loc 1 941 0 is_stmt 1
 1498 0018 0020     		mov	r0, #0
 1499 001a FFF7FEFF 		bl	I2C_1_scl_Write
 942:.\Generated_Source\PSoC4/I2C_1_I2C_MASTER.c **** 
 943:.\Generated_Source\PSoC4/I2C_1_I2C_MASTER.c ****     /* Switch HSIOM to GPIO: SCL goes low */
 944:.\Generated_Source\PSoC4/I2C_1_I2C_MASTER.c ****     I2C_1_SET_I2C_SCL_HSIOM_SEL(I2C_1_HSIOM_GPIO_SEL);
 1500              		.loc 1 944 0
 1501 001e 214B     		ldr	r3, .L107+4
 1502 0020 204A     		ldr	r2, .L107+4
 1503 0022 1268     		ldr	r2, [r2]
 1504 0024 0F21     		mov	r1, #15
 1505 0026 8A43     		bic	r2, r1
 1506 0028 1A60     		str	r2, [r3]
ARM GAS  C:\Users\Eric\AppData\Local\Temp\ccfZjnId.s 			page 44


 945:.\Generated_Source\PSoC4/I2C_1_I2C_MASTER.c **** 
 946:.\Generated_Source\PSoC4/I2C_1_I2C_MASTER.c ****     /* Disable SCB block */
 947:.\Generated_Source\PSoC4/I2C_1_I2C_MASTER.c ****     I2C_1_CTRL_REG &= (uint32) ~I2C_1_CTRL_ENABLED;
 1507              		.loc 1 947 0
 1508 002a 1F4B     		ldr	r3, .L107+8
 1509 002c 1E4A     		ldr	r2, .L107+8
 1510 002e 1268     		ldr	r2, [r2]
 1511 0030 5200     		lsl	r2, r2, #1
 1512 0032 5208     		lsr	r2, r2, #1
 1513 0034 1A60     		str	r2, [r3]
 948:.\Generated_Source\PSoC4/I2C_1_I2C_MASTER.c **** 
 949:.\Generated_Source\PSoC4/I2C_1_I2C_MASTER.c ****     if(0u != (status & I2C_1_I2C_STATUS_M_READ))
 1514              		.loc 1 949 0
 1515 0036 7A68     		ldr	r2, [r7, #4]
 1516 0038 2023     		mov	r3, #32
 1517 003a 1340     		and	r3, r2
 1518 003c 11D0     		beq	.L105
 950:.\Generated_Source\PSoC4/I2C_1_I2C_MASTER.c ****     {
 951:.\Generated_Source\PSoC4/I2C_1_I2C_MASTER.c ****         /* Generate NACK use GPIO functionality */
 952:.\Generated_Source\PSoC4/I2C_1_I2C_MASTER.c ****         I2C_1_SET_I2C_SCL_DR(I2C_1_I2C_SCL_LOW);
 1519              		.loc 1 952 0
 1520 003e 0020     		mov	r0, #0
 1521 0040 FFF7FEFF 		bl	I2C_1_scl_Write
 953:.\Generated_Source\PSoC4/I2C_1_I2C_MASTER.c ****         CyDelayUs(I2C_1_I2C_TLOW_TIME); /* Count tLOW */
 1522              		.loc 1 953 0
 1523 0044 0A20     		mov	r0, #10
 1524 0046 FFF7FEFF 		bl	CyDelayUs
 954:.\Generated_Source\PSoC4/I2C_1_I2C_MASTER.c **** 
 955:.\Generated_Source\PSoC4/I2C_1_I2C_MASTER.c ****         I2C_1_SET_I2C_SCL_DR(I2C_1_I2C_SCL_HIGH);
 1525              		.loc 1 955 0
 1526 004a 0120     		mov	r0, #1
 1527 004c FFF7FEFF 		bl	I2C_1_scl_Write
 956:.\Generated_Source\PSoC4/I2C_1_I2C_MASTER.c ****         while(I2C_1_WAIT_SCL_SET_HIGH)
 1528              		.loc 1 956 0
 1529 0050 C046     		mov	r8, r8
 1530              	.L106:
 1531              		.loc 1 956 0 is_stmt 0 discriminator 1
 1532 0052 FFF7FEFF 		bl	I2C_1_scl_Read
 1533 0056 031C     		mov	r3, r0
 1534 0058 002B     		cmp	r3, #0
 1535 005a FAD0     		beq	.L106
 957:.\Generated_Source\PSoC4/I2C_1_I2C_MASTER.c ****         {
 958:.\Generated_Source\PSoC4/I2C_1_I2C_MASTER.c ****             /* Wait until slave releases SCL in case if it stretches */
 959:.\Generated_Source\PSoC4/I2C_1_I2C_MASTER.c ****         }
 960:.\Generated_Source\PSoC4/I2C_1_I2C_MASTER.c ****         CyDelayUs(I2C_1_I2C_THIGH_TIME); /* Count tHIGH */
 1536              		.loc 1 960 0 is_stmt 1
 1537 005c 0A20     		mov	r0, #10
 1538 005e FFF7FEFF 		bl	CyDelayUs
 1539              	.L105:
 961:.\Generated_Source\PSoC4/I2C_1_I2C_MASTER.c ****     }
 962:.\Generated_Source\PSoC4/I2C_1_I2C_MASTER.c **** 
 963:.\Generated_Source\PSoC4/I2C_1_I2C_MASTER.c ****     /* Count tLOW as hold time for write and read */
 964:.\Generated_Source\PSoC4/I2C_1_I2C_MASTER.c ****     I2C_1_SET_I2C_SCL_DR(I2C_1_I2C_SCL_LOW);
 1540              		.loc 1 964 0
 1541 0062 0020     		mov	r0, #0
 1542 0064 FFF7FEFF 		bl	I2C_1_scl_Write
 965:.\Generated_Source\PSoC4/I2C_1_I2C_MASTER.c ****     CyDelayUs(I2C_1_I2C_TLOW_TIME); /* Count tLOW */
ARM GAS  C:\Users\Eric\AppData\Local\Temp\ccfZjnId.s 			page 45


 1543              		.loc 1 965 0
 1544 0068 0A20     		mov	r0, #10
 1545 006a FFF7FEFF 		bl	CyDelayUs
 966:.\Generated_Source\PSoC4/I2C_1_I2C_MASTER.c **** 
 967:.\Generated_Source\PSoC4/I2C_1_I2C_MASTER.c ****     /* Set command for Start generation: it will appear */
 968:.\Generated_Source\PSoC4/I2C_1_I2C_MASTER.c ****     I2C_1_I2C_MASTER_CMD_REG = I2C_1_I2C_MASTER_CMD_M_START;
 1546              		.loc 1 968 0
 1547 006e 0F4B     		ldr	r3, .L107+12
 1548 0070 0122     		mov	r2, #1
 1549 0072 1A60     		str	r2, [r3]
 969:.\Generated_Source\PSoC4/I2C_1_I2C_MASTER.c **** 
 970:.\Generated_Source\PSoC4/I2C_1_I2C_MASTER.c ****     /* Enable SCB block */
 971:.\Generated_Source\PSoC4/I2C_1_I2C_MASTER.c ****     I2C_1_CTRL_REG |= (uint32) I2C_1_CTRL_ENABLED;
 1550              		.loc 1 971 0
 1551 0074 0C4B     		ldr	r3, .L107+8
 1552 0076 0C4A     		ldr	r2, .L107+8
 1553 0078 1268     		ldr	r2, [r2]
 1554 007a 8021     		mov	r1, #128
 1555 007c 0906     		lsl	r1, r1, #24
 1556 007e 0A43     		orr	r2, r1
 1557 0080 1A60     		str	r2, [r3]
 972:.\Generated_Source\PSoC4/I2C_1_I2C_MASTER.c **** 
 973:.\Generated_Source\PSoC4/I2C_1_I2C_MASTER.c ****     /* Switch HSIOM to I2C: */
 974:.\Generated_Source\PSoC4/I2C_1_I2C_MASTER.c ****     I2C_1_SET_I2C_SCL_HSIOM_SEL(I2C_1_HSIOM_I2C_SEL);
 1558              		.loc 1 974 0
 1559 0082 084B     		ldr	r3, .L107+4
 1560 0084 074A     		ldr	r2, .L107+4
 1561 0086 1268     		ldr	r2, [r2]
 1562 0088 0F21     		mov	r1, #15
 1563 008a 8A43     		bic	r2, r1
 1564 008c 0E21     		mov	r1, #14
 1565 008e 0A43     		orr	r2, r1
 1566 0090 1A60     		str	r2, [r3]
 975:.\Generated_Source\PSoC4/I2C_1_I2C_MASTER.c **** 
 976:.\Generated_Source\PSoC4/I2C_1_I2C_MASTER.c ****     /* Revert SCL DR register */
 977:.\Generated_Source\PSoC4/I2C_1_I2C_MASTER.c ****     I2C_1_SET_I2C_SCL_DR(I2C_1_I2C_SCL_HIGH);
 1567              		.loc 1 977 0
 1568 0092 0120     		mov	r0, #1
 1569 0094 FFF7FEFF 		bl	I2C_1_scl_Write
 978:.\Generated_Source\PSoC4/I2C_1_I2C_MASTER.c **** #else
 979:.\Generated_Source\PSoC4/I2C_1_I2C_MASTER.c ****     uint32 cmd;
 980:.\Generated_Source\PSoC4/I2C_1_I2C_MASTER.c **** 
 981:.\Generated_Source\PSoC4/I2C_1_I2C_MASTER.c ****     /* Generates ReStart use scb IP functionality */
 982:.\Generated_Source\PSoC4/I2C_1_I2C_MASTER.c ****     cmd  = I2C_1_I2C_MASTER_CMD_M_START;
 983:.\Generated_Source\PSoC4/I2C_1_I2C_MASTER.c ****     cmd |= I2C_1_CHECK_I2C_STATUS(I2C_1_I2C_STATUS_M_READ) ?
 984:.\Generated_Source\PSoC4/I2C_1_I2C_MASTER.c ****                 (I2C_1_I2C_MASTER_CMD_M_NACK) : (0u);
 985:.\Generated_Source\PSoC4/I2C_1_I2C_MASTER.c **** 
 986:.\Generated_Source\PSoC4/I2C_1_I2C_MASTER.c ****     I2C_1_I2C_MASTER_CMD_REG = cmd;
 987:.\Generated_Source\PSoC4/I2C_1_I2C_MASTER.c **** #endif /* (I2C_1_CY_SCBIP_V1) */
 988:.\Generated_Source\PSoC4/I2C_1_I2C_MASTER.c **** }
 1570              		.loc 1 988 0
 1571 0098 BD46     		mov	sp, r7
 1572 009a 02B0     		add	sp, sp, #8
 1573              		@ sp needed for prologue
 1574 009c 80BD     		pop	{r7, pc}
 1575              	.L108:
 1576 009e C046     		.align	2
ARM GAS  C:\Users\Eric\AppData\Local\Temp\ccfZjnId.s 			page 46


 1577              	.L107:
 1578 00a0 64000640 		.word	1074135140
 1579 00a4 10000140 		.word	1073807376
 1580 00a8 00000640 		.word	1074135040
 1581 00ac 68000640 		.word	1074135144
 1582              		.cfi_endproc
 1583              	.LFE13:
 1584              		.size	I2C_1_I2CReStartGeneration, .-I2C_1_I2CReStartGeneration
 1585              		.text
 1586              	.Letext0:
 1587              		.file 2 "./Generated_Source/PSoC4/cytypes.h"
 1588              		.file 3 ".\\Generated_Source\\PSoC4\\I2C_1_I2C_PVT.h"
 1589              		.section	.debug_info,"",%progbits
 1590              	.Ldebug_info0:
 1591 0000 B6040000 		.4byte	0x4b6
 1592 0004 0200     		.2byte	0x2
 1593 0006 00000000 		.4byte	.Ldebug_abbrev0
 1594 000a 04       		.byte	0x4
 1595 000b 01       		.uleb128 0x1
 1596 000c 3E030000 		.4byte	.LASF50
 1597 0010 01       		.byte	0x1
 1598 0011 23010000 		.4byte	.LASF51
 1599 0015 2C000000 		.4byte	.LASF52
 1600 0019 00000000 		.4byte	.Ldebug_ranges0+0
 1601 001d 00000000 		.4byte	0
 1602 0021 00000000 		.4byte	0
 1603 0025 00000000 		.4byte	.Ldebug_line0
 1604 0029 02       		.uleb128 0x2
 1605 002a 01       		.byte	0x1
 1606 002b 06       		.byte	0x6
 1607 002c A5030000 		.4byte	.LASF0
 1608 0030 02       		.uleb128 0x2
 1609 0031 01       		.byte	0x1
 1610 0032 08       		.byte	0x8
 1611 0033 15010000 		.4byte	.LASF1
 1612 0037 02       		.uleb128 0x2
 1613 0038 02       		.byte	0x2
 1614 0039 05       		.byte	0x5
 1615 003a 2C030000 		.4byte	.LASF2
 1616 003e 02       		.uleb128 0x2
 1617 003f 02       		.byte	0x2
 1618 0040 07       		.byte	0x7
 1619 0041 B3000000 		.4byte	.LASF3
 1620 0045 02       		.uleb128 0x2
 1621 0046 04       		.byte	0x4
 1622 0047 05       		.byte	0x5
 1623 0048 9C030000 		.4byte	.LASF4
 1624 004c 02       		.uleb128 0x2
 1625 004d 04       		.byte	0x4
 1626 004e 07       		.byte	0x7
 1627 004f 68010000 		.4byte	.LASF5
 1628 0053 02       		.uleb128 0x2
 1629 0054 08       		.byte	0x8
 1630 0055 05       		.byte	0x5
 1631 0056 B9020000 		.4byte	.LASF6
 1632 005a 02       		.uleb128 0x2
 1633 005b 08       		.byte	0x8
ARM GAS  C:\Users\Eric\AppData\Local\Temp\ccfZjnId.s 			page 47


 1634 005c 07       		.byte	0x7
 1635 005d 56020000 		.4byte	.LASF7
 1636 0061 03       		.uleb128 0x3
 1637 0062 04       		.byte	0x4
 1638 0063 05       		.byte	0x5
 1639 0064 696E7400 		.ascii	"int\000"
 1640 0068 02       		.uleb128 0x2
 1641 0069 04       		.byte	0x4
 1642 006a 07       		.byte	0x7
 1643 006b 42020000 		.4byte	.LASF8
 1644 006f 04       		.uleb128 0x4
 1645 0070 95010000 		.4byte	.LASF9
 1646 0074 02       		.byte	0x2
 1647 0075 5B       		.byte	0x5b
 1648 0076 30000000 		.4byte	0x30
 1649 007a 04       		.uleb128 0x4
 1650 007b 0B020000 		.4byte	.LASF10
 1651 007f 02       		.byte	0x2
 1652 0080 5C       		.byte	0x5c
 1653 0081 3E000000 		.4byte	0x3e
 1654 0085 04       		.uleb128 0x4
 1655 0086 2F020000 		.4byte	.LASF11
 1656 008a 02       		.byte	0x2
 1657 008b 5D       		.byte	0x5d
 1658 008c 4C000000 		.4byte	0x4c
 1659 0090 02       		.uleb128 0x2
 1660 0091 04       		.byte	0x4
 1661 0092 04       		.byte	0x4
 1662 0093 0F010000 		.4byte	.LASF12
 1663 0097 02       		.uleb128 0x2
 1664 0098 08       		.byte	0x8
 1665 0099 04       		.byte	0x4
 1666 009a AD010000 		.4byte	.LASF13
 1667 009e 02       		.uleb128 0x2
 1668 009f 01       		.byte	0x1
 1669 00a0 08       		.byte	0x8
 1670 00a1 DF020000 		.4byte	.LASF14
 1671 00a5 05       		.uleb128 0x5
 1672 00a6 6F000000 		.4byte	0x6f
 1673 00aa 05       		.uleb128 0x5
 1674 00ab 7A000000 		.4byte	0x7a
 1675 00af 04       		.uleb128 0x4
 1676 00b0 00000000 		.4byte	.LASF15
 1677 00b4 02       		.byte	0x2
 1678 00b5 F2       		.byte	0xf2
 1679 00b6 BA000000 		.4byte	0xba
 1680 00ba 05       		.uleb128 0x5
 1681 00bb 85000000 		.4byte	0x85
 1682 00bf 02       		.uleb128 0x2
 1683 00c0 04       		.byte	0x4
 1684 00c1 07       		.byte	0x7
 1685 00c2 B0020000 		.4byte	.LASF16
 1686 00c6 06       		.uleb128 0x6
 1687 00c7 01       		.byte	0x1
 1688 00c8 E0030000 		.4byte	.LASF20
 1689 00cc 01       		.byte	0x1
 1690 00cd 4B       		.byte	0x4b
ARM GAS  C:\Users\Eric\AppData\Local\Temp\ccfZjnId.s 			page 48


 1691 00ce 01       		.byte	0x1
 1692 00cf 85000000 		.4byte	0x85
 1693 00d3 00000000 		.4byte	.LFB0
 1694 00d7 1C010000 		.4byte	.LFE0
 1695 00db 00000000 		.4byte	.LLST0
 1696 00df 01       		.byte	0x1
 1697 00e0 2B010000 		.4byte	0x12b
 1698 00e4 07       		.uleb128 0x7
 1699 00e5 8B020000 		.4byte	.LASF17
 1700 00e9 01       		.byte	0x1
 1701 00ea 4B       		.byte	0x4b
 1702 00eb 85000000 		.4byte	0x85
 1703 00ef 02       		.byte	0x2
 1704 00f0 91       		.byte	0x91
 1705 00f1 6C       		.sleb128 -20
 1706 00f2 07       		.uleb128 0x7
 1707 00f3 4F020000 		.4byte	.LASF18
 1708 00f7 01       		.byte	0x1
 1709 00f8 4B       		.byte	0x4b
 1710 00f9 2B010000 		.4byte	0x12b
 1711 00fd 02       		.byte	0x2
 1712 00fe 91       		.byte	0x91
 1713 00ff 68       		.sleb128 -24
 1714 0100 08       		.uleb128 0x8
 1715 0101 636E7400 		.ascii	"cnt\000"
 1716 0105 01       		.byte	0x1
 1717 0106 4B       		.byte	0x4b
 1718 0107 85000000 		.4byte	0x85
 1719 010b 02       		.byte	0x2
 1720 010c 91       		.byte	0x91
 1721 010d 64       		.sleb128 -28
 1722 010e 07       		.uleb128 0x7
 1723 010f 86020000 		.4byte	.LASF19
 1724 0113 01       		.byte	0x1
 1725 0114 4B       		.byte	0x4b
 1726 0115 85000000 		.4byte	0x85
 1727 0119 02       		.byte	0x2
 1728 011a 91       		.byte	0x91
 1729 011b 60       		.sleb128 -32
 1730 011c 09       		.uleb128 0x9
 1731 011d A3010000 		.4byte	.LASF23
 1732 0121 01       		.byte	0x1
 1733 0122 4D       		.byte	0x4d
 1734 0123 85000000 		.4byte	0x85
 1735 0127 02       		.byte	0x2
 1736 0128 91       		.byte	0x91
 1737 0129 74       		.sleb128 -12
 1738 012a 00       		.byte	0
 1739 012b 0A       		.uleb128 0xa
 1740 012c 04       		.byte	0x4
 1741 012d 6F000000 		.4byte	0x6f
 1742 0131 06       		.uleb128 0x6
 1743 0132 01       		.byte	0x1
 1744 0133 F7020000 		.4byte	.LASF21
 1745 0137 01       		.byte	0x1
 1746 0138 B1       		.byte	0xb1
 1747 0139 01       		.byte	0x1
ARM GAS  C:\Users\Eric\AppData\Local\Temp\ccfZjnId.s 			page 49


 1748 013a 85000000 		.4byte	0x85
 1749 013e 00000000 		.4byte	.LFB1
 1750 0142 2C010000 		.4byte	.LFE1
 1751 0146 38000000 		.4byte	.LLST1
 1752 014a 01       		.byte	0x1
 1753 014b 96010000 		.4byte	0x196
 1754 014f 07       		.uleb128 0x7
 1755 0150 8B020000 		.4byte	.LASF17
 1756 0154 01       		.byte	0x1
 1757 0155 B1       		.byte	0xb1
 1758 0156 85000000 		.4byte	0x85
 1759 015a 02       		.byte	0x2
 1760 015b 91       		.byte	0x91
 1761 015c 6C       		.sleb128 -20
 1762 015d 07       		.uleb128 0x7
 1763 015e 28020000 		.4byte	.LASF22
 1764 0162 01       		.byte	0x1
 1765 0163 B1       		.byte	0xb1
 1766 0164 2B010000 		.4byte	0x12b
 1767 0168 02       		.byte	0x2
 1768 0169 91       		.byte	0x91
 1769 016a 68       		.sleb128 -24
 1770 016b 08       		.uleb128 0x8
 1771 016c 636E7400 		.ascii	"cnt\000"
 1772 0170 01       		.byte	0x1
 1773 0171 B1       		.byte	0xb1
 1774 0172 85000000 		.4byte	0x85
 1775 0176 02       		.byte	0x2
 1776 0177 91       		.byte	0x91
 1777 0178 64       		.sleb128 -28
 1778 0179 07       		.uleb128 0x7
 1779 017a 86020000 		.4byte	.LASF19
 1780 017e 01       		.byte	0x1
 1781 017f B1       		.byte	0xb1
 1782 0180 85000000 		.4byte	0x85
 1783 0184 02       		.byte	0x2
 1784 0185 91       		.byte	0x91
 1785 0186 60       		.sleb128 -32
 1786 0187 09       		.uleb128 0x9
 1787 0188 A3010000 		.4byte	.LASF23
 1788 018c 01       		.byte	0x1
 1789 018d B3       		.byte	0xb3
 1790 018e 85000000 		.4byte	0x85
 1791 0192 02       		.byte	0x2
 1792 0193 91       		.byte	0x91
 1793 0194 74       		.sleb128 -12
 1794 0195 00       		.byte	0
 1795 0196 0B       		.uleb128 0xb
 1796 0197 01       		.byte	0x1
 1797 0198 6D020000 		.4byte	.LASF24
 1798 019c 01       		.byte	0x1
 1799 019d 1301     		.2byte	0x113
 1800 019f 01       		.byte	0x1
 1801 01a0 85000000 		.4byte	0x85
 1802 01a4 00000000 		.4byte	.LFB2
 1803 01a8 10010000 		.4byte	.LFE2
 1804 01ac 70000000 		.4byte	.LLST2
ARM GAS  C:\Users\Eric\AppData\Local\Temp\ccfZjnId.s 			page 50


 1805 01b0 01       		.byte	0x1
 1806 01b1 F2010000 		.4byte	0x1f2
 1807 01b5 0C       		.uleb128 0xc
 1808 01b6 8B020000 		.4byte	.LASF17
 1809 01ba 01       		.byte	0x1
 1810 01bb 1301     		.2byte	0x113
 1811 01bd 85000000 		.4byte	0x85
 1812 01c1 02       		.byte	0x2
 1813 01c2 91       		.byte	0x91
 1814 01c3 6C       		.sleb128 -20
 1815 01c4 0C       		.uleb128 0xc
 1816 01c5 D1010000 		.4byte	.LASF25
 1817 01c9 01       		.byte	0x1
 1818 01ca 1301     		.2byte	0x113
 1819 01cc 85000000 		.4byte	0x85
 1820 01d0 02       		.byte	0x2
 1821 01d1 91       		.byte	0x91
 1822 01d2 68       		.sleb128 -24
 1823 01d3 0D       		.uleb128 0xd
 1824 01d4 EB000000 		.4byte	.LASF26
 1825 01d8 01       		.byte	0x1
 1826 01d9 1501     		.2byte	0x115
 1827 01db 85000000 		.4byte	0x85
 1828 01df 02       		.byte	0x2
 1829 01e0 91       		.byte	0x91
 1830 01e1 74       		.sleb128 -12
 1831 01e2 0D       		.uleb128 0xd
 1832 01e3 A3010000 		.4byte	.LASF23
 1833 01e7 01       		.byte	0x1
 1834 01e8 1601     		.2byte	0x116
 1835 01ea 85000000 		.4byte	0x85
 1836 01ee 02       		.byte	0x2
 1837 01ef 91       		.byte	0x91
 1838 01f0 70       		.sleb128 -16
 1839 01f1 00       		.byte	0
 1840 01f2 0B       		.uleb128 0xb
 1841 01f3 01       		.byte	0x1
 1842 01f4 B1030000 		.4byte	.LASF27
 1843 01f8 01       		.byte	0x1
 1844 01f9 8301     		.2byte	0x183
 1845 01fb 01       		.byte	0x1
 1846 01fc 85000000 		.4byte	0x85
 1847 0200 00000000 		.4byte	.LFB3
 1848 0204 08010000 		.4byte	.LFE3
 1849 0208 A8000000 		.4byte	.LLST3
 1850 020c 01       		.byte	0x1
 1851 020d 4E020000 		.4byte	0x24e
 1852 0211 0C       		.uleb128 0xc
 1853 0212 8B020000 		.4byte	.LASF17
 1854 0216 01       		.byte	0x1
 1855 0217 8301     		.2byte	0x183
 1856 0219 85000000 		.4byte	0x85
 1857 021d 02       		.byte	0x2
 1858 021e 91       		.byte	0x91
 1859 021f 6C       		.sleb128 -20
 1860 0220 0C       		.uleb128 0xc
 1861 0221 D1010000 		.4byte	.LASF25
ARM GAS  C:\Users\Eric\AppData\Local\Temp\ccfZjnId.s 			page 51


 1862 0225 01       		.byte	0x1
 1863 0226 8301     		.2byte	0x183
 1864 0228 85000000 		.4byte	0x85
 1865 022c 02       		.byte	0x2
 1866 022d 91       		.byte	0x91
 1867 022e 68       		.sleb128 -24
 1868 022f 0D       		.uleb128 0xd
 1869 0230 EB000000 		.4byte	.LASF26
 1870 0234 01       		.byte	0x1
 1871 0235 8501     		.2byte	0x185
 1872 0237 85000000 		.4byte	0x85
 1873 023b 02       		.byte	0x2
 1874 023c 91       		.byte	0x91
 1875 023d 74       		.sleb128 -12
 1876 023e 0D       		.uleb128 0xd
 1877 023f A3010000 		.4byte	.LASF23
 1878 0243 01       		.byte	0x1
 1879 0244 8601     		.2byte	0x186
 1880 0246 85000000 		.4byte	0x85
 1881 024a 02       		.byte	0x2
 1882 024b 91       		.byte	0x91
 1883 024c 70       		.sleb128 -16
 1884 024d 00       		.byte	0
 1885 024e 0E       		.uleb128 0xe
 1886 024f 01       		.byte	0x1
 1887 0250 C7020000 		.4byte	.LASF28
 1888 0254 01       		.byte	0x1
 1889 0255 F701     		.2byte	0x1f7
 1890 0257 01       		.byte	0x1
 1891 0258 85000000 		.4byte	0x85
 1892 025c 00000000 		.4byte	.LFB4
 1893 0260 BC000000 		.4byte	.LFE4
 1894 0264 E0000000 		.4byte	.LLST4
 1895 0268 01       		.byte	0x1
 1896 0269 8C020000 		.4byte	0x28c
 1897 026d 0D       		.uleb128 0xd
 1898 026e EB000000 		.4byte	.LASF26
 1899 0272 01       		.byte	0x1
 1900 0273 F901     		.2byte	0x1f9
 1901 0275 85000000 		.4byte	0x85
 1902 0279 02       		.byte	0x2
 1903 027a 91       		.byte	0x91
 1904 027b 74       		.sleb128 -12
 1905 027c 0D       		.uleb128 0xd
 1906 027d A3010000 		.4byte	.LASF23
 1907 0281 01       		.byte	0x1
 1908 0282 FA01     		.2byte	0x1fa
 1909 0284 85000000 		.4byte	0x85
 1910 0288 02       		.byte	0x2
 1911 0289 91       		.byte	0x91
 1912 028a 70       		.sleb128 -16
 1913 028b 00       		.byte	0
 1914 028c 0E       		.uleb128 0xe
 1915 028d 01       		.byte	0x1
 1916 028e 4F010000 		.4byte	.LASF29
 1917 0292 01       		.byte	0x1
 1918 0293 4802     		.2byte	0x248
ARM GAS  C:\Users\Eric\AppData\Local\Temp\ccfZjnId.s 			page 52


 1919 0295 01       		.byte	0x1
 1920 0296 85000000 		.4byte	0x85
 1921 029a 00000000 		.4byte	.LFB5
 1922 029e CC000000 		.4byte	.LFE5
 1923 02a2 18010000 		.4byte	.LLST5
 1924 02a6 01       		.byte	0x1
 1925 02a7 D9020000 		.4byte	0x2d9
 1926 02ab 0C       		.uleb128 0xc
 1927 02ac 36030000 		.4byte	.LASF30
 1928 02b0 01       		.byte	0x1
 1929 02b1 4802     		.2byte	0x248
 1930 02b3 85000000 		.4byte	0x85
 1931 02b7 02       		.byte	0x2
 1932 02b8 91       		.byte	0x91
 1933 02b9 6C       		.sleb128 -20
 1934 02ba 0D       		.uleb128 0xd
 1935 02bb EB000000 		.4byte	.LASF26
 1936 02bf 01       		.byte	0x1
 1937 02c0 4A02     		.2byte	0x24a
 1938 02c2 85000000 		.4byte	0x85
 1939 02c6 02       		.byte	0x2
 1940 02c7 91       		.byte	0x91
 1941 02c8 74       		.sleb128 -12
 1942 02c9 0D       		.uleb128 0xd
 1943 02ca A3010000 		.4byte	.LASF23
 1944 02ce 01       		.byte	0x1
 1945 02cf 4B02     		.2byte	0x24b
 1946 02d1 85000000 		.4byte	0x85
 1947 02d5 02       		.byte	0x2
 1948 02d6 91       		.byte	0x91
 1949 02d7 70       		.sleb128 -16
 1950 02d8 00       		.byte	0
 1951 02d9 0E       		.uleb128 0xe
 1952 02da 01       		.byte	0x1
 1953 02db 98020000 		.4byte	.LASF31
 1954 02df 01       		.byte	0x1
 1955 02e0 A102     		.2byte	0x2a1
 1956 02e2 01       		.byte	0x1
 1957 02e3 85000000 		.4byte	0x85
 1958 02e7 00000000 		.4byte	.LFB6
 1959 02eb AC000000 		.4byte	.LFE6
 1960 02ef 50010000 		.4byte	.LLST6
 1961 02f3 01       		.byte	0x1
 1962 02f4 17030000 		.4byte	0x317
 1963 02f8 0C       		.uleb128 0xc
 1964 02f9 9B010000 		.4byte	.LASF32
 1965 02fd 01       		.byte	0x1
 1966 02fe A102     		.2byte	0x2a1
 1967 0300 85000000 		.4byte	0x85
 1968 0304 02       		.byte	0x2
 1969 0305 91       		.byte	0x91
 1970 0306 6C       		.sleb128 -20
 1971 0307 0D       		.uleb128 0xd
 1972 0308 36030000 		.4byte	.LASF30
 1973 030c 01       		.byte	0x1
 1974 030d A302     		.2byte	0x2a3
 1975 030f 85000000 		.4byte	0x85
ARM GAS  C:\Users\Eric\AppData\Local\Temp\ccfZjnId.s 			page 53


 1976 0313 02       		.byte	0x2
 1977 0314 91       		.byte	0x91
 1978 0315 74       		.sleb128 -12
 1979 0316 00       		.byte	0
 1980 0317 0F       		.uleb128 0xf
 1981 0318 01       		.byte	0x1
 1982 0319 0E030000 		.4byte	.LASF33
 1983 031d 01       		.byte	0x1
 1984 031e E802     		.2byte	0x2e8
 1985 0320 01       		.byte	0x1
 1986 0321 85000000 		.4byte	0x85
 1987 0325 00000000 		.4byte	.LFB7
 1988 0329 14000000 		.4byte	.LFE7
 1989 032d 88010000 		.4byte	.LLST7
 1990 0331 01       		.byte	0x1
 1991 0332 0F       		.uleb128 0xf
 1992 0333 01       		.byte	0x1
 1993 0334 06000000 		.4byte	.LASF34
 1994 0338 01       		.byte	0x1
 1995 0339 0603     		.2byte	0x306
 1996 033b 01       		.byte	0x1
 1997 033c 85000000 		.4byte	0x85
 1998 0340 00000000 		.4byte	.LFB8
 1999 0344 14000000 		.4byte	.LFE8
 2000 0348 B4010000 		.4byte	.LLST8
 2001 034c 01       		.byte	0x1
 2002 034d 10       		.uleb128 0x10
 2003 034e 01       		.byte	0x1
 2004 034f F3000000 		.4byte	.LASF35
 2005 0353 01       		.byte	0x1
 2006 0354 1F03     		.2byte	0x31f
 2007 0356 01       		.byte	0x1
 2008 0357 00000000 		.4byte	.LFB9
 2009 035b 28000000 		.4byte	.LFE9
 2010 035f E0010000 		.4byte	.LLST9
 2011 0363 01       		.byte	0x1
 2012 0364 10       		.uleb128 0x10
 2013 0365 01       		.byte	0x1
 2014 0366 B4010000 		.4byte	.LASF36
 2015 036a 01       		.byte	0x1
 2016 036b 3903     		.2byte	0x339
 2017 036d 01       		.byte	0x1
 2018 036e 00000000 		.4byte	.LFB10
 2019 0372 28000000 		.4byte	.LFE10
 2020 0376 0C020000 		.4byte	.LLST10
 2021 037a 01       		.byte	0x1
 2022 037b 0E       		.uleb128 0xe
 2023 037c 01       		.byte	0x1
 2024 037d 12020000 		.4byte	.LASF37
 2025 0381 01       		.byte	0x1
 2026 0382 5103     		.2byte	0x351
 2027 0384 01       		.byte	0x1
 2028 0385 85000000 		.4byte	0x85
 2029 0389 00000000 		.4byte	.LFB11
 2030 038d 38000000 		.4byte	.LFE11
 2031 0391 38020000 		.4byte	.LLST11
 2032 0395 01       		.byte	0x1
ARM GAS  C:\Users\Eric\AppData\Local\Temp\ccfZjnId.s 			page 54


 2033 0396 AA030000 		.4byte	0x3aa
 2034 039a 0D       		.uleb128 0xd
 2035 039b 25000000 		.4byte	.LASF38
 2036 039f 01       		.byte	0x1
 2037 03a0 5303     		.2byte	0x353
 2038 03a2 85000000 		.4byte	0x85
 2039 03a6 02       		.byte	0x2
 2040 03a7 91       		.byte	0x91
 2041 03a8 74       		.sleb128 -12
 2042 03a9 00       		.byte	0
 2043 03aa 0E       		.uleb128 0xe
 2044 03ab 01       		.byte	0x1
 2045 03ac 7A010000 		.4byte	.LASF39
 2046 03b0 01       		.byte	0x1
 2047 03b1 7203     		.2byte	0x372
 2048 03b3 01       		.byte	0x1
 2049 03b4 85000000 		.4byte	0x85
 2050 03b8 00000000 		.4byte	.LFB12
 2051 03bc 24000000 		.4byte	.LFE12
 2052 03c0 70020000 		.4byte	.LLST12
 2053 03c4 01       		.byte	0x1
 2054 03c5 D9030000 		.4byte	0x3d9
 2055 03c9 0D       		.uleb128 0xd
 2056 03ca 25000000 		.4byte	.LASF38
 2057 03ce 01       		.byte	0x1
 2058 03cf 7403     		.2byte	0x374
 2059 03d1 85000000 		.4byte	0x85
 2060 03d5 02       		.byte	0x2
 2061 03d6 91       		.byte	0x91
 2062 03d7 74       		.sleb128 -12
 2063 03d8 00       		.byte	0
 2064 03d9 11       		.uleb128 0x11
 2065 03da 01       		.byte	0x1
 2066 03db D8010000 		.4byte	.LASF53
 2067 03df 01       		.byte	0x1
 2068 03e0 A003     		.2byte	0x3a0
 2069 03e2 01       		.byte	0x1
 2070 03e3 00000000 		.4byte	.LFB13
 2071 03e7 B0000000 		.4byte	.LFE13
 2072 03eb A8020000 		.4byte	.LLST13
 2073 03ef 01       		.byte	0x1
 2074 03f0 04040000 		.4byte	0x404
 2075 03f4 0D       		.uleb128 0xd
 2076 03f5 25000000 		.4byte	.LASF38
 2077 03f9 01       		.byte	0x1
 2078 03fa A503     		.2byte	0x3a5
 2079 03fc 85000000 		.4byte	0x85
 2080 0400 02       		.byte	0x2
 2081 0401 91       		.byte	0x91
 2082 0402 74       		.sleb128 -12
 2083 0403 00       		.byte	0
 2084 0404 12       		.uleb128 0x12
 2085 0405 36020000 		.4byte	.LASF40
 2086 0409 03       		.byte	0x3
 2087 040a 1D       		.byte	0x1d
 2088 040b A5000000 		.4byte	0xa5
 2089 040f 01       		.byte	0x1
ARM GAS  C:\Users\Eric\AppData\Local\Temp\ccfZjnId.s 			page 55


 2090 0410 01       		.byte	0x1
 2091 0411 13       		.uleb128 0x13
 2092 0412 DA000000 		.4byte	.LASF41
 2093 0416 01       		.byte	0x1
 2094 0417 1C       		.byte	0x1c
 2095 0418 AA000000 		.4byte	0xaa
 2096 041c 01       		.byte	0x1
 2097 041d 05       		.byte	0x5
 2098 041e 03       		.byte	0x3
 2099 041f 00000000 		.4byte	I2C_1_mstrStatus
 2100 0423 13       		.uleb128 0x13
 2101 0424 8E000000 		.4byte	.LASF42
 2102 0428 01       		.byte	0x1
 2103 0429 1D       		.byte	0x1d
 2104 042a A5000000 		.4byte	0xa5
 2105 042e 01       		.byte	0x1
 2106 042f 05       		.byte	0x5
 2107 0430 03       		.byte	0x3
 2108 0431 00000000 		.4byte	I2C_1_mstrControl
 2109 0435 13       		.uleb128 0x13
 2110 0436 E4020000 		.4byte	.LASF43
 2111 043a 01       		.byte	0x1
 2112 043b 20       		.byte	0x20
 2113 043c 47040000 		.4byte	0x447
 2114 0440 01       		.byte	0x1
 2115 0441 05       		.byte	0x5
 2116 0442 03       		.byte	0x3
 2117 0443 00000000 		.4byte	I2C_1_mstrRdBufPtr
 2118 0447 0A       		.uleb128 0xa
 2119 0448 04       		.byte	0x4
 2120 0449 A5000000 		.4byte	0xa5
 2121 044d 13       		.uleb128 0x13
 2122 044e CC030000 		.4byte	.LASF44
 2123 0452 01       		.byte	0x1
 2124 0453 21       		.byte	0x21
 2125 0454 BA000000 		.4byte	0xba
 2126 0458 01       		.byte	0x1
 2127 0459 05       		.byte	0x5
 2128 045a 03       		.byte	0x3
 2129 045b 00000000 		.4byte	I2C_1_mstrRdBufSize
 2130 045f 13       		.uleb128 0x13
 2131 0460 79000000 		.4byte	.LASF45
 2132 0464 01       		.byte	0x1
 2133 0465 22       		.byte	0x22
 2134 0466 BA000000 		.4byte	0xba
 2135 046a 01       		.byte	0x1
 2136 046b 05       		.byte	0x5
 2137 046c 03       		.byte	0x3
 2138 046d 00000000 		.4byte	I2C_1_mstrRdBufIndex
 2139 0471 13       		.uleb128 0x13
 2140 0472 A0000000 		.4byte	.LASF46
 2141 0476 01       		.byte	0x1
 2142 0477 25       		.byte	0x25
 2143 0478 47040000 		.4byte	0x447
 2144 047c 01       		.byte	0x1
 2145 047d 05       		.byte	0x5
 2146 047e 03       		.byte	0x3
ARM GAS  C:\Users\Eric\AppData\Local\Temp\ccfZjnId.s 			page 56


 2147 047f 00000000 		.4byte	I2C_1_mstrWrBufPtr
 2148 0483 13       		.uleb128 0x13
 2149 0484 C6000000 		.4byte	.LASF47
 2150 0488 01       		.byte	0x1
 2151 0489 26       		.byte	0x26
 2152 048a BA000000 		.4byte	0xba
 2153 048e 01       		.byte	0x1
 2154 048f 05       		.byte	0x5
 2155 0490 03       		.byte	0x3
 2156 0491 00000000 		.4byte	I2C_1_mstrWrBufSize
 2157 0495 13       		.uleb128 0x13
 2158 0496 87030000 		.4byte	.LASF48
 2159 049a 01       		.byte	0x1
 2160 049b 27       		.byte	0x27
 2161 049c BA000000 		.4byte	0xba
 2162 04a0 01       		.byte	0x1
 2163 04a1 05       		.byte	0x5
 2164 04a2 03       		.byte	0x3
 2165 04a3 00000000 		.4byte	I2C_1_mstrWrBufIndex
 2166 04a7 13       		.uleb128 0x13
 2167 04a8 F3010000 		.4byte	.LASF49
 2168 04ac 01       		.byte	0x1
 2169 04ad 28       		.byte	0x28
 2170 04ae BA000000 		.4byte	0xba
 2171 04b2 01       		.byte	0x1
 2172 04b3 05       		.byte	0x5
 2173 04b4 03       		.byte	0x3
 2174 04b5 00000000 		.4byte	I2C_1_mstrWrBufIndexTmp
 2175 04b9 00       		.byte	0
 2176              		.section	.debug_abbrev,"",%progbits
 2177              	.Ldebug_abbrev0:
 2178 0000 01       		.uleb128 0x1
 2179 0001 11       		.uleb128 0x11
 2180 0002 01       		.byte	0x1
 2181 0003 25       		.uleb128 0x25
 2182 0004 0E       		.uleb128 0xe
 2183 0005 13       		.uleb128 0x13
 2184 0006 0B       		.uleb128 0xb
 2185 0007 03       		.uleb128 0x3
 2186 0008 0E       		.uleb128 0xe
 2187 0009 1B       		.uleb128 0x1b
 2188 000a 0E       		.uleb128 0xe
 2189 000b 55       		.uleb128 0x55
 2190 000c 06       		.uleb128 0x6
 2191 000d 11       		.uleb128 0x11
 2192 000e 01       		.uleb128 0x1
 2193 000f 52       		.uleb128 0x52
 2194 0010 01       		.uleb128 0x1
 2195 0011 10       		.uleb128 0x10
 2196 0012 06       		.uleb128 0x6
 2197 0013 00       		.byte	0
 2198 0014 00       		.byte	0
 2199 0015 02       		.uleb128 0x2
 2200 0016 24       		.uleb128 0x24
 2201 0017 00       		.byte	0
 2202 0018 0B       		.uleb128 0xb
 2203 0019 0B       		.uleb128 0xb
ARM GAS  C:\Users\Eric\AppData\Local\Temp\ccfZjnId.s 			page 57


 2204 001a 3E       		.uleb128 0x3e
 2205 001b 0B       		.uleb128 0xb
 2206 001c 03       		.uleb128 0x3
 2207 001d 0E       		.uleb128 0xe
 2208 001e 00       		.byte	0
 2209 001f 00       		.byte	0
 2210 0020 03       		.uleb128 0x3
 2211 0021 24       		.uleb128 0x24
 2212 0022 00       		.byte	0
 2213 0023 0B       		.uleb128 0xb
 2214 0024 0B       		.uleb128 0xb
 2215 0025 3E       		.uleb128 0x3e
 2216 0026 0B       		.uleb128 0xb
 2217 0027 03       		.uleb128 0x3
 2218 0028 08       		.uleb128 0x8
 2219 0029 00       		.byte	0
 2220 002a 00       		.byte	0
 2221 002b 04       		.uleb128 0x4
 2222 002c 16       		.uleb128 0x16
 2223 002d 00       		.byte	0
 2224 002e 03       		.uleb128 0x3
 2225 002f 0E       		.uleb128 0xe
 2226 0030 3A       		.uleb128 0x3a
 2227 0031 0B       		.uleb128 0xb
 2228 0032 3B       		.uleb128 0x3b
 2229 0033 0B       		.uleb128 0xb
 2230 0034 49       		.uleb128 0x49
 2231 0035 13       		.uleb128 0x13
 2232 0036 00       		.byte	0
 2233 0037 00       		.byte	0
 2234 0038 05       		.uleb128 0x5
 2235 0039 35       		.uleb128 0x35
 2236 003a 00       		.byte	0
 2237 003b 49       		.uleb128 0x49
 2238 003c 13       		.uleb128 0x13
 2239 003d 00       		.byte	0
 2240 003e 00       		.byte	0
 2241 003f 06       		.uleb128 0x6
 2242 0040 2E       		.uleb128 0x2e
 2243 0041 01       		.byte	0x1
 2244 0042 3F       		.uleb128 0x3f
 2245 0043 0C       		.uleb128 0xc
 2246 0044 03       		.uleb128 0x3
 2247 0045 0E       		.uleb128 0xe
 2248 0046 3A       		.uleb128 0x3a
 2249 0047 0B       		.uleb128 0xb
 2250 0048 3B       		.uleb128 0x3b
 2251 0049 0B       		.uleb128 0xb
 2252 004a 27       		.uleb128 0x27
 2253 004b 0C       		.uleb128 0xc
 2254 004c 49       		.uleb128 0x49
 2255 004d 13       		.uleb128 0x13
 2256 004e 11       		.uleb128 0x11
 2257 004f 01       		.uleb128 0x1
 2258 0050 12       		.uleb128 0x12
 2259 0051 01       		.uleb128 0x1
 2260 0052 40       		.uleb128 0x40
ARM GAS  C:\Users\Eric\AppData\Local\Temp\ccfZjnId.s 			page 58


 2261 0053 06       		.uleb128 0x6
 2262 0054 9642     		.uleb128 0x2116
 2263 0056 0C       		.uleb128 0xc
 2264 0057 01       		.uleb128 0x1
 2265 0058 13       		.uleb128 0x13
 2266 0059 00       		.byte	0
 2267 005a 00       		.byte	0
 2268 005b 07       		.uleb128 0x7
 2269 005c 05       		.uleb128 0x5
 2270 005d 00       		.byte	0
 2271 005e 03       		.uleb128 0x3
 2272 005f 0E       		.uleb128 0xe
 2273 0060 3A       		.uleb128 0x3a
 2274 0061 0B       		.uleb128 0xb
 2275 0062 3B       		.uleb128 0x3b
 2276 0063 0B       		.uleb128 0xb
 2277 0064 49       		.uleb128 0x49
 2278 0065 13       		.uleb128 0x13
 2279 0066 02       		.uleb128 0x2
 2280 0067 0A       		.uleb128 0xa
 2281 0068 00       		.byte	0
 2282 0069 00       		.byte	0
 2283 006a 08       		.uleb128 0x8
 2284 006b 05       		.uleb128 0x5
 2285 006c 00       		.byte	0
 2286 006d 03       		.uleb128 0x3
 2287 006e 08       		.uleb128 0x8
 2288 006f 3A       		.uleb128 0x3a
 2289 0070 0B       		.uleb128 0xb
 2290 0071 3B       		.uleb128 0x3b
 2291 0072 0B       		.uleb128 0xb
 2292 0073 49       		.uleb128 0x49
 2293 0074 13       		.uleb128 0x13
 2294 0075 02       		.uleb128 0x2
 2295 0076 0A       		.uleb128 0xa
 2296 0077 00       		.byte	0
 2297 0078 00       		.byte	0
 2298 0079 09       		.uleb128 0x9
 2299 007a 34       		.uleb128 0x34
 2300 007b 00       		.byte	0
 2301 007c 03       		.uleb128 0x3
 2302 007d 0E       		.uleb128 0xe
 2303 007e 3A       		.uleb128 0x3a
 2304 007f 0B       		.uleb128 0xb
 2305 0080 3B       		.uleb128 0x3b
 2306 0081 0B       		.uleb128 0xb
 2307 0082 49       		.uleb128 0x49
 2308 0083 13       		.uleb128 0x13
 2309 0084 02       		.uleb128 0x2
 2310 0085 0A       		.uleb128 0xa
 2311 0086 00       		.byte	0
 2312 0087 00       		.byte	0
 2313 0088 0A       		.uleb128 0xa
 2314 0089 0F       		.uleb128 0xf
 2315 008a 00       		.byte	0
 2316 008b 0B       		.uleb128 0xb
 2317 008c 0B       		.uleb128 0xb
ARM GAS  C:\Users\Eric\AppData\Local\Temp\ccfZjnId.s 			page 59


 2318 008d 49       		.uleb128 0x49
 2319 008e 13       		.uleb128 0x13
 2320 008f 00       		.byte	0
 2321 0090 00       		.byte	0
 2322 0091 0B       		.uleb128 0xb
 2323 0092 2E       		.uleb128 0x2e
 2324 0093 01       		.byte	0x1
 2325 0094 3F       		.uleb128 0x3f
 2326 0095 0C       		.uleb128 0xc
 2327 0096 03       		.uleb128 0x3
 2328 0097 0E       		.uleb128 0xe
 2329 0098 3A       		.uleb128 0x3a
 2330 0099 0B       		.uleb128 0xb
 2331 009a 3B       		.uleb128 0x3b
 2332 009b 05       		.uleb128 0x5
 2333 009c 27       		.uleb128 0x27
 2334 009d 0C       		.uleb128 0xc
 2335 009e 49       		.uleb128 0x49
 2336 009f 13       		.uleb128 0x13
 2337 00a0 11       		.uleb128 0x11
 2338 00a1 01       		.uleb128 0x1
 2339 00a2 12       		.uleb128 0x12
 2340 00a3 01       		.uleb128 0x1
 2341 00a4 40       		.uleb128 0x40
 2342 00a5 06       		.uleb128 0x6
 2343 00a6 9642     		.uleb128 0x2116
 2344 00a8 0C       		.uleb128 0xc
 2345 00a9 01       		.uleb128 0x1
 2346 00aa 13       		.uleb128 0x13
 2347 00ab 00       		.byte	0
 2348 00ac 00       		.byte	0
 2349 00ad 0C       		.uleb128 0xc
 2350 00ae 05       		.uleb128 0x5
 2351 00af 00       		.byte	0
 2352 00b0 03       		.uleb128 0x3
 2353 00b1 0E       		.uleb128 0xe
 2354 00b2 3A       		.uleb128 0x3a
 2355 00b3 0B       		.uleb128 0xb
 2356 00b4 3B       		.uleb128 0x3b
 2357 00b5 05       		.uleb128 0x5
 2358 00b6 49       		.uleb128 0x49
 2359 00b7 13       		.uleb128 0x13
 2360 00b8 02       		.uleb128 0x2
 2361 00b9 0A       		.uleb128 0xa
 2362 00ba 00       		.byte	0
 2363 00bb 00       		.byte	0
 2364 00bc 0D       		.uleb128 0xd
 2365 00bd 34       		.uleb128 0x34
 2366 00be 00       		.byte	0
 2367 00bf 03       		.uleb128 0x3
 2368 00c0 0E       		.uleb128 0xe
 2369 00c1 3A       		.uleb128 0x3a
 2370 00c2 0B       		.uleb128 0xb
 2371 00c3 3B       		.uleb128 0x3b
 2372 00c4 05       		.uleb128 0x5
 2373 00c5 49       		.uleb128 0x49
 2374 00c6 13       		.uleb128 0x13
ARM GAS  C:\Users\Eric\AppData\Local\Temp\ccfZjnId.s 			page 60


 2375 00c7 02       		.uleb128 0x2
 2376 00c8 0A       		.uleb128 0xa
 2377 00c9 00       		.byte	0
 2378 00ca 00       		.byte	0
 2379 00cb 0E       		.uleb128 0xe
 2380 00cc 2E       		.uleb128 0x2e
 2381 00cd 01       		.byte	0x1
 2382 00ce 3F       		.uleb128 0x3f
 2383 00cf 0C       		.uleb128 0xc
 2384 00d0 03       		.uleb128 0x3
 2385 00d1 0E       		.uleb128 0xe
 2386 00d2 3A       		.uleb128 0x3a
 2387 00d3 0B       		.uleb128 0xb
 2388 00d4 3B       		.uleb128 0x3b
 2389 00d5 05       		.uleb128 0x5
 2390 00d6 27       		.uleb128 0x27
 2391 00d7 0C       		.uleb128 0xc
 2392 00d8 49       		.uleb128 0x49
 2393 00d9 13       		.uleb128 0x13
 2394 00da 11       		.uleb128 0x11
 2395 00db 01       		.uleb128 0x1
 2396 00dc 12       		.uleb128 0x12
 2397 00dd 01       		.uleb128 0x1
 2398 00de 40       		.uleb128 0x40
 2399 00df 06       		.uleb128 0x6
 2400 00e0 9742     		.uleb128 0x2117
 2401 00e2 0C       		.uleb128 0xc
 2402 00e3 01       		.uleb128 0x1
 2403 00e4 13       		.uleb128 0x13
 2404 00e5 00       		.byte	0
 2405 00e6 00       		.byte	0
 2406 00e7 0F       		.uleb128 0xf
 2407 00e8 2E       		.uleb128 0x2e
 2408 00e9 00       		.byte	0
 2409 00ea 3F       		.uleb128 0x3f
 2410 00eb 0C       		.uleb128 0xc
 2411 00ec 03       		.uleb128 0x3
 2412 00ed 0E       		.uleb128 0xe
 2413 00ee 3A       		.uleb128 0x3a
 2414 00ef 0B       		.uleb128 0xb
 2415 00f0 3B       		.uleb128 0x3b
 2416 00f1 05       		.uleb128 0x5
 2417 00f2 27       		.uleb128 0x27
 2418 00f3 0C       		.uleb128 0xc
 2419 00f4 49       		.uleb128 0x49
 2420 00f5 13       		.uleb128 0x13
 2421 00f6 11       		.uleb128 0x11
 2422 00f7 01       		.uleb128 0x1
 2423 00f8 12       		.uleb128 0x12
 2424 00f9 01       		.uleb128 0x1
 2425 00fa 40       		.uleb128 0x40
 2426 00fb 06       		.uleb128 0x6
 2427 00fc 9742     		.uleb128 0x2117
 2428 00fe 0C       		.uleb128 0xc
 2429 00ff 00       		.byte	0
 2430 0100 00       		.byte	0
 2431 0101 10       		.uleb128 0x10
ARM GAS  C:\Users\Eric\AppData\Local\Temp\ccfZjnId.s 			page 61


 2432 0102 2E       		.uleb128 0x2e
 2433 0103 00       		.byte	0
 2434 0104 3F       		.uleb128 0x3f
 2435 0105 0C       		.uleb128 0xc
 2436 0106 03       		.uleb128 0x3
 2437 0107 0E       		.uleb128 0xe
 2438 0108 3A       		.uleb128 0x3a
 2439 0109 0B       		.uleb128 0xb
 2440 010a 3B       		.uleb128 0x3b
 2441 010b 05       		.uleb128 0x5
 2442 010c 27       		.uleb128 0x27
 2443 010d 0C       		.uleb128 0xc
 2444 010e 11       		.uleb128 0x11
 2445 010f 01       		.uleb128 0x1
 2446 0110 12       		.uleb128 0x12
 2447 0111 01       		.uleb128 0x1
 2448 0112 40       		.uleb128 0x40
 2449 0113 06       		.uleb128 0x6
 2450 0114 9742     		.uleb128 0x2117
 2451 0116 0C       		.uleb128 0xc
 2452 0117 00       		.byte	0
 2453 0118 00       		.byte	0
 2454 0119 11       		.uleb128 0x11
 2455 011a 2E       		.uleb128 0x2e
 2456 011b 01       		.byte	0x1
 2457 011c 3F       		.uleb128 0x3f
 2458 011d 0C       		.uleb128 0xc
 2459 011e 03       		.uleb128 0x3
 2460 011f 0E       		.uleb128 0xe
 2461 0120 3A       		.uleb128 0x3a
 2462 0121 0B       		.uleb128 0xb
 2463 0122 3B       		.uleb128 0x3b
 2464 0123 05       		.uleb128 0x5
 2465 0124 27       		.uleb128 0x27
 2466 0125 0C       		.uleb128 0xc
 2467 0126 11       		.uleb128 0x11
 2468 0127 01       		.uleb128 0x1
 2469 0128 12       		.uleb128 0x12
 2470 0129 01       		.uleb128 0x1
 2471 012a 40       		.uleb128 0x40
 2472 012b 06       		.uleb128 0x6
 2473 012c 9642     		.uleb128 0x2116
 2474 012e 0C       		.uleb128 0xc
 2475 012f 01       		.uleb128 0x1
 2476 0130 13       		.uleb128 0x13
 2477 0131 00       		.byte	0
 2478 0132 00       		.byte	0
 2479 0133 12       		.uleb128 0x12
 2480 0134 34       		.uleb128 0x34
 2481 0135 00       		.byte	0
 2482 0136 03       		.uleb128 0x3
 2483 0137 0E       		.uleb128 0xe
 2484 0138 3A       		.uleb128 0x3a
 2485 0139 0B       		.uleb128 0xb
 2486 013a 3B       		.uleb128 0x3b
 2487 013b 0B       		.uleb128 0xb
 2488 013c 49       		.uleb128 0x49
ARM GAS  C:\Users\Eric\AppData\Local\Temp\ccfZjnId.s 			page 62


 2489 013d 13       		.uleb128 0x13
 2490 013e 3F       		.uleb128 0x3f
 2491 013f 0C       		.uleb128 0xc
 2492 0140 3C       		.uleb128 0x3c
 2493 0141 0C       		.uleb128 0xc
 2494 0142 00       		.byte	0
 2495 0143 00       		.byte	0
 2496 0144 13       		.uleb128 0x13
 2497 0145 34       		.uleb128 0x34
 2498 0146 00       		.byte	0
 2499 0147 03       		.uleb128 0x3
 2500 0148 0E       		.uleb128 0xe
 2501 0149 3A       		.uleb128 0x3a
 2502 014a 0B       		.uleb128 0xb
 2503 014b 3B       		.uleb128 0x3b
 2504 014c 0B       		.uleb128 0xb
 2505 014d 49       		.uleb128 0x49
 2506 014e 13       		.uleb128 0x13
 2507 014f 3F       		.uleb128 0x3f
 2508 0150 0C       		.uleb128 0xc
 2509 0151 02       		.uleb128 0x2
 2510 0152 0A       		.uleb128 0xa
 2511 0153 00       		.byte	0
 2512 0154 00       		.byte	0
 2513 0155 00       		.byte	0
 2514              		.section	.debug_loc,"",%progbits
 2515              	.Ldebug_loc0:
 2516              	.LLST0:
 2517 0000 00000000 		.4byte	.LFB0
 2518 0004 02000000 		.4byte	.LCFI0
 2519 0008 0200     		.2byte	0x2
 2520 000a 7D       		.byte	0x7d
 2521 000b 00       		.sleb128 0
 2522 000c 02000000 		.4byte	.LCFI0
 2523 0010 04000000 		.4byte	.LCFI1
 2524 0014 0200     		.2byte	0x2
 2525 0016 7D       		.byte	0x7d
 2526 0017 08       		.sleb128 8
 2527 0018 04000000 		.4byte	.LCFI1
 2528 001c 06000000 		.4byte	.LCFI2
 2529 0020 0200     		.2byte	0x2
 2530 0022 7D       		.byte	0x7d
 2531 0023 20       		.sleb128 32
 2532 0024 06000000 		.4byte	.LCFI2
 2533 0028 1C010000 		.4byte	.LFE0
 2534 002c 0200     		.2byte	0x2
 2535 002e 77       		.byte	0x77
 2536 002f 20       		.sleb128 32
 2537 0030 00000000 		.4byte	0
 2538 0034 00000000 		.4byte	0
 2539              	.LLST1:
 2540 0038 00000000 		.4byte	.LFB1
 2541 003c 02000000 		.4byte	.LCFI3
 2542 0040 0200     		.2byte	0x2
 2543 0042 7D       		.byte	0x7d
 2544 0043 00       		.sleb128 0
 2545 0044 02000000 		.4byte	.LCFI3
ARM GAS  C:\Users\Eric\AppData\Local\Temp\ccfZjnId.s 			page 63


 2546 0048 04000000 		.4byte	.LCFI4
 2547 004c 0200     		.2byte	0x2
 2548 004e 7D       		.byte	0x7d
 2549 004f 08       		.sleb128 8
 2550 0050 04000000 		.4byte	.LCFI4
 2551 0054 06000000 		.4byte	.LCFI5
 2552 0058 0200     		.2byte	0x2
 2553 005a 7D       		.byte	0x7d
 2554 005b 20       		.sleb128 32
 2555 005c 06000000 		.4byte	.LCFI5
 2556 0060 2C010000 		.4byte	.LFE1
 2557 0064 0200     		.2byte	0x2
 2558 0066 77       		.byte	0x77
 2559 0067 20       		.sleb128 32
 2560 0068 00000000 		.4byte	0
 2561 006c 00000000 		.4byte	0
 2562              	.LLST2:
 2563 0070 00000000 		.4byte	.LFB2
 2564 0074 02000000 		.4byte	.LCFI6
 2565 0078 0200     		.2byte	0x2
 2566 007a 7D       		.byte	0x7d
 2567 007b 00       		.sleb128 0
 2568 007c 02000000 		.4byte	.LCFI6
 2569 0080 04000000 		.4byte	.LCFI7
 2570 0084 0200     		.2byte	0x2
 2571 0086 7D       		.byte	0x7d
 2572 0087 08       		.sleb128 8
 2573 0088 04000000 		.4byte	.LCFI7
 2574 008c 06000000 		.4byte	.LCFI8
 2575 0090 0200     		.2byte	0x2
 2576 0092 7D       		.byte	0x7d
 2577 0093 18       		.sleb128 24
 2578 0094 06000000 		.4byte	.LCFI8
 2579 0098 10010000 		.4byte	.LFE2
 2580 009c 0200     		.2byte	0x2
 2581 009e 77       		.byte	0x77
 2582 009f 18       		.sleb128 24
 2583 00a0 00000000 		.4byte	0
 2584 00a4 00000000 		.4byte	0
 2585              	.LLST3:
 2586 00a8 00000000 		.4byte	.LFB3
 2587 00ac 02000000 		.4byte	.LCFI9
 2588 00b0 0200     		.2byte	0x2
 2589 00b2 7D       		.byte	0x7d
 2590 00b3 00       		.sleb128 0
 2591 00b4 02000000 		.4byte	.LCFI9
 2592 00b8 04000000 		.4byte	.LCFI10
 2593 00bc 0200     		.2byte	0x2
 2594 00be 7D       		.byte	0x7d
 2595 00bf 08       		.sleb128 8
 2596 00c0 04000000 		.4byte	.LCFI10
 2597 00c4 06000000 		.4byte	.LCFI11
 2598 00c8 0200     		.2byte	0x2
 2599 00ca 7D       		.byte	0x7d
 2600 00cb 18       		.sleb128 24
 2601 00cc 06000000 		.4byte	.LCFI11
 2602 00d0 08010000 		.4byte	.LFE3
ARM GAS  C:\Users\Eric\AppData\Local\Temp\ccfZjnId.s 			page 64


 2603 00d4 0200     		.2byte	0x2
 2604 00d6 77       		.byte	0x77
 2605 00d7 18       		.sleb128 24
 2606 00d8 00000000 		.4byte	0
 2607 00dc 00000000 		.4byte	0
 2608              	.LLST4:
 2609 00e0 00000000 		.4byte	.LFB4
 2610 00e4 02000000 		.4byte	.LCFI12
 2611 00e8 0200     		.2byte	0x2
 2612 00ea 7D       		.byte	0x7d
 2613 00eb 00       		.sleb128 0
 2614 00ec 02000000 		.4byte	.LCFI12
 2615 00f0 04000000 		.4byte	.LCFI13
 2616 00f4 0200     		.2byte	0x2
 2617 00f6 7D       		.byte	0x7d
 2618 00f7 08       		.sleb128 8
 2619 00f8 04000000 		.4byte	.LCFI13
 2620 00fc 06000000 		.4byte	.LCFI14
 2621 0100 0200     		.2byte	0x2
 2622 0102 7D       		.byte	0x7d
 2623 0103 10       		.sleb128 16
 2624 0104 06000000 		.4byte	.LCFI14
 2625 0108 BC000000 		.4byte	.LFE4
 2626 010c 0200     		.2byte	0x2
 2627 010e 77       		.byte	0x77
 2628 010f 10       		.sleb128 16
 2629 0110 00000000 		.4byte	0
 2630 0114 00000000 		.4byte	0
 2631              	.LLST5:
 2632 0118 00000000 		.4byte	.LFB5
 2633 011c 02000000 		.4byte	.LCFI15
 2634 0120 0200     		.2byte	0x2
 2635 0122 7D       		.byte	0x7d
 2636 0123 00       		.sleb128 0
 2637 0124 02000000 		.4byte	.LCFI15
 2638 0128 04000000 		.4byte	.LCFI16
 2639 012c 0200     		.2byte	0x2
 2640 012e 7D       		.byte	0x7d
 2641 012f 08       		.sleb128 8
 2642 0130 04000000 		.4byte	.LCFI16
 2643 0134 06000000 		.4byte	.LCFI17
 2644 0138 0200     		.2byte	0x2
 2645 013a 7D       		.byte	0x7d
 2646 013b 18       		.sleb128 24
 2647 013c 06000000 		.4byte	.LCFI17
 2648 0140 CC000000 		.4byte	.LFE5
 2649 0144 0200     		.2byte	0x2
 2650 0146 77       		.byte	0x77
 2651 0147 18       		.sleb128 24
 2652 0148 00000000 		.4byte	0
 2653 014c 00000000 		.4byte	0
 2654              	.LLST6:
 2655 0150 00000000 		.4byte	.LFB6
 2656 0154 02000000 		.4byte	.LCFI18
 2657 0158 0200     		.2byte	0x2
 2658 015a 7D       		.byte	0x7d
 2659 015b 00       		.sleb128 0
ARM GAS  C:\Users\Eric\AppData\Local\Temp\ccfZjnId.s 			page 65


 2660 015c 02000000 		.4byte	.LCFI18
 2661 0160 04000000 		.4byte	.LCFI19
 2662 0164 0200     		.2byte	0x2
 2663 0166 7D       		.byte	0x7d
 2664 0167 08       		.sleb128 8
 2665 0168 04000000 		.4byte	.LCFI19
 2666 016c 06000000 		.4byte	.LCFI20
 2667 0170 0200     		.2byte	0x2
 2668 0172 7D       		.byte	0x7d
 2669 0173 18       		.sleb128 24
 2670 0174 06000000 		.4byte	.LCFI20
 2671 0178 AC000000 		.4byte	.LFE6
 2672 017c 0200     		.2byte	0x2
 2673 017e 77       		.byte	0x77
 2674 017f 18       		.sleb128 24
 2675 0180 00000000 		.4byte	0
 2676 0184 00000000 		.4byte	0
 2677              	.LLST7:
 2678 0188 00000000 		.4byte	.LFB7
 2679 018c 02000000 		.4byte	.LCFI21
 2680 0190 0200     		.2byte	0x2
 2681 0192 7D       		.byte	0x7d
 2682 0193 00       		.sleb128 0
 2683 0194 02000000 		.4byte	.LCFI21
 2684 0198 04000000 		.4byte	.LCFI22
 2685 019c 0200     		.2byte	0x2
 2686 019e 7D       		.byte	0x7d
 2687 019f 08       		.sleb128 8
 2688 01a0 04000000 		.4byte	.LCFI22
 2689 01a4 14000000 		.4byte	.LFE7
 2690 01a8 0200     		.2byte	0x2
 2691 01aa 77       		.byte	0x77
 2692 01ab 08       		.sleb128 8
 2693 01ac 00000000 		.4byte	0
 2694 01b0 00000000 		.4byte	0
 2695              	.LLST8:
 2696 01b4 00000000 		.4byte	.LFB8
 2697 01b8 02000000 		.4byte	.LCFI23
 2698 01bc 0200     		.2byte	0x2
 2699 01be 7D       		.byte	0x7d
 2700 01bf 00       		.sleb128 0
 2701 01c0 02000000 		.4byte	.LCFI23
 2702 01c4 04000000 		.4byte	.LCFI24
 2703 01c8 0200     		.2byte	0x2
 2704 01ca 7D       		.byte	0x7d
 2705 01cb 08       		.sleb128 8
 2706 01cc 04000000 		.4byte	.LCFI24
 2707 01d0 14000000 		.4byte	.LFE8
 2708 01d4 0200     		.2byte	0x2
 2709 01d6 77       		.byte	0x77
 2710 01d7 08       		.sleb128 8
 2711 01d8 00000000 		.4byte	0
 2712 01dc 00000000 		.4byte	0
 2713              	.LLST9:
 2714 01e0 00000000 		.4byte	.LFB9
 2715 01e4 02000000 		.4byte	.LCFI25
 2716 01e8 0200     		.2byte	0x2
ARM GAS  C:\Users\Eric\AppData\Local\Temp\ccfZjnId.s 			page 66


 2717 01ea 7D       		.byte	0x7d
 2718 01eb 00       		.sleb128 0
 2719 01ec 02000000 		.4byte	.LCFI25
 2720 01f0 04000000 		.4byte	.LCFI26
 2721 01f4 0200     		.2byte	0x2
 2722 01f6 7D       		.byte	0x7d
 2723 01f7 08       		.sleb128 8
 2724 01f8 04000000 		.4byte	.LCFI26
 2725 01fc 28000000 		.4byte	.LFE9
 2726 0200 0200     		.2byte	0x2
 2727 0202 77       		.byte	0x77
 2728 0203 08       		.sleb128 8
 2729 0204 00000000 		.4byte	0
 2730 0208 00000000 		.4byte	0
 2731              	.LLST10:
 2732 020c 00000000 		.4byte	.LFB10
 2733 0210 02000000 		.4byte	.LCFI27
 2734 0214 0200     		.2byte	0x2
 2735 0216 7D       		.byte	0x7d
 2736 0217 00       		.sleb128 0
 2737 0218 02000000 		.4byte	.LCFI27
 2738 021c 04000000 		.4byte	.LCFI28
 2739 0220 0200     		.2byte	0x2
 2740 0222 7D       		.byte	0x7d
 2741 0223 08       		.sleb128 8
 2742 0224 04000000 		.4byte	.LCFI28
 2743 0228 28000000 		.4byte	.LFE10
 2744 022c 0200     		.2byte	0x2
 2745 022e 77       		.byte	0x77
 2746 022f 08       		.sleb128 8
 2747 0230 00000000 		.4byte	0
 2748 0234 00000000 		.4byte	0
 2749              	.LLST11:
 2750 0238 00000000 		.4byte	.LFB11
 2751 023c 02000000 		.4byte	.LCFI29
 2752 0240 0200     		.2byte	0x2
 2753 0242 7D       		.byte	0x7d
 2754 0243 00       		.sleb128 0
 2755 0244 02000000 		.4byte	.LCFI29
 2756 0248 04000000 		.4byte	.LCFI30
 2757 024c 0200     		.2byte	0x2
 2758 024e 7D       		.byte	0x7d
 2759 024f 08       		.sleb128 8
 2760 0250 04000000 		.4byte	.LCFI30
 2761 0254 06000000 		.4byte	.LCFI31
 2762 0258 0200     		.2byte	0x2
 2763 025a 7D       		.byte	0x7d
 2764 025b 10       		.sleb128 16
 2765 025c 06000000 		.4byte	.LCFI31
 2766 0260 38000000 		.4byte	.LFE11
 2767 0264 0200     		.2byte	0x2
 2768 0266 77       		.byte	0x77
 2769 0267 10       		.sleb128 16
 2770 0268 00000000 		.4byte	0
 2771 026c 00000000 		.4byte	0
 2772              	.LLST12:
 2773 0270 00000000 		.4byte	.LFB12
ARM GAS  C:\Users\Eric\AppData\Local\Temp\ccfZjnId.s 			page 67


 2774 0274 02000000 		.4byte	.LCFI32
 2775 0278 0200     		.2byte	0x2
 2776 027a 7D       		.byte	0x7d
 2777 027b 00       		.sleb128 0
 2778 027c 02000000 		.4byte	.LCFI32
 2779 0280 04000000 		.4byte	.LCFI33
 2780 0284 0200     		.2byte	0x2
 2781 0286 7D       		.byte	0x7d
 2782 0287 08       		.sleb128 8
 2783 0288 04000000 		.4byte	.LCFI33
 2784 028c 06000000 		.4byte	.LCFI34
 2785 0290 0200     		.2byte	0x2
 2786 0292 7D       		.byte	0x7d
 2787 0293 10       		.sleb128 16
 2788 0294 06000000 		.4byte	.LCFI34
 2789 0298 24000000 		.4byte	.LFE12
 2790 029c 0200     		.2byte	0x2
 2791 029e 77       		.byte	0x77
 2792 029f 10       		.sleb128 16
 2793 02a0 00000000 		.4byte	0
 2794 02a4 00000000 		.4byte	0
 2795              	.LLST13:
 2796 02a8 00000000 		.4byte	.LFB13
 2797 02ac 02000000 		.4byte	.LCFI35
 2798 02b0 0200     		.2byte	0x2
 2799 02b2 7D       		.byte	0x7d
 2800 02b3 00       		.sleb128 0
 2801 02b4 02000000 		.4byte	.LCFI35
 2802 02b8 04000000 		.4byte	.LCFI36
 2803 02bc 0200     		.2byte	0x2
 2804 02be 7D       		.byte	0x7d
 2805 02bf 08       		.sleb128 8
 2806 02c0 04000000 		.4byte	.LCFI36
 2807 02c4 06000000 		.4byte	.LCFI37
 2808 02c8 0200     		.2byte	0x2
 2809 02ca 7D       		.byte	0x7d
 2810 02cb 10       		.sleb128 16
 2811 02cc 06000000 		.4byte	.LCFI37
 2812 02d0 B0000000 		.4byte	.LFE13
 2813 02d4 0200     		.2byte	0x2
 2814 02d6 77       		.byte	0x77
 2815 02d7 10       		.sleb128 16
 2816 02d8 00000000 		.4byte	0
 2817 02dc 00000000 		.4byte	0
 2818              		.section	.debug_aranges,"",%progbits
 2819 0000 84000000 		.4byte	0x84
 2820 0004 0200     		.2byte	0x2
 2821 0006 00000000 		.4byte	.Ldebug_info0
 2822 000a 04       		.byte	0x4
 2823 000b 00       		.byte	0
 2824 000c 0000     		.2byte	0
 2825 000e 0000     		.2byte	0
 2826 0010 00000000 		.4byte	.LFB0
 2827 0014 1C010000 		.4byte	.LFE0-.LFB0
 2828 0018 00000000 		.4byte	.LFB1
 2829 001c 2C010000 		.4byte	.LFE1-.LFB1
 2830 0020 00000000 		.4byte	.LFB2
ARM GAS  C:\Users\Eric\AppData\Local\Temp\ccfZjnId.s 			page 68


 2831 0024 10010000 		.4byte	.LFE2-.LFB2
 2832 0028 00000000 		.4byte	.LFB3
 2833 002c 08010000 		.4byte	.LFE3-.LFB3
 2834 0030 00000000 		.4byte	.LFB4
 2835 0034 BC000000 		.4byte	.LFE4-.LFB4
 2836 0038 00000000 		.4byte	.LFB5
 2837 003c CC000000 		.4byte	.LFE5-.LFB5
 2838 0040 00000000 		.4byte	.LFB6
 2839 0044 AC000000 		.4byte	.LFE6-.LFB6
 2840 0048 00000000 		.4byte	.LFB7
 2841 004c 14000000 		.4byte	.LFE7-.LFB7
 2842 0050 00000000 		.4byte	.LFB8
 2843 0054 14000000 		.4byte	.LFE8-.LFB8
 2844 0058 00000000 		.4byte	.LFB9
 2845 005c 28000000 		.4byte	.LFE9-.LFB9
 2846 0060 00000000 		.4byte	.LFB10
 2847 0064 28000000 		.4byte	.LFE10-.LFB10
 2848 0068 00000000 		.4byte	.LFB11
 2849 006c 38000000 		.4byte	.LFE11-.LFB11
 2850 0070 00000000 		.4byte	.LFB12
 2851 0074 24000000 		.4byte	.LFE12-.LFB12
 2852 0078 00000000 		.4byte	.LFB13
 2853 007c B0000000 		.4byte	.LFE13-.LFB13
 2854 0080 00000000 		.4byte	0
 2855 0084 00000000 		.4byte	0
 2856              		.section	.debug_ranges,"",%progbits
 2857              	.Ldebug_ranges0:
 2858 0000 00000000 		.4byte	.LFB0
 2859 0004 1C010000 		.4byte	.LFE0
 2860 0008 00000000 		.4byte	.LFB1
 2861 000c 2C010000 		.4byte	.LFE1
 2862 0010 00000000 		.4byte	.LFB2
 2863 0014 10010000 		.4byte	.LFE2
 2864 0018 00000000 		.4byte	.LFB3
 2865 001c 08010000 		.4byte	.LFE3
 2866 0020 00000000 		.4byte	.LFB4
 2867 0024 BC000000 		.4byte	.LFE4
 2868 0028 00000000 		.4byte	.LFB5
 2869 002c CC000000 		.4byte	.LFE5
 2870 0030 00000000 		.4byte	.LFB6
 2871 0034 AC000000 		.4byte	.LFE6
 2872 0038 00000000 		.4byte	.LFB7
 2873 003c 14000000 		.4byte	.LFE7
 2874 0040 00000000 		.4byte	.LFB8
 2875 0044 14000000 		.4byte	.LFE8
 2876 0048 00000000 		.4byte	.LFB9
 2877 004c 28000000 		.4byte	.LFE9
 2878 0050 00000000 		.4byte	.LFB10
 2879 0054 28000000 		.4byte	.LFE10
 2880 0058 00000000 		.4byte	.LFB11
 2881 005c 38000000 		.4byte	.LFE11
 2882 0060 00000000 		.4byte	.LFB12
 2883 0064 24000000 		.4byte	.LFE12
 2884 0068 00000000 		.4byte	.LFB13
 2885 006c B0000000 		.4byte	.LFE13
 2886 0070 00000000 		.4byte	0
 2887 0074 00000000 		.4byte	0
ARM GAS  C:\Users\Eric\AppData\Local\Temp\ccfZjnId.s 			page 69


 2888              		.section	.debug_line,"",%progbits
 2889              	.Ldebug_line0:
 2890 0000 98020000 		.section	.debug_str,"MS",%progbits,1
 2890      02006200 
 2890      00000201 
 2890      FB0E0D00 
 2890      01010101 
 2891              	.LASF15:
 2892 0000 72656733 		.ascii	"reg32\000"
 2892      3200
 2893              	.LASF34:
 2894 0006 4932435F 		.ascii	"I2C_1_I2CMasterGetWriteBufSize\000"
 2894      315F4932 
 2894      434D6173 
 2894      74657247 
 2894      65745772 
 2895              	.LASF38:
 2896 0025 73746174 		.ascii	"status\000"
 2896      757300
 2897              	.LASF52:
 2898 002c 433A5C55 		.ascii	"C:\\Users\\Eric\\Documents\\GitHub\\Corner-Module\\"
 2898      73657273 
 2898      5C457269 
 2898      635C446F 
 2898      63756D65 
 2899 0059 436F726E 		.ascii	"CornerModule\\CornerModule.cydsn\000"
 2899      65724D6F 
 2899      64756C65 
 2899      5C436F72 
 2899      6E65724D 
 2900              	.LASF45:
 2901 0079 4932435F 		.ascii	"I2C_1_mstrRdBufIndex\000"
 2901      315F6D73 
 2901      74725264 
 2901      42756649 
 2901      6E646578 
 2902              	.LASF42:
 2903 008e 4932435F 		.ascii	"I2C_1_mstrControl\000"
 2903      315F6D73 
 2903      7472436F 
 2903      6E74726F 
 2903      6C00
 2904              	.LASF46:
 2905 00a0 4932435F 		.ascii	"I2C_1_mstrWrBufPtr\000"
 2905      315F6D73 
 2905      74725772 
 2905      42756650 
 2905      747200
 2906              	.LASF3:
 2907 00b3 73686F72 		.ascii	"short unsigned int\000"
 2907      7420756E 
 2907      7369676E 
 2907      65642069 
 2907      6E7400
 2908              	.LASF47:
 2909 00c6 4932435F 		.ascii	"I2C_1_mstrWrBufSize\000"
 2909      315F6D73 
ARM GAS  C:\Users\Eric\AppData\Local\Temp\ccfZjnId.s 			page 70


 2909      74725772 
 2909      42756653 
 2909      697A6500 
 2910              	.LASF41:
 2911 00da 4932435F 		.ascii	"I2C_1_mstrStatus\000"
 2911      315F6D73 
 2911      74725374 
 2911      61747573 
 2911      00
 2912              	.LASF26:
 2913 00eb 72657365 		.ascii	"resetIp\000"
 2913      74497000 
 2914              	.LASF35:
 2915 00f3 4932435F 		.ascii	"I2C_1_I2CMasterClearReadBuf\000"
 2915      315F4932 
 2915      434D6173 
 2915      74657243 
 2915      6C656172 
 2916              	.LASF12:
 2917 010f 666C6F61 		.ascii	"float\000"
 2917      7400
 2918              	.LASF1:
 2919 0115 756E7369 		.ascii	"unsigned char\000"
 2919      676E6564 
 2919      20636861 
 2919      7200
 2920              	.LASF51:
 2921 0123 2E5C4765 		.ascii	".\\Generated_Source\\PSoC4\\I2C_1_I2C_MASTER.c\000"
 2921      6E657261 
 2921      7465645F 
 2921      536F7572 
 2921      63655C50 
 2922              	.LASF29:
 2923 014f 4932435F 		.ascii	"I2C_1_I2CMasterWriteByte\000"
 2923      315F4932 
 2923      434D6173 
 2923      74657257 
 2923      72697465 
 2924              	.LASF5:
 2925 0168 6C6F6E67 		.ascii	"long unsigned int\000"
 2925      20756E73 
 2925      69676E65 
 2925      6420696E 
 2925      7400
 2926              	.LASF39:
 2927 017a 4932435F 		.ascii	"I2C_1_I2CMasterClearStatus\000"
 2927      315F4932 
 2927      434D6173 
 2927      74657243 
 2927      6C656172 
 2928              	.LASF9:
 2929 0195 75696E74 		.ascii	"uint8\000"
 2929      3800
 2930              	.LASF32:
 2931 019b 61636B4E 		.ascii	"ackNack\000"
 2931      61636B00 
 2932              	.LASF23:
ARM GAS  C:\Users\Eric\AppData\Local\Temp\ccfZjnId.s 			page 71


 2933 01a3 65727253 		.ascii	"errStatus\000"
 2933      74617475 
 2933      7300
 2934              	.LASF13:
 2935 01ad 646F7562 		.ascii	"double\000"
 2935      6C6500
 2936              	.LASF36:
 2937 01b4 4932435F 		.ascii	"I2C_1_I2CMasterClearWriteBuf\000"
 2937      315F4932 
 2937      434D6173 
 2937      74657243 
 2937      6C656172 
 2938              	.LASF25:
 2939 01d1 62697452 		.ascii	"bitRnW\000"
 2939      6E5700
 2940              	.LASF53:
 2941 01d8 4932435F 		.ascii	"I2C_1_I2CReStartGeneration\000"
 2941      315F4932 
 2941      43526553 
 2941      74617274 
 2941      47656E65 
 2942              	.LASF49:
 2943 01f3 4932435F 		.ascii	"I2C_1_mstrWrBufIndexTmp\000"
 2943      315F6D73 
 2943      74725772 
 2943      42756649 
 2943      6E646578 
 2944              	.LASF10:
 2945 020b 75696E74 		.ascii	"uint16\000"
 2945      313600
 2946              	.LASF37:
 2947 0212 4932435F 		.ascii	"I2C_1_I2CMasterStatus\000"
 2947      315F4932 
 2947      434D6173 
 2947      74657253 
 2947      74617475 
 2948              	.LASF22:
 2949 0228 72644461 		.ascii	"rdData\000"
 2949      746100
 2950              	.LASF11:
 2951 022f 75696E74 		.ascii	"uint32\000"
 2951      333200
 2952              	.LASF40:
 2953 0236 4932435F 		.ascii	"I2C_1_state\000"
 2953      315F7374 
 2953      61746500 
 2954              	.LASF8:
 2955 0242 756E7369 		.ascii	"unsigned int\000"
 2955      676E6564 
 2955      20696E74 
 2955      00
 2956              	.LASF18:
 2957 024f 77724461 		.ascii	"wrData\000"
 2957      746100
 2958              	.LASF7:
 2959 0256 6C6F6E67 		.ascii	"long long unsigned int\000"
 2959      206C6F6E 
ARM GAS  C:\Users\Eric\AppData\Local\Temp\ccfZjnId.s 			page 72


 2959      6720756E 
 2959      7369676E 
 2959      65642069 
 2960              	.LASF24:
 2961 026d 4932435F 		.ascii	"I2C_1_I2CMasterSendStart\000"
 2961      315F4932 
 2961      434D6173 
 2961      74657253 
 2961      656E6453 
 2962              	.LASF19:
 2963 0286 6D6F6465 		.ascii	"mode\000"
 2963      00
 2964              	.LASF17:
 2965 028b 736C6176 		.ascii	"slaveAddress\000"
 2965      65416464 
 2965      72657373 
 2965      00
 2966              	.LASF31:
 2967 0298 4932435F 		.ascii	"I2C_1_I2CMasterReadByte\000"
 2967      315F4932 
 2967      434D6173 
 2967      74657252 
 2967      65616442 
 2968              	.LASF16:
 2969 02b0 73697A65 		.ascii	"sizetype\000"
 2969      74797065 
 2969      00
 2970              	.LASF6:
 2971 02b9 6C6F6E67 		.ascii	"long long int\000"
 2971      206C6F6E 
 2971      6720696E 
 2971      7400
 2972              	.LASF28:
 2973 02c7 4932435F 		.ascii	"I2C_1_I2CMasterSendStop\000"
 2973      315F4932 
 2973      434D6173 
 2973      74657253 
 2973      656E6453 
 2974              	.LASF14:
 2975 02df 63686172 		.ascii	"char\000"
 2975      00
 2976              	.LASF43:
 2977 02e4 4932435F 		.ascii	"I2C_1_mstrRdBufPtr\000"
 2977      315F6D73 
 2977      74725264 
 2977      42756650 
 2977      747200
 2978              	.LASF21:
 2979 02f7 4932435F 		.ascii	"I2C_1_I2CMasterReadBuf\000"
 2979      315F4932 
 2979      434D6173 
 2979      74657252 
 2979      65616442 
 2980              	.LASF33:
 2981 030e 4932435F 		.ascii	"I2C_1_I2CMasterGetReadBufSize\000"
 2981      315F4932 
 2981      434D6173 
ARM GAS  C:\Users\Eric\AppData\Local\Temp\ccfZjnId.s 			page 73


 2981      74657247 
 2981      65745265 
 2982              	.LASF2:
 2983 032c 73686F72 		.ascii	"short int\000"
 2983      7420696E 
 2983      7400
 2984              	.LASF30:
 2985 0336 74686542 		.ascii	"theByte\000"
 2985      79746500 
 2986              	.LASF50:
 2987 033e 474E5520 		.ascii	"GNU C 4.7.3 20130312 (release) [ARM/embedded-4_7-br"
 2987      4320342E 
 2987      372E3320 
 2987      32303133 
 2987      30333132 
 2988 0371 616E6368 		.ascii	"anch revision 196615]\000"
 2988      20726576 
 2988      6973696F 
 2988      6E203139 
 2988      36363135 
 2989              	.LASF48:
 2990 0387 4932435F 		.ascii	"I2C_1_mstrWrBufIndex\000"
 2990      315F6D73 
 2990      74725772 
 2990      42756649 
 2990      6E646578 
 2991              	.LASF4:
 2992 039c 6C6F6E67 		.ascii	"long int\000"
 2992      20696E74 
 2992      00
 2993              	.LASF0:
 2994 03a5 7369676E 		.ascii	"signed char\000"
 2994      65642063 
 2994      68617200 
 2995              	.LASF27:
 2996 03b1 4932435F 		.ascii	"I2C_1_I2CMasterSendRestart\000"
 2996      315F4932 
 2996      434D6173 
 2996      74657253 
 2996      656E6452 
 2997              	.LASF44:
 2998 03cc 4932435F 		.ascii	"I2C_1_mstrRdBufSize\000"
 2998      315F6D73 
 2998      74725264 
 2998      42756653 
 2998      697A6500 
 2999              	.LASF20:
 3000 03e0 4932435F 		.ascii	"I2C_1_I2CMasterWriteBuf\000"
 3000      315F4932 
 3000      434D6173 
 3000      74657257 
 3000      72697465 
 3001              		.ident	"GCC: (GNU Tools for ARM Embedded Processors) 4.7.3 20130312 (release) [ARM/embedded-4_7-br
