ARM GAS  C:\Users\Eric\AppData\Local\Temp\ccfZjnId.s 			page 1


   1              		.cpu cortex-m0
   2              		.fpu softvfp
   3              		.eabi_attribute 20, 1
   4              		.eabi_attribute 21, 1
   5              		.eabi_attribute 23, 3
   6              		.eabi_attribute 24, 1
   7              		.eabi_attribute 25, 1
   8              		.eabi_attribute 26, 1
   9              		.eabi_attribute 30, 6
  10              		.eabi_attribute 34, 0
  11              		.eabi_attribute 18, 4
  12              		.code	16
  13              		.file	"I2C_1_I2C_MASTER.c"
  14              		.text
  15              	.Ltext0:
  16              		.cfi_sections	.debug_frame
  17              		.comm	I2C_1_mstrStatus,2,2
  18              		.comm	I2C_1_mstrControl,1,1
  19              		.comm	I2C_1_mstrRdBufPtr,4,4
  20              		.comm	I2C_1_mstrRdBufSize,4,4
  21              		.comm	I2C_1_mstrRdBufIndex,4,4
  22              		.comm	I2C_1_mstrWrBufPtr,4,4
  23              		.comm	I2C_1_mstrWrBufSize,4,4
  24              		.comm	I2C_1_mstrWrBufIndex,4,4
  25              		.comm	I2C_1_mstrWrBufIndexTmp,4,4
  26              		.section	.text.I2C_1_I2CMasterWriteBuf,"ax",%progbits
  27              		.align	2
  28              		.global	I2C_1_I2CMasterWriteBuf
  29              		.code	16
  30              		.thumb_func
  31              		.type	I2C_1_I2CMasterWriteBuf, %function
  32              	I2C_1_I2CMasterWriteBuf:
  33              	.LFB0:
  34              		.file 1 ".\\Generated_Source\\PSoC4\\I2C_1_I2C_MASTER.c"
   1:.\Generated_Source\PSoC4/I2C_1_I2C_MASTER.c **** /*******************************************************************************
   2:.\Generated_Source\PSoC4/I2C_1_I2C_MASTER.c **** * File Name: I2C_1_I2C_MASTER.c
   3:.\Generated_Source\PSoC4/I2C_1_I2C_MASTER.c **** * Version 1.20
   4:.\Generated_Source\PSoC4/I2C_1_I2C_MASTER.c **** *
   5:.\Generated_Source\PSoC4/I2C_1_I2C_MASTER.c **** * Description:
   6:.\Generated_Source\PSoC4/I2C_1_I2C_MASTER.c **** *  This file provides the source code to the API for the SCB Component in
   7:.\Generated_Source\PSoC4/I2C_1_I2C_MASTER.c **** *  I2C Master mode.
   8:.\Generated_Source\PSoC4/I2C_1_I2C_MASTER.c **** *
   9:.\Generated_Source\PSoC4/I2C_1_I2C_MASTER.c **** * Note:
  10:.\Generated_Source\PSoC4/I2C_1_I2C_MASTER.c **** *
  11:.\Generated_Source\PSoC4/I2C_1_I2C_MASTER.c **** *******************************************************************************
  12:.\Generated_Source\PSoC4/I2C_1_I2C_MASTER.c **** * Copyright 2013-2014, Cypress Semiconductor Corporation.  All rights reserved.
  13:.\Generated_Source\PSoC4/I2C_1_I2C_MASTER.c **** * You may use this file only in accordance with the license, terms, conditions,
  14:.\Generated_Source\PSoC4/I2C_1_I2C_MASTER.c **** * disclaimers, and limitations in the end user license agreement accompanying
  15:.\Generated_Source\PSoC4/I2C_1_I2C_MASTER.c **** * the software package with which this file was provided.
  16:.\Generated_Source\PSoC4/I2C_1_I2C_MASTER.c **** *******************************************************************************/
  17:.\Generated_Source\PSoC4/I2C_1_I2C_MASTER.c **** 
  18:.\Generated_Source\PSoC4/I2C_1_I2C_MASTER.c **** #include "I2C_1_PVT.h"
  19:.\Generated_Source\PSoC4/I2C_1_I2C_MASTER.c **** #include "I2C_1_I2C_PVT.h"
  20:.\Generated_Source\PSoC4/I2C_1_I2C_MASTER.c **** 
  21:.\Generated_Source\PSoC4/I2C_1_I2C_MASTER.c **** #if(I2C_1_I2C_MASTER_CONST)
  22:.\Generated_Source\PSoC4/I2C_1_I2C_MASTER.c **** 
  23:.\Generated_Source\PSoC4/I2C_1_I2C_MASTER.c **** /***************************************
ARM GAS  C:\Users\Eric\AppData\Local\Temp\ccfZjnId.s 			page 2


  24:.\Generated_Source\PSoC4/I2C_1_I2C_MASTER.c **** *      I2C Master Private Vars
  25:.\Generated_Source\PSoC4/I2C_1_I2C_MASTER.c **** ***************************************/
  26:.\Generated_Source\PSoC4/I2C_1_I2C_MASTER.c **** 
  27:.\Generated_Source\PSoC4/I2C_1_I2C_MASTER.c **** /* Master variables */
  28:.\Generated_Source\PSoC4/I2C_1_I2C_MASTER.c **** volatile uint16 I2C_1_mstrStatus;      /* Master Status byte  */
  29:.\Generated_Source\PSoC4/I2C_1_I2C_MASTER.c **** volatile uint8  I2C_1_mstrControl;     /* Master Control byte */
  30:.\Generated_Source\PSoC4/I2C_1_I2C_MASTER.c **** 
  31:.\Generated_Source\PSoC4/I2C_1_I2C_MASTER.c **** /* Receive buffer variables */
  32:.\Generated_Source\PSoC4/I2C_1_I2C_MASTER.c **** volatile uint8 * I2C_1_mstrRdBufPtr;   /* Pointer to Master Read buffer */
  33:.\Generated_Source\PSoC4/I2C_1_I2C_MASTER.c **** volatile uint32  I2C_1_mstrRdBufSize;  /* Master Read buffer size       */
  34:.\Generated_Source\PSoC4/I2C_1_I2C_MASTER.c **** volatile uint32  I2C_1_mstrRdBufIndex; /* Master Read buffer Index      */
  35:.\Generated_Source\PSoC4/I2C_1_I2C_MASTER.c **** 
  36:.\Generated_Source\PSoC4/I2C_1_I2C_MASTER.c **** /* Transmit buffer variables */
  37:.\Generated_Source\PSoC4/I2C_1_I2C_MASTER.c **** volatile uint8 * I2C_1_mstrWrBufPtr;   /* Pointer to Master Write buffer */
  38:.\Generated_Source\PSoC4/I2C_1_I2C_MASTER.c **** volatile uint32  I2C_1_mstrWrBufSize;  /* Master Write buffer size       */
  39:.\Generated_Source\PSoC4/I2C_1_I2C_MASTER.c **** volatile uint32  I2C_1_mstrWrBufIndex; /* Master Write buffer Index      */
  40:.\Generated_Source\PSoC4/I2C_1_I2C_MASTER.c **** volatile uint32  I2C_1_mstrWrBufIndexTmp; /* Master Write buffer Index Tmp */
  41:.\Generated_Source\PSoC4/I2C_1_I2C_MASTER.c **** 
  42:.\Generated_Source\PSoC4/I2C_1_I2C_MASTER.c **** 
  43:.\Generated_Source\PSoC4/I2C_1_I2C_MASTER.c **** /*******************************************************************************
  44:.\Generated_Source\PSoC4/I2C_1_I2C_MASTER.c **** * Function Name: I2C_1_I2CMasterWriteBuf
  45:.\Generated_Source\PSoC4/I2C_1_I2C_MASTER.c **** ********************************************************************************
  46:.\Generated_Source\PSoC4/I2C_1_I2C_MASTER.c **** *
  47:.\Generated_Source\PSoC4/I2C_1_I2C_MASTER.c **** * Summary:
  48:.\Generated_Source\PSoC4/I2C_1_I2C_MASTER.c **** * Automatically writes an entire buffer of data to a slave device.
  49:.\Generated_Source\PSoC4/I2C_1_I2C_MASTER.c **** * Once the data transfer is initiated by this function, further data transfer
  50:.\Generated_Source\PSoC4/I2C_1_I2C_MASTER.c **** * is handled by the included ISR.
  51:.\Generated_Source\PSoC4/I2C_1_I2C_MASTER.c **** * Enables the I2C interrupt and clears SCB_ I2C_MSTAT_WR_CMPLT status.
  52:.\Generated_Source\PSoC4/I2C_1_I2C_MASTER.c **** *
  53:.\Generated_Source\PSoC4/I2C_1_I2C_MASTER.c **** * Parameters:
  54:.\Generated_Source\PSoC4/I2C_1_I2C_MASTER.c **** *  slaveAddr: 7-bit slave address.
  55:.\Generated_Source\PSoC4/I2C_1_I2C_MASTER.c **** *  xferData:  Pointer to buffer of data to be sent.
  56:.\Generated_Source\PSoC4/I2C_1_I2C_MASTER.c **** *  cnt:       Size of buffer to send.
  57:.\Generated_Source\PSoC4/I2C_1_I2C_MASTER.c **** *  mode:      Transfer mode defines: start or restart condition generation at
  58:.\Generated_Source\PSoC4/I2C_1_I2C_MASTER.c **** *             begin of the transfer and complete the transfer or halt before
  59:.\Generated_Source\PSoC4/I2C_1_I2C_MASTER.c **** *             generating a stop.
  60:.\Generated_Source\PSoC4/I2C_1_I2C_MASTER.c **** *
  61:.\Generated_Source\PSoC4/I2C_1_I2C_MASTER.c **** * Return:
  62:.\Generated_Source\PSoC4/I2C_1_I2C_MASTER.c **** *  Error status.
  63:.\Generated_Source\PSoC4/I2C_1_I2C_MASTER.c **** *
  64:.\Generated_Source\PSoC4/I2C_1_I2C_MASTER.c **** * Global variables:
  65:.\Generated_Source\PSoC4/I2C_1_I2C_MASTER.c **** *  I2C_1_mstrStatus  - used to store current status of I2C Master.
  66:.\Generated_Source\PSoC4/I2C_1_I2C_MASTER.c **** *  I2C_1_state       - used to store current state of software FSM.
  67:.\Generated_Source\PSoC4/I2C_1_I2C_MASTER.c **** *  I2C_1_mstrControl - used to control master end of transaction with
  68:.\Generated_Source\PSoC4/I2C_1_I2C_MASTER.c **** *  or without the Stop generation.
  69:.\Generated_Source\PSoC4/I2C_1_I2C_MASTER.c **** *  I2C_1_mstrWrBufPtr - used to store pointer to master write buffer.
  70:.\Generated_Source\PSoC4/I2C_1_I2C_MASTER.c **** *  I2C_1_mstrWrBufIndex - used to current index within master write
  71:.\Generated_Source\PSoC4/I2C_1_I2C_MASTER.c **** *  buffer.
  72:.\Generated_Source\PSoC4/I2C_1_I2C_MASTER.c **** *  I2C_1_mstrWrBufSize - used to store master write buffer size.
  73:.\Generated_Source\PSoC4/I2C_1_I2C_MASTER.c **** *
  74:.\Generated_Source\PSoC4/I2C_1_I2C_MASTER.c **** *******************************************************************************/
  75:.\Generated_Source\PSoC4/I2C_1_I2C_MASTER.c **** uint32 I2C_1_I2CMasterWriteBuf(uint32 slaveAddress, uint8 * wrData, uint32 cnt, uint32 mode)
  76:.\Generated_Source\PSoC4/I2C_1_I2C_MASTER.c **** {
  35              		.loc 1 76 0
  36              		.cfi_startproc
  37 0000 80B5     		push	{r7, lr}
  38              	.LCFI0:
ARM GAS  C:\Users\Eric\AppData\Local\Temp\ccfZjnId.s 			page 3


  39              		.cfi_def_cfa_offset 8
  40              		.cfi_offset 7, -8
  41              		.cfi_offset 14, -4
  42 0002 86B0     		sub	sp, sp, #24
  43              	.LCFI1:
  44              		.cfi_def_cfa_offset 32
  45 0004 00AF     		add	r7, sp, #0
  46              	.LCFI2:
  47              		.cfi_def_cfa_register 7
  48 0006 F860     		str	r0, [r7, #12]
  49 0008 B960     		str	r1, [r7, #8]
  50 000a 7A60     		str	r2, [r7, #4]
  51 000c 3B60     		str	r3, [r7]
  77:.\Generated_Source\PSoC4/I2C_1_I2C_MASTER.c ****     uint32 errStatus;
  78:.\Generated_Source\PSoC4/I2C_1_I2C_MASTER.c **** 
  79:.\Generated_Source\PSoC4/I2C_1_I2C_MASTER.c ****     errStatus = I2C_1_I2C_MSTR_NOT_READY;
  52              		.loc 1 79 0
  53 000e 0423     		mov	r3, #4
  54 0010 7B61     		str	r3, [r7, #20]
  80:.\Generated_Source\PSoC4/I2C_1_I2C_MASTER.c **** 
  81:.\Generated_Source\PSoC4/I2C_1_I2C_MASTER.c ****     if(NULL != wrData)  /* Check buffer pointer */
  55              		.loc 1 81 0
  56 0012 BB68     		ldr	r3, [r7, #8]
  57 0014 002B     		cmp	r3, #0
  58 0016 20D0     		beq	.L2
  82:.\Generated_Source\PSoC4/I2C_1_I2C_MASTER.c ****     {
  83:.\Generated_Source\PSoC4/I2C_1_I2C_MASTER.c ****         /* Check FSM state and bus before generating Start/ReStart condition */
  84:.\Generated_Source\PSoC4/I2C_1_I2C_MASTER.c ****         if(I2C_1_CHECK_I2C_FSM_IDLE)
  59              		.loc 1 84 0
  60 0018 324B     		ldr	r3, .L10
  61 001a 1B78     		ldrb	r3, [r3]
  62 001c DBB2     		uxtb	r3, r3
  63 001e 102B     		cmp	r3, #16
  64 0020 0CD1     		bne	.L3
  85:.\Generated_Source\PSoC4/I2C_1_I2C_MASTER.c ****         {
  86:.\Generated_Source\PSoC4/I2C_1_I2C_MASTER.c ****             I2C_1_DisableInt();
  65              		.loc 1 86 0
  66 0022 0A20     		mov	r0, #10
  67 0024 FFF7FEFF 		bl	CyIntDisable
  87:.\Generated_Source\PSoC4/I2C_1_I2C_MASTER.c **** 
  88:.\Generated_Source\PSoC4/I2C_1_I2C_MASTER.c ****             /* Check bus state */
  89:.\Generated_Source\PSoC4/I2C_1_I2C_MASTER.c ****             errStatus = I2C_1_CHECK_I2C_STATUS(I2C_1_I2C_STATUS_BUS_BUSY) ?
  68              		.loc 1 89 0
  69 0028 2F4B     		ldr	r3, .L10+4
  70 002a 1A68     		ldr	r2, [r3]
  71 002c 0123     		mov	r3, #1
  72 002e 1340     		and	r3, r2
  73 0030 01D0     		beq	.L4
  74              		.loc 1 89 0 is_stmt 0 discriminator 1
  75 0032 0823     		mov	r3, #8
  76 0034 00E0     		b	.L5
  77              	.L4:
  78              		.loc 1 89 0 discriminator 2
  79 0036 0023     		mov	r3, #0
  80              	.L5:
  81              		.loc 1 89 0 discriminator 3
  82 0038 7B61     		str	r3, [r7, #20]
ARM GAS  C:\Users\Eric\AppData\Local\Temp\ccfZjnId.s 			page 4


  83 003a 0EE0     		b	.L2
  84              	.L3:
  90:.\Generated_Source\PSoC4/I2C_1_I2C_MASTER.c ****                             I2C_1_I2C_MSTR_BUS_BUSY : I2C_1_I2C_MSTR_NO_ERROR;
  91:.\Generated_Source\PSoC4/I2C_1_I2C_MASTER.c ****         }
  92:.\Generated_Source\PSoC4/I2C_1_I2C_MASTER.c ****         else if(I2C_1_CHECK_I2C_FSM_HALT)
  85              		.loc 1 92 0 is_stmt 1
  86 003c 294B     		ldr	r3, .L10
  87 003e 1B78     		ldrb	r3, [r3]
  88 0040 DBB2     		uxtb	r3, r3
  89 0042 602B     		cmp	r3, #96
  90 0044 09D1     		bne	.L2
  93:.\Generated_Source\PSoC4/I2C_1_I2C_MASTER.c ****         {
  94:.\Generated_Source\PSoC4/I2C_1_I2C_MASTER.c ****             I2C_1_mstrStatus &= (uint16) ~I2C_1_I2C_MSTAT_XFER_HALT;
  91              		.loc 1 94 0
  92 0046 294B     		ldr	r3, .L10+8
  93 0048 1B88     		ldrh	r3, [r3]
  94 004a 9BB2     		uxth	r3, r3
  95 004c 0822     		mov	r2, #8
  96 004e 9343     		bic	r3, r2
  97 0050 9AB2     		uxth	r2, r3
  98 0052 264B     		ldr	r3, .L10+8
  99 0054 1A80     		strh	r2, [r3]
  95:.\Generated_Source\PSoC4/I2C_1_I2C_MASTER.c ****                               errStatus  = I2C_1_I2C_MSTR_NO_ERROR;
 100              		.loc 1 95 0
 101 0056 0023     		mov	r3, #0
 102 0058 7B61     		str	r3, [r7, #20]
 103              	.L2:
  96:.\Generated_Source\PSoC4/I2C_1_I2C_MASTER.c ****         }
  97:.\Generated_Source\PSoC4/I2C_1_I2C_MASTER.c ****         else
  98:.\Generated_Source\PSoC4/I2C_1_I2C_MASTER.c ****         {
  99:.\Generated_Source\PSoC4/I2C_1_I2C_MASTER.c ****             /* Unexpected FSM state: exit */
 100:.\Generated_Source\PSoC4/I2C_1_I2C_MASTER.c ****         }
 101:.\Generated_Source\PSoC4/I2C_1_I2C_MASTER.c ****     }
 102:.\Generated_Source\PSoC4/I2C_1_I2C_MASTER.c **** 
 103:.\Generated_Source\PSoC4/I2C_1_I2C_MASTER.c **** 
 104:.\Generated_Source\PSoC4/I2C_1_I2C_MASTER.c ****     /* Check if master is ready to start  */
 105:.\Generated_Source\PSoC4/I2C_1_I2C_MASTER.c ****     if(I2C_1_I2C_MSTR_NO_ERROR == errStatus) /* No error proceed */
 104              		.loc 1 105 0
 105 005a 7B69     		ldr	r3, [r7, #20]
 106 005c 002B     		cmp	r3, #0
 107 005e 38D1     		bne	.L6
 106:.\Generated_Source\PSoC4/I2C_1_I2C_MASTER.c ****     {
 107:.\Generated_Source\PSoC4/I2C_1_I2C_MASTER.c ****         /* Set up write transaction */
 108:.\Generated_Source\PSoC4/I2C_1_I2C_MASTER.c ****         I2C_1_state = I2C_1_I2C_FSM_MSTR_WR_ADDR;
 108              		.loc 1 108 0
 109 0060 204B     		ldr	r3, .L10
 110 0062 2822     		mov	r2, #40
 111 0064 1A70     		strb	r2, [r3]
 109:.\Generated_Source\PSoC4/I2C_1_I2C_MASTER.c ****         I2C_1_mstrWrBufIndexTmp = 0u;
 112              		.loc 1 109 0
 113 0066 224B     		ldr	r3, .L10+12
 114 0068 0022     		mov	r2, #0
 115 006a 1A60     		str	r2, [r3]
 110:.\Generated_Source\PSoC4/I2C_1_I2C_MASTER.c ****         I2C_1_mstrWrBufIndex    = 0u;
 116              		.loc 1 110 0
 117 006c 214B     		ldr	r3, .L10+16
 118 006e 0022     		mov	r2, #0
ARM GAS  C:\Users\Eric\AppData\Local\Temp\ccfZjnId.s 			page 5


 119 0070 1A60     		str	r2, [r3]
 111:.\Generated_Source\PSoC4/I2C_1_I2C_MASTER.c ****         I2C_1_mstrWrBufSize     = cnt;
 120              		.loc 1 111 0
 121 0072 214B     		ldr	r3, .L10+20
 122 0074 7A68     		ldr	r2, [r7, #4]
 123 0076 1A60     		str	r2, [r3]
 112:.\Generated_Source\PSoC4/I2C_1_I2C_MASTER.c ****         I2C_1_mstrWrBufPtr      = (volatile uint8 *) wrData;
 124              		.loc 1 112 0
 125 0078 204B     		ldr	r3, .L10+24
 126 007a BA68     		ldr	r2, [r7, #8]
 127 007c 1A60     		str	r2, [r3]
 113:.\Generated_Source\PSoC4/I2C_1_I2C_MASTER.c ****         I2C_1_mstrControl       = (uint8) mode;
 128              		.loc 1 113 0
 129 007e 3B68     		ldr	r3, [r7]
 130 0080 DAB2     		uxtb	r2, r3
 131 0082 1F4B     		ldr	r3, .L10+28
 132 0084 1A70     		strb	r2, [r3]
 114:.\Generated_Source\PSoC4/I2C_1_I2C_MASTER.c **** 
 115:.\Generated_Source\PSoC4/I2C_1_I2C_MASTER.c ****         slaveAddress = I2C_1_GET_I2C_8BIT_ADDRESS(slaveAddress);
 133              		.loc 1 115 0
 134 0086 FB68     		ldr	r3, [r7, #12]
 135 0088 5A00     		lsl	r2, r3, #1
 136 008a FF23     		mov	r3, #255
 137 008c 1340     		and	r3, r2
 138 008e FB60     		str	r3, [r7, #12]
 116:.\Generated_Source\PSoC4/I2C_1_I2C_MASTER.c **** 
 117:.\Generated_Source\PSoC4/I2C_1_I2C_MASTER.c ****         I2C_1_mstrStatus &= (uint16) ~I2C_1_I2C_MSTAT_WR_CMPLT;
 139              		.loc 1 117 0
 140 0090 164B     		ldr	r3, .L10+8
 141 0092 1B88     		ldrh	r3, [r3]
 142 0094 9BB2     		uxth	r3, r3
 143 0096 0222     		mov	r2, #2
 144 0098 9343     		bic	r3, r2
 145 009a 9AB2     		uxth	r2, r3
 146 009c 134B     		ldr	r3, .L10+8
 147 009e 1A80     		strh	r2, [r3]
 118:.\Generated_Source\PSoC4/I2C_1_I2C_MASTER.c **** 
 119:.\Generated_Source\PSoC4/I2C_1_I2C_MASTER.c ****         I2C_1_ClearMasterInterruptSource(I2C_1_INTR_MASTER_ALL);
 148              		.loc 1 119 0
 149 00a0 184B     		ldr	r3, .L10+32
 150 00a2 194A     		ldr	r2, .L10+36
 151 00a4 1A60     		str	r2, [r3]
 120:.\Generated_Source\PSoC4/I2C_1_I2C_MASTER.c ****         I2C_1_ClearTxInterruptSource(I2C_1_INTR_TX_UNDERFLOW);
 152              		.loc 1 120 0
 153 00a6 194B     		ldr	r3, .L10+40
 154 00a8 4022     		mov	r2, #64
 155 00aa 1A60     		str	r2, [r3]
 121:.\Generated_Source\PSoC4/I2C_1_I2C_MASTER.c ****         /* The TX and RX FIFO have to be EMPTY */
 122:.\Generated_Source\PSoC4/I2C_1_I2C_MASTER.c **** 
 123:.\Generated_Source\PSoC4/I2C_1_I2C_MASTER.c ****         /* Generate Start or ReStart */
 124:.\Generated_Source\PSoC4/I2C_1_I2C_MASTER.c ****         if(I2C_1_CHECK_I2C_MODE_RESTART(mode))
 156              		.loc 1 124 0
 157 00ac 3A68     		ldr	r2, [r7]
 158 00ae 0123     		mov	r3, #1
 159 00b0 1340     		and	r3, r2
 160 00b2 05D0     		beq	.L7
 125:.\Generated_Source\PSoC4/I2C_1_I2C_MASTER.c ****         {
ARM GAS  C:\Users\Eric\AppData\Local\Temp\ccfZjnId.s 			page 6


 126:.\Generated_Source\PSoC4/I2C_1_I2C_MASTER.c ****             I2C_1_I2C_MASTER_GENERATE_RESTART;
 161              		.loc 1 126 0
 162 00b4 FFF7FEFF 		bl	I2C_1_I2CReStartGeneration
 127:.\Generated_Source\PSoC4/I2C_1_I2C_MASTER.c ****             I2C_1_TX_FIFO_WR_REG = slaveAddress;
 163              		.loc 1 127 0
 164 00b8 154B     		ldr	r3, .L10+44
 165 00ba FA68     		ldr	r2, [r7, #12]
 166 00bc 1A60     		str	r2, [r3]
 167 00be 05E0     		b	.L8
 168              	.L7:
 128:.\Generated_Source\PSoC4/I2C_1_I2C_MASTER.c ****         }
 129:.\Generated_Source\PSoC4/I2C_1_I2C_MASTER.c ****         else
 130:.\Generated_Source\PSoC4/I2C_1_I2C_MASTER.c ****         {
 131:.\Generated_Source\PSoC4/I2C_1_I2C_MASTER.c ****             I2C_1_TX_FIFO_WR_REG = slaveAddress;
 169              		.loc 1 131 0
 170 00c0 134B     		ldr	r3, .L10+44
 171 00c2 FA68     		ldr	r2, [r7, #12]
 172 00c4 1A60     		str	r2, [r3]
 132:.\Generated_Source\PSoC4/I2C_1_I2C_MASTER.c ****             I2C_1_I2C_MASTER_GENERATE_START;
 173              		.loc 1 132 0
 174 00c6 134B     		ldr	r3, .L10+48
 175 00c8 0222     		mov	r2, #2
 176 00ca 1A60     		str	r2, [r3]
 177              	.L8:
 133:.\Generated_Source\PSoC4/I2C_1_I2C_MASTER.c ****         }
 134:.\Generated_Source\PSoC4/I2C_1_I2C_MASTER.c **** 
 135:.\Generated_Source\PSoC4/I2C_1_I2C_MASTER.c ****          /* Catch when address is sent */
 136:.\Generated_Source\PSoC4/I2C_1_I2C_MASTER.c ****         I2C_1_SetTxInterruptMode(I2C_1_INTR_TX_UNDERFLOW);
 178              		.loc 1 136 0
 179 00cc 124B     		ldr	r3, .L10+52
 180 00ce 4022     		mov	r2, #64
 181 00d0 1A60     		str	r2, [r3]
 182              	.L6:
 137:.\Generated_Source\PSoC4/I2C_1_I2C_MASTER.c ****     }
 138:.\Generated_Source\PSoC4/I2C_1_I2C_MASTER.c **** 
 139:.\Generated_Source\PSoC4/I2C_1_I2C_MASTER.c ****     I2C_1_EnableInt();
 183              		.loc 1 139 0
 184 00d2 0A20     		mov	r0, #10
 185 00d4 FFF7FEFF 		bl	CyIntEnable
 140:.\Generated_Source\PSoC4/I2C_1_I2C_MASTER.c **** 
 141:.\Generated_Source\PSoC4/I2C_1_I2C_MASTER.c ****     return(errStatus);
 186              		.loc 1 141 0
 187 00d8 7B69     		ldr	r3, [r7, #20]
 142:.\Generated_Source\PSoC4/I2C_1_I2C_MASTER.c **** }
 188              		.loc 1 142 0
 189 00da 181C     		mov	r0, r3
 190 00dc BD46     		mov	sp, r7
 191 00de 06B0     		add	sp, sp, #24
 192              		@ sp needed for prologue
 193 00e0 80BD     		pop	{r7, pc}
 194              	.L11:
 195 00e2 C046     		.align	2
 196              	.L10:
 197 00e4 00000000 		.word	I2C_1_state
 198 00e8 64000640 		.word	1074135140
 199 00ec 00000000 		.word	I2C_1_mstrStatus
 200 00f0 00000000 		.word	I2C_1_mstrWrBufIndexTmp
ARM GAS  C:\Users\Eric\AppData\Local\Temp\ccfZjnId.s 			page 7


 201 00f4 00000000 		.word	I2C_1_mstrWrBufIndex
 202 00f8 00000000 		.word	I2C_1_mstrWrBufSize
 203 00fc 00000000 		.word	I2C_1_mstrWrBufPtr
 204 0100 00000000 		.word	I2C_1_mstrControl
 205 0104 000F0640 		.word	1074138880
 206 0108 17030000 		.word	791
 207 010c 800F0640 		.word	1074139008
 208 0110 40020640 		.word	1074135616
 209 0114 68000640 		.word	1074135144
 210 0118 880F0640 		.word	1074139016
 211              		.cfi_endproc
 212              	.LFE0:
 213              		.size	I2C_1_I2CMasterWriteBuf, .-I2C_1_I2CMasterWriteBuf
 214              		.section	.text.I2C_1_I2CMasterReadBuf,"ax",%progbits
 215              		.align	2
 216              		.global	I2C_1_I2CMasterReadBuf
 217              		.code	16
 218              		.thumb_func
 219              		.type	I2C_1_I2CMasterReadBuf, %function
 220              	I2C_1_I2CMasterReadBuf:
 221              	.LFB1:
 143:.\Generated_Source\PSoC4/I2C_1_I2C_MASTER.c **** 
 144:.\Generated_Source\PSoC4/I2C_1_I2C_MASTER.c **** 
 145:.\Generated_Source\PSoC4/I2C_1_I2C_MASTER.c **** /*******************************************************************************
 146:.\Generated_Source\PSoC4/I2C_1_I2C_MASTER.c **** * Function Name: I2C_1_I2CMasterReadBuf
 147:.\Generated_Source\PSoC4/I2C_1_I2C_MASTER.c **** ********************************************************************************
 148:.\Generated_Source\PSoC4/I2C_1_I2C_MASTER.c **** *
 149:.\Generated_Source\PSoC4/I2C_1_I2C_MASTER.c **** * Summary:
 150:.\Generated_Source\PSoC4/I2C_1_I2C_MASTER.c **** *  Automatically reads an entire buffer of data from a slave device.
 151:.\Generated_Source\PSoC4/I2C_1_I2C_MASTER.c **** *  Once the data transfer is initiated by this function, further data transfer
 152:.\Generated_Source\PSoC4/I2C_1_I2C_MASTER.c **** *  is handled by the included ISR.
 153:.\Generated_Source\PSoC4/I2C_1_I2C_MASTER.c **** * Enables the I2C interrupt and clears SCB_ I2C_MSTAT_RD_CMPLT status.
 154:.\Generated_Source\PSoC4/I2C_1_I2C_MASTER.c **** *
 155:.\Generated_Source\PSoC4/I2C_1_I2C_MASTER.c **** * Parameters:
 156:.\Generated_Source\PSoC4/I2C_1_I2C_MASTER.c **** *  slaveAddr: 7-bit slave address.
 157:.\Generated_Source\PSoC4/I2C_1_I2C_MASTER.c **** *  xferData:  Pointer to buffer where to put data from slave.
 158:.\Generated_Source\PSoC4/I2C_1_I2C_MASTER.c **** *  cnt:       Size of buffer to read.
 159:.\Generated_Source\PSoC4/I2C_1_I2C_MASTER.c **** *  mode:      Transfer mode defines: start or restart condition generation at
 160:.\Generated_Source\PSoC4/I2C_1_I2C_MASTER.c **** *             begin of the transfer and complete the transfer or halt before
 161:.\Generated_Source\PSoC4/I2C_1_I2C_MASTER.c **** *             generating a stop.
 162:.\Generated_Source\PSoC4/I2C_1_I2C_MASTER.c **** *
 163:.\Generated_Source\PSoC4/I2C_1_I2C_MASTER.c **** * Return:
 164:.\Generated_Source\PSoC4/I2C_1_I2C_MASTER.c **** *  Error status.
 165:.\Generated_Source\PSoC4/I2C_1_I2C_MASTER.c **** *
 166:.\Generated_Source\PSoC4/I2C_1_I2C_MASTER.c **** * Global variables:
 167:.\Generated_Source\PSoC4/I2C_1_I2C_MASTER.c **** *  I2C_1_mstrStatus  - used to store current status of I2C Master.
 168:.\Generated_Source\PSoC4/I2C_1_I2C_MASTER.c **** *  I2C_1_state       - used to store current state of software FSM.
 169:.\Generated_Source\PSoC4/I2C_1_I2C_MASTER.c **** *  I2C_1_mstrControl - used to control master end of transaction with
 170:.\Generated_Source\PSoC4/I2C_1_I2C_MASTER.c **** *  or without the Stop generation.
 171:.\Generated_Source\PSoC4/I2C_1_I2C_MASTER.c **** *  I2C_1_mstrRdBufPtr - used to store pointer to master write buffer.
 172:.\Generated_Source\PSoC4/I2C_1_I2C_MASTER.c **** *  I2C_1_mstrRdBufIndex - used to current index within master write
 173:.\Generated_Source\PSoC4/I2C_1_I2C_MASTER.c **** *  buffer.
 174:.\Generated_Source\PSoC4/I2C_1_I2C_MASTER.c **** *  I2C_1_mstrRdBufSize - used to store master write buffer size.
 175:.\Generated_Source\PSoC4/I2C_1_I2C_MASTER.c **** *
 176:.\Generated_Source\PSoC4/I2C_1_I2C_MASTER.c **** *******************************************************************************/
 177:.\Generated_Source\PSoC4/I2C_1_I2C_MASTER.c **** uint32 I2C_1_I2CMasterReadBuf(uint32 slaveAddress, uint8 * rdData, uint32 cnt, uint32 mode)
 178:.\Generated_Source\PSoC4/I2C_1_I2C_MASTER.c **** {
ARM GAS  C:\Users\Eric\AppData\Local\Temp\ccfZjnId.s 			page 8


 222              		.loc 1 178 0
 223              		.cfi_startproc
 224 0000 80B5     		push	{r7, lr}
 225              	.LCFI3:
 226              		.cfi_def_cfa_offset 8
 227              		.cfi_offset 7, -8
 228              		.cfi_offset 14, -4
 229 0002 86B0     		sub	sp, sp, #24
 230              	.LCFI4:
 231              		.cfi_def_cfa_offset 32
 232 0004 00AF     		add	r7, sp, #0
 233              	.LCFI5:
 234              		.cfi_def_cfa_register 7
 235 0006 F860     		str	r0, [r7, #12]
 236 0008 B960     		str	r1, [r7, #8]
 237 000a 7A60     		str	r2, [r7, #4]
 238 000c 3B60     		str	r3, [r7]
 179:.\Generated_Source\PSoC4/I2C_1_I2C_MASTER.c ****     uint32 errStatus;
 180:.\Generated_Source\PSoC4/I2C_1_I2C_MASTER.c **** 
 181:.\Generated_Source\PSoC4/I2C_1_I2C_MASTER.c ****     errStatus = I2C_1_I2C_MSTR_NOT_READY;
 239              		.loc 1 181 0
 240 000e 0423     		mov	r3, #4
 241 0010 7B61     		str	r3, [r7, #20]
 182:.\Generated_Source\PSoC4/I2C_1_I2C_MASTER.c **** 
 183:.\Generated_Source\PSoC4/I2C_1_I2C_MASTER.c ****     if(NULL != rdData)
 242              		.loc 1 183 0
 243 0012 BB68     		ldr	r3, [r7, #8]
 244 0014 002B     		cmp	r3, #0
 245 0016 20D0     		beq	.L13
 184:.\Generated_Source\PSoC4/I2C_1_I2C_MASTER.c ****     {
 185:.\Generated_Source\PSoC4/I2C_1_I2C_MASTER.c ****         /* Check FSM state and bus before generating Start/ReStart condition */
 186:.\Generated_Source\PSoC4/I2C_1_I2C_MASTER.c ****         if(I2C_1_CHECK_I2C_FSM_IDLE)
 246              		.loc 1 186 0
 247 0018 374B     		ldr	r3, .L22
 248 001a 1B78     		ldrb	r3, [r3]
 249 001c DBB2     		uxtb	r3, r3
 250 001e 102B     		cmp	r3, #16
 251 0020 0CD1     		bne	.L14
 187:.\Generated_Source\PSoC4/I2C_1_I2C_MASTER.c ****         {
 188:.\Generated_Source\PSoC4/I2C_1_I2C_MASTER.c ****             I2C_1_DisableInt();
 252              		.loc 1 188 0
 253 0022 0A20     		mov	r0, #10
 254 0024 FFF7FEFF 		bl	CyIntDisable
 189:.\Generated_Source\PSoC4/I2C_1_I2C_MASTER.c **** 
 190:.\Generated_Source\PSoC4/I2C_1_I2C_MASTER.c ****             /* Check bus state */
 191:.\Generated_Source\PSoC4/I2C_1_I2C_MASTER.c ****             errStatus = I2C_1_CHECK_I2C_STATUS(I2C_1_I2C_STATUS_BUS_BUSY) ?
 255              		.loc 1 191 0
 256 0028 344B     		ldr	r3, .L22+4
 257 002a 1A68     		ldr	r2, [r3]
 258 002c 0123     		mov	r3, #1
 259 002e 1340     		and	r3, r2
 260 0030 01D0     		beq	.L15
 261              		.loc 1 191 0 is_stmt 0 discriminator 1
 262 0032 0823     		mov	r3, #8
 263 0034 00E0     		b	.L16
 264              	.L15:
 265              		.loc 1 191 0 discriminator 2
ARM GAS  C:\Users\Eric\AppData\Local\Temp\ccfZjnId.s 			page 9


 266 0036 0023     		mov	r3, #0
 267              	.L16:
 268              		.loc 1 191 0 discriminator 3
 269 0038 7B61     		str	r3, [r7, #20]
 270 003a 0EE0     		b	.L13
 271              	.L14:
 192:.\Generated_Source\PSoC4/I2C_1_I2C_MASTER.c ****                             I2C_1_I2C_MSTR_BUS_BUSY : I2C_1_I2C_MSTR_NO_ERROR;
 193:.\Generated_Source\PSoC4/I2C_1_I2C_MASTER.c ****         }
 194:.\Generated_Source\PSoC4/I2C_1_I2C_MASTER.c ****         else if(I2C_1_CHECK_I2C_FSM_HALT)
 272              		.loc 1 194 0 is_stmt 1
 273 003c 2E4B     		ldr	r3, .L22
 274 003e 1B78     		ldrb	r3, [r3]
 275 0040 DBB2     		uxtb	r3, r3
 276 0042 602B     		cmp	r3, #96
 277 0044 09D1     		bne	.L13
 195:.\Generated_Source\PSoC4/I2C_1_I2C_MASTER.c ****         {
 196:.\Generated_Source\PSoC4/I2C_1_I2C_MASTER.c ****             I2C_1_mstrStatus &= (uint16) ~I2C_1_I2C_MSTAT_XFER_HALT;
 278              		.loc 1 196 0
 279 0046 2E4B     		ldr	r3, .L22+8
 280 0048 1B88     		ldrh	r3, [r3]
 281 004a 9BB2     		uxth	r3, r3
 282 004c 0822     		mov	r2, #8
 283 004e 9343     		bic	r3, r2
 284 0050 9AB2     		uxth	r2, r3
 285 0052 2B4B     		ldr	r3, .L22+8
 286 0054 1A80     		strh	r2, [r3]
 197:.\Generated_Source\PSoC4/I2C_1_I2C_MASTER.c ****                               errStatus  =  I2C_1_I2C_MSTR_NO_ERROR;
 287              		.loc 1 197 0
 288 0056 0023     		mov	r3, #0
 289 0058 7B61     		str	r3, [r7, #20]
 290              	.L13:
 198:.\Generated_Source\PSoC4/I2C_1_I2C_MASTER.c ****         }
 199:.\Generated_Source\PSoC4/I2C_1_I2C_MASTER.c ****         else
 200:.\Generated_Source\PSoC4/I2C_1_I2C_MASTER.c ****         {
 201:.\Generated_Source\PSoC4/I2C_1_I2C_MASTER.c ****             /* Unexpected FSM state: exit */
 202:.\Generated_Source\PSoC4/I2C_1_I2C_MASTER.c ****         }
 203:.\Generated_Source\PSoC4/I2C_1_I2C_MASTER.c ****     }
 204:.\Generated_Source\PSoC4/I2C_1_I2C_MASTER.c **** 
 205:.\Generated_Source\PSoC4/I2C_1_I2C_MASTER.c ****     /* Check master ready to proceed */
 206:.\Generated_Source\PSoC4/I2C_1_I2C_MASTER.c ****     if(I2C_1_I2C_MSTR_NO_ERROR == errStatus) /* No error proceed */
 291              		.loc 1 206 0
 292 005a 7B69     		ldr	r3, [r7, #20]
 293 005c 002B     		cmp	r3, #0
 294 005e 43D1     		bne	.L17
 207:.\Generated_Source\PSoC4/I2C_1_I2C_MASTER.c ****     {
 208:.\Generated_Source\PSoC4/I2C_1_I2C_MASTER.c ****         /* Set up read transaction */
 209:.\Generated_Source\PSoC4/I2C_1_I2C_MASTER.c ****         I2C_1_state = I2C_1_I2C_FSM_MSTR_RD_ADDR;
 295              		.loc 1 209 0
 296 0060 254B     		ldr	r3, .L22
 297 0062 2922     		mov	r2, #41
 298 0064 1A70     		strb	r2, [r3]
 210:.\Generated_Source\PSoC4/I2C_1_I2C_MASTER.c ****         I2C_1_mstrRdBufIndex = 0u;
 299              		.loc 1 210 0
 300 0066 274B     		ldr	r3, .L22+12
 301 0068 0022     		mov	r2, #0
 302 006a 1A60     		str	r2, [r3]
 211:.\Generated_Source\PSoC4/I2C_1_I2C_MASTER.c ****         I2C_1_mstrRdBufSize  = cnt;
ARM GAS  C:\Users\Eric\AppData\Local\Temp\ccfZjnId.s 			page 10


 303              		.loc 1 211 0
 304 006c 264B     		ldr	r3, .L22+16
 305 006e 7A68     		ldr	r2, [r7, #4]
 306 0070 1A60     		str	r2, [r3]
 212:.\Generated_Source\PSoC4/I2C_1_I2C_MASTER.c ****         I2C_1_mstrRdBufPtr   = (volatile uint8 *) rdData;
 307              		.loc 1 212 0
 308 0072 264B     		ldr	r3, .L22+20
 309 0074 BA68     		ldr	r2, [r7, #8]
 310 0076 1A60     		str	r2, [r3]
 213:.\Generated_Source\PSoC4/I2C_1_I2C_MASTER.c ****         I2C_1_mstrControl    = (uint8) mode;
 311              		.loc 1 213 0
 312 0078 3B68     		ldr	r3, [r7]
 313 007a DAB2     		uxtb	r2, r3
 314 007c 244B     		ldr	r3, .L22+24
 315 007e 1A70     		strb	r2, [r3]
 214:.\Generated_Source\PSoC4/I2C_1_I2C_MASTER.c **** 
 215:.\Generated_Source\PSoC4/I2C_1_I2C_MASTER.c ****         slaveAddress = (I2C_1_GET_I2C_8BIT_ADDRESS(slaveAddress) | I2C_1_I2C_READ_FLAG);
 316              		.loc 1 215 0
 317 0080 FB68     		ldr	r3, [r7, #12]
 318 0082 5A00     		lsl	r2, r3, #1
 319 0084 FF23     		mov	r3, #255
 320 0086 1340     		and	r3, r2
 321 0088 0122     		mov	r2, #1
 322 008a 1343     		orr	r3, r2
 323 008c FB60     		str	r3, [r7, #12]
 216:.\Generated_Source\PSoC4/I2C_1_I2C_MASTER.c **** 
 217:.\Generated_Source\PSoC4/I2C_1_I2C_MASTER.c ****         I2C_1_mstrStatus &= (uint16) ~I2C_1_I2C_MSTAT_RD_CMPLT;
 324              		.loc 1 217 0
 325 008e 1C4B     		ldr	r3, .L22+8
 326 0090 1B88     		ldrh	r3, [r3]
 327 0092 9BB2     		uxth	r3, r3
 328 0094 0122     		mov	r2, #1
 329 0096 9343     		bic	r3, r2
 330 0098 9AB2     		uxth	r2, r3
 331 009a 194B     		ldr	r3, .L22+8
 332 009c 1A80     		strh	r2, [r3]
 218:.\Generated_Source\PSoC4/I2C_1_I2C_MASTER.c **** 
 219:.\Generated_Source\PSoC4/I2C_1_I2C_MASTER.c ****         I2C_1_ClearMasterInterruptSource(I2C_1_INTR_MASTER_ALL);
 333              		.loc 1 219 0
 334 009e 1D4B     		ldr	r3, .L22+28
 335 00a0 1D4A     		ldr	r2, .L22+32
 336 00a2 1A60     		str	r2, [r3]
 220:.\Generated_Source\PSoC4/I2C_1_I2C_MASTER.c **** 
 221:.\Generated_Source\PSoC4/I2C_1_I2C_MASTER.c ****         /* The TX and RX FIFO have to be EMPTY */
 222:.\Generated_Source\PSoC4/I2C_1_I2C_MASTER.c **** 
 223:.\Generated_Source\PSoC4/I2C_1_I2C_MASTER.c ****         /* Generate Start or ReStart */
 224:.\Generated_Source\PSoC4/I2C_1_I2C_MASTER.c ****         if(I2C_1_CHECK_I2C_MODE_RESTART(mode))
 337              		.loc 1 224 0
 338 00a4 3A68     		ldr	r2, [r7]
 339 00a6 0123     		mov	r3, #1
 340 00a8 1340     		and	r3, r2
 341 00aa 05D0     		beq	.L18
 225:.\Generated_Source\PSoC4/I2C_1_I2C_MASTER.c ****         {
 226:.\Generated_Source\PSoC4/I2C_1_I2C_MASTER.c ****             I2C_1_I2C_MASTER_GENERATE_RESTART;
 342              		.loc 1 226 0
 343 00ac FFF7FEFF 		bl	I2C_1_I2CReStartGeneration
 227:.\Generated_Source\PSoC4/I2C_1_I2C_MASTER.c ****             I2C_1_TX_FIFO_WR_REG = (slaveAddress);
ARM GAS  C:\Users\Eric\AppData\Local\Temp\ccfZjnId.s 			page 11


 344              		.loc 1 227 0
 345 00b0 1A4B     		ldr	r3, .L22+36
 346 00b2 FA68     		ldr	r2, [r7, #12]
 347 00b4 1A60     		str	r2, [r3]
 348 00b6 05E0     		b	.L19
 349              	.L18:
 228:.\Generated_Source\PSoC4/I2C_1_I2C_MASTER.c ****         }
 229:.\Generated_Source\PSoC4/I2C_1_I2C_MASTER.c ****         else
 230:.\Generated_Source\PSoC4/I2C_1_I2C_MASTER.c ****         {
 231:.\Generated_Source\PSoC4/I2C_1_I2C_MASTER.c ****             I2C_1_TX_FIFO_WR_REG = (slaveAddress);
 350              		.loc 1 231 0
 351 00b8 184B     		ldr	r3, .L22+36
 352 00ba FA68     		ldr	r2, [r7, #12]
 353 00bc 1A60     		str	r2, [r3]
 232:.\Generated_Source\PSoC4/I2C_1_I2C_MASTER.c ****             I2C_1_I2C_MASTER_GENERATE_START;
 354              		.loc 1 232 0
 355 00be 184B     		ldr	r3, .L22+40
 356 00c0 0222     		mov	r2, #2
 357 00c2 1A60     		str	r2, [r3]
 358              	.L19:
 233:.\Generated_Source\PSoC4/I2C_1_I2C_MASTER.c ****         }
 234:.\Generated_Source\PSoC4/I2C_1_I2C_MASTER.c **** 
 235:.\Generated_Source\PSoC4/I2C_1_I2C_MASTER.c ****         /* Prepare reading */
 236:.\Generated_Source\PSoC4/I2C_1_I2C_MASTER.c ****         if(I2C_1_mstrRdBufSize < I2C_1_I2C_FIFO_SIZE) /* Reading byte-by-byte */
 359              		.loc 1 236 0
 360 00c4 104B     		ldr	r3, .L22+16
 361 00c6 1B68     		ldr	r3, [r3]
 362 00c8 072B     		cmp	r3, #7
 363 00ca 03D8     		bhi	.L20
 237:.\Generated_Source\PSoC4/I2C_1_I2C_MASTER.c ****         {
 238:.\Generated_Source\PSoC4/I2C_1_I2C_MASTER.c ****             I2C_1_SetRxInterruptMode(I2C_1_INTR_RX_NOT_EMPTY);
 364              		.loc 1 238 0
 365 00cc 154B     		ldr	r3, .L22+44
 366 00ce 0422     		mov	r2, #4
 367 00d0 1A60     		str	r2, [r3]
 368 00d2 09E0     		b	.L17
 369              	.L20:
 239:.\Generated_Source\PSoC4/I2C_1_I2C_MASTER.c ****         }
 240:.\Generated_Source\PSoC4/I2C_1_I2C_MASTER.c ****         else /* Reading use RX FIFO */
 241:.\Generated_Source\PSoC4/I2C_1_I2C_MASTER.c ****         {
 242:.\Generated_Source\PSoC4/I2C_1_I2C_MASTER.c ****             I2C_1_ENABLE_MASTER_AUTO_DATA_ACK;
 370              		.loc 1 242 0
 371 00d4 144B     		ldr	r3, .L22+48
 372 00d6 144A     		ldr	r2, .L22+48
 373 00d8 1268     		ldr	r2, [r2]
 374 00da 8021     		mov	r1, #128
 375 00dc 4900     		lsl	r1, r1, #1
 376 00de 0A43     		orr	r2, r1
 377 00e0 1A60     		str	r2, [r3]
 243:.\Generated_Source\PSoC4/I2C_1_I2C_MASTER.c ****             I2C_1_SetRxInterruptMode(I2C_1_INTR_RX_FULL);
 378              		.loc 1 243 0
 379 00e2 104B     		ldr	r3, .L22+44
 380 00e4 0822     		mov	r2, #8
 381 00e6 1A60     		str	r2, [r3]
 382              	.L17:
 244:.\Generated_Source\PSoC4/I2C_1_I2C_MASTER.c ****         }
 245:.\Generated_Source\PSoC4/I2C_1_I2C_MASTER.c ****     }
ARM GAS  C:\Users\Eric\AppData\Local\Temp\ccfZjnId.s 			page 12


 246:.\Generated_Source\PSoC4/I2C_1_I2C_MASTER.c **** 
 247:.\Generated_Source\PSoC4/I2C_1_I2C_MASTER.c ****     I2C_1_EnableInt();
 383              		.loc 1 247 0
 384 00e8 0A20     		mov	r0, #10
 385 00ea FFF7FEFF 		bl	CyIntEnable
 248:.\Generated_Source\PSoC4/I2C_1_I2C_MASTER.c **** 
 249:.\Generated_Source\PSoC4/I2C_1_I2C_MASTER.c ****     return(errStatus);
 386              		.loc 1 249 0
 387 00ee 7B69     		ldr	r3, [r7, #20]
 250:.\Generated_Source\PSoC4/I2C_1_I2C_MASTER.c **** }
 388              		.loc 1 250 0
 389 00f0 181C     		mov	r0, r3
 390 00f2 BD46     		mov	sp, r7
 391 00f4 06B0     		add	sp, sp, #24
 392              		@ sp needed for prologue
 393 00f6 80BD     		pop	{r7, pc}
 394              	.L23:
 395              		.align	2
 396              	.L22:
 397 00f8 00000000 		.word	I2C_1_state
 398 00fc 64000640 		.word	1074135140
 399 0100 00000000 		.word	I2C_1_mstrStatus
 400 0104 00000000 		.word	I2C_1_mstrRdBufIndex
 401 0108 00000000 		.word	I2C_1_mstrRdBufSize
 402 010c 00000000 		.word	I2C_1_mstrRdBufPtr
 403 0110 00000000 		.word	I2C_1_mstrControl
 404 0114 000F0640 		.word	1074138880
 405 0118 17030000 		.word	791
 406 011c 40020640 		.word	1074135616
 407 0120 68000640 		.word	1074135144
 408 0124 C80F0640 		.word	1074139080
 409 0128 60000640 		.word	1074135136
 410              		.cfi_endproc
 411              	.LFE1:
 412              		.size	I2C_1_I2CMasterReadBuf, .-I2C_1_I2CMasterReadBuf
 413              		.section	.text.I2C_1_I2CMasterSendStart,"ax",%progbits
 414              		.align	2
 415              		.global	I2C_1_I2CMasterSendStart
 416              		.code	16
 417              		.thumb_func
 418              		.type	I2C_1_I2CMasterSendStart, %function
 419              	I2C_1_I2CMasterSendStart:
 420              	.LFB2:
 251:.\Generated_Source\PSoC4/I2C_1_I2C_MASTER.c **** 
 252:.\Generated_Source\PSoC4/I2C_1_I2C_MASTER.c **** 
 253:.\Generated_Source\PSoC4/I2C_1_I2C_MASTER.c **** /*******************************************************************************
 254:.\Generated_Source\PSoC4/I2C_1_I2C_MASTER.c **** * Function Name: I2C_1_I2CMasterSendStart
 255:.\Generated_Source\PSoC4/I2C_1_I2C_MASTER.c **** ********************************************************************************
 256:.\Generated_Source\PSoC4/I2C_1_I2C_MASTER.c **** *
 257:.\Generated_Source\PSoC4/I2C_1_I2C_MASTER.c **** * Summary:
 258:.\Generated_Source\PSoC4/I2C_1_I2C_MASTER.c **** *  Generates Start condition and sends slave address with read/write bit.
 259:.\Generated_Source\PSoC4/I2C_1_I2C_MASTER.c **** *  Disables the I2C interrupt.
 260:.\Generated_Source\PSoC4/I2C_1_I2C_MASTER.c **** *  This function is blocking and does not return until start condition and
 261:.\Generated_Source\PSoC4/I2C_1_I2C_MASTER.c **** *  address byte are sent and ACK/NACK response is received or errors occurred.
 262:.\Generated_Source\PSoC4/I2C_1_I2C_MASTER.c **** *
 263:.\Generated_Source\PSoC4/I2C_1_I2C_MASTER.c **** * Parameters:
 264:.\Generated_Source\PSoC4/I2C_1_I2C_MASTER.c **** *  slaveAddress: Right justified 7-bit Slave address (valid range 8 to 120).
ARM GAS  C:\Users\Eric\AppData\Local\Temp\ccfZjnId.s 			page 13


 265:.\Generated_Source\PSoC4/I2C_1_I2C_MASTER.c **** *  bitRnW:       Direction of the following transfer. It is defined by
 266:.\Generated_Source\PSoC4/I2C_1_I2C_MASTER.c **** *                read/write bit within address byte.
 267:.\Generated_Source\PSoC4/I2C_1_I2C_MASTER.c **** *
 268:.\Generated_Source\PSoC4/I2C_1_I2C_MASTER.c **** * Return:
 269:.\Generated_Source\PSoC4/I2C_1_I2C_MASTER.c **** *  Erorr status.
 270:.\Generated_Source\PSoC4/I2C_1_I2C_MASTER.c **** *
 271:.\Generated_Source\PSoC4/I2C_1_I2C_MASTER.c **** * Global variables:
 272:.\Generated_Source\PSoC4/I2C_1_I2C_MASTER.c **** *  I2C_1_state - used to store current state of software FSM.
 273:.\Generated_Source\PSoC4/I2C_1_I2C_MASTER.c **** *
 274:.\Generated_Source\PSoC4/I2C_1_I2C_MASTER.c **** *******************************************************************************/
 275:.\Generated_Source\PSoC4/I2C_1_I2C_MASTER.c **** uint32 I2C_1_I2CMasterSendStart(uint32 slaveAddress, uint32 bitRnW)
 276:.\Generated_Source\PSoC4/I2C_1_I2C_MASTER.c **** {
 421              		.loc 1 276 0
 422              		.cfi_startproc
 423 0000 80B5     		push	{r7, lr}
 424              	.LCFI6:
 425              		.cfi_def_cfa_offset 8
 426              		.cfi_offset 7, -8
 427              		.cfi_offset 14, -4
 428 0002 84B0     		sub	sp, sp, #16
 429              	.LCFI7:
 430              		.cfi_def_cfa_offset 24
 431 0004 00AF     		add	r7, sp, #0
 432              	.LCFI8:
 433              		.cfi_def_cfa_register 7
 434 0006 7860     		str	r0, [r7, #4]
 435 0008 3960     		str	r1, [r7]
 277:.\Generated_Source\PSoC4/I2C_1_I2C_MASTER.c ****     uint32  resetIp;
 278:.\Generated_Source\PSoC4/I2C_1_I2C_MASTER.c ****     uint32 errStatus;
 279:.\Generated_Source\PSoC4/I2C_1_I2C_MASTER.c **** 
 280:.\Generated_Source\PSoC4/I2C_1_I2C_MASTER.c ****     resetIp   = 0u;
 436              		.loc 1 280 0
 437 000a 0023     		mov	r3, #0
 438 000c FB60     		str	r3, [r7, #12]
 281:.\Generated_Source\PSoC4/I2C_1_I2C_MASTER.c ****     errStatus = I2C_1_I2C_MSTR_NOT_READY;
 439              		.loc 1 281 0
 440 000e 0423     		mov	r3, #4
 441 0010 BB60     		str	r3, [r7, #8]
 282:.\Generated_Source\PSoC4/I2C_1_I2C_MASTER.c **** 
 283:.\Generated_Source\PSoC4/I2C_1_I2C_MASTER.c ****     /* Check FSM state before generating Start condition */
 284:.\Generated_Source\PSoC4/I2C_1_I2C_MASTER.c ****     if(I2C_1_CHECK_I2C_FSM_IDLE)
 442              		.loc 1 284 0
 443 0012 374B     		ldr	r3, .L35
 444 0014 1B78     		ldrb	r3, [r3]
 445 0016 DBB2     		uxtb	r3, r3
 446 0018 102B     		cmp	r3, #16
 447 001a 64D1     		bne	.L25
 285:.\Generated_Source\PSoC4/I2C_1_I2C_MASTER.c ****     {
 286:.\Generated_Source\PSoC4/I2C_1_I2C_MASTER.c ****         /* If bus is free, generate Start condition */
 287:.\Generated_Source\PSoC4/I2C_1_I2C_MASTER.c ****         if(I2C_1_CHECK_I2C_STATUS(I2C_1_I2C_STATUS_BUS_BUSY))
 448              		.loc 1 287 0
 449 001c 354B     		ldr	r3, .L35+4
 450 001e 1A68     		ldr	r2, [r3]
 451 0020 0123     		mov	r3, #1
 452 0022 1340     		and	r3, r2
 453 0024 02D0     		beq	.L26
 288:.\Generated_Source\PSoC4/I2C_1_I2C_MASTER.c ****         {
ARM GAS  C:\Users\Eric\AppData\Local\Temp\ccfZjnId.s 			page 14


 289:.\Generated_Source\PSoC4/I2C_1_I2C_MASTER.c ****             errStatus = I2C_1_I2C_MSTR_BUS_BUSY;
 454              		.loc 1 289 0
 455 0026 0823     		mov	r3, #8
 456 0028 BB60     		str	r3, [r7, #8]
 457 002a 5CE0     		b	.L25
 458              	.L26:
 290:.\Generated_Source\PSoC4/I2C_1_I2C_MASTER.c ****         }
 291:.\Generated_Source\PSoC4/I2C_1_I2C_MASTER.c ****         else
 292:.\Generated_Source\PSoC4/I2C_1_I2C_MASTER.c ****         {
 293:.\Generated_Source\PSoC4/I2C_1_I2C_MASTER.c ****             I2C_1_DisableInt();
 459              		.loc 1 293 0
 460 002c 0A20     		mov	r0, #10
 461 002e FFF7FEFF 		bl	CyIntDisable
 294:.\Generated_Source\PSoC4/I2C_1_I2C_MASTER.c **** 
 295:.\Generated_Source\PSoC4/I2C_1_I2C_MASTER.c ****             slaveAddress = I2C_1_GET_I2C_8BIT_ADDRESS(slaveAddress);
 462              		.loc 1 295 0
 463 0032 7B68     		ldr	r3, [r7, #4]
 464 0034 5A00     		lsl	r2, r3, #1
 465 0036 FF23     		mov	r3, #255
 466 0038 1340     		and	r3, r2
 467 003a 7B60     		str	r3, [r7, #4]
 296:.\Generated_Source\PSoC4/I2C_1_I2C_MASTER.c **** 
 297:.\Generated_Source\PSoC4/I2C_1_I2C_MASTER.c ****             if(0u == bitRnW) /* Write direction */
 468              		.loc 1 297 0
 469 003c 3B68     		ldr	r3, [r7]
 470 003e 002B     		cmp	r3, #0
 471 0040 03D1     		bne	.L27
 298:.\Generated_Source\PSoC4/I2C_1_I2C_MASTER.c ****             {
 299:.\Generated_Source\PSoC4/I2C_1_I2C_MASTER.c ****                 I2C_1_state = I2C_1_I2C_FSM_MSTR_WR_DATA;
 472              		.loc 1 299 0
 473 0042 2B4B     		ldr	r3, .L35
 474 0044 2422     		mov	r2, #36
 475 0046 1A70     		strb	r2, [r3]
 476 0048 06E0     		b	.L28
 477              	.L27:
 300:.\Generated_Source\PSoC4/I2C_1_I2C_MASTER.c ****             }
 301:.\Generated_Source\PSoC4/I2C_1_I2C_MASTER.c ****             else /* Read direction */
 302:.\Generated_Source\PSoC4/I2C_1_I2C_MASTER.c ****             {
 303:.\Generated_Source\PSoC4/I2C_1_I2C_MASTER.c ****                 I2C_1_state = I2C_1_I2C_FSM_MSTR_RD_DATA;
 478              		.loc 1 303 0
 479 004a 294B     		ldr	r3, .L35
 480 004c 2522     		mov	r2, #37
 481 004e 1A70     		strb	r2, [r3]
 304:.\Generated_Source\PSoC4/I2C_1_I2C_MASTER.c ****                          slaveAddress |= I2C_1_I2C_READ_FLAG;
 482              		.loc 1 304 0
 483 0050 7B68     		ldr	r3, [r7, #4]
 484 0052 0122     		mov	r2, #1
 485 0054 1343     		orr	r3, r2
 486 0056 7B60     		str	r3, [r7, #4]
 487              	.L28:
 305:.\Generated_Source\PSoC4/I2C_1_I2C_MASTER.c ****             }
 306:.\Generated_Source\PSoC4/I2C_1_I2C_MASTER.c **** 
 307:.\Generated_Source\PSoC4/I2C_1_I2C_MASTER.c ****             /* The TX and RX FIFO have to be EMPTY */
 308:.\Generated_Source\PSoC4/I2C_1_I2C_MASTER.c **** 
 309:.\Generated_Source\PSoC4/I2C_1_I2C_MASTER.c ****             I2C_1_TX_FIFO_WR_REG = slaveAddress; /* Put address in TX FIFO */
 488              		.loc 1 309 0
 489 0058 274B     		ldr	r3, .L35+8
ARM GAS  C:\Users\Eric\AppData\Local\Temp\ccfZjnId.s 			page 15


 490 005a 7A68     		ldr	r2, [r7, #4]
 491 005c 1A60     		str	r2, [r3]
 310:.\Generated_Source\PSoC4/I2C_1_I2C_MASTER.c ****             I2C_1_ClearMasterInterruptSource(I2C_1_INTR_MASTER_ALL);
 492              		.loc 1 310 0
 493 005e 274B     		ldr	r3, .L35+12
 494 0060 274A     		ldr	r2, .L35+16
 495 0062 1A60     		str	r2, [r3]
 311:.\Generated_Source\PSoC4/I2C_1_I2C_MASTER.c **** 
 312:.\Generated_Source\PSoC4/I2C_1_I2C_MASTER.c ****             I2C_1_I2C_MASTER_GENERATE_START;
 496              		.loc 1 312 0
 497 0064 274B     		ldr	r3, .L35+20
 498 0066 0222     		mov	r2, #2
 499 0068 1A60     		str	r2, [r3]
 313:.\Generated_Source\PSoC4/I2C_1_I2C_MASTER.c **** 
 314:.\Generated_Source\PSoC4/I2C_1_I2C_MASTER.c **** 
 315:.\Generated_Source\PSoC4/I2C_1_I2C_MASTER.c ****             while(!I2C_1_CHECK_INTR_MASTER(I2C_1_INTR_MASTER_I2C_ACK      |
 500              		.loc 1 315 0
 501 006a C046     		mov	r8, r8
 502              	.L29:
 503              		.loc 1 315 0 is_stmt 0 discriminator 1
 504 006c 234B     		ldr	r3, .L35+12
 505 006e 1A68     		ldr	r2, [r3]
 506 0070 254B     		ldr	r3, .L35+24
 507 0072 1340     		and	r3, r2
 508 0074 FAD0     		beq	.L29
 316:.\Generated_Source\PSoC4/I2C_1_I2C_MASTER.c ****                                                       I2C_1_INTR_MASTER_I2C_NACK     |
 317:.\Generated_Source\PSoC4/I2C_1_I2C_MASTER.c ****                                                       I2C_1_INTR_MASTER_I2C_ARB_LOST |
 318:.\Generated_Source\PSoC4/I2C_1_I2C_MASTER.c ****                                                       I2C_1_INTR_MASTER_I2C_BUS_ERROR))
 319:.\Generated_Source\PSoC4/I2C_1_I2C_MASTER.c ****             {
 320:.\Generated_Source\PSoC4/I2C_1_I2C_MASTER.c ****                 /*
 321:.\Generated_Source\PSoC4/I2C_1_I2C_MASTER.c ****                 * Write: wait until address has been transferred
 322:.\Generated_Source\PSoC4/I2C_1_I2C_MASTER.c ****                 * Read : wait until address has been transferred, data byte is going to RX FIFO as 
 323:.\Generated_Source\PSoC4/I2C_1_I2C_MASTER.c ****                 */
 324:.\Generated_Source\PSoC4/I2C_1_I2C_MASTER.c ****             }
 325:.\Generated_Source\PSoC4/I2C_1_I2C_MASTER.c **** 
 326:.\Generated_Source\PSoC4/I2C_1_I2C_MASTER.c ****             /* Check the results of the address phase */
 327:.\Generated_Source\PSoC4/I2C_1_I2C_MASTER.c ****             if(I2C_1_CHECK_INTR_MASTER(I2C_1_INTR_MASTER_I2C_ACK))
 509              		.loc 1 327 0 is_stmt 1
 510 0076 214B     		ldr	r3, .L35+12
 511 0078 1A68     		ldr	r2, [r3]
 512 007a 0423     		mov	r3, #4
 513 007c 1340     		and	r3, r2
 514 007e 02D0     		beq	.L30
 328:.\Generated_Source\PSoC4/I2C_1_I2C_MASTER.c ****             {
 329:.\Generated_Source\PSoC4/I2C_1_I2C_MASTER.c ****                 errStatus = I2C_1_I2C_MSTR_NO_ERROR;
 515              		.loc 1 329 0
 516 0080 0023     		mov	r3, #0
 517 0082 BB60     		str	r3, [r7, #8]
 518 0084 1CE0     		b	.L31
 519              	.L30:
 330:.\Generated_Source\PSoC4/I2C_1_I2C_MASTER.c ****             }
 331:.\Generated_Source\PSoC4/I2C_1_I2C_MASTER.c ****             else if(I2C_1_CHECK_INTR_MASTER(I2C_1_INTR_MASTER_I2C_NACK))
 520              		.loc 1 331 0
 521 0086 1D4B     		ldr	r3, .L35+12
 522 0088 1A68     		ldr	r2, [r3]
 523 008a 0223     		mov	r3, #2
 524 008c 1340     		and	r3, r2
ARM GAS  C:\Users\Eric\AppData\Local\Temp\ccfZjnId.s 			page 16


 525 008e 02D0     		beq	.L32
 332:.\Generated_Source\PSoC4/I2C_1_I2C_MASTER.c ****             {
 333:.\Generated_Source\PSoC4/I2C_1_I2C_MASTER.c ****                 errStatus = I2C_1_I2C_MSTR_ERR_LB_NAK;
 526              		.loc 1 333 0
 527 0090 0223     		mov	r3, #2
 528 0092 BB60     		str	r3, [r7, #8]
 529 0094 14E0     		b	.L31
 530              	.L32:
 334:.\Generated_Source\PSoC4/I2C_1_I2C_MASTER.c ****             }
 335:.\Generated_Source\PSoC4/I2C_1_I2C_MASTER.c ****             else if(I2C_1_CHECK_INTR_MASTER(I2C_1_INTR_MASTER_I2C_ARB_LOST))
 531              		.loc 1 335 0
 532 0096 194B     		ldr	r3, .L35+12
 533 0098 1A68     		ldr	r2, [r3]
 534 009a 0123     		mov	r3, #1
 535 009c 1340     		and	r3, r2
 536 009e 07D0     		beq	.L33
 336:.\Generated_Source\PSoC4/I2C_1_I2C_MASTER.c ****             {
 337:.\Generated_Source\PSoC4/I2C_1_I2C_MASTER.c ****                 I2C_1_state = I2C_1_I2C_FSM_IDLE;
 537              		.loc 1 337 0
 538 00a0 134B     		ldr	r3, .L35
 539 00a2 1022     		mov	r2, #16
 540 00a4 1A70     		strb	r2, [r3]
 338:.\Generated_Source\PSoC4/I2C_1_I2C_MASTER.c ****                              errStatus = I2C_1_I2C_MSTR_ERR_ARB_LOST;
 541              		.loc 1 338 0
 542 00a6 0123     		mov	r3, #1
 543 00a8 BB60     		str	r3, [r7, #8]
 339:.\Generated_Source\PSoC4/I2C_1_I2C_MASTER.c ****                              resetIp   = I2C_1_I2C_RESET_ERROR;
 544              		.loc 1 339 0
 545 00aa 0123     		mov	r3, #1
 546 00ac FB60     		str	r3, [r7, #12]
 547 00ae 07E0     		b	.L31
 548              	.L33:
 340:.\Generated_Source\PSoC4/I2C_1_I2C_MASTER.c ****             }
 341:.\Generated_Source\PSoC4/I2C_1_I2C_MASTER.c ****             else /* I2C_1_INTR_MASTER_I2C_BUS_ERROR set is else condition */
 342:.\Generated_Source\PSoC4/I2C_1_I2C_MASTER.c ****             {
 343:.\Generated_Source\PSoC4/I2C_1_I2C_MASTER.c ****                 I2C_1_state = I2C_1_I2C_FSM_IDLE;
 549              		.loc 1 343 0
 550 00b0 0F4B     		ldr	r3, .L35
 551 00b2 1022     		mov	r2, #16
 552 00b4 1A70     		strb	r2, [r3]
 344:.\Generated_Source\PSoC4/I2C_1_I2C_MASTER.c ****                              errStatus = I2C_1_I2C_MSTR_ERR_BUS_ERR;
 553              		.loc 1 344 0
 554 00b6 8023     		mov	r3, #128
 555 00b8 5B00     		lsl	r3, r3, #1
 556 00ba BB60     		str	r3, [r7, #8]
 345:.\Generated_Source\PSoC4/I2C_1_I2C_MASTER.c ****                              resetIp   = I2C_1_I2C_RESET_ERROR;
 557              		.loc 1 345 0
 558 00bc 0123     		mov	r3, #1
 559 00be FB60     		str	r3, [r7, #12]
 560              	.L31:
 346:.\Generated_Source\PSoC4/I2C_1_I2C_MASTER.c ****             }
 347:.\Generated_Source\PSoC4/I2C_1_I2C_MASTER.c **** 
 348:.\Generated_Source\PSoC4/I2C_1_I2C_MASTER.c ****             I2C_1_ClearMasterInterruptSource(I2C_1_INTR_MASTER_I2C_ACK      |
 561              		.loc 1 348 0
 562 00c0 0E4B     		ldr	r3, .L35+12
 563 00c2 114A     		ldr	r2, .L35+24
 564 00c4 1A60     		str	r2, [r3]
ARM GAS  C:\Users\Eric\AppData\Local\Temp\ccfZjnId.s 			page 17


 349:.\Generated_Source\PSoC4/I2C_1_I2C_MASTER.c ****                                                         I2C_1_INTR_MASTER_I2C_NACK     |
 350:.\Generated_Source\PSoC4/I2C_1_I2C_MASTER.c ****                                                         I2C_1_INTR_MASTER_I2C_ARB_LOST |
 351:.\Generated_Source\PSoC4/I2C_1_I2C_MASTER.c ****                                                         I2C_1_INTR_MASTER_I2C_BUS_ERROR);
 352:.\Generated_Source\PSoC4/I2C_1_I2C_MASTER.c **** 
 353:.\Generated_Source\PSoC4/I2C_1_I2C_MASTER.c ****             /* Reset block in case of: LOST_ARB or BUS_ERR */
 354:.\Generated_Source\PSoC4/I2C_1_I2C_MASTER.c ****             if(0u != resetIp)
 565              		.loc 1 354 0
 566 00c6 FB68     		ldr	r3, [r7, #12]
 567 00c8 002B     		cmp	r3, #0
 568 00ca 0CD0     		beq	.L25
 355:.\Generated_Source\PSoC4/I2C_1_I2C_MASTER.c ****             {
 356:.\Generated_Source\PSoC4/I2C_1_I2C_MASTER.c ****                 I2C_1_SCB_SW_RESET;
 569              		.loc 1 356 0
 570 00cc 0F4B     		ldr	r3, .L35+28
 571 00ce 0F4A     		ldr	r2, .L35+28
 572 00d0 1268     		ldr	r2, [r2]
 573 00d2 5200     		lsl	r2, r2, #1
 574 00d4 5208     		lsr	r2, r2, #1
 575 00d6 1A60     		str	r2, [r3]
 576 00d8 0C4B     		ldr	r3, .L35+28
 577 00da 0C4A     		ldr	r2, .L35+28
 578 00dc 1268     		ldr	r2, [r2]
 579 00de 8021     		mov	r1, #128
 580 00e0 0906     		lsl	r1, r1, #24
 581 00e2 0A43     		orr	r2, r1
 582 00e4 1A60     		str	r2, [r3]
 583              	.L25:
 357:.\Generated_Source\PSoC4/I2C_1_I2C_MASTER.c ****             }
 358:.\Generated_Source\PSoC4/I2C_1_I2C_MASTER.c ****         }
 359:.\Generated_Source\PSoC4/I2C_1_I2C_MASTER.c ****     }
 360:.\Generated_Source\PSoC4/I2C_1_I2C_MASTER.c **** 
 361:.\Generated_Source\PSoC4/I2C_1_I2C_MASTER.c ****     return(errStatus);
 584              		.loc 1 361 0
 585 00e6 BB68     		ldr	r3, [r7, #8]
 362:.\Generated_Source\PSoC4/I2C_1_I2C_MASTER.c **** }
 586              		.loc 1 362 0
 587 00e8 181C     		mov	r0, r3
 588 00ea BD46     		mov	sp, r7
 589 00ec 04B0     		add	sp, sp, #16
 590              		@ sp needed for prologue
 591 00ee 80BD     		pop	{r7, pc}
 592              	.L36:
 593              		.align	2
 594              	.L35:
 595 00f0 00000000 		.word	I2C_1_state
 596 00f4 64000640 		.word	1074135140
 597 00f8 40020640 		.word	1074135616
 598 00fc 000F0640 		.word	1074138880
 599 0100 17030000 		.word	791
 600 0104 68000640 		.word	1074135144
 601 0108 07010000 		.word	263
 602 010c 00000640 		.word	1074135040
 603              		.cfi_endproc
 604              	.LFE2:
 605              		.size	I2C_1_I2CMasterSendStart, .-I2C_1_I2CMasterSendStart
 606              		.section	.text.I2C_1_I2CMasterSendRestart,"ax",%progbits
 607              		.align	2
ARM GAS  C:\Users\Eric\AppData\Local\Temp\ccfZjnId.s 			page 18


 608              		.global	I2C_1_I2CMasterSendRestart
 609              		.code	16
 610              		.thumb_func
 611              		.type	I2C_1_I2CMasterSendRestart, %function
 612              	I2C_1_I2CMasterSendRestart:
 613              	.LFB3:
 363:.\Generated_Source\PSoC4/I2C_1_I2C_MASTER.c **** 
 364:.\Generated_Source\PSoC4/I2C_1_I2C_MASTER.c **** 
 365:.\Generated_Source\PSoC4/I2C_1_I2C_MASTER.c **** /*******************************************************************************
 366:.\Generated_Source\PSoC4/I2C_1_I2C_MASTER.c **** * Function Name: I2C_1_I2CMasterSendRestart
 367:.\Generated_Source\PSoC4/I2C_1_I2C_MASTER.c **** ********************************************************************************
 368:.\Generated_Source\PSoC4/I2C_1_I2C_MASTER.c **** *
 369:.\Generated_Source\PSoC4/I2C_1_I2C_MASTER.c **** * Summary:
 370:.\Generated_Source\PSoC4/I2C_1_I2C_MASTER.c **** *  Generates Restart condition and sends slave address with read/write bit.
 371:.\Generated_Source\PSoC4/I2C_1_I2C_MASTER.c **** *  This function is blocking and does not return until start condition and
 372:.\Generated_Source\PSoC4/I2C_1_I2C_MASTER.c **** *  address are sent and ACK/NACK response is received or errors occurred.
 373:.\Generated_Source\PSoC4/I2C_1_I2C_MASTER.c **** *
 374:.\Generated_Source\PSoC4/I2C_1_I2C_MASTER.c **** * Parameters:
 375:.\Generated_Source\PSoC4/I2C_1_I2C_MASTER.c **** *  slaveAddress: Right justified 7-bit Slave address (valid range 8 to 120).
 376:.\Generated_Source\PSoC4/I2C_1_I2C_MASTER.c **** *  bitRnW:       Direction of the following transfer. It is defined by
 377:.\Generated_Source\PSoC4/I2C_1_I2C_MASTER.c **** *                read/write bit within address byte.
 378:.\Generated_Source\PSoC4/I2C_1_I2C_MASTER.c **** *
 379:.\Generated_Source\PSoC4/I2C_1_I2C_MASTER.c **** * Return:
 380:.\Generated_Source\PSoC4/I2C_1_I2C_MASTER.c **** *  Error status
 381:.\Generated_Source\PSoC4/I2C_1_I2C_MASTER.c **** *
 382:.\Generated_Source\PSoC4/I2C_1_I2C_MASTER.c **** *
 383:.\Generated_Source\PSoC4/I2C_1_I2C_MASTER.c **** * Global variables:
 384:.\Generated_Source\PSoC4/I2C_1_I2C_MASTER.c **** *  I2C_1_state - used to store current state of software FSM.
 385:.\Generated_Source\PSoC4/I2C_1_I2C_MASTER.c **** *
 386:.\Generated_Source\PSoC4/I2C_1_I2C_MASTER.c **** *******************************************************************************/
 387:.\Generated_Source\PSoC4/I2C_1_I2C_MASTER.c **** uint32 I2C_1_I2CMasterSendRestart(uint32 slaveAddress, uint32 bitRnW)
 388:.\Generated_Source\PSoC4/I2C_1_I2C_MASTER.c **** {
 614              		.loc 1 388 0
 615              		.cfi_startproc
 616 0000 80B5     		push	{r7, lr}
 617              	.LCFI9:
 618              		.cfi_def_cfa_offset 8
 619              		.cfi_offset 7, -8
 620              		.cfi_offset 14, -4
 621 0002 84B0     		sub	sp, sp, #16
 622              	.LCFI10:
 623              		.cfi_def_cfa_offset 24
 624 0004 00AF     		add	r7, sp, #0
 625              	.LCFI11:
 626              		.cfi_def_cfa_register 7
 627 0006 7860     		str	r0, [r7, #4]
 628 0008 3960     		str	r1, [r7]
 389:.\Generated_Source\PSoC4/I2C_1_I2C_MASTER.c ****     uint32 resetIp;
 390:.\Generated_Source\PSoC4/I2C_1_I2C_MASTER.c ****     uint32 errStatus;
 391:.\Generated_Source\PSoC4/I2C_1_I2C_MASTER.c **** 
 392:.\Generated_Source\PSoC4/I2C_1_I2C_MASTER.c ****     resetIp   = 0u;
 629              		.loc 1 392 0
 630 000a 0023     		mov	r3, #0
 631 000c FB60     		str	r3, [r7, #12]
 393:.\Generated_Source\PSoC4/I2C_1_I2C_MASTER.c ****     errStatus = I2C_1_I2C_MSTR_NOT_READY;
 632              		.loc 1 393 0
 633 000e 0423     		mov	r3, #4
ARM GAS  C:\Users\Eric\AppData\Local\Temp\ccfZjnId.s 			page 19


 634 0010 BB60     		str	r3, [r7, #8]
 394:.\Generated_Source\PSoC4/I2C_1_I2C_MASTER.c **** 
 395:.\Generated_Source\PSoC4/I2C_1_I2C_MASTER.c ****     /* Check FSM state before generating ReStart condition */
 396:.\Generated_Source\PSoC4/I2C_1_I2C_MASTER.c ****     if(I2C_1_CHECK_I2C_MASTER_ACTIVE)
 635              		.loc 1 396 0
 636 0012 364B     		ldr	r3, .L48
 637 0014 1B78     		ldrb	r3, [r3]
 638 0016 DAB2     		uxtb	r2, r3
 639 0018 2023     		mov	r3, #32
 640 001a 1340     		and	r3, r2
 641 001c DBB2     		uxtb	r3, r3
 642 001e 002B     		cmp	r3, #0
 643 0020 5ED0     		beq	.L38
 397:.\Generated_Source\PSoC4/I2C_1_I2C_MASTER.c ****     {
 398:.\Generated_Source\PSoC4/I2C_1_I2C_MASTER.c ****         slaveAddress = I2C_1_GET_I2C_8BIT_ADDRESS(slaveAddress);
 644              		.loc 1 398 0
 645 0022 7B68     		ldr	r3, [r7, #4]
 646 0024 5A00     		lsl	r2, r3, #1
 647 0026 FF23     		mov	r3, #255
 648 0028 1340     		and	r3, r2
 649 002a 7B60     		str	r3, [r7, #4]
 399:.\Generated_Source\PSoC4/I2C_1_I2C_MASTER.c **** 
 400:.\Generated_Source\PSoC4/I2C_1_I2C_MASTER.c ****         if(0u == bitRnW) /* Write direction */
 650              		.loc 1 400 0
 651 002c 3B68     		ldr	r3, [r7]
 652 002e 002B     		cmp	r3, #0
 653 0030 03D1     		bne	.L39
 401:.\Generated_Source\PSoC4/I2C_1_I2C_MASTER.c ****         {
 402:.\Generated_Source\PSoC4/I2C_1_I2C_MASTER.c ****             I2C_1_state = I2C_1_I2C_FSM_MSTR_WR_DATA;
 654              		.loc 1 402 0
 655 0032 2E4B     		ldr	r3, .L48
 656 0034 2422     		mov	r2, #36
 657 0036 1A70     		strb	r2, [r3]
 658 0038 06E0     		b	.L40
 659              	.L39:
 403:.\Generated_Source\PSoC4/I2C_1_I2C_MASTER.c ****         }
 404:.\Generated_Source\PSoC4/I2C_1_I2C_MASTER.c ****         else  /* Read direction */
 405:.\Generated_Source\PSoC4/I2C_1_I2C_MASTER.c ****         {
 406:.\Generated_Source\PSoC4/I2C_1_I2C_MASTER.c ****             I2C_1_state  = I2C_1_I2C_FSM_MSTR_RD_DATA;
 660              		.loc 1 406 0
 661 003a 2C4B     		ldr	r3, .L48
 662 003c 2522     		mov	r2, #37
 663 003e 1A70     		strb	r2, [r3]
 407:.\Generated_Source\PSoC4/I2C_1_I2C_MASTER.c ****                       slaveAddress |= I2C_1_I2C_READ_FLAG;
 664              		.loc 1 407 0
 665 0040 7B68     		ldr	r3, [r7, #4]
 666 0042 0122     		mov	r2, #1
 667 0044 1343     		orr	r3, r2
 668 0046 7B60     		str	r3, [r7, #4]
 669              	.L40:
 408:.\Generated_Source\PSoC4/I2C_1_I2C_MASTER.c ****         }
 409:.\Generated_Source\PSoC4/I2C_1_I2C_MASTER.c **** 
 410:.\Generated_Source\PSoC4/I2C_1_I2C_MASTER.c ****         /* The TX and RX FIFO have to be EMPTY */
 411:.\Generated_Source\PSoC4/I2C_1_I2C_MASTER.c **** 
 412:.\Generated_Source\PSoC4/I2C_1_I2C_MASTER.c ****         /* Clean-up interrupt status */
 413:.\Generated_Source\PSoC4/I2C_1_I2C_MASTER.c ****         I2C_1_ClearMasterInterruptSource(I2C_1_INTR_MASTER_ALL);
 670              		.loc 1 413 0
ARM GAS  C:\Users\Eric\AppData\Local\Temp\ccfZjnId.s 			page 20


 671 0048 294B     		ldr	r3, .L48+4
 672 004a 2A4A     		ldr	r2, .L48+8
 673 004c 1A60     		str	r2, [r3]
 414:.\Generated_Source\PSoC4/I2C_1_I2C_MASTER.c **** 
 415:.\Generated_Source\PSoC4/I2C_1_I2C_MASTER.c ****         /* Proper ReStart sequence is: generate ReStart then put address byte in the TX FIFO.
 416:.\Generated_Source\PSoC4/I2C_1_I2C_MASTER.c ****         * Otherwise master treats address in the TX FIFO as data byte if previous transfer is write
 417:.\Generated_Source\PSoC4/I2C_1_I2C_MASTER.c ****         * The write transfer continue instead of ReStart.
 418:.\Generated_Source\PSoC4/I2C_1_I2C_MASTER.c ****         */
 419:.\Generated_Source\PSoC4/I2C_1_I2C_MASTER.c ****         I2C_1_I2C_MASTER_GENERATE_RESTART;
 674              		.loc 1 419 0
 675 004e FFF7FEFF 		bl	I2C_1_I2CReStartGeneration
 420:.\Generated_Source\PSoC4/I2C_1_I2C_MASTER.c **** 
 421:.\Generated_Source\PSoC4/I2C_1_I2C_MASTER.c ****         while(I2C_1_CHECK_I2C_MASTER_CMD(I2C_1_I2C_MASTER_CMD_M_START))
 676              		.loc 1 421 0
 677 0052 C046     		mov	r8, r8
 678              	.L41:
 679              		.loc 1 421 0 is_stmt 0 discriminator 1
 680 0054 284B     		ldr	r3, .L48+12
 681 0056 1A68     		ldr	r2, [r3]
 682 0058 0123     		mov	r3, #1
 683 005a 1340     		and	r3, r2
 684 005c FAD1     		bne	.L41
 422:.\Generated_Source\PSoC4/I2C_1_I2C_MASTER.c ****         {
 423:.\Generated_Source\PSoC4/I2C_1_I2C_MASTER.c ****             /* Wait until ReStart has been generated */
 424:.\Generated_Source\PSoC4/I2C_1_I2C_MASTER.c ****         }
 425:.\Generated_Source\PSoC4/I2C_1_I2C_MASTER.c **** 
 426:.\Generated_Source\PSoC4/I2C_1_I2C_MASTER.c ****         /* Put address into TX FIFO */
 427:.\Generated_Source\PSoC4/I2C_1_I2C_MASTER.c ****         I2C_1_TX_FIFO_WR_REG = slaveAddress;
 685              		.loc 1 427 0 is_stmt 1
 686 005e 274B     		ldr	r3, .L48+16
 687 0060 7A68     		ldr	r2, [r7, #4]
 688 0062 1A60     		str	r2, [r3]
 428:.\Generated_Source\PSoC4/I2C_1_I2C_MASTER.c **** 
 429:.\Generated_Source\PSoC4/I2C_1_I2C_MASTER.c ****         /* Wait for address to be transferred */
 430:.\Generated_Source\PSoC4/I2C_1_I2C_MASTER.c ****         while(!I2C_1_CHECK_INTR_MASTER(I2C_1_INTR_MASTER_I2C_ACK      |
 689              		.loc 1 430 0
 690 0064 C046     		mov	r8, r8
 691              	.L42:
 692              		.loc 1 430 0 is_stmt 0 discriminator 1
 693 0066 224B     		ldr	r3, .L48+4
 694 0068 1A68     		ldr	r2, [r3]
 695 006a 254B     		ldr	r3, .L48+20
 696 006c 1340     		and	r3, r2
 697 006e FAD0     		beq	.L42
 431:.\Generated_Source\PSoC4/I2C_1_I2C_MASTER.c ****                                                   I2C_1_INTR_MASTER_I2C_NACK     |
 432:.\Generated_Source\PSoC4/I2C_1_I2C_MASTER.c ****                                                   I2C_1_INTR_MASTER_I2C_ARB_LOST |
 433:.\Generated_Source\PSoC4/I2C_1_I2C_MASTER.c ****                                                   I2C_1_INTR_MASTER_I2C_BUS_ERROR))
 434:.\Generated_Source\PSoC4/I2C_1_I2C_MASTER.c ****         {
 435:.\Generated_Source\PSoC4/I2C_1_I2C_MASTER.c ****             /* Wait until address has been transferred */
 436:.\Generated_Source\PSoC4/I2C_1_I2C_MASTER.c ****         }
 437:.\Generated_Source\PSoC4/I2C_1_I2C_MASTER.c **** 
 438:.\Generated_Source\PSoC4/I2C_1_I2C_MASTER.c ****         /* Check results of address phase */
 439:.\Generated_Source\PSoC4/I2C_1_I2C_MASTER.c ****         if(I2C_1_CHECK_INTR_MASTER(I2C_1_INTR_MASTER_I2C_ACK))
 698              		.loc 1 439 0 is_stmt 1
 699 0070 1F4B     		ldr	r3, .L48+4
 700 0072 1A68     		ldr	r2, [r3]
 701 0074 0423     		mov	r3, #4
ARM GAS  C:\Users\Eric\AppData\Local\Temp\ccfZjnId.s 			page 21


 702 0076 1340     		and	r3, r2
 703 0078 02D0     		beq	.L43
 440:.\Generated_Source\PSoC4/I2C_1_I2C_MASTER.c ****         {
 441:.\Generated_Source\PSoC4/I2C_1_I2C_MASTER.c ****             errStatus = I2C_1_I2C_MSTR_NO_ERROR;
 704              		.loc 1 441 0
 705 007a 0023     		mov	r3, #0
 706 007c BB60     		str	r3, [r7, #8]
 707 007e 1CE0     		b	.L44
 708              	.L43:
 442:.\Generated_Source\PSoC4/I2C_1_I2C_MASTER.c ****         }
 443:.\Generated_Source\PSoC4/I2C_1_I2C_MASTER.c ****         else if(I2C_1_CHECK_INTR_MASTER(I2C_1_INTR_MASTER_I2C_NACK))
 709              		.loc 1 443 0
 710 0080 1B4B     		ldr	r3, .L48+4
 711 0082 1A68     		ldr	r2, [r3]
 712 0084 0223     		mov	r3, #2
 713 0086 1340     		and	r3, r2
 714 0088 02D0     		beq	.L45
 444:.\Generated_Source\PSoC4/I2C_1_I2C_MASTER.c ****         {
 445:.\Generated_Source\PSoC4/I2C_1_I2C_MASTER.c ****              errStatus = I2C_1_I2C_MSTR_ERR_LB_NAK;
 715              		.loc 1 445 0
 716 008a 0223     		mov	r3, #2
 717 008c BB60     		str	r3, [r7, #8]
 718 008e 14E0     		b	.L44
 719              	.L45:
 446:.\Generated_Source\PSoC4/I2C_1_I2C_MASTER.c ****         }
 447:.\Generated_Source\PSoC4/I2C_1_I2C_MASTER.c ****         else if(I2C_1_CHECK_INTR_MASTER(I2C_1_INTR_MASTER_I2C_ARB_LOST))
 720              		.loc 1 447 0
 721 0090 174B     		ldr	r3, .L48+4
 722 0092 1A68     		ldr	r2, [r3]
 723 0094 0123     		mov	r3, #1
 724 0096 1340     		and	r3, r2
 725 0098 07D0     		beq	.L46
 448:.\Generated_Source\PSoC4/I2C_1_I2C_MASTER.c ****         {
 449:.\Generated_Source\PSoC4/I2C_1_I2C_MASTER.c ****             I2C_1_state = I2C_1_I2C_FSM_IDLE;
 726              		.loc 1 449 0
 727 009a 144B     		ldr	r3, .L48
 728 009c 1022     		mov	r2, #16
 729 009e 1A70     		strb	r2, [r3]
 450:.\Generated_Source\PSoC4/I2C_1_I2C_MASTER.c ****                          errStatus = I2C_1_I2C_MSTR_ERR_ARB_LOST;
 730              		.loc 1 450 0
 731 00a0 0123     		mov	r3, #1
 732 00a2 BB60     		str	r3, [r7, #8]
 451:.\Generated_Source\PSoC4/I2C_1_I2C_MASTER.c ****                          resetIp   = I2C_1_I2C_RESET_ERROR;
 733              		.loc 1 451 0
 734 00a4 0123     		mov	r3, #1
 735 00a6 FB60     		str	r3, [r7, #12]
 736 00a8 07E0     		b	.L44
 737              	.L46:
 452:.\Generated_Source\PSoC4/I2C_1_I2C_MASTER.c ****         }
 453:.\Generated_Source\PSoC4/I2C_1_I2C_MASTER.c ****         else /* I2C_1_INTR_MASTER_I2C_BUS_ERROR set is else condition */
 454:.\Generated_Source\PSoC4/I2C_1_I2C_MASTER.c ****         {
 455:.\Generated_Source\PSoC4/I2C_1_I2C_MASTER.c ****             I2C_1_state = I2C_1_I2C_FSM_IDLE;
 738              		.loc 1 455 0
 739 00aa 104B     		ldr	r3, .L48
 740 00ac 1022     		mov	r2, #16
 741 00ae 1A70     		strb	r2, [r3]
 456:.\Generated_Source\PSoC4/I2C_1_I2C_MASTER.c ****                          errStatus = I2C_1_I2C_MSTR_ERR_BUS_ERR;
ARM GAS  C:\Users\Eric\AppData\Local\Temp\ccfZjnId.s 			page 22


 742              		.loc 1 456 0
 743 00b0 8023     		mov	r3, #128
 744 00b2 5B00     		lsl	r3, r3, #1
 745 00b4 BB60     		str	r3, [r7, #8]
 457:.\Generated_Source\PSoC4/I2C_1_I2C_MASTER.c ****                          resetIp   = I2C_1_I2C_RESET_ERROR;
 746              		.loc 1 457 0
 747 00b6 0123     		mov	r3, #1
 748 00b8 FB60     		str	r3, [r7, #12]
 749              	.L44:
 458:.\Generated_Source\PSoC4/I2C_1_I2C_MASTER.c ****         }
 459:.\Generated_Source\PSoC4/I2C_1_I2C_MASTER.c **** 
 460:.\Generated_Source\PSoC4/I2C_1_I2C_MASTER.c ****         I2C_1_ClearMasterInterruptSource(I2C_1_INTR_MASTER_I2C_ACK      |
 750              		.loc 1 460 0
 751 00ba 0D4B     		ldr	r3, .L48+4
 752 00bc 104A     		ldr	r2, .L48+20
 753 00be 1A60     		str	r2, [r3]
 461:.\Generated_Source\PSoC4/I2C_1_I2C_MASTER.c ****                                                     I2C_1_INTR_MASTER_I2C_NACK     |
 462:.\Generated_Source\PSoC4/I2C_1_I2C_MASTER.c ****                                                     I2C_1_INTR_MASTER_I2C_ARB_LOST |
 463:.\Generated_Source\PSoC4/I2C_1_I2C_MASTER.c ****                                                     I2C_1_INTR_MASTER_I2C_BUS_ERROR);
 464:.\Generated_Source\PSoC4/I2C_1_I2C_MASTER.c **** 
 465:.\Generated_Source\PSoC4/I2C_1_I2C_MASTER.c ****         /* Reset block in case of: LOST_ARB or BUS_ERR */
 466:.\Generated_Source\PSoC4/I2C_1_I2C_MASTER.c ****         if(0u != resetIp)
 754              		.loc 1 466 0
 755 00c0 FB68     		ldr	r3, [r7, #12]
 756 00c2 002B     		cmp	r3, #0
 757 00c4 0CD0     		beq	.L38
 467:.\Generated_Source\PSoC4/I2C_1_I2C_MASTER.c ****         {
 468:.\Generated_Source\PSoC4/I2C_1_I2C_MASTER.c ****             I2C_1_SCB_SW_RESET;
 758              		.loc 1 468 0
 759 00c6 0F4B     		ldr	r3, .L48+24
 760 00c8 0E4A     		ldr	r2, .L48+24
 761 00ca 1268     		ldr	r2, [r2]
 762 00cc 5200     		lsl	r2, r2, #1
 763 00ce 5208     		lsr	r2, r2, #1
 764 00d0 1A60     		str	r2, [r3]
 765 00d2 0C4B     		ldr	r3, .L48+24
 766 00d4 0B4A     		ldr	r2, .L48+24
 767 00d6 1268     		ldr	r2, [r2]
 768 00d8 8021     		mov	r1, #128
 769 00da 0906     		lsl	r1, r1, #24
 770 00dc 0A43     		orr	r2, r1
 771 00de 1A60     		str	r2, [r3]
 772              	.L38:
 469:.\Generated_Source\PSoC4/I2C_1_I2C_MASTER.c ****         }
 470:.\Generated_Source\PSoC4/I2C_1_I2C_MASTER.c ****     }
 471:.\Generated_Source\PSoC4/I2C_1_I2C_MASTER.c **** 
 472:.\Generated_Source\PSoC4/I2C_1_I2C_MASTER.c ****     return(errStatus);
 773              		.loc 1 472 0
 774 00e0 BB68     		ldr	r3, [r7, #8]
 473:.\Generated_Source\PSoC4/I2C_1_I2C_MASTER.c **** }
 775              		.loc 1 473 0
 776 00e2 181C     		mov	r0, r3
 777 00e4 BD46     		mov	sp, r7
 778 00e6 04B0     		add	sp, sp, #16
 779              		@ sp needed for prologue
 780 00e8 80BD     		pop	{r7, pc}
 781              	.L49:
ARM GAS  C:\Users\Eric\AppData\Local\Temp\ccfZjnId.s 			page 23


 782 00ea C046     		.align	2
 783              	.L48:
 784 00ec 00000000 		.word	I2C_1_state
 785 00f0 000F0640 		.word	1074138880
 786 00f4 17030000 		.word	791
 787 00f8 68000640 		.word	1074135144
 788 00fc 40020640 		.word	1074135616
 789 0100 07010000 		.word	263
 790 0104 00000640 		.word	1074135040
 791              		.cfi_endproc
 792              	.LFE3:
 793              		.size	I2C_1_I2CMasterSendRestart, .-I2C_1_I2CMasterSendRestart
 794              		.section	.text.I2C_1_I2CMasterSendStop,"ax",%progbits
 795              		.align	2
 796              		.global	I2C_1_I2CMasterSendStop
 797              		.code	16
 798              		.thumb_func
 799              		.type	I2C_1_I2CMasterSendStop, %function
 800              	I2C_1_I2CMasterSendStop:
 801              	.LFB4:
 474:.\Generated_Source\PSoC4/I2C_1_I2C_MASTER.c **** 
 475:.\Generated_Source\PSoC4/I2C_1_I2C_MASTER.c **** 
 476:.\Generated_Source\PSoC4/I2C_1_I2C_MASTER.c **** /*******************************************************************************
 477:.\Generated_Source\PSoC4/I2C_1_I2C_MASTER.c **** * Function Name: I2C_1_I2CMasterSendStop
 478:.\Generated_Source\PSoC4/I2C_1_I2C_MASTER.c **** ********************************************************************************
 479:.\Generated_Source\PSoC4/I2C_1_I2C_MASTER.c **** *
 480:.\Generated_Source\PSoC4/I2C_1_I2C_MASTER.c **** * Summary:
 481:.\Generated_Source\PSoC4/I2C_1_I2C_MASTER.c **** *  Generates Stop condition on the bus.
 482:.\Generated_Source\PSoC4/I2C_1_I2C_MASTER.c **** *  At least one byte has to be read if start or restart condition with read
 483:.\Generated_Source\PSoC4/I2C_1_I2C_MASTER.c **** *  direction was generated before.
 484:.\Generated_Source\PSoC4/I2C_1_I2C_MASTER.c **** *  This function is blocking and does not return until a stop condition
 485:.\Generated_Source\PSoC4/I2C_1_I2C_MASTER.c **** *  is generated or error occurred.
 486:.\Generated_Source\PSoC4/I2C_1_I2C_MASTER.c **** *
 487:.\Generated_Source\PSoC4/I2C_1_I2C_MASTER.c **** * Parameters:
 488:.\Generated_Source\PSoC4/I2C_1_I2C_MASTER.c **** *  None
 489:.\Generated_Source\PSoC4/I2C_1_I2C_MASTER.c **** *
 490:.\Generated_Source\PSoC4/I2C_1_I2C_MASTER.c **** * Return:
 491:.\Generated_Source\PSoC4/I2C_1_I2C_MASTER.c **** *  Error status
 492:.\Generated_Source\PSoC4/I2C_1_I2C_MASTER.c **** *
 493:.\Generated_Source\PSoC4/I2C_1_I2C_MASTER.c **** * Side Effects:
 494:.\Generated_Source\PSoC4/I2C_1_I2C_MASTER.c **** *  A valid Start or ReStart condition must be generated before calling
 495:.\Generated_Source\PSoC4/I2C_1_I2C_MASTER.c **** *  this function. This function does nothing if Start or ReStart condition
 496:.\Generated_Source\PSoC4/I2C_1_I2C_MASTER.c **** *  failed before this function was called.
 497:.\Generated_Source\PSoC4/I2C_1_I2C_MASTER.c **** *  For read transfer, at least one byte has to be read before Stop generation.
 498:.\Generated_Source\PSoC4/I2C_1_I2C_MASTER.c **** *
 499:.\Generated_Source\PSoC4/I2C_1_I2C_MASTER.c **** * Global variables:
 500:.\Generated_Source\PSoC4/I2C_1_I2C_MASTER.c **** *  I2C_1_state - used to store current state of software FSM.
 501:.\Generated_Source\PSoC4/I2C_1_I2C_MASTER.c **** *
 502:.\Generated_Source\PSoC4/I2C_1_I2C_MASTER.c **** *******************************************************************************/
 503:.\Generated_Source\PSoC4/I2C_1_I2C_MASTER.c **** uint32 I2C_1_I2CMasterSendStop(void)
 504:.\Generated_Source\PSoC4/I2C_1_I2C_MASTER.c **** {
 802              		.loc 1 504 0
 803              		.cfi_startproc
 804 0000 80B5     		push	{r7, lr}
 805              	.LCFI12:
 806              		.cfi_def_cfa_offset 8
 807              		.cfi_offset 7, -8
ARM GAS  C:\Users\Eric\AppData\Local\Temp\ccfZjnId.s 			page 24


 808              		.cfi_offset 14, -4
 809 0002 82B0     		sub	sp, sp, #8
 810              	.LCFI13:
 811              		.cfi_def_cfa_offset 16
 812 0004 00AF     		add	r7, sp, #0
 813              	.LCFI14:
 814              		.cfi_def_cfa_register 7
 505:.\Generated_Source\PSoC4/I2C_1_I2C_MASTER.c ****     uint32 resetIp;
 506:.\Generated_Source\PSoC4/I2C_1_I2C_MASTER.c ****     uint32 errStatus;
 507:.\Generated_Source\PSoC4/I2C_1_I2C_MASTER.c **** 
 508:.\Generated_Source\PSoC4/I2C_1_I2C_MASTER.c ****     resetIp   = 0u;
 815              		.loc 1 508 0
 816 0006 0023     		mov	r3, #0
 817 0008 7B60     		str	r3, [r7, #4]
 509:.\Generated_Source\PSoC4/I2C_1_I2C_MASTER.c ****     errStatus = I2C_1_I2C_MSTR_NOT_READY;
 818              		.loc 1 509 0
 819 000a 0423     		mov	r3, #4
 820 000c 3B60     		str	r3, [r7]
 510:.\Generated_Source\PSoC4/I2C_1_I2C_MASTER.c **** 
 511:.\Generated_Source\PSoC4/I2C_1_I2C_MASTER.c ****     /* Check FSM state before generating Stop condition */
 512:.\Generated_Source\PSoC4/I2C_1_I2C_MASTER.c ****     if(I2C_1_CHECK_I2C_MASTER_ACTIVE)
 821              		.loc 1 512 0
 822 000e 254B     		ldr	r3, .L59
 823 0010 1B78     		ldrb	r3, [r3]
 824 0012 DAB2     		uxtb	r2, r3
 825 0014 2023     		mov	r3, #32
 826 0016 1340     		and	r3, r2
 827 0018 DBB2     		uxtb	r3, r3
 828 001a 002B     		cmp	r3, #0
 829 001c 3CD0     		beq	.L51
 513:.\Generated_Source\PSoC4/I2C_1_I2C_MASTER.c ****     {
 514:.\Generated_Source\PSoC4/I2C_1_I2C_MASTER.c ****         /*
 515:.\Generated_Source\PSoC4/I2C_1_I2C_MASTER.c ****         * Write direction: generates Stop
 516:.\Generated_Source\PSoC4/I2C_1_I2C_MASTER.c ****         * Read  direction: generates NACK and Stop
 517:.\Generated_Source\PSoC4/I2C_1_I2C_MASTER.c ****         */
 518:.\Generated_Source\PSoC4/I2C_1_I2C_MASTER.c ****         I2C_1_I2C_MASTER_GENERATE_STOP;
 830              		.loc 1 518 0
 831 001e 224B     		ldr	r3, .L59+4
 832 0020 224A     		ldr	r2, .L59+8
 833 0022 1168     		ldr	r1, [r2]
 834 0024 2022     		mov	r2, #32
 835 0026 0A40     		and	r2, r1
 836 0028 01D0     		beq	.L52
 837              		.loc 1 518 0 is_stmt 0 discriminator 1
 838 002a 1822     		mov	r2, #24
 839 002c 00E0     		b	.L53
 840              	.L52:
 841              		.loc 1 518 0 discriminator 2
 842 002e 1022     		mov	r2, #16
 843              	.L53:
 844              		.loc 1 518 0 discriminator 3
 845 0030 1A60     		str	r2, [r3]
 519:.\Generated_Source\PSoC4/I2C_1_I2C_MASTER.c **** 
 520:.\Generated_Source\PSoC4/I2C_1_I2C_MASTER.c ****         while(!I2C_1_CHECK_INTR_MASTER(I2C_1_INTR_MASTER_I2C_STOP     |
 846              		.loc 1 520 0 is_stmt 1
 847 0032 C046     		mov	r8, r8
 848              	.L54:
ARM GAS  C:\Users\Eric\AppData\Local\Temp\ccfZjnId.s 			page 25


 849              		.loc 1 520 0 is_stmt 0 discriminator 1
 850 0034 1E4B     		ldr	r3, .L59+12
 851 0036 1A68     		ldr	r2, [r3]
 852 0038 1E4B     		ldr	r3, .L59+16
 853 003a 1340     		and	r3, r2
 854 003c FAD0     		beq	.L54
 521:.\Generated_Source\PSoC4/I2C_1_I2C_MASTER.c ****                                                   I2C_1_INTR_MASTER_I2C_ARB_LOST |
 522:.\Generated_Source\PSoC4/I2C_1_I2C_MASTER.c ****                                                   I2C_1_INTR_MASTER_I2C_BUS_ERROR))
 523:.\Generated_Source\PSoC4/I2C_1_I2C_MASTER.c ****         {
 524:.\Generated_Source\PSoC4/I2C_1_I2C_MASTER.c ****             /* Wait until Stop has been generated */
 525:.\Generated_Source\PSoC4/I2C_1_I2C_MASTER.c ****         }
 526:.\Generated_Source\PSoC4/I2C_1_I2C_MASTER.c **** 
 527:.\Generated_Source\PSoC4/I2C_1_I2C_MASTER.c ****         /* Check Stop generation */
 528:.\Generated_Source\PSoC4/I2C_1_I2C_MASTER.c ****         if(I2C_1_CHECK_INTR_MASTER(I2C_1_INTR_MASTER_I2C_STOP))
 855              		.loc 1 528 0 is_stmt 1
 856 003e 1C4B     		ldr	r3, .L59+12
 857 0040 1A68     		ldr	r2, [r3]
 858 0042 1023     		mov	r3, #16
 859 0044 1340     		and	r3, r2
 860 0046 02D0     		beq	.L55
 529:.\Generated_Source\PSoC4/I2C_1_I2C_MASTER.c ****         {
 530:.\Generated_Source\PSoC4/I2C_1_I2C_MASTER.c ****             errStatus = I2C_1_I2C_MSTR_NO_ERROR;
 861              		.loc 1 530 0
 862 0048 0023     		mov	r3, #0
 863 004a 3B60     		str	r3, [r7]
 864 004c 0EE0     		b	.L56
 865              	.L55:
 531:.\Generated_Source\PSoC4/I2C_1_I2C_MASTER.c ****         }
 532:.\Generated_Source\PSoC4/I2C_1_I2C_MASTER.c ****         else if(I2C_1_CHECK_INTR_MASTER(I2C_1_INTR_MASTER_I2C_ARB_LOST))
 866              		.loc 1 532 0
 867 004e 184B     		ldr	r3, .L59+12
 868 0050 1A68     		ldr	r2, [r3]
 869 0052 0123     		mov	r3, #1
 870 0054 1340     		and	r3, r2
 871 0056 04D0     		beq	.L57
 533:.\Generated_Source\PSoC4/I2C_1_I2C_MASTER.c ****         {
 534:.\Generated_Source\PSoC4/I2C_1_I2C_MASTER.c ****             errStatus = I2C_1_I2C_MSTR_ERR_ARB_LOST;
 872              		.loc 1 534 0
 873 0058 0123     		mov	r3, #1
 874 005a 3B60     		str	r3, [r7]
 535:.\Generated_Source\PSoC4/I2C_1_I2C_MASTER.c ****             resetIp   = I2C_1_I2C_RESET_ERROR;
 875              		.loc 1 535 0
 876 005c 0123     		mov	r3, #1
 877 005e 7B60     		str	r3, [r7, #4]
 878 0060 04E0     		b	.L56
 879              	.L57:
 536:.\Generated_Source\PSoC4/I2C_1_I2C_MASTER.c ****         }
 537:.\Generated_Source\PSoC4/I2C_1_I2C_MASTER.c ****         else /* I2C_1_INTR_MASTER_I2C_BUS_ERROR is set */
 538:.\Generated_Source\PSoC4/I2C_1_I2C_MASTER.c ****         {
 539:.\Generated_Source\PSoC4/I2C_1_I2C_MASTER.c ****             errStatus = I2C_1_I2C_MSTR_ERR_BUS_ERR;
 880              		.loc 1 539 0
 881 0062 8023     		mov	r3, #128
 882 0064 5B00     		lsl	r3, r3, #1
 883 0066 3B60     		str	r3, [r7]
 540:.\Generated_Source\PSoC4/I2C_1_I2C_MASTER.c ****             resetIp   = I2C_1_I2C_RESET_ERROR;
 884              		.loc 1 540 0
 885 0068 0123     		mov	r3, #1
ARM GAS  C:\Users\Eric\AppData\Local\Temp\ccfZjnId.s 			page 26


 886 006a 7B60     		str	r3, [r7, #4]
 887              	.L56:
 541:.\Generated_Source\PSoC4/I2C_1_I2C_MASTER.c ****         }
 542:.\Generated_Source\PSoC4/I2C_1_I2C_MASTER.c **** 
 543:.\Generated_Source\PSoC4/I2C_1_I2C_MASTER.c ****         I2C_1_ClearMasterInterruptSource(I2C_1_INTR_MASTER_I2C_STOP     |
 888              		.loc 1 543 0
 889 006c 104B     		ldr	r3, .L59+12
 890 006e 114A     		ldr	r2, .L59+16
 891 0070 1A60     		str	r2, [r3]
 544:.\Generated_Source\PSoC4/I2C_1_I2C_MASTER.c ****                                                     I2C_1_INTR_MASTER_I2C_ARB_LOST |
 545:.\Generated_Source\PSoC4/I2C_1_I2C_MASTER.c ****                                                     I2C_1_INTR_MASTER_I2C_BUS_ERROR);
 546:.\Generated_Source\PSoC4/I2C_1_I2C_MASTER.c **** 
 547:.\Generated_Source\PSoC4/I2C_1_I2C_MASTER.c ****         I2C_1_state = I2C_1_I2C_FSM_IDLE;
 892              		.loc 1 547 0
 893 0072 0C4B     		ldr	r3, .L59
 894 0074 1022     		mov	r2, #16
 895 0076 1A70     		strb	r2, [r3]
 548:.\Generated_Source\PSoC4/I2C_1_I2C_MASTER.c **** 
 549:.\Generated_Source\PSoC4/I2C_1_I2C_MASTER.c ****         /* Reset block in case of: LOST_ARB or BUS_ERR */
 550:.\Generated_Source\PSoC4/I2C_1_I2C_MASTER.c ****         if(0u != resetIp)
 896              		.loc 1 550 0
 897 0078 7B68     		ldr	r3, [r7, #4]
 898 007a 002B     		cmp	r3, #0
 899 007c 0CD0     		beq	.L51
 551:.\Generated_Source\PSoC4/I2C_1_I2C_MASTER.c ****         {
 552:.\Generated_Source\PSoC4/I2C_1_I2C_MASTER.c ****             I2C_1_SCB_SW_RESET;
 900              		.loc 1 552 0
 901 007e 0E4B     		ldr	r3, .L59+20
 902 0080 0D4A     		ldr	r2, .L59+20
 903 0082 1268     		ldr	r2, [r2]
 904 0084 5200     		lsl	r2, r2, #1
 905 0086 5208     		lsr	r2, r2, #1
 906 0088 1A60     		str	r2, [r3]
 907 008a 0B4B     		ldr	r3, .L59+20
 908 008c 0A4A     		ldr	r2, .L59+20
 909 008e 1268     		ldr	r2, [r2]
 910 0090 8021     		mov	r1, #128
 911 0092 0906     		lsl	r1, r1, #24
 912 0094 0A43     		orr	r2, r1
 913 0096 1A60     		str	r2, [r3]
 914              	.L51:
 553:.\Generated_Source\PSoC4/I2C_1_I2C_MASTER.c ****         }
 554:.\Generated_Source\PSoC4/I2C_1_I2C_MASTER.c ****     }
 555:.\Generated_Source\PSoC4/I2C_1_I2C_MASTER.c **** 
 556:.\Generated_Source\PSoC4/I2C_1_I2C_MASTER.c ****     return(errStatus);
 915              		.loc 1 556 0
 916 0098 3B68     		ldr	r3, [r7]
 557:.\Generated_Source\PSoC4/I2C_1_I2C_MASTER.c **** }
 917              		.loc 1 557 0
 918 009a 181C     		mov	r0, r3
 919 009c BD46     		mov	sp, r7
 920 009e 02B0     		add	sp, sp, #8
 921              		@ sp needed for prologue
 922 00a0 80BD     		pop	{r7, pc}
 923              	.L60:
 924 00a2 C046     		.align	2
 925              	.L59:
ARM GAS  C:\Users\Eric\AppData\Local\Temp\ccfZjnId.s 			page 27


 926 00a4 00000000 		.word	I2C_1_state
 927 00a8 68000640 		.word	1074135144
 928 00ac 64000640 		.word	1074135140
 929 00b0 000F0640 		.word	1074138880
 930 00b4 11010000 		.word	273
 931 00b8 00000640 		.word	1074135040
 932              		.cfi_endproc
 933              	.LFE4:
 934              		.size	I2C_1_I2CMasterSendStop, .-I2C_1_I2CMasterSendStop
 935              		.section	.text.I2C_1_I2CMasterWriteByte,"ax",%progbits
 936              		.align	2
 937              		.global	I2C_1_I2CMasterWriteByte
 938              		.code	16
 939              		.thumb_func
 940              		.type	I2C_1_I2CMasterWriteByte, %function
 941              	I2C_1_I2CMasterWriteByte:
 942              	.LFB5:
 558:.\Generated_Source\PSoC4/I2C_1_I2C_MASTER.c **** 
 559:.\Generated_Source\PSoC4/I2C_1_I2C_MASTER.c **** 
 560:.\Generated_Source\PSoC4/I2C_1_I2C_MASTER.c **** /*******************************************************************************
 561:.\Generated_Source\PSoC4/I2C_1_I2C_MASTER.c **** * Function Name: I2C_1_I2CMasterWriteByte
 562:.\Generated_Source\PSoC4/I2C_1_I2C_MASTER.c **** ********************************************************************************
 563:.\Generated_Source\PSoC4/I2C_1_I2C_MASTER.c **** *
 564:.\Generated_Source\PSoC4/I2C_1_I2C_MASTER.c **** * Summary:
 565:.\Generated_Source\PSoC4/I2C_1_I2C_MASTER.c **** *  Sends one byte to a slave.
 566:.\Generated_Source\PSoC4/I2C_1_I2C_MASTER.c **** *  This function is blocking and does not return until byte is transmitted
 567:.\Generated_Source\PSoC4/I2C_1_I2C_MASTER.c **** *  or error occurred.
 568:.\Generated_Source\PSoC4/I2C_1_I2C_MASTER.c **** *
 569:.\Generated_Source\PSoC4/I2C_1_I2C_MASTER.c **** * Parameters:
 570:.\Generated_Source\PSoC4/I2C_1_I2C_MASTER.c **** *  data: The data byte to send to the slave.
 571:.\Generated_Source\PSoC4/I2C_1_I2C_MASTER.c **** *
 572:.\Generated_Source\PSoC4/I2C_1_I2C_MASTER.c **** * Return:
 573:.\Generated_Source\PSoC4/I2C_1_I2C_MASTER.c **** *  Error status
 574:.\Generated_Source\PSoC4/I2C_1_I2C_MASTER.c **** *
 575:.\Generated_Source\PSoC4/I2C_1_I2C_MASTER.c **** * Side Effects:
 576:.\Generated_Source\PSoC4/I2C_1_I2C_MASTER.c **** *  A valid Start or ReStart condition must be generated before calling
 577:.\Generated_Source\PSoC4/I2C_1_I2C_MASTER.c **** *  this function. This function does nothing if Start or ReStart condition
 578:.\Generated_Source\PSoC4/I2C_1_I2C_MASTER.c **** *  failed before this function was called.
 579:.\Generated_Source\PSoC4/I2C_1_I2C_MASTER.c **** *
 580:.\Generated_Source\PSoC4/I2C_1_I2C_MASTER.c **** * Global variables:
 581:.\Generated_Source\PSoC4/I2C_1_I2C_MASTER.c **** *  I2C_1_state - used to store current state of software FSM.
 582:.\Generated_Source\PSoC4/I2C_1_I2C_MASTER.c **** *
 583:.\Generated_Source\PSoC4/I2C_1_I2C_MASTER.c **** *******************************************************************************/
 584:.\Generated_Source\PSoC4/I2C_1_I2C_MASTER.c **** uint32 I2C_1_I2CMasterWriteByte(uint32 theByte)
 585:.\Generated_Source\PSoC4/I2C_1_I2C_MASTER.c **** {
 943              		.loc 1 585 0
 944              		.cfi_startproc
 945 0000 80B5     		push	{r7, lr}
 946              	.LCFI15:
 947              		.cfi_def_cfa_offset 8
 948              		.cfi_offset 7, -8
 949              		.cfi_offset 14, -4
 950 0002 84B0     		sub	sp, sp, #16
 951              	.LCFI16:
 952              		.cfi_def_cfa_offset 24
 953 0004 00AF     		add	r7, sp, #0
 954              	.LCFI17:
ARM GAS  C:\Users\Eric\AppData\Local\Temp\ccfZjnId.s 			page 28


 955              		.cfi_def_cfa_register 7
 956 0006 7860     		str	r0, [r7, #4]
 586:.\Generated_Source\PSoC4/I2C_1_I2C_MASTER.c ****     uint32 resetIp;
 587:.\Generated_Source\PSoC4/I2C_1_I2C_MASTER.c ****     uint32 errStatus;
 588:.\Generated_Source\PSoC4/I2C_1_I2C_MASTER.c **** 
 589:.\Generated_Source\PSoC4/I2C_1_I2C_MASTER.c ****     resetIp   = 0u;
 957              		.loc 1 589 0
 958 0008 0023     		mov	r3, #0
 959 000a FB60     		str	r3, [r7, #12]
 590:.\Generated_Source\PSoC4/I2C_1_I2C_MASTER.c ****     errStatus = I2C_1_I2C_MSTR_NOT_READY;
 960              		.loc 1 590 0
 961 000c 0423     		mov	r3, #4
 962 000e BB60     		str	r3, [r7, #8]
 591:.\Generated_Source\PSoC4/I2C_1_I2C_MASTER.c **** 
 592:.\Generated_Source\PSoC4/I2C_1_I2C_MASTER.c ****     /* Check FSM state before write byte */
 593:.\Generated_Source\PSoC4/I2C_1_I2C_MASTER.c ****     if(I2C_1_CHECK_I2C_MASTER_ACTIVE)
 963              		.loc 1 593 0
 964 0010 294B     		ldr	r3, .L69
 965 0012 1B78     		ldrb	r3, [r3]
 966 0014 DAB2     		uxtb	r2, r3
 967 0016 2023     		mov	r3, #32
 968 0018 1340     		and	r3, r2
 969 001a DBB2     		uxtb	r3, r3
 970 001c 002B     		cmp	r3, #0
 971 001e 46D0     		beq	.L62
 594:.\Generated_Source\PSoC4/I2C_1_I2C_MASTER.c ****     {
 595:.\Generated_Source\PSoC4/I2C_1_I2C_MASTER.c ****         I2C_1_TX_FIFO_WR_REG = theByte;
 972              		.loc 1 595 0
 973 0020 264B     		ldr	r3, .L69+4
 974 0022 7A68     		ldr	r2, [r7, #4]
 975 0024 1A60     		str	r2, [r3]
 596:.\Generated_Source\PSoC4/I2C_1_I2C_MASTER.c **** 
 597:.\Generated_Source\PSoC4/I2C_1_I2C_MASTER.c ****         while(!I2C_1_CHECK_INTR_MASTER(I2C_1_INTR_MASTER_I2C_ACK      |
 976              		.loc 1 597 0
 977 0026 C046     		mov	r8, r8
 978              	.L63:
 979              		.loc 1 597 0 is_stmt 0 discriminator 1
 980 0028 254B     		ldr	r3, .L69+8
 981 002a 1A68     		ldr	r2, [r3]
 982 002c 254B     		ldr	r3, .L69+12
 983 002e 1340     		and	r3, r2
 984 0030 FAD0     		beq	.L63
 598:.\Generated_Source\PSoC4/I2C_1_I2C_MASTER.c ****                                                   I2C_1_INTR_MASTER_I2C_NACK     |
 599:.\Generated_Source\PSoC4/I2C_1_I2C_MASTER.c ****                                                   I2C_1_INTR_MASTER_I2C_ARB_LOST |
 600:.\Generated_Source\PSoC4/I2C_1_I2C_MASTER.c ****                                                   I2C_1_INTR_MASTER_I2C_BUS_ERROR))
 601:.\Generated_Source\PSoC4/I2C_1_I2C_MASTER.c ****         {
 602:.\Generated_Source\PSoC4/I2C_1_I2C_MASTER.c ****             /* Wait until byte has been transferred */
 603:.\Generated_Source\PSoC4/I2C_1_I2C_MASTER.c ****         }
 604:.\Generated_Source\PSoC4/I2C_1_I2C_MASTER.c **** 
 605:.\Generated_Source\PSoC4/I2C_1_I2C_MASTER.c ****         /* Check the results after byte was sent */
 606:.\Generated_Source\PSoC4/I2C_1_I2C_MASTER.c ****         if(I2C_1_CHECK_INTR_MASTER(I2C_1_INTR_MASTER_I2C_ACK))
 985              		.loc 1 606 0 is_stmt 1
 986 0032 234B     		ldr	r3, .L69+8
 987 0034 1A68     		ldr	r2, [r3]
 988 0036 0423     		mov	r3, #4
 989 0038 1340     		and	r3, r2
 990 003a 05D0     		beq	.L64
ARM GAS  C:\Users\Eric\AppData\Local\Temp\ccfZjnId.s 			page 29


 607:.\Generated_Source\PSoC4/I2C_1_I2C_MASTER.c ****         {
 608:.\Generated_Source\PSoC4/I2C_1_I2C_MASTER.c ****             I2C_1_state = I2C_1_I2C_FSM_MSTR_HALT;
 991              		.loc 1 608 0
 992 003c 1E4B     		ldr	r3, .L69
 993 003e 6022     		mov	r2, #96
 994 0040 1A70     		strb	r2, [r3]
 609:.\Generated_Source\PSoC4/I2C_1_I2C_MASTER.c ****                          errStatus = I2C_1_I2C_MSTR_NO_ERROR;
 995              		.loc 1 609 0
 996 0042 0023     		mov	r3, #0
 997 0044 BB60     		str	r3, [r7, #8]
 998 0046 1FE0     		b	.L65
 999              	.L64:
 610:.\Generated_Source\PSoC4/I2C_1_I2C_MASTER.c ****         }
 611:.\Generated_Source\PSoC4/I2C_1_I2C_MASTER.c ****         else if(I2C_1_CHECK_INTR_MASTER(I2C_1_INTR_MASTER_I2C_NACK))
 1000              		.loc 1 611 0
 1001 0048 1D4B     		ldr	r3, .L69+8
 1002 004a 1A68     		ldr	r2, [r3]
 1003 004c 0223     		mov	r3, #2
 1004 004e 1340     		and	r3, r2
 1005 0050 05D0     		beq	.L66
 612:.\Generated_Source\PSoC4/I2C_1_I2C_MASTER.c ****         {
 613:.\Generated_Source\PSoC4/I2C_1_I2C_MASTER.c ****             I2C_1_state = I2C_1_I2C_FSM_MSTR_HALT;
 1006              		.loc 1 613 0
 1007 0052 194B     		ldr	r3, .L69
 1008 0054 6022     		mov	r2, #96
 1009 0056 1A70     		strb	r2, [r3]
 614:.\Generated_Source\PSoC4/I2C_1_I2C_MASTER.c ****                          errStatus = I2C_1_I2C_MSTR_ERR_LB_NAK;
 1010              		.loc 1 614 0
 1011 0058 0223     		mov	r3, #2
 1012 005a BB60     		str	r3, [r7, #8]
 1013 005c 14E0     		b	.L65
 1014              	.L66:
 615:.\Generated_Source\PSoC4/I2C_1_I2C_MASTER.c ****         }
 616:.\Generated_Source\PSoC4/I2C_1_I2C_MASTER.c ****         else if(I2C_1_CHECK_INTR_MASTER(I2C_1_INTR_MASTER_I2C_ARB_LOST))
 1015              		.loc 1 616 0
 1016 005e 184B     		ldr	r3, .L69+8
 1017 0060 1A68     		ldr	r2, [r3]
 1018 0062 0123     		mov	r3, #1
 1019 0064 1340     		and	r3, r2
 1020 0066 07D0     		beq	.L67
 617:.\Generated_Source\PSoC4/I2C_1_I2C_MASTER.c ****         {
 618:.\Generated_Source\PSoC4/I2C_1_I2C_MASTER.c ****             I2C_1_state = I2C_1_I2C_FSM_IDLE;
 1021              		.loc 1 618 0
 1022 0068 134B     		ldr	r3, .L69
 1023 006a 1022     		mov	r2, #16
 1024 006c 1A70     		strb	r2, [r3]
 619:.\Generated_Source\PSoC4/I2C_1_I2C_MASTER.c ****                          errStatus = I2C_1_I2C_MSTR_ERR_ARB_LOST;
 1025              		.loc 1 619 0
 1026 006e 0123     		mov	r3, #1
 1027 0070 BB60     		str	r3, [r7, #8]
 620:.\Generated_Source\PSoC4/I2C_1_I2C_MASTER.c ****                          resetIp   = I2C_1_I2C_RESET_ERROR;
 1028              		.loc 1 620 0
 1029 0072 0123     		mov	r3, #1
 1030 0074 FB60     		str	r3, [r7, #12]
 1031 0076 07E0     		b	.L65
 1032              	.L67:
 621:.\Generated_Source\PSoC4/I2C_1_I2C_MASTER.c ****         }
ARM GAS  C:\Users\Eric\AppData\Local\Temp\ccfZjnId.s 			page 30


 622:.\Generated_Source\PSoC4/I2C_1_I2C_MASTER.c ****         else /* I2C_1_INTR_MASTER_I2C_BUS_ERROR set is */
 623:.\Generated_Source\PSoC4/I2C_1_I2C_MASTER.c ****         {
 624:.\Generated_Source\PSoC4/I2C_1_I2C_MASTER.c ****             I2C_1_state = I2C_1_I2C_FSM_IDLE;
 1033              		.loc 1 624 0
 1034 0078 0F4B     		ldr	r3, .L69
 1035 007a 1022     		mov	r2, #16
 1036 007c 1A70     		strb	r2, [r3]
 625:.\Generated_Source\PSoC4/I2C_1_I2C_MASTER.c ****                          errStatus = I2C_1_I2C_MSTR_ERR_BUS_ERR;
 1037              		.loc 1 625 0
 1038 007e 8023     		mov	r3, #128
 1039 0080 5B00     		lsl	r3, r3, #1
 1040 0082 BB60     		str	r3, [r7, #8]
 626:.\Generated_Source\PSoC4/I2C_1_I2C_MASTER.c ****                          resetIp   = I2C_1_I2C_RESET_ERROR;
 1041              		.loc 1 626 0
 1042 0084 0123     		mov	r3, #1
 1043 0086 FB60     		str	r3, [r7, #12]
 1044              	.L65:
 627:.\Generated_Source\PSoC4/I2C_1_I2C_MASTER.c ****         }
 628:.\Generated_Source\PSoC4/I2C_1_I2C_MASTER.c **** 
 629:.\Generated_Source\PSoC4/I2C_1_I2C_MASTER.c ****         I2C_1_ClearMasterInterruptSource(I2C_1_INTR_MASTER_I2C_ACK      |
 1045              		.loc 1 629 0
 1046 0088 0D4B     		ldr	r3, .L69+8
 1047 008a 0E4A     		ldr	r2, .L69+12
 1048 008c 1A60     		str	r2, [r3]
 630:.\Generated_Source\PSoC4/I2C_1_I2C_MASTER.c ****                                                     I2C_1_INTR_MASTER_I2C_NACK     |
 631:.\Generated_Source\PSoC4/I2C_1_I2C_MASTER.c ****                                                     I2C_1_INTR_MASTER_I2C_ARB_LOST |
 632:.\Generated_Source\PSoC4/I2C_1_I2C_MASTER.c ****                                                     I2C_1_INTR_MASTER_I2C_BUS_ERROR);
 633:.\Generated_Source\PSoC4/I2C_1_I2C_MASTER.c **** 
 634:.\Generated_Source\PSoC4/I2C_1_I2C_MASTER.c ****         /* Reset block in case of: LOST_ARB or BUS_ERR */
 635:.\Generated_Source\PSoC4/I2C_1_I2C_MASTER.c ****         if(0u != resetIp)
 1049              		.loc 1 635 0
 1050 008e FB68     		ldr	r3, [r7, #12]
 1051 0090 002B     		cmp	r3, #0
 1052 0092 0CD0     		beq	.L62
 636:.\Generated_Source\PSoC4/I2C_1_I2C_MASTER.c ****         {
 637:.\Generated_Source\PSoC4/I2C_1_I2C_MASTER.c ****             I2C_1_SCB_SW_RESET;
 1053              		.loc 1 637 0
 1054 0094 0C4B     		ldr	r3, .L69+16
 1055 0096 0C4A     		ldr	r2, .L69+16
 1056 0098 1268     		ldr	r2, [r2]
 1057 009a 5200     		lsl	r2, r2, #1
 1058 009c 5208     		lsr	r2, r2, #1
 1059 009e 1A60     		str	r2, [r3]
 1060 00a0 094B     		ldr	r3, .L69+16
 1061 00a2 094A     		ldr	r2, .L69+16
 1062 00a4 1268     		ldr	r2, [r2]
 1063 00a6 8021     		mov	r1, #128
 1064 00a8 0906     		lsl	r1, r1, #24
 1065 00aa 0A43     		orr	r2, r1
 1066 00ac 1A60     		str	r2, [r3]
 1067              	.L62:
 638:.\Generated_Source\PSoC4/I2C_1_I2C_MASTER.c ****         }
 639:.\Generated_Source\PSoC4/I2C_1_I2C_MASTER.c ****     }
 640:.\Generated_Source\PSoC4/I2C_1_I2C_MASTER.c **** 
 641:.\Generated_Source\PSoC4/I2C_1_I2C_MASTER.c ****     return(errStatus);
 1068              		.loc 1 641 0
 1069 00ae BB68     		ldr	r3, [r7, #8]
ARM GAS  C:\Users\Eric\AppData\Local\Temp\ccfZjnId.s 			page 31


 642:.\Generated_Source\PSoC4/I2C_1_I2C_MASTER.c **** }
 1070              		.loc 1 642 0
 1071 00b0 181C     		mov	r0, r3
 1072 00b2 BD46     		mov	sp, r7
 1073 00b4 04B0     		add	sp, sp, #16
 1074              		@ sp needed for prologue
 1075 00b6 80BD     		pop	{r7, pc}
 1076              	.L70:
 1077              		.align	2
 1078              	.L69:
 1079 00b8 00000000 		.word	I2C_1_state
 1080 00bc 40020640 		.word	1074135616
 1081 00c0 000F0640 		.word	1074138880
 1082 00c4 07010000 		.word	263
 1083 00c8 00000640 		.word	1074135040
 1084              		.cfi_endproc
 1085              	.LFE5:
 1086              		.size	I2C_1_I2CMasterWriteByte, .-I2C_1_I2CMasterWriteByte
 1087              		.section	.text.I2C_1_I2CMasterReadByte,"ax",%progbits
 1088              		.align	2
 1089              		.global	I2C_1_I2CMasterReadByte
 1090              		.code	16
 1091              		.thumb_func
 1092              		.type	I2C_1_I2CMasterReadByte, %function
 1093              	I2C_1_I2CMasterReadByte:
 1094              	.LFB6:
 643:.\Generated_Source\PSoC4/I2C_1_I2C_MASTER.c **** 
 644:.\Generated_Source\PSoC4/I2C_1_I2C_MASTER.c **** 
 645:.\Generated_Source\PSoC4/I2C_1_I2C_MASTER.c **** /*******************************************************************************
 646:.\Generated_Source\PSoC4/I2C_1_I2C_MASTER.c **** * Function Name: I2C_1_I2CMasterReadByte
 647:.\Generated_Source\PSoC4/I2C_1_I2C_MASTER.c **** ********************************************************************************
 648:.\Generated_Source\PSoC4/I2C_1_I2C_MASTER.c **** *
 649:.\Generated_Source\PSoC4/I2C_1_I2C_MASTER.c **** * Summary:
 650:.\Generated_Source\PSoC4/I2C_1_I2C_MASTER.c **** *  Reads one byte from a slave and ACKs or NAKs received byte.
 651:.\Generated_Source\PSoC4/I2C_1_I2C_MASTER.c **** *  This function does not generate NAK explicitly. The following call
 652:.\Generated_Source\PSoC4/I2C_1_I2C_MASTER.c **** *  SCB_I2CMasterSendStop() or SCB_I2CMasterSendRestart() will generate NAK and
 653:.\Generated_Source\PSoC4/I2C_1_I2C_MASTER.c **** *  Stop or ReStart condition appropriately.
 654:.\Generated_Source\PSoC4/I2C_1_I2C_MASTER.c **** *  This function is blocking and does not return until byte is received
 655:.\Generated_Source\PSoC4/I2C_1_I2C_MASTER.c **** *  or error occurred.
 656:.\Generated_Source\PSoC4/I2C_1_I2C_MASTER.c **** *
 657:.\Generated_Source\PSoC4/I2C_1_I2C_MASTER.c **** * Parameters:
 658:.\Generated_Source\PSoC4/I2C_1_I2C_MASTER.c **** *  ackNack: Response to received byte.
 659:.\Generated_Source\PSoC4/I2C_1_I2C_MASTER.c **** *
 660:.\Generated_Source\PSoC4/I2C_1_I2C_MASTER.c **** * Return:
 661:.\Generated_Source\PSoC4/I2C_1_I2C_MASTER.c **** *  Byte read from the slave. In case of error the MSB of returned data
 662:.\Generated_Source\PSoC4/I2C_1_I2C_MASTER.c **** *  is set to 1.
 663:.\Generated_Source\PSoC4/I2C_1_I2C_MASTER.c **** *
 664:.\Generated_Source\PSoC4/I2C_1_I2C_MASTER.c **** * Side Effects:
 665:.\Generated_Source\PSoC4/I2C_1_I2C_MASTER.c **** *  A valid Start or ReStart condition must be generated before calling this
 666:.\Generated_Source\PSoC4/I2C_1_I2C_MASTER.c **** *  function. This function does nothing and returns invalid byte value
 667:.\Generated_Source\PSoC4/I2C_1_I2C_MASTER.c **** *  if Start or ReStart conditions failed before this function was called.
 668:.\Generated_Source\PSoC4/I2C_1_I2C_MASTER.c **** *
 669:.\Generated_Source\PSoC4/I2C_1_I2C_MASTER.c **** * Global variables:
 670:.\Generated_Source\PSoC4/I2C_1_I2C_MASTER.c **** *  I2C_1_state - used to store current state of software FSM.
 671:.\Generated_Source\PSoC4/I2C_1_I2C_MASTER.c **** *
 672:.\Generated_Source\PSoC4/I2C_1_I2C_MASTER.c **** *******************************************************************************/
 673:.\Generated_Source\PSoC4/I2C_1_I2C_MASTER.c **** uint32 I2C_1_I2CMasterReadByte(uint32 ackNack)
ARM GAS  C:\Users\Eric\AppData\Local\Temp\ccfZjnId.s 			page 32


 674:.\Generated_Source\PSoC4/I2C_1_I2C_MASTER.c **** {
 1095              		.loc 1 674 0
 1096              		.cfi_startproc
 1097 0000 80B5     		push	{r7, lr}
 1098              	.LCFI18:
 1099              		.cfi_def_cfa_offset 8
 1100              		.cfi_offset 7, -8
 1101              		.cfi_offset 14, -4
 1102 0002 84B0     		sub	sp, sp, #16
 1103              	.LCFI19:
 1104              		.cfi_def_cfa_offset 24
 1105 0004 00AF     		add	r7, sp, #0
 1106              	.LCFI20:
 1107              		.cfi_def_cfa_register 7
 1108 0006 7860     		str	r0, [r7, #4]
 675:.\Generated_Source\PSoC4/I2C_1_I2C_MASTER.c ****     uint32 theByte;
 676:.\Generated_Source\PSoC4/I2C_1_I2C_MASTER.c **** 
 677:.\Generated_Source\PSoC4/I2C_1_I2C_MASTER.c ****     /* Return invalid byte in case BUS_ERR happen during receiving */
 678:.\Generated_Source\PSoC4/I2C_1_I2C_MASTER.c ****     theByte = I2C_1_I2C_INVALID_BYTE;
 1109              		.loc 1 678 0
 1110 0008 0123     		mov	r3, #1
 1111 000a 5B42     		neg	r3, r3
 1112 000c FB60     		str	r3, [r7, #12]
 679:.\Generated_Source\PSoC4/I2C_1_I2C_MASTER.c **** 
 680:.\Generated_Source\PSoC4/I2C_1_I2C_MASTER.c ****     /* Check FSM state before read byte */
 681:.\Generated_Source\PSoC4/I2C_1_I2C_MASTER.c ****     if(I2C_1_CHECK_I2C_MASTER_ACTIVE)
 1113              		.loc 1 681 0
 1114 000e 1F4B     		ldr	r3, .L78
 1115 0010 1B78     		ldrb	r3, [r3]
 1116 0012 DAB2     		uxtb	r2, r3
 1117 0014 2023     		mov	r3, #32
 1118 0016 1340     		and	r3, r2
 1119 0018 DBB2     		uxtb	r3, r3
 1120 001a 002B     		cmp	r3, #0
 1121 001c 30D0     		beq	.L72
 682:.\Generated_Source\PSoC4/I2C_1_I2C_MASTER.c ****     {
 683:.\Generated_Source\PSoC4/I2C_1_I2C_MASTER.c ****         while((!I2C_1_CHECK_INTR_RX(I2C_1_INTR_RX_NOT_EMPTY)) &&
 1122              		.loc 1 683 0
 1123 001e C046     		mov	r8, r8
 1124              	.L74:
 1125              		.loc 1 683 0 is_stmt 0 discriminator 1
 1126 0020 1B4B     		ldr	r3, .L78+4
 1127 0022 1A68     		ldr	r2, [r3]
 1128 0024 0423     		mov	r3, #4
 1129 0026 1340     		and	r3, r2
 1130 0028 04D1     		bne	.L73
 684:.\Generated_Source\PSoC4/I2C_1_I2C_MASTER.c ****               (!I2C_1_CHECK_INTR_MASTER(I2C_1_INTR_MASTER_I2C_ARB_LOST |
 1131              		.loc 1 684 0 is_stmt 1 discriminator 2
 1132 002a 1A4B     		ldr	r3, .L78+8
 1133 002c 1A68     		ldr	r2, [r3]
 1134 002e 1A4B     		ldr	r3, .L78+12
 1135 0030 1340     		and	r3, r2
 683:.\Generated_Source\PSoC4/I2C_1_I2C_MASTER.c ****         while((!I2C_1_CHECK_INTR_RX(I2C_1_INTR_RX_NOT_EMPTY)) &&
 1136              		.loc 1 683 0 discriminator 2
 1137 0032 F5D0     		beq	.L74
 1138              	.L73:
 685:.\Generated_Source\PSoC4/I2C_1_I2C_MASTER.c ****                                                   I2C_1_INTR_MASTER_I2C_BUS_ERROR)))
ARM GAS  C:\Users\Eric\AppData\Local\Temp\ccfZjnId.s 			page 33


 686:.\Generated_Source\PSoC4/I2C_1_I2C_MASTER.c ****         {
 687:.\Generated_Source\PSoC4/I2C_1_I2C_MASTER.c ****             /* Wait until byte has been received */
 688:.\Generated_Source\PSoC4/I2C_1_I2C_MASTER.c ****         }
 689:.\Generated_Source\PSoC4/I2C_1_I2C_MASTER.c **** 
 690:.\Generated_Source\PSoC4/I2C_1_I2C_MASTER.c ****         /* Check the results after the byte was sent */
 691:.\Generated_Source\PSoC4/I2C_1_I2C_MASTER.c ****         if(I2C_1_CHECK_INTR_RX(I2C_1_INTR_RX_NOT_EMPTY))
 1139              		.loc 1 691 0
 1140 0034 164B     		ldr	r3, .L78+4
 1141 0036 1A68     		ldr	r2, [r3]
 1142 0038 0423     		mov	r3, #4
 1143 003a 1340     		and	r3, r2
 1144 003c 10D0     		beq	.L75
 692:.\Generated_Source\PSoC4/I2C_1_I2C_MASTER.c ****         {
 693:.\Generated_Source\PSoC4/I2C_1_I2C_MASTER.c ****             theByte = I2C_1_RX_FIFO_RD_REG;
 1145              		.loc 1 693 0
 1146 003e 174B     		ldr	r3, .L78+16
 1147 0040 1B68     		ldr	r3, [r3]
 1148 0042 FB60     		str	r3, [r7, #12]
 694:.\Generated_Source\PSoC4/I2C_1_I2C_MASTER.c **** 
 695:.\Generated_Source\PSoC4/I2C_1_I2C_MASTER.c ****             I2C_1_ClearRxInterruptSource(I2C_1_INTR_RX_NOT_EMPTY);
 1149              		.loc 1 695 0
 1150 0044 124B     		ldr	r3, .L78+4
 1151 0046 0422     		mov	r2, #4
 1152 0048 1A60     		str	r2, [r3]
 696:.\Generated_Source\PSoC4/I2C_1_I2C_MASTER.c **** 
 697:.\Generated_Source\PSoC4/I2C_1_I2C_MASTER.c ****             if(0u == ackNack)
 1153              		.loc 1 697 0
 1154 004a 7B68     		ldr	r3, [r7, #4]
 1155 004c 002B     		cmp	r3, #0
 1156 004e 03D1     		bne	.L76
 698:.\Generated_Source\PSoC4/I2C_1_I2C_MASTER.c ****             {
 699:.\Generated_Source\PSoC4/I2C_1_I2C_MASTER.c ****                 I2C_1_I2C_MASTER_GENERATE_ACK;
 1157              		.loc 1 699 0
 1158 0050 134B     		ldr	r3, .L78+20
 1159 0052 0422     		mov	r2, #4
 1160 0054 1A60     		str	r2, [r3]
 1161 0056 13E0     		b	.L72
 1162              	.L76:
 700:.\Generated_Source\PSoC4/I2C_1_I2C_MASTER.c ****             }
 701:.\Generated_Source\PSoC4/I2C_1_I2C_MASTER.c ****             else
 702:.\Generated_Source\PSoC4/I2C_1_I2C_MASTER.c ****             {
 703:.\Generated_Source\PSoC4/I2C_1_I2C_MASTER.c ****                 /* NACK is generated by Stop or ReStart command*/
 704:.\Generated_Source\PSoC4/I2C_1_I2C_MASTER.c ****                 I2C_1_state = I2C_1_I2C_FSM_MSTR_HALT;
 1163              		.loc 1 704 0
 1164 0058 0C4B     		ldr	r3, .L78
 1165 005a 6022     		mov	r2, #96
 1166 005c 1A70     		strb	r2, [r3]
 1167 005e 0FE0     		b	.L72
 1168              	.L75:
 705:.\Generated_Source\PSoC4/I2C_1_I2C_MASTER.c ****             }
 706:.\Generated_Source\PSoC4/I2C_1_I2C_MASTER.c ****         }
 707:.\Generated_Source\PSoC4/I2C_1_I2C_MASTER.c ****         else
 708:.\Generated_Source\PSoC4/I2C_1_I2C_MASTER.c ****         {
 709:.\Generated_Source\PSoC4/I2C_1_I2C_MASTER.c ****             I2C_1_ClearMasterInterruptSource(I2C_1_INTR_MASTER_ALL);
 1169              		.loc 1 709 0
 1170 0060 0C4B     		ldr	r3, .L78+8
 1171 0062 104A     		ldr	r2, .L78+24
ARM GAS  C:\Users\Eric\AppData\Local\Temp\ccfZjnId.s 			page 34


 1172 0064 1A60     		str	r2, [r3]
 710:.\Generated_Source\PSoC4/I2C_1_I2C_MASTER.c **** 
 711:.\Generated_Source\PSoC4/I2C_1_I2C_MASTER.c ****             /* Reset block in case of: LOST_ARB or BUS_ERR */
 712:.\Generated_Source\PSoC4/I2C_1_I2C_MASTER.c ****             I2C_1_SCB_SW_RESET;
 1173              		.loc 1 712 0
 1174 0066 104B     		ldr	r3, .L78+28
 1175 0068 0F4A     		ldr	r2, .L78+28
 1176 006a 1268     		ldr	r2, [r2]
 1177 006c 5200     		lsl	r2, r2, #1
 1178 006e 5208     		lsr	r2, r2, #1
 1179 0070 1A60     		str	r2, [r3]
 1180 0072 0D4B     		ldr	r3, .L78+28
 1181 0074 0C4A     		ldr	r2, .L78+28
 1182 0076 1268     		ldr	r2, [r2]
 1183 0078 8021     		mov	r1, #128
 1184 007a 0906     		lsl	r1, r1, #24
 1185 007c 0A43     		orr	r2, r1
 1186 007e 1A60     		str	r2, [r3]
 1187              	.L72:
 713:.\Generated_Source\PSoC4/I2C_1_I2C_MASTER.c ****         }
 714:.\Generated_Source\PSoC4/I2C_1_I2C_MASTER.c ****     }
 715:.\Generated_Source\PSoC4/I2C_1_I2C_MASTER.c **** 
 716:.\Generated_Source\PSoC4/I2C_1_I2C_MASTER.c ****     return(theByte);
 1188              		.loc 1 716 0
 1189 0080 FB68     		ldr	r3, [r7, #12]
 717:.\Generated_Source\PSoC4/I2C_1_I2C_MASTER.c **** }
 1190              		.loc 1 717 0
 1191 0082 181C     		mov	r0, r3
 1192 0084 BD46     		mov	sp, r7
 1193 0086 04B0     		add	sp, sp, #16
 1194              		@ sp needed for prologue
 1195 0088 80BD     		pop	{r7, pc}
 1196              	.L79:
 1197 008a C046     		.align	2
 1198              	.L78:
 1199 008c 00000000 		.word	I2C_1_state
 1200 0090 C00F0640 		.word	1074139072
 1201 0094 000F0640 		.word	1074138880
 1202 0098 01010000 		.word	257
 1203 009c 40030640 		.word	1074135872
 1204 00a0 68000640 		.word	1074135144
 1205 00a4 17030000 		.word	791
 1206 00a8 00000640 		.word	1074135040
 1207              		.cfi_endproc
 1208              	.LFE6:
 1209              		.size	I2C_1_I2CMasterReadByte, .-I2C_1_I2CMasterReadByte
 1210              		.section	.text.I2C_1_I2CMasterGetReadBufSize,"ax",%progbits
 1211              		.align	2
 1212              		.global	I2C_1_I2CMasterGetReadBufSize
 1213              		.code	16
 1214              		.thumb_func
 1215              		.type	I2C_1_I2CMasterGetReadBufSize, %function
 1216              	I2C_1_I2CMasterGetReadBufSize:
 1217              	.LFB7:
 718:.\Generated_Source\PSoC4/I2C_1_I2C_MASTER.c **** 
 719:.\Generated_Source\PSoC4/I2C_1_I2C_MASTER.c **** 
 720:.\Generated_Source\PSoC4/I2C_1_I2C_MASTER.c **** /*******************************************************************************
ARM GAS  C:\Users\Eric\AppData\Local\Temp\ccfZjnId.s 			page 35


 721:.\Generated_Source\PSoC4/I2C_1_I2C_MASTER.c **** * Function Name: I2C_1_I2CMasterGetReadBufSize
 722:.\Generated_Source\PSoC4/I2C_1_I2C_MASTER.c **** ********************************************************************************
 723:.\Generated_Source\PSoC4/I2C_1_I2C_MASTER.c **** *
 724:.\Generated_Source\PSoC4/I2C_1_I2C_MASTER.c **** * Summary:
 725:.\Generated_Source\PSoC4/I2C_1_I2C_MASTER.c **** *  Returns the number of bytes that has been transferred with an
 726:.\Generated_Source\PSoC4/I2C_1_I2C_MASTER.c **** *  SCB_I2CMasterReadBuf() function.
 727:.\Generated_Source\PSoC4/I2C_1_I2C_MASTER.c **** *
 728:.\Generated_Source\PSoC4/I2C_1_I2C_MASTER.c **** * Parameters:
 729:.\Generated_Source\PSoC4/I2C_1_I2C_MASTER.c **** *  None
 730:.\Generated_Source\PSoC4/I2C_1_I2C_MASTER.c **** *
 731:.\Generated_Source\PSoC4/I2C_1_I2C_MASTER.c **** * Return:
 732:.\Generated_Source\PSoC4/I2C_1_I2C_MASTER.c **** *  Byte count of transfer. If the transfer is not yet complete, it returns
 733:.\Generated_Source\PSoC4/I2C_1_I2C_MASTER.c **** *  the byte count transferred so far.
 734:.\Generated_Source\PSoC4/I2C_1_I2C_MASTER.c **** *
 735:.\Generated_Source\PSoC4/I2C_1_I2C_MASTER.c **** * Side Effects:
 736:.\Generated_Source\PSoC4/I2C_1_I2C_MASTER.c **** *  This function returns not valid value if SCB_I2C_MSTAT_ERR_ARB_LOST
 737:.\Generated_Source\PSoC4/I2C_1_I2C_MASTER.c **** *  or SCB_I2C_MSTAT_ERR_BUS_ERROR occurred while read transfer.
 738:.\Generated_Source\PSoC4/I2C_1_I2C_MASTER.c **** *
 739:.\Generated_Source\PSoC4/I2C_1_I2C_MASTER.c **** * Global variables:
 740:.\Generated_Source\PSoC4/I2C_1_I2C_MASTER.c **** *  I2C_1_mstrRdBufIndex - used to current index within master read
 741:.\Generated_Source\PSoC4/I2C_1_I2C_MASTER.c **** *  buffer.
 742:.\Generated_Source\PSoC4/I2C_1_I2C_MASTER.c **** *
 743:.\Generated_Source\PSoC4/I2C_1_I2C_MASTER.c **** *******************************************************************************/
 744:.\Generated_Source\PSoC4/I2C_1_I2C_MASTER.c **** uint32 I2C_1_I2CMasterGetReadBufSize(void)
 745:.\Generated_Source\PSoC4/I2C_1_I2C_MASTER.c **** {
 1218              		.loc 1 745 0
 1219              		.cfi_startproc
 1220 0000 80B5     		push	{r7, lr}
 1221              	.LCFI21:
 1222              		.cfi_def_cfa_offset 8
 1223              		.cfi_offset 7, -8
 1224              		.cfi_offset 14, -4
 1225 0002 00AF     		add	r7, sp, #0
 1226              	.LCFI22:
 1227              		.cfi_def_cfa_register 7
 746:.\Generated_Source\PSoC4/I2C_1_I2C_MASTER.c ****     return(I2C_1_mstrRdBufIndex);
 1228              		.loc 1 746 0
 1229 0004 024B     		ldr	r3, .L82
 1230 0006 1B68     		ldr	r3, [r3]
 747:.\Generated_Source\PSoC4/I2C_1_I2C_MASTER.c **** }
 1231              		.loc 1 747 0
 1232 0008 181C     		mov	r0, r3
 1233 000a BD46     		mov	sp, r7
 1234              		@ sp needed for prologue
 1235 000c 80BD     		pop	{r7, pc}
 1236              	.L83:
 1237 000e C046     		.align	2
 1238              	.L82:
 1239 0010 00000000 		.word	I2C_1_mstrRdBufIndex
 1240              		.cfi_endproc
 1241              	.LFE7:
 1242              		.size	I2C_1_I2CMasterGetReadBufSize, .-I2C_1_I2CMasterGetReadBufSize
 1243              		.section	.text.I2C_1_I2CMasterGetWriteBufSize,"ax",%progbits
 1244              		.align	2
 1245              		.global	I2C_1_I2CMasterGetWriteBufSize
 1246              		.code	16
 1247              		.thumb_func
ARM GAS  C:\Users\Eric\AppData\Local\Temp\ccfZjnId.s 			page 36


 1248              		.type	I2C_1_I2CMasterGetWriteBufSize, %function
 1249              	I2C_1_I2CMasterGetWriteBufSize:
 1250              	.LFB8:
 748:.\Generated_Source\PSoC4/I2C_1_I2C_MASTER.c **** 
 749:.\Generated_Source\PSoC4/I2C_1_I2C_MASTER.c **** 
 750:.\Generated_Source\PSoC4/I2C_1_I2C_MASTER.c **** /*******************************************************************************
 751:.\Generated_Source\PSoC4/I2C_1_I2C_MASTER.c **** * Function Name: I2C_1_I2CMasterGetWriteBufSize
 752:.\Generated_Source\PSoC4/I2C_1_I2C_MASTER.c **** ********************************************************************************
 753:.\Generated_Source\PSoC4/I2C_1_I2C_MASTER.c **** *
 754:.\Generated_Source\PSoC4/I2C_1_I2C_MASTER.c **** * Summary:
 755:.\Generated_Source\PSoC4/I2C_1_I2C_MASTER.c **** *  Returns the number of bytes that have been transferred with an
 756:.\Generated_Source\PSoC4/I2C_1_I2C_MASTER.c **** *  SCB_I2CMasterWriteBuf() function.
 757:.\Generated_Source\PSoC4/I2C_1_I2C_MASTER.c **** *
 758:.\Generated_Source\PSoC4/I2C_1_I2C_MASTER.c **** * Parameters:
 759:.\Generated_Source\PSoC4/I2C_1_I2C_MASTER.c **** *  None
 760:.\Generated_Source\PSoC4/I2C_1_I2C_MASTER.c **** *
 761:.\Generated_Source\PSoC4/I2C_1_I2C_MASTER.c **** * Return:
 762:.\Generated_Source\PSoC4/I2C_1_I2C_MASTER.c **** *  Byte count of transfer. If the transfer is not yet complete, it returns
 763:.\Generated_Source\PSoC4/I2C_1_I2C_MASTER.c **** *  zero unit transfer completion.
 764:.\Generated_Source\PSoC4/I2C_1_I2C_MASTER.c **** *
 765:.\Generated_Source\PSoC4/I2C_1_I2C_MASTER.c **** * Side Effects:
 766:.\Generated_Source\PSoC4/I2C_1_I2C_MASTER.c **** *  This function returns not valid value if SCB_I2C_MSTAT_ERR_ARB_LOST
 767:.\Generated_Source\PSoC4/I2C_1_I2C_MASTER.c **** *  or SCB_I2C_MSTAT_ERR_BUS_ERROR occurred while read transfer.
 768:.\Generated_Source\PSoC4/I2C_1_I2C_MASTER.c **** *
 769:.\Generated_Source\PSoC4/I2C_1_I2C_MASTER.c **** * Global variables:
 770:.\Generated_Source\PSoC4/I2C_1_I2C_MASTER.c **** *  I2C_1_mstrWrBufIndex - used to current index within master write
 771:.\Generated_Source\PSoC4/I2C_1_I2C_MASTER.c **** *  buffer.
 772:.\Generated_Source\PSoC4/I2C_1_I2C_MASTER.c **** *
 773:.\Generated_Source\PSoC4/I2C_1_I2C_MASTER.c **** *******************************************************************************/
 774:.\Generated_Source\PSoC4/I2C_1_I2C_MASTER.c **** uint32 I2C_1_I2CMasterGetWriteBufSize(void)
 775:.\Generated_Source\PSoC4/I2C_1_I2C_MASTER.c **** {
 1251              		.loc 1 775 0
 1252              		.cfi_startproc
 1253 0000 80B5     		push	{r7, lr}
 1254              	.LCFI23:
 1255              		.cfi_def_cfa_offset 8
 1256              		.cfi_offset 7, -8
 1257              		.cfi_offset 14, -4
 1258 0002 00AF     		add	r7, sp, #0
 1259              	.LCFI24:
 1260              		.cfi_def_cfa_register 7
 776:.\Generated_Source\PSoC4/I2C_1_I2C_MASTER.c ****     return(I2C_1_mstrWrBufIndex);
 1261              		.loc 1 776 0
 1262 0004 024B     		ldr	r3, .L86
 1263 0006 1B68     		ldr	r3, [r3]
 777:.\Generated_Source\PSoC4/I2C_1_I2C_MASTER.c **** }
 1264              		.loc 1 777 0
 1265 0008 181C     		mov	r0, r3
 1266 000a BD46     		mov	sp, r7
 1267              		@ sp needed for prologue
 1268 000c 80BD     		pop	{r7, pc}
 1269              	.L87:
 1270 000e C046     		.align	2
 1271              	.L86:
 1272 0010 00000000 		.word	I2C_1_mstrWrBufIndex
 1273              		.cfi_endproc
 1274              	.LFE8:
ARM GAS  C:\Users\Eric\AppData\Local\Temp\ccfZjnId.s 			page 37


 1275              		.size	I2C_1_I2CMasterGetWriteBufSize, .-I2C_1_I2CMasterGetWriteBufSize
 1276              		.section	.text.I2C_1_I2CMasterClearReadBuf,"ax",%progbits
 1277              		.align	2
 1278              		.global	I2C_1_I2CMasterClearReadBuf
 1279              		.code	16
 1280              		.thumb_func
 1281              		.type	I2C_1_I2CMasterClearReadBuf, %function
 1282              	I2C_1_I2CMasterClearReadBuf:
 1283              	.LFB9:
 778:.\Generated_Source\PSoC4/I2C_1_I2C_MASTER.c **** 
 779:.\Generated_Source\PSoC4/I2C_1_I2C_MASTER.c **** 
 780:.\Generated_Source\PSoC4/I2C_1_I2C_MASTER.c **** /*******************************************************************************
 781:.\Generated_Source\PSoC4/I2C_1_I2C_MASTER.c **** * Function Name: I2C_1_I2CMasterClearReadBuf
 782:.\Generated_Source\PSoC4/I2C_1_I2C_MASTER.c **** ********************************************************************************
 783:.\Generated_Source\PSoC4/I2C_1_I2C_MASTER.c **** *
 784:.\Generated_Source\PSoC4/I2C_1_I2C_MASTER.c **** * Summary:
 785:.\Generated_Source\PSoC4/I2C_1_I2C_MASTER.c **** *  Resets the read buffer pointer back to the first byte in the buffer.
 786:.\Generated_Source\PSoC4/I2C_1_I2C_MASTER.c **** *
 787:.\Generated_Source\PSoC4/I2C_1_I2C_MASTER.c **** * Parameters:
 788:.\Generated_Source\PSoC4/I2C_1_I2C_MASTER.c **** *  None
 789:.\Generated_Source\PSoC4/I2C_1_I2C_MASTER.c **** *
 790:.\Generated_Source\PSoC4/I2C_1_I2C_MASTER.c **** * Return:
 791:.\Generated_Source\PSoC4/I2C_1_I2C_MASTER.c **** *  None
 792:.\Generated_Source\PSoC4/I2C_1_I2C_MASTER.c **** *
 793:.\Generated_Source\PSoC4/I2C_1_I2C_MASTER.c **** * Global variables:
 794:.\Generated_Source\PSoC4/I2C_1_I2C_MASTER.c **** *  I2C_1_mstrRdBufIndex - used to current index within master read
 795:.\Generated_Source\PSoC4/I2C_1_I2C_MASTER.c **** *   buffer.
 796:.\Generated_Source\PSoC4/I2C_1_I2C_MASTER.c **** *  I2C_1_mstrStatus - used to store current status of I2C Master.
 797:.\Generated_Source\PSoC4/I2C_1_I2C_MASTER.c **** *
 798:.\Generated_Source\PSoC4/I2C_1_I2C_MASTER.c **** *******************************************************************************/
 799:.\Generated_Source\PSoC4/I2C_1_I2C_MASTER.c **** void I2C_1_I2CMasterClearReadBuf(void)
 800:.\Generated_Source\PSoC4/I2C_1_I2C_MASTER.c **** {
 1284              		.loc 1 800 0
 1285              		.cfi_startproc
 1286 0000 80B5     		push	{r7, lr}
 1287              	.LCFI25:
 1288              		.cfi_def_cfa_offset 8
 1289              		.cfi_offset 7, -8
 1290              		.cfi_offset 14, -4
 1291 0002 00AF     		add	r7, sp, #0
 1292              	.LCFI26:
 1293              		.cfi_def_cfa_register 7
 801:.\Generated_Source\PSoC4/I2C_1_I2C_MASTER.c ****     I2C_1_mstrRdBufIndex = 0u;
 1294              		.loc 1 801 0
 1295 0004 064B     		ldr	r3, .L89
 1296 0006 0022     		mov	r2, #0
 1297 0008 1A60     		str	r2, [r3]
 802:.\Generated_Source\PSoC4/I2C_1_I2C_MASTER.c ****     I2C_1_mstrStatus    &= (uint16) ~I2C_1_I2C_MSTAT_RD_CMPLT;
 1298              		.loc 1 802 0
 1299 000a 064B     		ldr	r3, .L89+4
 1300 000c 1B88     		ldrh	r3, [r3]
 1301 000e 9BB2     		uxth	r3, r3
 1302 0010 0122     		mov	r2, #1
 1303 0012 9343     		bic	r3, r2
 1304 0014 9AB2     		uxth	r2, r3
 1305 0016 034B     		ldr	r3, .L89+4
 1306 0018 1A80     		strh	r2, [r3]
ARM GAS  C:\Users\Eric\AppData\Local\Temp\ccfZjnId.s 			page 38


 803:.\Generated_Source\PSoC4/I2C_1_I2C_MASTER.c **** }
 1307              		.loc 1 803 0
 1308 001a BD46     		mov	sp, r7
 1309              		@ sp needed for prologue
 1310 001c 80BD     		pop	{r7, pc}
 1311              	.L90:
 1312 001e C046     		.align	2
 1313              	.L89:
 1314 0020 00000000 		.word	I2C_1_mstrRdBufIndex
 1315 0024 00000000 		.word	I2C_1_mstrStatus
 1316              		.cfi_endproc
 1317              	.LFE9:
 1318              		.size	I2C_1_I2CMasterClearReadBuf, .-I2C_1_I2CMasterClearReadBuf
 1319              		.section	.text.I2C_1_I2CMasterClearWriteBuf,"ax",%progbits
 1320              		.align	2
 1321              		.global	I2C_1_I2CMasterClearWriteBuf
 1322              		.code	16
 1323              		.thumb_func
 1324              		.type	I2C_1_I2CMasterClearWriteBuf, %function
 1325              	I2C_1_I2CMasterClearWriteBuf:
 1326              	.LFB10:
 804:.\Generated_Source\PSoC4/I2C_1_I2C_MASTER.c **** 
 805:.\Generated_Source\PSoC4/I2C_1_I2C_MASTER.c **** 
 806:.\Generated_Source\PSoC4/I2C_1_I2C_MASTER.c **** /*******************************************************************************
 807:.\Generated_Source\PSoC4/I2C_1_I2C_MASTER.c **** * Function Name: I2C_1_I2CMasterClearWriteBuf
 808:.\Generated_Source\PSoC4/I2C_1_I2C_MASTER.c **** ********************************************************************************
 809:.\Generated_Source\PSoC4/I2C_1_I2C_MASTER.c **** *
 810:.\Generated_Source\PSoC4/I2C_1_I2C_MASTER.c **** * Summary:
 811:.\Generated_Source\PSoC4/I2C_1_I2C_MASTER.c **** *  Resets the write buffer pointer back to the first byte in the buffer.
 812:.\Generated_Source\PSoC4/I2C_1_I2C_MASTER.c **** *
 813:.\Generated_Source\PSoC4/I2C_1_I2C_MASTER.c **** * Parameters:
 814:.\Generated_Source\PSoC4/I2C_1_I2C_MASTER.c **** *  None
 815:.\Generated_Source\PSoC4/I2C_1_I2C_MASTER.c **** *
 816:.\Generated_Source\PSoC4/I2C_1_I2C_MASTER.c **** * Return:
 817:.\Generated_Source\PSoC4/I2C_1_I2C_MASTER.c **** *  None
 818:.\Generated_Source\PSoC4/I2C_1_I2C_MASTER.c **** *
 819:.\Generated_Source\PSoC4/I2C_1_I2C_MASTER.c **** * Global variables:
 820:.\Generated_Source\PSoC4/I2C_1_I2C_MASTER.c **** *  I2C_1_mstrRdBufIndex - used to current index within master read
 821:.\Generated_Source\PSoC4/I2C_1_I2C_MASTER.c **** *   buffer.
 822:.\Generated_Source\PSoC4/I2C_1_I2C_MASTER.c **** *  I2C_1_mstrStatus - used to store current status of I2C Master.
 823:.\Generated_Source\PSoC4/I2C_1_I2C_MASTER.c **** *
 824:.\Generated_Source\PSoC4/I2C_1_I2C_MASTER.c **** *******************************************************************************/
 825:.\Generated_Source\PSoC4/I2C_1_I2C_MASTER.c **** void I2C_1_I2CMasterClearWriteBuf(void)
 826:.\Generated_Source\PSoC4/I2C_1_I2C_MASTER.c **** {
 1327              		.loc 1 826 0
 1328              		.cfi_startproc
 1329 0000 80B5     		push	{r7, lr}
 1330              	.LCFI27:
 1331              		.cfi_def_cfa_offset 8
 1332              		.cfi_offset 7, -8
 1333              		.cfi_offset 14, -4
 1334 0002 00AF     		add	r7, sp, #0
 1335              	.LCFI28:
 1336              		.cfi_def_cfa_register 7
 827:.\Generated_Source\PSoC4/I2C_1_I2C_MASTER.c ****     I2C_1_mstrWrBufIndex = 0u;
 1337              		.loc 1 827 0
 1338 0004 064B     		ldr	r3, .L92
ARM GAS  C:\Users\Eric\AppData\Local\Temp\ccfZjnId.s 			page 39


 1339 0006 0022     		mov	r2, #0
 1340 0008 1A60     		str	r2, [r3]
 828:.\Generated_Source\PSoC4/I2C_1_I2C_MASTER.c ****     I2C_1_mstrStatus    &= (uint16) ~I2C_1_I2C_MSTAT_WR_CMPLT;
 1341              		.loc 1 828 0
 1342 000a 064B     		ldr	r3, .L92+4
 1343 000c 1B88     		ldrh	r3, [r3]
 1344 000e 9BB2     		uxth	r3, r3
 1345 0010 0222     		mov	r2, #2
 1346 0012 9343     		bic	r3, r2
 1347 0014 9AB2     		uxth	r2, r3
 1348 0016 034B     		ldr	r3, .L92+4
 1349 0018 1A80     		strh	r2, [r3]
 829:.\Generated_Source\PSoC4/I2C_1_I2C_MASTER.c **** }
 1350              		.loc 1 829 0
 1351 001a BD46     		mov	sp, r7
 1352              		@ sp needed for prologue
 1353 001c 80BD     		pop	{r7, pc}
 1354              	.L93:
 1355 001e C046     		.align	2
 1356              	.L92:
 1357 0020 00000000 		.word	I2C_1_mstrWrBufIndex
 1358 0024 00000000 		.word	I2C_1_mstrStatus
 1359              		.cfi_endproc
 1360              	.LFE10:
 1361              		.size	I2C_1_I2CMasterClearWriteBuf, .-I2C_1_I2CMasterClearWriteBuf
 1362              		.section	.text.I2C_1_I2CMasterStatus,"ax",%progbits
 1363              		.align	2
 1364              		.global	I2C_1_I2CMasterStatus
 1365              		.code	16
 1366              		.thumb_func
 1367              		.type	I2C_1_I2CMasterStatus, %function
 1368              	I2C_1_I2CMasterStatus:
 1369              	.LFB11:
 830:.\Generated_Source\PSoC4/I2C_1_I2C_MASTER.c **** 
 831:.\Generated_Source\PSoC4/I2C_1_I2C_MASTER.c **** 
 832:.\Generated_Source\PSoC4/I2C_1_I2C_MASTER.c **** /*******************************************************************************
 833:.\Generated_Source\PSoC4/I2C_1_I2C_MASTER.c **** * Function Name: I2C_1_I2CMasterStatus
 834:.\Generated_Source\PSoC4/I2C_1_I2C_MASTER.c **** ********************************************************************************
 835:.\Generated_Source\PSoC4/I2C_1_I2C_MASTER.c **** *
 836:.\Generated_Source\PSoC4/I2C_1_I2C_MASTER.c **** * Summary:
 837:.\Generated_Source\PSoC4/I2C_1_I2C_MASTER.c **** *  Returns the master's communication status.
 838:.\Generated_Source\PSoC4/I2C_1_I2C_MASTER.c **** *
 839:.\Generated_Source\PSoC4/I2C_1_I2C_MASTER.c **** * Parameters:
 840:.\Generated_Source\PSoC4/I2C_1_I2C_MASTER.c **** *  None
 841:.\Generated_Source\PSoC4/I2C_1_I2C_MASTER.c **** *
 842:.\Generated_Source\PSoC4/I2C_1_I2C_MASTER.c **** * Return:
 843:.\Generated_Source\PSoC4/I2C_1_I2C_MASTER.c **** *  Current status of I2C master.
 844:.\Generated_Source\PSoC4/I2C_1_I2C_MASTER.c **** *
 845:.\Generated_Source\PSoC4/I2C_1_I2C_MASTER.c **** * Global variables:
 846:.\Generated_Source\PSoC4/I2C_1_I2C_MASTER.c **** *  I2C_1_mstrStatus - used to store current status of I2C Master.
 847:.\Generated_Source\PSoC4/I2C_1_I2C_MASTER.c **** *
 848:.\Generated_Source\PSoC4/I2C_1_I2C_MASTER.c **** *******************************************************************************/
 849:.\Generated_Source\PSoC4/I2C_1_I2C_MASTER.c **** uint32 I2C_1_I2CMasterStatus(void)
 850:.\Generated_Source\PSoC4/I2C_1_I2C_MASTER.c **** {
 1370              		.loc 1 850 0
 1371              		.cfi_startproc
 1372 0000 80B5     		push	{r7, lr}
ARM GAS  C:\Users\Eric\AppData\Local\Temp\ccfZjnId.s 			page 40


 1373              	.LCFI29:
 1374              		.cfi_def_cfa_offset 8
 1375              		.cfi_offset 7, -8
 1376              		.cfi_offset 14, -4
 1377 0002 82B0     		sub	sp, sp, #8
 1378              	.LCFI30:
 1379              		.cfi_def_cfa_offset 16
 1380 0004 00AF     		add	r7, sp, #0
 1381              	.LCFI31:
 1382              		.cfi_def_cfa_register 7
 851:.\Generated_Source\PSoC4/I2C_1_I2C_MASTER.c ****     uint32 status;
 852:.\Generated_Source\PSoC4/I2C_1_I2C_MASTER.c **** 
 853:.\Generated_Source\PSoC4/I2C_1_I2C_MASTER.c ****     status = (uint32) I2C_1_mstrStatus;
 1383              		.loc 1 853 0
 1384 0006 0A4B     		ldr	r3, .L97
 1385 0008 1B88     		ldrh	r3, [r3]
 1386 000a 9BB2     		uxth	r3, r3
 1387 000c 7B60     		str	r3, [r7, #4]
 854:.\Generated_Source\PSoC4/I2C_1_I2C_MASTER.c **** 
 855:.\Generated_Source\PSoC4/I2C_1_I2C_MASTER.c ****     if(I2C_1_CHECK_I2C_MASTER_ACTIVE)
 1388              		.loc 1 855 0
 1389 000e 094B     		ldr	r3, .L97+4
 1390 0010 1B78     		ldrb	r3, [r3]
 1391 0012 DAB2     		uxtb	r2, r3
 1392 0014 2023     		mov	r3, #32
 1393 0016 1340     		and	r3, r2
 1394 0018 DBB2     		uxtb	r3, r3
 1395 001a 002B     		cmp	r3, #0
 1396 001c 03D0     		beq	.L95
 856:.\Generated_Source\PSoC4/I2C_1_I2C_MASTER.c ****     {
 857:.\Generated_Source\PSoC4/I2C_1_I2C_MASTER.c ****         /* Add status of master pending transaction: MSTAT_XFER_INP */
 858:.\Generated_Source\PSoC4/I2C_1_I2C_MASTER.c ****         status |= (uint32) I2C_1_I2C_MSTAT_XFER_INP;
 1397              		.loc 1 858 0
 1398 001e 7B68     		ldr	r3, [r7, #4]
 1399 0020 0422     		mov	r2, #4
 1400 0022 1343     		orr	r3, r2
 1401 0024 7B60     		str	r3, [r7, #4]
 1402              	.L95:
 859:.\Generated_Source\PSoC4/I2C_1_I2C_MASTER.c ****     }
 860:.\Generated_Source\PSoC4/I2C_1_I2C_MASTER.c **** 
 861:.\Generated_Source\PSoC4/I2C_1_I2C_MASTER.c ****     return(status);
 1403              		.loc 1 861 0
 1404 0026 7B68     		ldr	r3, [r7, #4]
 862:.\Generated_Source\PSoC4/I2C_1_I2C_MASTER.c **** }
 1405              		.loc 1 862 0
 1406 0028 181C     		mov	r0, r3
 1407 002a BD46     		mov	sp, r7
 1408 002c 02B0     		add	sp, sp, #8
 1409              		@ sp needed for prologue
 1410 002e 80BD     		pop	{r7, pc}
 1411              	.L98:
 1412              		.align	2
 1413              	.L97:
 1414 0030 00000000 		.word	I2C_1_mstrStatus
 1415 0034 00000000 		.word	I2C_1_state
 1416              		.cfi_endproc
 1417              	.LFE11:
ARM GAS  C:\Users\Eric\AppData\Local\Temp\ccfZjnId.s 			page 41


 1418              		.size	I2C_1_I2CMasterStatus, .-I2C_1_I2CMasterStatus
 1419              		.section	.text.I2C_1_I2CMasterClearStatus,"ax",%progbits
 1420              		.align	2
 1421              		.global	I2C_1_I2CMasterClearStatus
 1422              		.code	16
 1423              		.thumb_func
 1424              		.type	I2C_1_I2CMasterClearStatus, %function
 1425              	I2C_1_I2CMasterClearStatus:
 1426              	.LFB12:
 863:.\Generated_Source\PSoC4/I2C_1_I2C_MASTER.c **** 
 864:.\Generated_Source\PSoC4/I2C_1_I2C_MASTER.c **** 
 865:.\Generated_Source\PSoC4/I2C_1_I2C_MASTER.c **** /*******************************************************************************
 866:.\Generated_Source\PSoC4/I2C_1_I2C_MASTER.c **** * Function Name: I2C_1_I2CMasterClearStatus
 867:.\Generated_Source\PSoC4/I2C_1_I2C_MASTER.c **** ********************************************************************************
 868:.\Generated_Source\PSoC4/I2C_1_I2C_MASTER.c **** *
 869:.\Generated_Source\PSoC4/I2C_1_I2C_MASTER.c **** * Summary:
 870:.\Generated_Source\PSoC4/I2C_1_I2C_MASTER.c **** *  Clears all status flags and returns the master status.
 871:.\Generated_Source\PSoC4/I2C_1_I2C_MASTER.c **** *
 872:.\Generated_Source\PSoC4/I2C_1_I2C_MASTER.c **** * Parameters:
 873:.\Generated_Source\PSoC4/I2C_1_I2C_MASTER.c **** *  None
 874:.\Generated_Source\PSoC4/I2C_1_I2C_MASTER.c **** *
 875:.\Generated_Source\PSoC4/I2C_1_I2C_MASTER.c **** * Return:
 876:.\Generated_Source\PSoC4/I2C_1_I2C_MASTER.c **** *  Current status of I2C master.
 877:.\Generated_Source\PSoC4/I2C_1_I2C_MASTER.c **** *
 878:.\Generated_Source\PSoC4/I2C_1_I2C_MASTER.c **** * Global variables:
 879:.\Generated_Source\PSoC4/I2C_1_I2C_MASTER.c **** *  I2C_1_mstrStatus - used to store current status of I2C Master.
 880:.\Generated_Source\PSoC4/I2C_1_I2C_MASTER.c **** *
 881:.\Generated_Source\PSoC4/I2C_1_I2C_MASTER.c **** *******************************************************************************/
 882:.\Generated_Source\PSoC4/I2C_1_I2C_MASTER.c **** uint32 I2C_1_I2CMasterClearStatus(void)
 883:.\Generated_Source\PSoC4/I2C_1_I2C_MASTER.c **** {
 1427              		.loc 1 883 0
 1428              		.cfi_startproc
 1429 0000 80B5     		push	{r7, lr}
 1430              	.LCFI32:
 1431              		.cfi_def_cfa_offset 8
 1432              		.cfi_offset 7, -8
 1433              		.cfi_offset 14, -4
 1434 0002 82B0     		sub	sp, sp, #8
 1435              	.LCFI33:
 1436              		.cfi_def_cfa_offset 16
 1437 0004 00AF     		add	r7, sp, #0
 1438              	.LCFI34:
 1439              		.cfi_def_cfa_register 7
 884:.\Generated_Source\PSoC4/I2C_1_I2C_MASTER.c ****     uint32 status;
 885:.\Generated_Source\PSoC4/I2C_1_I2C_MASTER.c **** 
 886:.\Generated_Source\PSoC4/I2C_1_I2C_MASTER.c ****     /* Read and clear master status */
 887:.\Generated_Source\PSoC4/I2C_1_I2C_MASTER.c ****     status = (uint32) I2C_1_mstrStatus;
 1440              		.loc 1 887 0
 1441 0006 064B     		ldr	r3, .L101
 1442 0008 1B88     		ldrh	r3, [r3]
 1443 000a 9BB2     		uxth	r3, r3
 1444 000c 7B60     		str	r3, [r7, #4]
 888:.\Generated_Source\PSoC4/I2C_1_I2C_MASTER.c ****     I2C_1_mstrStatus = I2C_1_I2C_MSTAT_CLEAR;
 1445              		.loc 1 888 0
 1446 000e 044B     		ldr	r3, .L101
 1447 0010 0022     		mov	r2, #0
 1448 0012 1A80     		strh	r2, [r3]
ARM GAS  C:\Users\Eric\AppData\Local\Temp\ccfZjnId.s 			page 42


 889:.\Generated_Source\PSoC4/I2C_1_I2C_MASTER.c **** 
 890:.\Generated_Source\PSoC4/I2C_1_I2C_MASTER.c ****     return(status);
 1449              		.loc 1 890 0
 1450 0014 7B68     		ldr	r3, [r7, #4]
 891:.\Generated_Source\PSoC4/I2C_1_I2C_MASTER.c **** }
 1451              		.loc 1 891 0
 1452 0016 181C     		mov	r0, r3
 1453 0018 BD46     		mov	sp, r7
 1454 001a 02B0     		add	sp, sp, #8
 1455              		@ sp needed for prologue
 1456 001c 80BD     		pop	{r7, pc}
 1457              	.L102:
 1458 001e C046     		.align	2
 1459              	.L101:
 1460 0020 00000000 		.word	I2C_1_mstrStatus
 1461              		.cfi_endproc
 1462              	.LFE12:
 1463              		.size	I2C_1_I2CMasterClearStatus, .-I2C_1_I2CMasterClearStatus
 1464              		.section	.text.I2C_1_I2CReStartGeneration,"ax",%progbits
 1465              		.align	2
 1466              		.global	I2C_1_I2CReStartGeneration
 1467              		.code	16
 1468              		.thumb_func
 1469              		.type	I2C_1_I2CReStartGeneration, %function
 1470              	I2C_1_I2CReStartGeneration:
 1471              	.LFB13:
 892:.\Generated_Source\PSoC4/I2C_1_I2C_MASTER.c **** 
 893:.\Generated_Source\PSoC4/I2C_1_I2C_MASTER.c **** 
 894:.\Generated_Source\PSoC4/I2C_1_I2C_MASTER.c **** /*******************************************************************************
 895:.\Generated_Source\PSoC4/I2C_1_I2C_MASTER.c **** * Function Name: I2C_1_I2CReStartGeneration
 896:.\Generated_Source\PSoC4/I2C_1_I2C_MASTER.c **** ********************************************************************************
 897:.\Generated_Source\PSoC4/I2C_1_I2C_MASTER.c **** *
 898:.\Generated_Source\PSoC4/I2C_1_I2C_MASTER.c **** * Summary:
 899:.\Generated_Source\PSoC4/I2C_1_I2C_MASTER.c **** *  Generates a ReStart condition:
 900:.\Generated_Source\PSoC4/I2C_1_I2C_MASTER.c **** *  SCB IP V1 and later: Generates ReStart using the scb IP functionality
 901:.\Generated_Source\PSoC4/I2C_1_I2C_MASTER.c **** *    Sets the I2C_MASTER_CMD_M_START and I2C_MASTER_CMD_M_NACK (if the previous
 902:.\Generated_Source\PSoC4/I2C_1_I2C_MASTER.c **** *    transaction was read) bits in the SCB.I2C_MASTER_CMD register. This combination
 903:.\Generated_Source\PSoC4/I2C_1_I2C_MASTER.c **** *    forces the master to generate ReStart.
 904:.\Generated_Source\PSoC4/I2C_1_I2C_MASTER.c **** *
 905:.\Generated_Source\PSoC4/I2C_1_I2C_MASTER.c **** *  SCB IP V0: Generates Restart using the GPIO and scb IP functionality.
 906:.\Generated_Source\PSoC4/I2C_1_I2C_MASTER.c **** *   After the master completes write or read, the SCL is stretched. The master waits
 907:.\Generated_Source\PSoC4/I2C_1_I2C_MASTER.c **** *   until SDA line is released by the slave. Then the GPIO function is enabled and
 908:.\Generated_Source\PSoC4/I2C_1_I2C_MASTER.c **** *   the scb IP disabled as it already does not drive the bus. In case of the previous
 909:.\Generated_Source\PSoC4/I2C_1_I2C_MASTER.c **** *   transfer was read, the NACK is generated by the GPIO. The delay of tLOW is
 910:.\Generated_Source\PSoC4/I2C_1_I2C_MASTER.c **** *   added to manage the hold time. Set I2C_M_CMD.START and enable the scb IP.
 911:.\Generated_Source\PSoC4/I2C_1_I2C_MASTER.c **** *   The ReStart generation is started after the I2C function is enabled for the SCL.
 912:.\Generated_Source\PSoC4/I2C_1_I2C_MASTER.c **** *   Note1: the scb IP due re-enable generates Start but on the I2C bus it
 913:.\Generated_Source\PSoC4/I2C_1_I2C_MASTER.c **** *          appears as ReStart.
 914:.\Generated_Source\PSoC4/I2C_1_I2C_MASTER.c **** *   Note2: the I2C_M_CMD.START is queued if scb IP is disabled.
 915:.\Generated_Source\PSoC4/I2C_1_I2C_MASTER.c **** *   Note3: the I2C_STATUS_M_READ is cleared is address was NACKed before.
 916:.\Generated_Source\PSoC4/I2C_1_I2C_MASTER.c **** *
 917:.\Generated_Source\PSoC4/I2C_1_I2C_MASTER.c **** * Parameters:
 918:.\Generated_Source\PSoC4/I2C_1_I2C_MASTER.c **** *  None
 919:.\Generated_Source\PSoC4/I2C_1_I2C_MASTER.c **** *
 920:.\Generated_Source\PSoC4/I2C_1_I2C_MASTER.c **** * Return:
 921:.\Generated_Source\PSoC4/I2C_1_I2C_MASTER.c **** *  None
 922:.\Generated_Source\PSoC4/I2C_1_I2C_MASTER.c **** *
ARM GAS  C:\Users\Eric\AppData\Local\Temp\ccfZjnId.s 			page 43


 923:.\Generated_Source\PSoC4/I2C_1_I2C_MASTER.c **** * Side Effects:
 924:.\Generated_Source\PSoC4/I2C_1_I2C_MASTER.c **** *  SCB IP V0: The NACK generation by the GPIO may cause a greater SCL period than
 925:.\Generated_Source\PSoC4/I2C_1_I2C_MASTER.c **** *  expected for the selected master data rate.
 926:.\Generated_Source\PSoC4/I2C_1_I2C_MASTER.c **** *
 927:.\Generated_Source\PSoC4/I2C_1_I2C_MASTER.c **** *******************************************************************************/
 928:.\Generated_Source\PSoC4/I2C_1_I2C_MASTER.c **** void I2C_1_I2CReStartGeneration(void)
 929:.\Generated_Source\PSoC4/I2C_1_I2C_MASTER.c **** {
 1472              		.loc 1 929 0
 1473              		.cfi_startproc
 1474 0000 80B5     		push	{r7, lr}
 1475              	.LCFI35:
 1476              		.cfi_def_cfa_offset 8
 1477              		.cfi_offset 7, -8
 1478              		.cfi_offset 14, -4
 1479 0002 82B0     		sub	sp, sp, #8
 1480              	.LCFI36:
 1481              		.cfi_def_cfa_offset 16
 1482 0004 00AF     		add	r7, sp, #0
 1483              	.LCFI37:
 1484              		.cfi_def_cfa_register 7
 930:.\Generated_Source\PSoC4/I2C_1_I2C_MASTER.c **** #if(I2C_1_CY_SCBIP_V0)
 931:.\Generated_Source\PSoC4/I2C_1_I2C_MASTER.c ****     /* Generates Restart use GPIO and scb IP functionality. Ticket ID#143715,
 932:.\Generated_Source\PSoC4/I2C_1_I2C_MASTER.c ****     ID#145238 and ID#173656 */
 933:.\Generated_Source\PSoC4/I2C_1_I2C_MASTER.c ****     uint32 status = I2C_1_I2C_STATUS_REG;
 1485              		.loc 1 933 0
 1486 0006 264B     		ldr	r3, .L107
 1487 0008 1B68     		ldr	r3, [r3]
 1488 000a 7B60     		str	r3, [r7, #4]
 934:.\Generated_Source\PSoC4/I2C_1_I2C_MASTER.c **** 
 935:.\Generated_Source\PSoC4/I2C_1_I2C_MASTER.c ****     while(I2C_1_WAIT_SDA_SET_HIGH)
 1489              		.loc 1 935 0
 1490 000c C046     		mov	r8, r8
 1491              	.L104:
 1492              		.loc 1 935 0 is_stmt 0 discriminator 1
 1493 000e FFF7FEFF 		bl	I2C_1_sda_Read
 1494 0012 031C     		mov	r3, r0
 1495 0014 002B     		cmp	r3, #0
 1496 0016 FAD0     		beq	.L104
 936:.\Generated_Source\PSoC4/I2C_1_I2C_MASTER.c ****     {
 937:.\Generated_Source\PSoC4/I2C_1_I2C_MASTER.c ****         /* Wait when slave release SDA line: SCL tHIGH is complete */
 938:.\Generated_Source\PSoC4/I2C_1_I2C_MASTER.c ****     }
 939:.\Generated_Source\PSoC4/I2C_1_I2C_MASTER.c **** 
 940:.\Generated_Source\PSoC4/I2C_1_I2C_MASTER.c ****     /* Prepare DR register to drive SCL line */
 941:.\Generated_Source\PSoC4/I2C_1_I2C_MASTER.c ****     I2C_1_SET_I2C_SCL_DR(I2C_1_I2C_SCL_LOW);
 1497              		.loc 1 941 0 is_stmt 1
 1498 0018 0020     		mov	r0, #0
 1499 001a FFF7FEFF 		bl	I2C_1_scl_Write
 942:.\Generated_Source\PSoC4/I2C_1_I2C_MASTER.c **** 
 943:.\Generated_Source\PSoC4/I2C_1_I2C_MASTER.c ****     /* Switch HSIOM to GPIO: SCL goes low */
 944:.\Generated_Source\PSoC4/I2C_1_I2C_MASTER.c ****     I2C_1_SET_I2C_SCL_HSIOM_SEL(I2C_1_HSIOM_GPIO_SEL);
 1500              		.loc 1 944 0
 1501 001e 214B     		ldr	r3, .L107+4
 1502 0020 204A     		ldr	r2, .L107+4
 1503 0022 1268     		ldr	r2, [r2]
 1504 0024 0F21     		mov	r1, #15
 1505 0026 8A43     		bic	r2, r1
 1506 0028 1A60     		str	r2, [r3]
ARM GAS  C:\Users\Eric\AppData\Local\Temp\ccfZjnId.s 			page 44


 945:.\Generated_Source\PSoC4/I2C_1_I2C_MASTER.c **** 
 946:.\Generated_Source\PSoC4/I2C_1_I2C_MASTER.c ****     /* Disable SCB block */
 947:.\Generated_Source\PSoC4/I2C_1_I2C_MASTER.c ****     I2C_1_CTRL_REG &= (uint32) ~I2C_1_CTRL_ENABLED;
 1507              		.loc 1 947 0
 1508 002a 1F4B     		ldr	r3, .L107+8
 1509 002c 1E4A     		ldr	r2, .L107+8
 1510 002e 1268     		ldr	r2, [r2]
 1511 0030 5200     		lsl	r2, r2, #1
 1512 0032 5208     		lsr	r2, r2, #1
 1513 0034 1A60     		str	r2, [r3]
 948:.\Generated_Source\PSoC4/I2C_1_I2C_MASTER.c **** 
 949:.\Generated_Source\PSoC4/I2C_1_I2C_MASTER.c ****     if(0u != (status & I2C_1_I2C_STATUS_M_READ))
 1514              		.loc 1 949 0
 1515 0036 7A68     		ldr	r2, [r7, #4]
 1516 0038 2023     		mov	r3, #32
 1517 003a 1340     		and	r3, r2
 1518 003c 11D0     		beq	.L105
 950:.\Generated_Source\PSoC4/I2C_1_I2C_MASTER.c ****     {
 951:.\Generated_Source\PSoC4/I2C_1_I2C_MASTER.c ****         /* Generate NACK use GPIO functionality */
 952:.\Generated_Source\PSoC4/I2C_1_I2C_MASTER.c ****         I2C_1_SET_I2C_SCL_DR(I2C_1_I2C_SCL_LOW);
 1519              		.loc 1 952 0
 1520 003e 0020     		mov	r0, #0
 1521 0040 FFF7FEFF 		bl	I2C_1_scl_Write
 953:.\Generated_Source\PSoC4/I2C_1_I2C_MASTER.c ****         CyDelayUs(I2C_1_I2C_TLOW_TIME); /* Count tLOW */
 1522              		.loc 1 953 0
 1523 0044 0A20     		mov	r0, #10
 1524 0046 FFF7FEFF 		bl	CyDelayUs
 954:.\Generated_Source\PSoC4/I2C_1_I2C_MASTER.c **** 
 955:.\Generated_Source\PSoC4/I2C_1_I2C_MASTER.c ****         I2C_1_SET_I2C_SCL_DR(I2C_1_I2C_SCL_HIGH);
 1525              		.loc 1 955 0
 1526 004a 0120     		mov	r0, #1
 1527 004c FFF7FEFF 		bl	I2C_1_scl_Write
 956:.\Generated_Source\PSoC4/I2C_1_I2C_MASTER.c ****         while(I2C_1_WAIT_SCL_SET_HIGH)
 1528              		.loc 1 956 0
 1529 0050 C046     		mov	r8, r8
 1530              	.L106:
 1531              		.loc 1 956 0 is_stmt 0 discriminator 1
 1532 0052 FFF7FEFF 		bl	I2C_1_scl_Read
 1533 0056 031C     		mov	r3, r0
 1534 0058 002B     		cmp	r3, #0
 1535 005a FAD0     		beq	.L106
 957:.\Generated_Source\PSoC4/I2C_1_I2C_MASTER.c ****         {
 958:.\Generated_Source\PSoC4/I2C_1_I2C_MASTER.c ****             /* Wait until slave releases SCL in case if it stretches */
 959:.\Generated_Source\PSoC4/I2C_1_I2C_MASTER.c ****         }
 960:.\Generated_Source\PSoC4/I2C_1_I2C_MASTER.c ****         CyDelayUs(I2C_1_I2C_THIGH_TIME); /* Count tHIGH */
 1536              		.loc 1 960 0 is_stmt 1
 1537 005c 0A20     		mov	r0, #10
 1538 005e FFF7FEFF 		bl	CyDelayUs
 1539              	.L105:
 961:.\Generated_Source\PSoC4/I2C_1_I2C_MASTER.c ****     }
 962:.\Generated_Source\PSoC4/I2C_1_I2C_MASTER.c **** 
 963:.\Generated_Source\PSoC4/I2C_1_I2C_MASTER.c ****     /* Count tLOW as hold time for write and read */
 964:.\Generated_Source\PSoC4/I2C_1_I2C_MASTER.c ****     I2C_1_SET_I2C_SCL_DR(I2C_1_I2C_SCL_LOW);
 1540              		.loc 1 964 0
 1541 0062 0020     		mov	r0, #0
 1542 0064 FFF7FEFF 		bl	I2C_1_scl_Write
 965:.\Generated_Source\PSoC4/I2C_1_I2C_MASTER.c ****     CyDelayUs(I2C_1_I2C_TLOW_TIME); /* Count tLOW */
ARM GAS  C:\Users\Eric\AppData\Local\Temp\ccfZjnId.s 			page 45


 1543              		.loc 1 965 0
 1544 0068 0A20     		mov	r0, #10
 1545 006a FFF7FEFF 		bl	CyDelayUs
 966:.\Generated_Source\PSoC4/I2C_1_I2C_MASTER.c **** 
 967:.\Generated_Source\PSoC4/I2C_1_I2C_MASTER.c ****     /* Set command for Start generation: it will appear */
 968:.\Generated_Source\PSoC4/I2C_1_I2C_MASTER.c ****     I2C_1_I2C_MASTER_CMD_REG = I2C_1_I2C_MASTER_CMD_M_START;
 1546              		.loc 1 968 0
 1547 006e 0F4B     		ldr	r3, .L107+12
 1548 0070 0122     		mov	r2, #1
 1549 0072 1A60     		str	r2, [r3]
 969:.\Generated_Source\PSoC4/I2C_1_I2C_MASTER.c **** 
 970:.\Generated_Source\PSoC4/I2C_1_I2C_MASTER.c ****     /* Enable SCB block */
 971:.\Generated_Source\PSoC4/I2C_1_I2C_MASTER.c ****     I2C_1_CTRL_REG |= (uint32) I2C_1_CTRL_ENABLED;
 1550              		.loc 1 971 0
 1551 0074 0C4B     		ldr	r3, .L107+8
 1552 0076 0C4A     		ldr	r2, .L107+8
 1553 0078 1268     		ldr	r2, [r2]
 1554 007a 8021     		mov	r1, #128
 1555 007c 0906     		lsl	r1, r1, #24
 1556 007e 0A43     		orr	r2, r1
 1557 0080 1A60     		str	r2, [r3]
 972:.\Generated_Source\PSoC4/I2C_1_I2C_MASTER.c **** 
 973:.\Generated_Source\PSoC4/I2C_1_I2C_MASTER.c ****     /* Switch HSIOM to I2C: */
 974:.\Generated_Source\PSoC4/I2C_1_I2C_MASTER.c ****     I2C_1_SET_I2C_SCL_HSIOM_SEL(I2C_1_HSIOM_I2C_SEL);
 1558              		.loc 1 974 0
 1559 0082 084B     		ldr	r3, .L107+4
 1560 0084 074A     		ldr	r2, .L107+4
 1561 0086 1268     		ldr	r2, [r2]
 1562 0088 0F21     		mov	r1, #15
 1563 008a 8A43     		bic	r2, r1
 1564 008c 0E21     		mov	r1, #14
 1565 008e 0A43     		orr	r2, r1
 1566 0090 1A60     		str	r2, [r3]
 975:.\Generated_Source\PSoC4/I2C_1_I2C_MASTER.c **** 
 976:.\Generated_Source\PSoC4/I2C_1_I2C_MASTER.c ****     /* Revert SCL DR register */
 977:.\Generated_Source\PSoC4/I2C_1_I2C_MASTER.c ****     I2C_1_SET_I2C_SCL_DR(I2C_1_I2C_SCL_HIGH);
 1567              		.loc 1 977 0
 1568 0092 0120     		mov	r0, #1
 1569 0094 FFF7FEFF 		bl	I2C_1_scl_Write
 978:.\Generated_Source\PSoC4/I2C_1_I2C_MASTER.c **** #else
 979:.\Generated_Source\PSoC4/I2C_1_I2C_MASTER.c ****     uint32 cmd;
 980:.\Generated_Source\PSoC4/I2C_1_I2C_MASTER.c **** 
 981:.\Generated_Source\PSoC4/I2C_1_I2C_MASTER.c ****     /* Generates ReStart use scb IP functionality */
 982:.\Generated_Source\PSoC4/I2C_1_I2C_MASTER.c ****     cmd  = I2C_1_I2C_MASTER_CMD_M_START;
 983:.\Generated_Source\PSoC4/I2C_1_I2C_MASTER.c ****     cmd |= I2C_1_CHECK_I2C_STATUS(I2C_1_I2C_STATUS_M_READ) ?
 984:.\Generated_Source\PSoC4/I2C_1_I2C_MASTER.c ****                 (I2C_1_I2C_MASTER_CMD_M_NACK) : (0u);
 985:.\Generated_Source\PSoC4/I2C_1_I2C_MASTER.c **** 
 986:.\Generated_Source\PSoC4/I2C_1_I2C_MASTER.c ****     I2C_1_I2C_MASTER_CMD_REG = cmd;
 987:.\Generated_Source\PSoC4/I2C_1_I2C_MASTER.c **** #endif /* (I2C_1_CY_SCBIP_V1) */
 988:.\Generated_Source\PSoC4/I2C_1_I2C_MASTER.c **** }
 1570              		.loc 1 988 0
 1571 0098 BD46     		mov	sp, r7
 1572 009a 02B0     		add	sp, sp, #8
 1573              		@ sp needed for prologue
 1574 009c 80BD     		pop	{r7, pc}
 1575              	.L108:
 1576 009e C046     		.align	2
ARM GAS  C:\Users\Eric\AppData\Local\Temp\ccfZjnId.s 			page 46


 1577              	.L107:
 1578 00a0 64000640 		.word	1074135140
 1579 00a4 10000140 		.word	1073807376
 1580 00a8 00000640 		.word	1074135040
 1581 00ac 68000640 		.word	1074135144
 1582              		.cfi_endproc
 1583              	.LFE13:
 1584              		.size	I2C_1_I2CReStartGeneration, .-I2C_1_I2CReStartGeneration
 1585              		.text
 1586              	.Letext0:
 1587              		.file 2 "./Generated_Source/PSoC4/cytypes.h"
 1588              		.file 3 ".\\Generated_Source\\PSoC4\\I2C_1_I2C_PVT.h"