ARM GAS  C:\Users\Eric\AppData\Local\Temp\ccFOWhig.s 			page 1


   1              		.cpu cortex-m0
   2              		.fpu softvfp
   3              		.eabi_attribute 20, 1
   4              		.eabi_attribute 21, 1
   5              		.eabi_attribute 23, 3
   6              		.eabi_attribute 24, 1
   7              		.eabi_attribute 25, 1
   8              		.eabi_attribute 26, 1
   9              		.eabi_attribute 30, 6
  10              		.eabi_attribute 34, 0
  11              		.eabi_attribute 18, 4
  12              		.code	16
  13              		.file	"main.c"
  14              		.text
  15              	.Ltext0:
  16              		.cfi_sections	.debug_frame
  17              		.comm	paddle,4,4
  18              		.global	shifts
  19              		.bss
  20              		.align	2
  21              		.type	shifts, %object
  22              		.size	shifts, 4
  23              	shifts:
  24 0000 00000000 		.space	4
  25              		.section	.text.main,"ax",%progbits
  26              		.align	2
  27              		.global	main
  28              		.code	16
  29              		.thumb_func
  30              		.type	main, %function
  31              	main:
  32              	.LFB33:
  33              		.file 1 ".\\main.c"
   1:.\main.c      **** /* ========================================
   2:.\main.c      ****  *
   3:.\main.c      ****  * Copyright YOUR COMPANY, THE YEAR
   4:.\main.c      ****  * All Rights Reserved
   5:.\main.c      ****  * UNPUBLISHED, LICENSED SOFTWARE.
   6:.\main.c      ****  *
   7:.\main.c      ****  * CONFIDENTIAL AND PROPRIETARY INFORMATION
   8:.\main.c      ****  * WHICH IS THE PROPERTY OF your company.
   9:.\main.c      ****  *
  10:.\main.c      ****  * ========================================
  11:.\main.c      **** */
  12:.\main.c      **** #include <project.h>
  13:.\main.c      **** 
  14:.\main.c      **** #define DEBOUNCE_DELAY 13
  15:.\main.c      **** #define CLUTCH_ENGAGE_DELAY_UP 70
  16:.\main.c      **** #define CLUTCH_ENGAGE_DELAY_DOWN 150
  17:.\main.c      **** #define CLUTCH_RELEASE_DELAY 20
  18:.\main.c      **** #define SHIFT_ENGAGE_DELAY 165
  19:.\main.c      **** #define NEUTRAL_FIND 50
  20:.\main.c      **** 
  21:.\main.c      **** #define UP_SHIFT_PADDLE 0x5   // 101
  22:.\main.c      **** #define DOWN_SHIFT_PADDLE 0x6 // 110
  23:.\main.c      **** #define NEUTRAL_BUTTON 0x3    // 011
  24:.\main.c      **** 
ARM GAS  C:\Users\Eric\AppData\Local\Temp\ccFOWhig.s 			page 2


  25:.\main.c      **** int paddle;
  26:.\main.c      **** int shifts = 0;
  27:.\main.c      **** 
  28:.\main.c      **** void Shift(int paddle);
  29:.\main.c      **** 
  30:.\main.c      **** int main()
  31:.\main.c      **** {
  34              		.loc 1 31 0
  35              		.cfi_startproc
  36 0000 80B5     		push	{r7, lr}
  37              		.cfi_def_cfa_offset 8
  38              		.cfi_offset 7, -8
  39              		.cfi_offset 14, -4
  40 0002 00AF     		add	r7, sp, #0
  41              		.cfi_def_cfa_register 7
  32:.\main.c      ****     /* Place your initialization/startup code here (e.g. MyInst_Start()) */
  33:.\main.c      **** 
  34:.\main.c      ****     CyGlobalIntEnable; //*/ /* Uncomment this line to enable global interrupts. */
  42              		.loc 1 34 0
  43              	@ 34 ".\main.c" 1
  44 0004 62B6     		CPSIE   i
  45              	@ 0 "" 2
  46              		.code	16
  47              	.L5:
  35:.\main.c      ****     for(;;)
  36:.\main.c      ****     {
  37:.\main.c      ****         /* Place your application code here. */
  38:.\main.c      ****         
  39:.\main.c      ****         paddle = Steering_Wheel_Read();
  48              		.loc 1 39 0
  49 0006 FFF7FEFF 		bl	Steering_Wheel_Read
  50 000a 031C     		mov	r3, r0
  51 000c 1A1C     		mov	r2, r3
  52 000e 124B     		ldr	r3, .L7
  53 0010 1A60     		str	r2, [r3]
  40:.\main.c      ****         
  41:.\main.c      ****         if (paddle != 0x7) {
  54              		.loc 1 41 0
  55 0012 114B     		ldr	r3, .L7
  56 0014 1B68     		ldr	r3, [r3]
  57 0016 072B     		cmp	r3, #7
  58 0018 19D0     		beq	.L2
  42:.\main.c      ****             CyDelay(DEBOUNCE_DELAY);
  59              		.loc 1 42 0
  60 001a 0D20     		mov	r0, #13
  61 001c FFF7FEFF 		bl	CyDelay
  43:.\main.c      ****             if (paddle == Steering_Wheel_Read()) Shift(paddle);
  62              		.loc 1 43 0
  63 0020 FFF7FEFF 		bl	Steering_Wheel_Read
  64 0024 031C     		mov	r3, r0
  65 0026 1A1C     		mov	r2, r3
  66 0028 0B4B     		ldr	r3, .L7
  67 002a 1B68     		ldr	r3, [r3]
  68 002c 9A42     		cmp	r2, r3
  69 002e 05D1     		bne	.L3
  70              		.loc 1 43 0 is_stmt 0 discriminator 1
  71 0030 094B     		ldr	r3, .L7
ARM GAS  C:\Users\Eric\AppData\Local\Temp\ccFOWhig.s 			page 3


  72 0032 1B68     		ldr	r3, [r3]
  73 0034 181C     		mov	r0, r3
  74 0036 FFF7FEFF 		bl	Shift
  44:.\main.c      ****             while (paddle == Steering_Wheel_Read());
  75              		.loc 1 44 0 is_stmt 1 discriminator 1
  76 003a FFE7     		b	.L6
  77              	.L3:
  78              	.L6:
  79              		.loc 1 44 0 is_stmt 0
  80 003c C046     		mov	r8, r8
  81              	.L4:
  82              		.loc 1 44 0 discriminator 1
  83 003e FFF7FEFF 		bl	Steering_Wheel_Read
  84 0042 031C     		mov	r3, r0
  85 0044 1A1C     		mov	r2, r3
  86 0046 044B     		ldr	r3, .L7
  87 0048 1B68     		ldr	r3, [r3]
  88 004a 9A42     		cmp	r2, r3
  89 004c F7D0     		beq	.L4
  90              	.L2:
  45:.\main.c      ****         }
  46:.\main.c      ****         
  47:.\main.c      ****         CyDelayUs(200);
  91              		.loc 1 47 0 is_stmt 1
  92 004e C820     		mov	r0, #200
  93 0050 FFF7FEFF 		bl	CyDelayUs
  48:.\main.c      ****     }
  94              		.loc 1 48 0
  95 0054 D7E7     		b	.L5
  96              	.L8:
  97 0056 C046     		.align	2
  98              	.L7:
  99 0058 00000000 		.word	paddle
 100              		.cfi_endproc
 101              	.LFE33:
 102              		.size	main, .-main
 103              		.section	.text.Shift,"ax",%progbits
 104              		.align	2
 105              		.global	Shift
 106              		.code	16
 107              		.thumb_func
 108              		.type	Shift, %function
 109              	Shift:
 110              	.LFB34:
  49:.\main.c      **** }
  50:.\main.c      **** 
  51:.\main.c      **** void Shift(int paddle) {
 111              		.loc 1 51 0
 112              		.cfi_startproc
 113 0000 80B5     		push	{r7, lr}
 114              		.cfi_def_cfa_offset 8
 115              		.cfi_offset 7, -8
 116              		.cfi_offset 14, -4
 117 0002 82B0     		sub	sp, sp, #8
 118              		.cfi_def_cfa_offset 16
 119 0004 00AF     		add	r7, sp, #0
 120              		.cfi_def_cfa_register 7
ARM GAS  C:\Users\Eric\AppData\Local\Temp\ccFOWhig.s 			page 4


 121 0006 7860     		str	r0, [r7, #4]
  52:.\main.c      ****     shifts++;
 122              		.loc 1 52 0
 123 0008 214B     		ldr	r3, .L13
 124 000a 1B68     		ldr	r3, [r3]
 125 000c 5A1C     		add	r2, r3, #1
 126 000e 204B     		ldr	r3, .L13
 127 0010 1A60     		str	r2, [r3]
  53:.\main.c      ****     if (paddle == NEUTRAL_BUTTON) {
 128              		.loc 1 53 0
 129 0012 7B68     		ldr	r3, [r7, #4]
 130 0014 032B     		cmp	r3, #3
 131 0016 09D1     		bne	.L10
  54:.\main.c      ****         Up_Shift_Air_Write(1);
 132              		.loc 1 54 0
 133 0018 0120     		mov	r0, #1
 134 001a FFF7FEFF 		bl	Up_Shift_Air_Write
  55:.\main.c      ****         CyDelay(NEUTRAL_FIND);
 135              		.loc 1 55 0
 136 001e 3220     		mov	r0, #50
 137 0020 FFF7FEFF 		bl	CyDelay
  56:.\main.c      ****         Up_Shift_Air_Write(0);
 138              		.loc 1 56 0
 139 0024 0020     		mov	r0, #0
 140 0026 FFF7FEFF 		bl	Up_Shift_Air_Write
  57:.\main.c      ****         return;
 141              		.loc 1 57 0
 142 002a 2EE0     		b	.L9
 143              	.L10:
  58:.\main.c      ****     }
  59:.\main.c      ****     Engage_Clutch_Write(1);
 144              		.loc 1 59 0
 145 002c 0120     		mov	r0, #1
 146 002e FFF7FEFF 		bl	Engage_Clutch_Write
  60:.\main.c      ****     if (paddle == UP_SHIFT_PADDLE) {
 147              		.loc 1 60 0
 148 0032 7B68     		ldr	r3, [r7, #4]
 149 0034 052B     		cmp	r3, #5
 150 0036 12D1     		bne	.L12
  61:.\main.c      ****         CyDelay(CLUTCH_ENGAGE_DELAY_UP);
 151              		.loc 1 61 0
 152 0038 4620     		mov	r0, #70
 153 003a FFF7FEFF 		bl	CyDelay
  62:.\main.c      ****         Up_Shift_Air_Write(1);
 154              		.loc 1 62 0
 155 003e 0120     		mov	r0, #1
 156 0040 FFF7FEFF 		bl	Up_Shift_Air_Write
  63:.\main.c      ****         CyDelay(SHIFT_ENGAGE_DELAY);
 157              		.loc 1 63 0
 158 0044 A520     		mov	r0, #165
 159 0046 FFF7FEFF 		bl	CyDelay
  64:.\main.c      ****         Up_Shift_Air_Write(0);
 160              		.loc 1 64 0
 161 004a 0020     		mov	r0, #0
 162 004c FFF7FEFF 		bl	Up_Shift_Air_Write
  65:.\main.c      ****         CyDelay(CLUTCH_RELEASE_DELAY);
 163              		.loc 1 65 0
ARM GAS  C:\Users\Eric\AppData\Local\Temp\ccFOWhig.s 			page 5


 164 0050 1420     		mov	r0, #20
 165 0052 FFF7FEFF 		bl	CyDelay
  66:.\main.c      ****         Engage_Clutch_Write(0);
 166              		.loc 1 66 0
 167 0056 0020     		mov	r0, #0
 168 0058 FFF7FEFF 		bl	Engage_Clutch_Write
  67:.\main.c      ****         return;
 169              		.loc 1 67 0
 170 005c 15E0     		b	.L9
 171              	.L12:
  68:.\main.c      ****     }
  69:.\main.c      ****     if (paddle == DOWN_SHIFT_PADDLE) {
 172              		.loc 1 69 0
 173 005e 7B68     		ldr	r3, [r7, #4]
 174 0060 062B     		cmp	r3, #6
 175 0062 12D1     		bne	.L9
  70:.\main.c      ****         CyDelay(CLUTCH_ENGAGE_DELAY_DOWN);
 176              		.loc 1 70 0
 177 0064 9620     		mov	r0, #150
 178 0066 FFF7FEFF 		bl	CyDelay
  71:.\main.c      ****         Down_Shift_Air_Write(1);
 179              		.loc 1 71 0
 180 006a 0120     		mov	r0, #1
 181 006c FFF7FEFF 		bl	Down_Shift_Air_Write
  72:.\main.c      ****         CyDelay(SHIFT_ENGAGE_DELAY);
 182              		.loc 1 72 0
 183 0070 A520     		mov	r0, #165
 184 0072 FFF7FEFF 		bl	CyDelay
  73:.\main.c      ****         Down_Shift_Air_Write(0);
 185              		.loc 1 73 0
 186 0076 0020     		mov	r0, #0
 187 0078 FFF7FEFF 		bl	Down_Shift_Air_Write
  74:.\main.c      ****         CyDelay(CLUTCH_RELEASE_DELAY);
 188              		.loc 1 74 0
 189 007c 1420     		mov	r0, #20
 190 007e FFF7FEFF 		bl	CyDelay
  75:.\main.c      ****         Engage_Clutch_Write(0);
 191              		.loc 1 75 0
 192 0082 0020     		mov	r0, #0
 193 0084 FFF7FEFF 		bl	Engage_Clutch_Write
  76:.\main.c      ****         return;
 194              		.loc 1 76 0
 195 0088 C046     		mov	r8, r8
 196              	.L9:
  77:.\main.c      ****     }
  78:.\main.c      **** }
 197              		.loc 1 78 0
 198 008a BD46     		mov	sp, r7
 199 008c 02B0     		add	sp, sp, #8
 200              		@ sp needed
 201 008e 80BD     		pop	{r7, pc}
 202              	.L14:
 203              		.align	2
 204              	.L13:
 205 0090 00000000 		.word	shifts
 206              		.cfi_endproc
 207              	.LFE34:
ARM GAS  C:\Users\Eric\AppData\Local\Temp\ccFOWhig.s 			page 6


 208              		.size	Shift, .-Shift
 209              		.text
 210              	.Letext0: