ARM GAS  C:\Users\Eric\AppData\Local\Temp\ccv2Jp5V.s 			page 1


   1              		.cpu cortex-m0
   2              		.fpu softvfp
   3              		.eabi_attribute 20, 1
   4              		.eabi_attribute 21, 1
   5              		.eabi_attribute 23, 3
   6              		.eabi_attribute 24, 1
   7              		.eabi_attribute 25, 1
   8              		.eabi_attribute 26, 1
   9              		.eabi_attribute 30, 6
  10              		.eabi_attribute 34, 0
  11              		.eabi_attribute 18, 4
  12              		.code	16
  13              		.file	"Shift_Solenoids.c"
  14              		.text
  15              	.Ltext0:
  16              		.cfi_sections	.debug_frame
  17              		.section	.text.Shift_Solenoids_Write,"ax",%progbits
  18              		.align	2
  19              		.global	Shift_Solenoids_Write
  20              		.code	16
  21              		.thumb_func
  22              		.type	Shift_Solenoids_Write, %function
  23              	Shift_Solenoids_Write:
  24              	.LFB0:
  25              		.file 1 ".\\Generated_Source\\PSoC4\\Shift_Solenoids.c"
   1:.\Generated_Source\PSoC4/Shift_Solenoids.c **** /*******************************************************************************
   2:.\Generated_Source\PSoC4/Shift_Solenoids.c **** * File Name: Shift_Solenoids.c  
   3:.\Generated_Source\PSoC4/Shift_Solenoids.c **** * Version 2.10
   4:.\Generated_Source\PSoC4/Shift_Solenoids.c **** *
   5:.\Generated_Source\PSoC4/Shift_Solenoids.c **** * Description:
   6:.\Generated_Source\PSoC4/Shift_Solenoids.c **** *  This file contains API to enable firmware control of a Pins component.
   7:.\Generated_Source\PSoC4/Shift_Solenoids.c **** *
   8:.\Generated_Source\PSoC4/Shift_Solenoids.c **** * Note:
   9:.\Generated_Source\PSoC4/Shift_Solenoids.c **** *
  10:.\Generated_Source\PSoC4/Shift_Solenoids.c **** ********************************************************************************
  11:.\Generated_Source\PSoC4/Shift_Solenoids.c **** * Copyright 2008-2014, Cypress Semiconductor Corporation.  All rights reserved.
  12:.\Generated_Source\PSoC4/Shift_Solenoids.c **** * You may use this file only in accordance with the license, terms, conditions, 
  13:.\Generated_Source\PSoC4/Shift_Solenoids.c **** * disclaimers, and limitations in the end user license agreement accompanying 
  14:.\Generated_Source\PSoC4/Shift_Solenoids.c **** * the software package with which this file was provided.
  15:.\Generated_Source\PSoC4/Shift_Solenoids.c **** *******************************************************************************/
  16:.\Generated_Source\PSoC4/Shift_Solenoids.c **** 
  17:.\Generated_Source\PSoC4/Shift_Solenoids.c **** #include "cytypes.h"
  18:.\Generated_Source\PSoC4/Shift_Solenoids.c **** #include "Shift_Solenoids.h"
  19:.\Generated_Source\PSoC4/Shift_Solenoids.c **** 
  20:.\Generated_Source\PSoC4/Shift_Solenoids.c **** #define SetP4PinDriveMode(shift, mode)  \
  21:.\Generated_Source\PSoC4/Shift_Solenoids.c ****     do { \
  22:.\Generated_Source\PSoC4/Shift_Solenoids.c ****         Shift_Solenoids_PC =   (Shift_Solenoids_PC & \
  23:.\Generated_Source\PSoC4/Shift_Solenoids.c ****                                 (uint32)(~(uint32)(Shift_Solenoids_DRIVE_MODE_IND_MASK << (Shift_So
  24:.\Generated_Source\PSoC4/Shift_Solenoids.c ****                                 (uint32)((uint32)(mode) << (Shift_Solenoids_DRIVE_MODE_BITS * (shif
  25:.\Generated_Source\PSoC4/Shift_Solenoids.c ****     } while (0)
  26:.\Generated_Source\PSoC4/Shift_Solenoids.c **** 
  27:.\Generated_Source\PSoC4/Shift_Solenoids.c **** 
  28:.\Generated_Source\PSoC4/Shift_Solenoids.c **** /*******************************************************************************
  29:.\Generated_Source\PSoC4/Shift_Solenoids.c **** * Function Name: Shift_Solenoids_Write
  30:.\Generated_Source\PSoC4/Shift_Solenoids.c **** ********************************************************************************
  31:.\Generated_Source\PSoC4/Shift_Solenoids.c **** *
  32:.\Generated_Source\PSoC4/Shift_Solenoids.c **** * Summary:
ARM GAS  C:\Users\Eric\AppData\Local\Temp\ccv2Jp5V.s 			page 2


  33:.\Generated_Source\PSoC4/Shift_Solenoids.c **** *  Assign a new value to the digital port's data output register.  
  34:.\Generated_Source\PSoC4/Shift_Solenoids.c **** *
  35:.\Generated_Source\PSoC4/Shift_Solenoids.c **** * Parameters:  
  36:.\Generated_Source\PSoC4/Shift_Solenoids.c **** *  prtValue:  The value to be assigned to the Digital Port. 
  37:.\Generated_Source\PSoC4/Shift_Solenoids.c **** *
  38:.\Generated_Source\PSoC4/Shift_Solenoids.c **** * Return: 
  39:.\Generated_Source\PSoC4/Shift_Solenoids.c **** *  None 
  40:.\Generated_Source\PSoC4/Shift_Solenoids.c **** *  
  41:.\Generated_Source\PSoC4/Shift_Solenoids.c **** *******************************************************************************/
  42:.\Generated_Source\PSoC4/Shift_Solenoids.c **** void Shift_Solenoids_Write(uint8 value) 
  43:.\Generated_Source\PSoC4/Shift_Solenoids.c **** {
  26              		.loc 1 43 0
  27              		.cfi_startproc
  28 0000 80B5     		push	{r7, lr}
  29              		.cfi_def_cfa_offset 8
  30              		.cfi_offset 7, -8
  31              		.cfi_offset 14, -4
  32 0002 84B0     		sub	sp, sp, #16
  33              		.cfi_def_cfa_offset 24
  34 0004 00AF     		add	r7, sp, #0
  35              		.cfi_def_cfa_register 7
  36 0006 021C     		mov	r2, r0
  37 0008 FB1D     		add	r3, r7, #7
  38 000a 1A70     		strb	r2, [r3]
  44:.\Generated_Source\PSoC4/Shift_Solenoids.c ****     uint8 drVal = (uint8)(Shift_Solenoids_DR & (uint8)(~Shift_Solenoids_MASK));
  39              		.loc 1 44 0
  40 000c 0D4B     		ldr	r3, .L2
  41 000e 1B68     		ldr	r3, [r3]
  42 0010 DAB2     		uxtb	r2, r3
  43 0012 3B1C     		mov	r3, r7
  44 0014 0F33     		add	r3, r3, #15
  45 0016 0F21     		mov	r1, #15
  46 0018 8A43     		bic	r2, r1
  47 001a 1A70     		strb	r2, [r3]
  45:.\Generated_Source\PSoC4/Shift_Solenoids.c ****     drVal = (drVal | ((uint8)(value << Shift_Solenoids_SHIFT) & Shift_Solenoids_MASK));
  48              		.loc 1 45 0
  49 001c FB1D     		add	r3, r7, #7
  50 001e 1A78     		ldrb	r2, [r3]
  51 0020 0F23     		mov	r3, #15
  52 0022 1340     		and	r3, r2
  53 0024 D9B2     		uxtb	r1, r3
  54 0026 3B1C     		mov	r3, r7
  55 0028 0F33     		add	r3, r3, #15
  56 002a 3A1C     		mov	r2, r7
  57 002c 0F32     		add	r2, r2, #15
  58 002e 1278     		ldrb	r2, [r2]
  59 0030 0A43     		orr	r2, r1
  60 0032 1A70     		strb	r2, [r3]
  46:.\Generated_Source\PSoC4/Shift_Solenoids.c ****     Shift_Solenoids_DR = (uint32)drVal;
  61              		.loc 1 46 0
  62 0034 034B     		ldr	r3, .L2
  63 0036 3A1C     		mov	r2, r7
  64 0038 0F32     		add	r2, r2, #15
  65 003a 1278     		ldrb	r2, [r2]
  66 003c 1A60     		str	r2, [r3]
  47:.\Generated_Source\PSoC4/Shift_Solenoids.c **** }
  67              		.loc 1 47 0
ARM GAS  C:\Users\Eric\AppData\Local\Temp\ccv2Jp5V.s 			page 3


  68 003e BD46     		mov	sp, r7
  69 0040 04B0     		add	sp, sp, #16
  70              		@ sp needed
  71 0042 80BD     		pop	{r7, pc}
  72              	.L3:
  73              		.align	2
  74              	.L2:
  75 0044 00040440 		.word	1074004992
  76              		.cfi_endproc
  77              	.LFE0:
  78              		.size	Shift_Solenoids_Write, .-Shift_Solenoids_Write
  79              		.section	.text.Shift_Solenoids_SetDriveMode,"ax",%progbits
  80              		.align	2
  81              		.global	Shift_Solenoids_SetDriveMode
  82              		.code	16
  83              		.thumb_func
  84              		.type	Shift_Solenoids_SetDriveMode, %function
  85              	Shift_Solenoids_SetDriveMode:
  86              	.LFB1:
  48:.\Generated_Source\PSoC4/Shift_Solenoids.c **** 
  49:.\Generated_Source\PSoC4/Shift_Solenoids.c **** 
  50:.\Generated_Source\PSoC4/Shift_Solenoids.c **** /*******************************************************************************
  51:.\Generated_Source\PSoC4/Shift_Solenoids.c **** * Function Name: Shift_Solenoids_SetDriveMode
  52:.\Generated_Source\PSoC4/Shift_Solenoids.c **** ********************************************************************************
  53:.\Generated_Source\PSoC4/Shift_Solenoids.c **** *
  54:.\Generated_Source\PSoC4/Shift_Solenoids.c **** * Summary:
  55:.\Generated_Source\PSoC4/Shift_Solenoids.c **** *  Change the drive mode on the pins of the port.
  56:.\Generated_Source\PSoC4/Shift_Solenoids.c **** * 
  57:.\Generated_Source\PSoC4/Shift_Solenoids.c **** * Parameters:  
  58:.\Generated_Source\PSoC4/Shift_Solenoids.c **** *  mode:  Change the pins to one of the following drive modes.
  59:.\Generated_Source\PSoC4/Shift_Solenoids.c **** *
  60:.\Generated_Source\PSoC4/Shift_Solenoids.c **** *  Shift_Solenoids_DM_STRONG     Strong Drive 
  61:.\Generated_Source\PSoC4/Shift_Solenoids.c **** *  Shift_Solenoids_DM_OD_HI      Open Drain, Drives High 
  62:.\Generated_Source\PSoC4/Shift_Solenoids.c **** *  Shift_Solenoids_DM_OD_LO      Open Drain, Drives Low 
  63:.\Generated_Source\PSoC4/Shift_Solenoids.c **** *  Shift_Solenoids_DM_RES_UP     Resistive Pull Up 
  64:.\Generated_Source\PSoC4/Shift_Solenoids.c **** *  Shift_Solenoids_DM_RES_DWN    Resistive Pull Down 
  65:.\Generated_Source\PSoC4/Shift_Solenoids.c **** *  Shift_Solenoids_DM_RES_UPDWN  Resistive Pull Up/Down 
  66:.\Generated_Source\PSoC4/Shift_Solenoids.c **** *  Shift_Solenoids_DM_DIG_HIZ    High Impedance Digital 
  67:.\Generated_Source\PSoC4/Shift_Solenoids.c **** *  Shift_Solenoids_DM_ALG_HIZ    High Impedance Analog 
  68:.\Generated_Source\PSoC4/Shift_Solenoids.c **** *
  69:.\Generated_Source\PSoC4/Shift_Solenoids.c **** * Return: 
  70:.\Generated_Source\PSoC4/Shift_Solenoids.c **** *  None
  71:.\Generated_Source\PSoC4/Shift_Solenoids.c **** *
  72:.\Generated_Source\PSoC4/Shift_Solenoids.c **** *******************************************************************************/
  73:.\Generated_Source\PSoC4/Shift_Solenoids.c **** void Shift_Solenoids_SetDriveMode(uint8 mode) 
  74:.\Generated_Source\PSoC4/Shift_Solenoids.c **** {
  87              		.loc 1 74 0
  88              		.cfi_startproc
  89 0000 80B5     		push	{r7, lr}
  90              		.cfi_def_cfa_offset 8
  91              		.cfi_offset 7, -8
  92              		.cfi_offset 14, -4
  93 0002 82B0     		sub	sp, sp, #8
  94              		.cfi_def_cfa_offset 16
  95 0004 00AF     		add	r7, sp, #0
  96              		.cfi_def_cfa_register 7
  97 0006 021C     		mov	r2, r0
ARM GAS  C:\Users\Eric\AppData\Local\Temp\ccv2Jp5V.s 			page 4


  98 0008 FB1D     		add	r3, r7, #7
  99 000a 1A70     		strb	r2, [r3]
  75:.\Generated_Source\PSoC4/Shift_Solenoids.c **** 	SetP4PinDriveMode(Shift_Solenoids__0__SHIFT, mode);
 100              		.loc 1 75 0
 101 000c 164B     		ldr	r3, .L5
 102 000e 164A     		ldr	r2, .L5
 103 0010 1268     		ldr	r2, [r2]
 104 0012 0721     		mov	r1, #7
 105 0014 101C     		mov	r0, r2
 106 0016 8843     		bic	r0, r1
 107 0018 011C     		mov	r1, r0
 108 001a FA1D     		add	r2, r7, #7
 109 001c 1278     		ldrb	r2, [r2]
 110 001e 0A43     		orr	r2, r1
 111 0020 1A60     		str	r2, [r3]
  76:.\Generated_Source\PSoC4/Shift_Solenoids.c **** 	SetP4PinDriveMode(Shift_Solenoids__1__SHIFT, mode);
 112              		.loc 1 76 0
 113 0022 114B     		ldr	r3, .L5
 114 0024 104A     		ldr	r2, .L5
 115 0026 1268     		ldr	r2, [r2]
 116 0028 3821     		mov	r1, #56
 117 002a 101C     		mov	r0, r2
 118 002c 8843     		bic	r0, r1
 119 002e 011C     		mov	r1, r0
 120 0030 FA1D     		add	r2, r7, #7
 121 0032 1278     		ldrb	r2, [r2]
 122 0034 D200     		lsl	r2, r2, #3
 123 0036 0A43     		orr	r2, r1
 124 0038 1A60     		str	r2, [r3]
  77:.\Generated_Source\PSoC4/Shift_Solenoids.c **** 	SetP4PinDriveMode(Shift_Solenoids__2__SHIFT, mode);
 125              		.loc 1 77 0
 126 003a 0B4B     		ldr	r3, .L5
 127 003c 0A4A     		ldr	r2, .L5
 128 003e 1168     		ldr	r1, [r2]
 129 0040 0A4A     		ldr	r2, .L5+4
 130 0042 1140     		and	r1, r2
 131 0044 FA1D     		add	r2, r7, #7
 132 0046 1278     		ldrb	r2, [r2]
 133 0048 9201     		lsl	r2, r2, #6
 134 004a 0A43     		orr	r2, r1
 135 004c 1A60     		str	r2, [r3]
  78:.\Generated_Source\PSoC4/Shift_Solenoids.c **** 	SetP4PinDriveMode(Shift_Solenoids__3__SHIFT, mode);
 136              		.loc 1 78 0
 137 004e 064B     		ldr	r3, .L5
 138 0050 054A     		ldr	r2, .L5
 139 0052 1168     		ldr	r1, [r2]
 140 0054 064A     		ldr	r2, .L5+8
 141 0056 1140     		and	r1, r2
 142 0058 FA1D     		add	r2, r7, #7
 143 005a 1278     		ldrb	r2, [r2]
 144 005c 5202     		lsl	r2, r2, #9
 145 005e 0A43     		orr	r2, r1
 146 0060 1A60     		str	r2, [r3]
  79:.\Generated_Source\PSoC4/Shift_Solenoids.c **** }
 147              		.loc 1 79 0
 148 0062 BD46     		mov	sp, r7
 149 0064 02B0     		add	sp, sp, #8
ARM GAS  C:\Users\Eric\AppData\Local\Temp\ccv2Jp5V.s 			page 5


 150              		@ sp needed
 151 0066 80BD     		pop	{r7, pc}
 152              	.L6:
 153              		.align	2
 154              	.L5:
 155 0068 08040440 		.word	1074005000
 156 006c 3FFEFFFF 		.word	-449
 157 0070 FFF1FFFF 		.word	-3585
 158              		.cfi_endproc
 159              	.LFE1:
 160              		.size	Shift_Solenoids_SetDriveMode, .-Shift_Solenoids_SetDriveMode
 161              		.section	.text.Shift_Solenoids_Read,"ax",%progbits
 162              		.align	2
 163              		.global	Shift_Solenoids_Read
 164              		.code	16
 165              		.thumb_func
 166              		.type	Shift_Solenoids_Read, %function
 167              	Shift_Solenoids_Read:
 168              	.LFB2:
  80:.\Generated_Source\PSoC4/Shift_Solenoids.c **** 
  81:.\Generated_Source\PSoC4/Shift_Solenoids.c **** 
  82:.\Generated_Source\PSoC4/Shift_Solenoids.c **** /*******************************************************************************
  83:.\Generated_Source\PSoC4/Shift_Solenoids.c **** * Function Name: Shift_Solenoids_Read
  84:.\Generated_Source\PSoC4/Shift_Solenoids.c **** ********************************************************************************
  85:.\Generated_Source\PSoC4/Shift_Solenoids.c **** *
  86:.\Generated_Source\PSoC4/Shift_Solenoids.c **** * Summary:
  87:.\Generated_Source\PSoC4/Shift_Solenoids.c **** *  Read the current value on the pins of the Digital Port in right justified 
  88:.\Generated_Source\PSoC4/Shift_Solenoids.c **** *  form.
  89:.\Generated_Source\PSoC4/Shift_Solenoids.c **** *
  90:.\Generated_Source\PSoC4/Shift_Solenoids.c **** * Parameters:  
  91:.\Generated_Source\PSoC4/Shift_Solenoids.c **** *  None 
  92:.\Generated_Source\PSoC4/Shift_Solenoids.c **** *
  93:.\Generated_Source\PSoC4/Shift_Solenoids.c **** * Return: 
  94:.\Generated_Source\PSoC4/Shift_Solenoids.c **** *  Returns the current value of the Digital Port as a right justified number
  95:.\Generated_Source\PSoC4/Shift_Solenoids.c **** *  
  96:.\Generated_Source\PSoC4/Shift_Solenoids.c **** * Note:
  97:.\Generated_Source\PSoC4/Shift_Solenoids.c **** *  Macro Shift_Solenoids_ReadPS calls this function. 
  98:.\Generated_Source\PSoC4/Shift_Solenoids.c **** *  
  99:.\Generated_Source\PSoC4/Shift_Solenoids.c **** *******************************************************************************/
 100:.\Generated_Source\PSoC4/Shift_Solenoids.c **** uint8 Shift_Solenoids_Read(void) 
 101:.\Generated_Source\PSoC4/Shift_Solenoids.c **** {
 169              		.loc 1 101 0
 170              		.cfi_startproc
 171 0000 80B5     		push	{r7, lr}
 172              		.cfi_def_cfa_offset 8
 173              		.cfi_offset 7, -8
 174              		.cfi_offset 14, -4
 175 0002 00AF     		add	r7, sp, #0
 176              		.cfi_def_cfa_register 7
 102:.\Generated_Source\PSoC4/Shift_Solenoids.c ****     return (uint8)((Shift_Solenoids_PS & Shift_Solenoids_MASK) >> Shift_Solenoids_SHIFT);
 177              		.loc 1 102 0
 178 0004 044B     		ldr	r3, .L9
 179 0006 1B68     		ldr	r3, [r3]
 180 0008 DAB2     		uxtb	r2, r3
 181 000a 0F23     		mov	r3, #15
 182 000c 1340     		and	r3, r2
 183 000e DBB2     		uxtb	r3, r3
ARM GAS  C:\Users\Eric\AppData\Local\Temp\ccv2Jp5V.s 			page 6


 103:.\Generated_Source\PSoC4/Shift_Solenoids.c **** }
 184              		.loc 1 103 0
 185 0010 181C     		mov	r0, r3
 186 0012 BD46     		mov	sp, r7
 187              		@ sp needed
 188 0014 80BD     		pop	{r7, pc}
 189              	.L10:
 190 0016 C046     		.align	2
 191              	.L9:
 192 0018 04040440 		.word	1074004996
 193              		.cfi_endproc
 194              	.LFE2:
 195              		.size	Shift_Solenoids_Read, .-Shift_Solenoids_Read
 196              		.section	.text.Shift_Solenoids_ReadDataReg,"ax",%progbits
 197              		.align	2
 198              		.global	Shift_Solenoids_ReadDataReg
 199              		.code	16
 200              		.thumb_func
 201              		.type	Shift_Solenoids_ReadDataReg, %function
 202              	Shift_Solenoids_ReadDataReg:
 203              	.LFB3:
 104:.\Generated_Source\PSoC4/Shift_Solenoids.c **** 
 105:.\Generated_Source\PSoC4/Shift_Solenoids.c **** 
 106:.\Generated_Source\PSoC4/Shift_Solenoids.c **** /*******************************************************************************
 107:.\Generated_Source\PSoC4/Shift_Solenoids.c **** * Function Name: Shift_Solenoids_ReadDataReg
 108:.\Generated_Source\PSoC4/Shift_Solenoids.c **** ********************************************************************************
 109:.\Generated_Source\PSoC4/Shift_Solenoids.c **** *
 110:.\Generated_Source\PSoC4/Shift_Solenoids.c **** * Summary:
 111:.\Generated_Source\PSoC4/Shift_Solenoids.c **** *  Read the current value assigned to a Digital Port's data output register
 112:.\Generated_Source\PSoC4/Shift_Solenoids.c **** *
 113:.\Generated_Source\PSoC4/Shift_Solenoids.c **** * Parameters:  
 114:.\Generated_Source\PSoC4/Shift_Solenoids.c **** *  None 
 115:.\Generated_Source\PSoC4/Shift_Solenoids.c **** *
 116:.\Generated_Source\PSoC4/Shift_Solenoids.c **** * Return: 
 117:.\Generated_Source\PSoC4/Shift_Solenoids.c **** *  Returns the current value assigned to the Digital Port's data output register
 118:.\Generated_Source\PSoC4/Shift_Solenoids.c **** *  
 119:.\Generated_Source\PSoC4/Shift_Solenoids.c **** *******************************************************************************/
 120:.\Generated_Source\PSoC4/Shift_Solenoids.c **** uint8 Shift_Solenoids_ReadDataReg(void) 
 121:.\Generated_Source\PSoC4/Shift_Solenoids.c **** {
 204              		.loc 1 121 0
 205              		.cfi_startproc
 206 0000 80B5     		push	{r7, lr}
 207              		.cfi_def_cfa_offset 8
 208              		.cfi_offset 7, -8
 209              		.cfi_offset 14, -4
 210 0002 00AF     		add	r7, sp, #0
 211              		.cfi_def_cfa_register 7
 122:.\Generated_Source\PSoC4/Shift_Solenoids.c ****     return (uint8)((Shift_Solenoids_DR & Shift_Solenoids_MASK) >> Shift_Solenoids_SHIFT);
 212              		.loc 1 122 0
 213 0004 044B     		ldr	r3, .L13
 214 0006 1B68     		ldr	r3, [r3]
 215 0008 DAB2     		uxtb	r2, r3
 216 000a 0F23     		mov	r3, #15
 217 000c 1340     		and	r3, r2
 218 000e DBB2     		uxtb	r3, r3
 123:.\Generated_Source\PSoC4/Shift_Solenoids.c **** }
 219              		.loc 1 123 0
ARM GAS  C:\Users\Eric\AppData\Local\Temp\ccv2Jp5V.s 			page 7


 220 0010 181C     		mov	r0, r3
 221 0012 BD46     		mov	sp, r7
 222              		@ sp needed
 223 0014 80BD     		pop	{r7, pc}
 224              	.L14:
 225 0016 C046     		.align	2
 226              	.L13:
 227 0018 00040440 		.word	1074004992
 228              		.cfi_endproc
 229              	.LFE3:
 230              		.size	Shift_Solenoids_ReadDataReg, .-Shift_Solenoids_ReadDataReg
 231              		.section	.text.Shift_Solenoids_ClearInterrupt,"ax",%progbits
 232              		.align	2
 233              		.global	Shift_Solenoids_ClearInterrupt
 234              		.code	16
 235              		.thumb_func
 236              		.type	Shift_Solenoids_ClearInterrupt, %function
 237              	Shift_Solenoids_ClearInterrupt:
 238              	.LFB4:
 124:.\Generated_Source\PSoC4/Shift_Solenoids.c **** 
 125:.\Generated_Source\PSoC4/Shift_Solenoids.c **** 
 126:.\Generated_Source\PSoC4/Shift_Solenoids.c **** /* If Interrupts Are Enabled for this Pins component */ 
 127:.\Generated_Source\PSoC4/Shift_Solenoids.c **** #if defined(Shift_Solenoids_INTSTAT) 
 128:.\Generated_Source\PSoC4/Shift_Solenoids.c **** 
 129:.\Generated_Source\PSoC4/Shift_Solenoids.c ****     /*******************************************************************************
 130:.\Generated_Source\PSoC4/Shift_Solenoids.c ****     * Function Name: Shift_Solenoids_ClearInterrupt
 131:.\Generated_Source\PSoC4/Shift_Solenoids.c ****     ********************************************************************************
 132:.\Generated_Source\PSoC4/Shift_Solenoids.c ****     *
 133:.\Generated_Source\PSoC4/Shift_Solenoids.c ****     * Summary:
 134:.\Generated_Source\PSoC4/Shift_Solenoids.c ****     *  Clears any active interrupts attached to port and returns the value of the 
 135:.\Generated_Source\PSoC4/Shift_Solenoids.c ****     *  interrupt status register.
 136:.\Generated_Source\PSoC4/Shift_Solenoids.c ****     *
 137:.\Generated_Source\PSoC4/Shift_Solenoids.c ****     * Parameters:  
 138:.\Generated_Source\PSoC4/Shift_Solenoids.c ****     *  None 
 139:.\Generated_Source\PSoC4/Shift_Solenoids.c ****     *
 140:.\Generated_Source\PSoC4/Shift_Solenoids.c ****     * Return: 
 141:.\Generated_Source\PSoC4/Shift_Solenoids.c ****     *  Returns the value of the interrupt status register
 142:.\Generated_Source\PSoC4/Shift_Solenoids.c ****     *  
 143:.\Generated_Source\PSoC4/Shift_Solenoids.c ****     *******************************************************************************/
 144:.\Generated_Source\PSoC4/Shift_Solenoids.c ****     uint8 Shift_Solenoids_ClearInterrupt(void) 
 145:.\Generated_Source\PSoC4/Shift_Solenoids.c ****     {
 239              		.loc 1 145 0
 240              		.cfi_startproc
 241 0000 80B5     		push	{r7, lr}
 242              		.cfi_def_cfa_offset 8
 243              		.cfi_offset 7, -8
 244              		.cfi_offset 14, -4
 245 0002 82B0     		sub	sp, sp, #8
 246              		.cfi_def_cfa_offset 16
 247 0004 00AF     		add	r7, sp, #0
 248              		.cfi_def_cfa_register 7
 146:.\Generated_Source\PSoC4/Shift_Solenoids.c **** 		uint8 maskedStatus = (uint8)(Shift_Solenoids_INTSTAT & Shift_Solenoids_MASK);
 249              		.loc 1 146 0
 250 0006 084B     		ldr	r3, .L17
 251 0008 1B68     		ldr	r3, [r3]
 252 000a D9B2     		uxtb	r1, r3
 253 000c FB1D     		add	r3, r7, #7
ARM GAS  C:\Users\Eric\AppData\Local\Temp\ccv2Jp5V.s 			page 8


 254 000e 0F22     		mov	r2, #15
 255 0010 0A40     		and	r2, r1
 256 0012 1A70     		strb	r2, [r3]
 147:.\Generated_Source\PSoC4/Shift_Solenoids.c **** 		Shift_Solenoids_INTSTAT = maskedStatus;
 257              		.loc 1 147 0
 258 0014 044B     		ldr	r3, .L17
 259 0016 FA1D     		add	r2, r7, #7
 260 0018 1278     		ldrb	r2, [r2]
 261 001a 1A60     		str	r2, [r3]
 148:.\Generated_Source\PSoC4/Shift_Solenoids.c ****         return maskedStatus >> Shift_Solenoids_SHIFT;
 262              		.loc 1 148 0
 263 001c FB1D     		add	r3, r7, #7
 264 001e 1B78     		ldrb	r3, [r3]
 149:.\Generated_Source\PSoC4/Shift_Solenoids.c ****     }
 265              		.loc 1 149 0
 266 0020 181C     		mov	r0, r3
 267 0022 BD46     		mov	sp, r7
 268 0024 02B0     		add	sp, sp, #8
 269              		@ sp needed
 270 0026 80BD     		pop	{r7, pc}
 271              	.L18:
 272              		.align	2
 273              	.L17:
 274 0028 10040440 		.word	1074005008
 275              		.cfi_endproc
 276              	.LFE4:
 277              		.size	Shift_Solenoids_ClearInterrupt, .-Shift_Solenoids_ClearInterrupt
 278              		.text
 279              	.Letext0:
 280              		.file 2 ".\\Generated_Source\\PSoC4\\cytypes.h"