ARM GAS  C:\Users\CHRIST~1\AppData\Local\Temp\cc8KQrfd.s 			page 1


   1              		.cpu cortex-m0
   2              		.fpu softvfp
   3              		.eabi_attribute 20, 1
   4              		.eabi_attribute 21, 1
   5              		.eabi_attribute 23, 3
   6              		.eabi_attribute 24, 1
   7              		.eabi_attribute 25, 1
   8              		.eabi_attribute 26, 1
   9              		.eabi_attribute 30, 6
  10              		.eabi_attribute 34, 0
  11              		.eabi_attribute 18, 4
  12              		.code	16
  13              		.file	"CyLib.c"
  14              		.text
  15              	.Ltext0:
  16              		.cfi_sections	.debug_frame
  17              		.section	.text.CySysClkWcoSetHighPowerMode,"ax",%progbits
  18              		.align	2
  19              		.code	16
  20              		.thumb_func
  21              		.type	CySysClkWcoSetHighPowerMode, %function
  22              	CySysClkWcoSetHighPowerMode:
  23              	.LFB0:
  24              		.file 1 ".\\Generated_Source\\PSoC4\\CyLib.h"
   1:.\Generated_Source\PSoC4/CyLib.h **** /*******************************************************************************
   2:.\Generated_Source\PSoC4/CyLib.h **** * File Name: CyLib.h
   3:.\Generated_Source\PSoC4/CyLib.h **** * Version 4.20
   4:.\Generated_Source\PSoC4/CyLib.h **** *
   5:.\Generated_Source\PSoC4/CyLib.h **** *  Description:
   6:.\Generated_Source\PSoC4/CyLib.h **** *
   7:.\Generated_Source\PSoC4/CyLib.h **** *  Note:
   8:.\Generated_Source\PSoC4/CyLib.h **** *   Documentation of the API's in this file is located in the
   9:.\Generated_Source\PSoC4/CyLib.h **** *   System Reference Guide provided with PSoC Creator.
  10:.\Generated_Source\PSoC4/CyLib.h **** *
  11:.\Generated_Source\PSoC4/CyLib.h **** ********************************************************************************
  12:.\Generated_Source\PSoC4/CyLib.h **** * Copyright 2008-2014, Cypress Semiconductor Corporation.  All rights reserved.
  13:.\Generated_Source\PSoC4/CyLib.h **** * You may use this file only in accordance with the license, terms, conditions,
  14:.\Generated_Source\PSoC4/CyLib.h **** * disclaimers, and limitations in the end user license agreement accompanying
  15:.\Generated_Source\PSoC4/CyLib.h **** * the software package with which this file was provided.
  16:.\Generated_Source\PSoC4/CyLib.h **** *******************************************************************************/
  17:.\Generated_Source\PSoC4/CyLib.h **** 
  18:.\Generated_Source\PSoC4/CyLib.h **** #if !defined(CY_BOOT_CYLIB_H)
  19:.\Generated_Source\PSoC4/CyLib.h **** #define CY_BOOT_CYLIB_H
  20:.\Generated_Source\PSoC4/CyLib.h **** 
  21:.\Generated_Source\PSoC4/CyLib.h **** #include "cytypes.h"
  22:.\Generated_Source\PSoC4/CyLib.h **** #include "cydevice_trm.h"
  23:.\Generated_Source\PSoC4/CyLib.h **** 
  24:.\Generated_Source\PSoC4/CyLib.h **** #include <string.h>
  25:.\Generated_Source\PSoC4/CyLib.h **** #include <limits.h>
  26:.\Generated_Source\PSoC4/CyLib.h **** #include <ctype.h>
  27:.\Generated_Source\PSoC4/CyLib.h **** 
  28:.\Generated_Source\PSoC4/CyLib.h **** 
  29:.\Generated_Source\PSoC4/CyLib.h **** /***************************************
  30:.\Generated_Source\PSoC4/CyLib.h **** *    Function Prototypes
  31:.\Generated_Source\PSoC4/CyLib.h **** ***************************************/
  32:.\Generated_Source\PSoC4/CyLib.h **** 
  33:.\Generated_Source\PSoC4/CyLib.h **** /* Clocks API */
ARM GAS  C:\Users\CHRIST~1\AppData\Local\Temp\cc8KQrfd.s 			page 2


  34:.\Generated_Source\PSoC4/CyLib.h **** void CySysClkImoStart(void);
  35:.\Generated_Source\PSoC4/CyLib.h **** void CySysClkImoStop(void);
  36:.\Generated_Source\PSoC4/CyLib.h **** void CySysClkIloStart(void);
  37:.\Generated_Source\PSoC4/CyLib.h **** void CySysClkIloStop(void);
  38:.\Generated_Source\PSoC4/CyLib.h **** void CySysClkWriteHfclkDirect(uint32 clkSelect);
  39:.\Generated_Source\PSoC4/CyLib.h **** 
  40:.\Generated_Source\PSoC4/CyLib.h **** #if !(CY_PSOC4_4100 || CY_PSOC4_4200)
  41:.\Generated_Source\PSoC4/CyLib.h ****     void CySysClkWriteHfclkDiv(uint32 divider);
  42:.\Generated_Source\PSoC4/CyLib.h **** #endif /* !(CY_PSOC4_4100 || CY_PSOC4_4200) */
  43:.\Generated_Source\PSoC4/CyLib.h **** 
  44:.\Generated_Source\PSoC4/CyLib.h **** void CySysClkWriteSysclkDiv(uint32 divider);
  45:.\Generated_Source\PSoC4/CyLib.h **** void CySysClkWriteImoFreq(uint32 freq);
  46:.\Generated_Source\PSoC4/CyLib.h **** 
  47:.\Generated_Source\PSoC4/CyLib.h **** #if (CY_IP_WCO)
  48:.\Generated_Source\PSoC4/CyLib.h ****     void CySysClkSetLfclkSource(uint32 source);
  49:.\Generated_Source\PSoC4/CyLib.h **** #endif /* (CY_IP_WCO) */
  50:.\Generated_Source\PSoC4/CyLib.h **** 
  51:.\Generated_Source\PSoC4/CyLib.h **** #if (CY_PSOC4_4100BL || CY_PSOC4_4200BL)
  52:.\Generated_Source\PSoC4/CyLib.h ****     void CySysClkWriteEcoDiv(uint32 divider);
  53:.\Generated_Source\PSoC4/CyLib.h **** #endif /* (CY_PSOC4_4100BL || CY_PSOC4_4200BL) */
  54:.\Generated_Source\PSoC4/CyLib.h **** 
  55:.\Generated_Source\PSoC4/CyLib.h **** 
  56:.\Generated_Source\PSoC4/CyLib.h **** #if(CY_IP_SRSSV2)
  57:.\Generated_Source\PSoC4/CyLib.h ****     /* WDT API */
  58:.\Generated_Source\PSoC4/CyLib.h ****     void   CySysWdtLock(void);
  59:.\Generated_Source\PSoC4/CyLib.h ****     void   CySysWdtUnlock(void);
  60:.\Generated_Source\PSoC4/CyLib.h ****     void   CySysWdtWriteMode(uint32 counterNum, uint32 mode);
  61:.\Generated_Source\PSoC4/CyLib.h ****     uint32 CySysWdtReadMode(uint32 counterNum);
  62:.\Generated_Source\PSoC4/CyLib.h ****     uint32 CySysWdtReadEnabledStatus(uint32 counterNum);
  63:.\Generated_Source\PSoC4/CyLib.h ****     void   CySysWdtWriteClearOnMatch(uint32 counterNum, uint32 enable);
  64:.\Generated_Source\PSoC4/CyLib.h ****     uint32 CySysWdtReadClearOnMatch(uint32 counterNum);
  65:.\Generated_Source\PSoC4/CyLib.h ****     void   CySysWdtEnable(uint32 counterMask);
  66:.\Generated_Source\PSoC4/CyLib.h ****     void   CySysWdtDisable(uint32 counterMask);
  67:.\Generated_Source\PSoC4/CyLib.h ****     void   CySysWdtWriteCascade(uint32 cascadeMask);
  68:.\Generated_Source\PSoC4/CyLib.h ****     uint32 CySysWdtReadCascade(void);
  69:.\Generated_Source\PSoC4/CyLib.h ****     void   CySysWdtWriteMatch(uint32 counterNum, uint32 match);
  70:.\Generated_Source\PSoC4/CyLib.h ****     void   CySysWdtWriteToggleBit(uint32 bits);
  71:.\Generated_Source\PSoC4/CyLib.h ****     uint32 CySysWdtReadToggleBit(void);
  72:.\Generated_Source\PSoC4/CyLib.h ****     uint32 CySysWdtReadMatch(uint32 counterNum);
  73:.\Generated_Source\PSoC4/CyLib.h ****     uint32 CySysWdtReadCount(uint32 counterNum);
  74:.\Generated_Source\PSoC4/CyLib.h ****     uint32 CySysWdtGetInterruptSource(void);
  75:.\Generated_Source\PSoC4/CyLib.h ****     void   CySysWdtClearInterrupt(uint32 counterMask);
  76:.\Generated_Source\PSoC4/CyLib.h ****     void   CySysWdtResetCounters(uint32 countersMask);
  77:.\Generated_Source\PSoC4/CyLib.h **** #else
  78:.\Generated_Source\PSoC4/CyLib.h ****     /* WDT API */
  79:.\Generated_Source\PSoC4/CyLib.h ****     uint32 CySysWdtReadEnabledStatus(void);
  80:.\Generated_Source\PSoC4/CyLib.h ****     void   CySysWdtEnable(void);
  81:.\Generated_Source\PSoC4/CyLib.h ****     void   CySysWdtDisable(void);
  82:.\Generated_Source\PSoC4/CyLib.h ****     void   CySysWdtWriteMatch(uint32 match);
  83:.\Generated_Source\PSoC4/CyLib.h ****     uint32 CySysWdtReadMatch(void);
  84:.\Generated_Source\PSoC4/CyLib.h ****     uint32 CySysWdtReadCount(void);
  85:.\Generated_Source\PSoC4/CyLib.h ****     void   CySysWdtWriteIgnoreBits(uint32 bitsNum);
  86:.\Generated_Source\PSoC4/CyLib.h ****     uint32 CySysWdtReadIgnoreBits(void);
  87:.\Generated_Source\PSoC4/CyLib.h ****     void   CySysWdtClearInterrupt(void);
  88:.\Generated_Source\PSoC4/CyLib.h ****     void   CySysWdtMaskInterrupt(void);
  89:.\Generated_Source\PSoC4/CyLib.h ****     void   CySysWdtUnmaskInterrupt(void);
  90:.\Generated_Source\PSoC4/CyLib.h **** #endif  /* (CY_IP_SRSSV2) */
ARM GAS  C:\Users\CHRIST~1\AppData\Local\Temp\cc8KQrfd.s 			page 3


  91:.\Generated_Source\PSoC4/CyLib.h **** 
  92:.\Generated_Source\PSoC4/CyLib.h **** 
  93:.\Generated_Source\PSoC4/CyLib.h **** #if(CY_IP_SRSSV2)
  94:.\Generated_Source\PSoC4/CyLib.h ****     /* Low Voltage Detection */
  95:.\Generated_Source\PSoC4/CyLib.h ****     void   CySysLvdEnable(uint32 threshold);
  96:.\Generated_Source\PSoC4/CyLib.h ****     void   CySysLvdDisable(void);
  97:.\Generated_Source\PSoC4/CyLib.h ****     uint32 CySysLvdGetInterruptSource(void);
  98:.\Generated_Source\PSoC4/CyLib.h ****     void   CySysLvdClearInterrupt(void);
  99:.\Generated_Source\PSoC4/CyLib.h **** #endif  /* (CY_IP_SRSSV2) */
 100:.\Generated_Source\PSoC4/CyLib.h **** 
 101:.\Generated_Source\PSoC4/CyLib.h **** 
 102:.\Generated_Source\PSoC4/CyLib.h **** /* Interrupt Function Prototypes */
 103:.\Generated_Source\PSoC4/CyLib.h **** cyisraddress CyIntSetSysVector(uint8 number, cyisraddress address);
 104:.\Generated_Source\PSoC4/CyLib.h **** cyisraddress CyIntGetSysVector(uint8 number);
 105:.\Generated_Source\PSoC4/CyLib.h **** 
 106:.\Generated_Source\PSoC4/CyLib.h **** cyisraddress CyIntSetVector(uint8 number, cyisraddress address);
 107:.\Generated_Source\PSoC4/CyLib.h **** cyisraddress CyIntGetVector(uint8 number);
 108:.\Generated_Source\PSoC4/CyLib.h **** 
 109:.\Generated_Source\PSoC4/CyLib.h **** void   CyIntSetPriority(uint8 number, uint8 priority);
 110:.\Generated_Source\PSoC4/CyLib.h **** uint8  CyIntGetPriority(uint8 number);
 111:.\Generated_Source\PSoC4/CyLib.h **** 
 112:.\Generated_Source\PSoC4/CyLib.h **** void   CyIntEnable(uint8 number);
 113:.\Generated_Source\PSoC4/CyLib.h **** uint8  CyIntGetState(uint8 number);
 114:.\Generated_Source\PSoC4/CyLib.h **** void   CyIntDisable(uint8 number);
 115:.\Generated_Source\PSoC4/CyLib.h **** 
 116:.\Generated_Source\PSoC4/CyLib.h **** void   CyIntSetPending(uint8 number);
 117:.\Generated_Source\PSoC4/CyLib.h **** void   CyIntClearPending(uint8 number);
 118:.\Generated_Source\PSoC4/CyLib.h **** 
 119:.\Generated_Source\PSoC4/CyLib.h **** uint32 CyDisableInts(void);
 120:.\Generated_Source\PSoC4/CyLib.h **** void   CyEnableInts(uint32 mask);
 121:.\Generated_Source\PSoC4/CyLib.h **** 
 122:.\Generated_Source\PSoC4/CyLib.h **** /* System Function Prototypes */
 123:.\Generated_Source\PSoC4/CyLib.h **** void  CyDelay(uint32 milliseconds);
 124:.\Generated_Source\PSoC4/CyLib.h **** void  CyDelayUs(uint16 microseconds);
 125:.\Generated_Source\PSoC4/CyLib.h **** void  CyDelayFreq(uint32 freq);
 126:.\Generated_Source\PSoC4/CyLib.h **** void  CyDelayCycles(uint32 cycles);
 127:.\Generated_Source\PSoC4/CyLib.h **** 
 128:.\Generated_Source\PSoC4/CyLib.h **** /* General APIs */
 129:.\Generated_Source\PSoC4/CyLib.h **** void  CySoftwareReset(void);
 130:.\Generated_Source\PSoC4/CyLib.h **** uint8 CyEnterCriticalSection(void);
 131:.\Generated_Source\PSoC4/CyLib.h **** void  CyExitCriticalSection(uint8 savedIntrStatus);
 132:.\Generated_Source\PSoC4/CyLib.h **** void  CyHalt(uint8 reason);
 133:.\Generated_Source\PSoC4/CyLib.h **** uint32 CySysGetResetReason(uint32 reason);
 134:.\Generated_Source\PSoC4/CyLib.h **** 
 135:.\Generated_Source\PSoC4/CyLib.h **** /* Default interrupt handler */
 136:.\Generated_Source\PSoC4/CyLib.h **** CY_ISR_PROTO(IntDefaultHandler);
 137:.\Generated_Source\PSoC4/CyLib.h **** 
 138:.\Generated_Source\PSoC4/CyLib.h **** /* System tick timer APIs */
 139:.\Generated_Source\PSoC4/CyLib.h **** typedef void (*cySysTickCallback)(void);
 140:.\Generated_Source\PSoC4/CyLib.h **** 
 141:.\Generated_Source\PSoC4/CyLib.h **** void CySysTickStart(void);
 142:.\Generated_Source\PSoC4/CyLib.h **** void CySysTickInit(void);
 143:.\Generated_Source\PSoC4/CyLib.h **** void CySysTickEnable(void);
 144:.\Generated_Source\PSoC4/CyLib.h **** void CySysTickStop(void);
 145:.\Generated_Source\PSoC4/CyLib.h **** void CySysTickEnableInterrupt(void);
 146:.\Generated_Source\PSoC4/CyLib.h **** void CySysTickDisableInterrupt(void);
 147:.\Generated_Source\PSoC4/CyLib.h **** void CySysTickSetReload(uint32 value);
ARM GAS  C:\Users\CHRIST~1\AppData\Local\Temp\cc8KQrfd.s 			page 4


 148:.\Generated_Source\PSoC4/CyLib.h **** uint32 CySysTickGetReload(void);
 149:.\Generated_Source\PSoC4/CyLib.h **** uint32 CySysTickGetValue(void);
 150:.\Generated_Source\PSoC4/CyLib.h **** cySysTickCallback CySysTickSetCallback(uint32 number, cySysTickCallback function);
 151:.\Generated_Source\PSoC4/CyLib.h **** cySysTickCallback CySysTickGetCallback(uint32 number);
 152:.\Generated_Source\PSoC4/CyLib.h **** 
 153:.\Generated_Source\PSoC4/CyLib.h **** #if(CY_PSOC4_4100BL || CY_PSOC4_4200BL || CY_PSOC5)
 154:.\Generated_Source\PSoC4/CyLib.h ****     void CySysTickSetClockSource(uint32 clockSource);
 155:.\Generated_Source\PSoC4/CyLib.h **** #endif /* (CY_PSOC4_4100BL || CY_PSOC4_4200BL || CY_PSOC5) */
 156:.\Generated_Source\PSoC4/CyLib.h **** 
 157:.\Generated_Source\PSoC4/CyLib.h **** uint32 CySysTickGetCountFlag(void);
 158:.\Generated_Source\PSoC4/CyLib.h **** void CySysTickClear(void);
 159:.\Generated_Source\PSoC4/CyLib.h **** extern uint32 CySysTickInitVar;
 160:.\Generated_Source\PSoC4/CyLib.h **** 
 161:.\Generated_Source\PSoC4/CyLib.h **** /* Do not use these definitions directly in your application */
 162:.\Generated_Source\PSoC4/CyLib.h **** extern uint32 cydelayFreqHz;
 163:.\Generated_Source\PSoC4/CyLib.h **** extern uint32 cydelayFreqKhz;
 164:.\Generated_Source\PSoC4/CyLib.h **** extern uint8  cydelayFreqMhz;
 165:.\Generated_Source\PSoC4/CyLib.h **** extern uint32 cydelay32kMs;
 166:.\Generated_Source\PSoC4/CyLib.h **** 
 167:.\Generated_Source\PSoC4/CyLib.h **** #if (CY_PSOC4_4100BL || CY_PSOC4_4200BL)
 168:.\Generated_Source\PSoC4/CyLib.h ****     cystatus CySysClkEcoStart(uint32 timeoutUs);
 169:.\Generated_Source\PSoC4/CyLib.h ****     void     CySysClkEcoStop(void);
 170:.\Generated_Source\PSoC4/CyLib.h ****     uint32   CySysClkEcoReadStatus(void);
 171:.\Generated_Source\PSoC4/CyLib.h **** #endif  /* (CY_PSOC4_4100BL || CY_PSOC4_4200BL) */
 172:.\Generated_Source\PSoC4/CyLib.h **** 
 173:.\Generated_Source\PSoC4/CyLib.h **** #if (CY_IP_WCO)
 174:.\Generated_Source\PSoC4/CyLib.h ****     void   CySysClkWcoStart(void);
 175:.\Generated_Source\PSoC4/CyLib.h ****     void   CySysClkWcoStop(void);
 176:.\Generated_Source\PSoC4/CyLib.h ****     uint32 CySysClkWcoSetPowerMode(uint32 mode);
 177:.\Generated_Source\PSoC4/CyLib.h ****     static CY_INLINE void CySysClkWcoSetHighPowerMode(void);
 178:.\Generated_Source\PSoC4/CyLib.h ****     static CY_INLINE void CySysClkWcoSetLowPowerMode(void);
 179:.\Generated_Source\PSoC4/CyLib.h **** #endif  /* (CY_IP_WCO) */
 180:.\Generated_Source\PSoC4/CyLib.h **** 
 181:.\Generated_Source\PSoC4/CyLib.h **** 
 182:.\Generated_Source\PSoC4/CyLib.h **** #if(CY_IP_SRSSV2)
 183:.\Generated_Source\PSoC4/CyLib.h ****     /* CySysClkLfclkPosedgeCatch() / CySysClkLfclkPosedgeRestore() */
 184:.\Generated_Source\PSoC4/CyLib.h ****     extern uint32 lfclkPosedgeWdtCounter0Enabled;
 185:.\Generated_Source\PSoC4/CyLib.h ****     extern uint32 lfclkPosedgeEnabledWdtCounter;
 186:.\Generated_Source\PSoC4/CyLib.h ****     extern uint32 lfclkPosedgeWdtCounter0Mode;
 187:.\Generated_Source\PSoC4/CyLib.h **** #endif /* (CY_IP_SRSSV2) */
 188:.\Generated_Source\PSoC4/CyLib.h **** 
 189:.\Generated_Source\PSoC4/CyLib.h **** 
 190:.\Generated_Source\PSoC4/CyLib.h **** /***************************************
 191:.\Generated_Source\PSoC4/CyLib.h **** * API Constants
 192:.\Generated_Source\PSoC4/CyLib.h **** ***************************************/
 193:.\Generated_Source\PSoC4/CyLib.h **** 
 194:.\Generated_Source\PSoC4/CyLib.h **** 
 195:.\Generated_Source\PSoC4/CyLib.h **** /*******************************************************************************
 196:.\Generated_Source\PSoC4/CyLib.h **** * Clock API Constants
 197:.\Generated_Source\PSoC4/CyLib.h **** *******************************************************************************/
 198:.\Generated_Source\PSoC4/CyLib.h **** 
 199:.\Generated_Source\PSoC4/CyLib.h **** /* CySysClkWriteHfclkDirect() - implementation definitions */
 200:.\Generated_Source\PSoC4/CyLib.h **** #if(CY_IP_SRSSV2)
 201:.\Generated_Source\PSoC4/CyLib.h ****     #define CY_SYS_CLK_SELECT_DIRECT_SEL_MASK           (( uint32 ) 0x07u)
 202:.\Generated_Source\PSoC4/CyLib.h ****     #if (CY_PSOC4_4100BL || CY_PSOC4_4200BL)
 203:.\Generated_Source\PSoC4/CyLib.h ****         /* The ECO is the valid option */
 204:.\Generated_Source\PSoC4/CyLib.h ****         #define CY_SYS_CLK_SELECT_DIRECT_SEL_PARAM_MASK     (( uint32 ) 0x03u)
ARM GAS  C:\Users\CHRIST~1\AppData\Local\Temp\cc8KQrfd.s 			page 5


 205:.\Generated_Source\PSoC4/CyLib.h ****     #else
 206:.\Generated_Source\PSoC4/CyLib.h ****         #define CY_SYS_CLK_SELECT_DIRECT_SEL_PARAM_MASK     (( uint32 ) 0x01u)
 207:.\Generated_Source\PSoC4/CyLib.h ****     #endif  /* (CY_PSOC4_4100BL || CY_PSOC4_4200BL) */
 208:.\Generated_Source\PSoC4/CyLib.h **** #else
 209:.\Generated_Source\PSoC4/CyLib.h ****     #define CY_SYS_CLK_SELECT_DIRECT_SEL_MASK           (( uint32 ) 0x03u)
 210:.\Generated_Source\PSoC4/CyLib.h ****     #define CY_SYS_CLK_SELECT_DIRECT_SEL_PARAM_MASK     (CY_SYS_CLK_SELECT_DIRECT_SEL_MASK)
 211:.\Generated_Source\PSoC4/CyLib.h **** #endif  /* (CY_IP_SRSSV2) */
 212:.\Generated_Source\PSoC4/CyLib.h **** 
 213:.\Generated_Source\PSoC4/CyLib.h **** /* CySysClkWriteHfclkDirect() - parameter definitions */
 214:.\Generated_Source\PSoC4/CyLib.h **** #define CY_SYS_CLK_HFCLK_IMO                            (0u)
 215:.\Generated_Source\PSoC4/CyLib.h **** #define CY_SYS_CLK_HFCLK_EXTCLK                         (1u)
 216:.\Generated_Source\PSoC4/CyLib.h **** #if (CY_PSOC4_4100BL || CY_PSOC4_4200BL)
 217:.\Generated_Source\PSoC4/CyLib.h ****     #define CY_SYS_CLK_HFCLK_ECO                        (2u)
 218:.\Generated_Source\PSoC4/CyLib.h **** #endif  /* (CY_PSOC4_4100BL || CY_PSOC4_4200BL) */
 219:.\Generated_Source\PSoC4/CyLib.h **** 
 220:.\Generated_Source\PSoC4/CyLib.h **** /* CySysClkWriteSysclkDiv() - parameter definitions */
 221:.\Generated_Source\PSoC4/CyLib.h **** #define CY_SYS_CLK_SYSCLK_DIV1                          (0u)
 222:.\Generated_Source\PSoC4/CyLib.h **** #define CY_SYS_CLK_SYSCLK_DIV2                          (1u)
 223:.\Generated_Source\PSoC4/CyLib.h **** #define CY_SYS_CLK_SYSCLK_DIV4                          (2u)
 224:.\Generated_Source\PSoC4/CyLib.h **** #define CY_SYS_CLK_SYSCLK_DIV8                          (3u)
 225:.\Generated_Source\PSoC4/CyLib.h **** #if(CY_IP_SRSSV2)
 226:.\Generated_Source\PSoC4/CyLib.h ****     #define CY_SYS_CLK_SYSCLK_DIV16                     (4u)
 227:.\Generated_Source\PSoC4/CyLib.h ****     #define CY_SYS_CLK_SYSCLK_DIV32                     (5u)
 228:.\Generated_Source\PSoC4/CyLib.h ****     #define CY_SYS_CLK_SYSCLK_DIV64                     (6u)
 229:.\Generated_Source\PSoC4/CyLib.h ****     #define CY_SYS_CLK_SYSCLK_DIV128                    (7u)
 230:.\Generated_Source\PSoC4/CyLib.h **** #endif  /* (CY_IP_SRSSV2) */
 231:.\Generated_Source\PSoC4/CyLib.h **** 
 232:.\Generated_Source\PSoC4/CyLib.h **** 
 233:.\Generated_Source\PSoC4/CyLib.h **** /* CySysClkWriteSysclkDiv() - implementation definitions */
 234:.\Generated_Source\PSoC4/CyLib.h **** #if(CY_IP_SRSSV2)
 235:.\Generated_Source\PSoC4/CyLib.h ****     #define CY_SYS_CLK_SELECT_SYSCLK_DIV_SHIFT          (19u)
 236:.\Generated_Source\PSoC4/CyLib.h ****     #define CY_SYS_CLK_SELECT_SYSCLK_DIV_MASK           (( uint32 )0x07u)
 237:.\Generated_Source\PSoC4/CyLib.h **** #else
 238:.\Generated_Source\PSoC4/CyLib.h ****     #define CY_SYS_CLK_SELECT_SYSCLK_DIV_SHIFT          (6u)
 239:.\Generated_Source\PSoC4/CyLib.h ****     #define CY_SYS_CLK_SELECT_SYSCLK_DIV_MASK           (( uint32 )0x03u)
 240:.\Generated_Source\PSoC4/CyLib.h **** #endif  /* (CY_IP_SRSSV2) */
 241:.\Generated_Source\PSoC4/CyLib.h **** 
 242:.\Generated_Source\PSoC4/CyLib.h **** 
 243:.\Generated_Source\PSoC4/CyLib.h **** /* CySysClkWriteImoFreq() - implementation definitions */
 244:.\Generated_Source\PSoC4/CyLib.h **** #if(CY_IP_SRSSV2)
 245:.\Generated_Source\PSoC4/CyLib.h ****     #define CY_SYS_CLK_IMO_MAX_FREQ_MHZ                 (48u)
 246:.\Generated_Source\PSoC4/CyLib.h ****     #define CY_SYS_CLK_IMO_MIN_FREQ_MHZ                 (3u)
 247:.\Generated_Source\PSoC4/CyLib.h **** 
 248:.\Generated_Source\PSoC4/CyLib.h ****     #define CY_SYS_CLK_IMO_TEMP_FREQ_MHZ                (24u)
 249:.\Generated_Source\PSoC4/CyLib.h ****     #define CY_SYS_CLK_IMO_TEMP_FREQ_TRIM2              (0x19u)     /* Corresponds to 24 MHz */
 250:.\Generated_Source\PSoC4/CyLib.h **** 
 251:.\Generated_Source\PSoC4/CyLib.h ****     #define CY_SYS_CLK_IMO_BOUNDARY_FREQ_MHZ            (43u)
 252:.\Generated_Source\PSoC4/CyLib.h ****     #define CY_SYS_CLK_IMO_BOUNDARY_FREQ_TRIM2          (0x30u)     /* Corresponds to 43 MHz */
 253:.\Generated_Source\PSoC4/CyLib.h **** 
 254:.\Generated_Source\PSoC4/CyLib.h ****     #define CY_SYS_CLK_IMO_FREQ_TIMEOUT_CYCLES          (5u)
 255:.\Generated_Source\PSoC4/CyLib.h ****     #define CY_SYS_CLK_IMO_TRIM_TIMEOUT_US              (5u)
 256:.\Generated_Source\PSoC4/CyLib.h ****     #define CY_SYS_CLK_IMO_FREQ_TABLE_SIZE              (46u)
 257:.\Generated_Source\PSoC4/CyLib.h ****     #define CY_SYS_CLK_IMO_FREQ_TABLE_OFFSET            (3u)
 258:.\Generated_Source\PSoC4/CyLib.h ****     #define CY_SYS_CLK_IMO_FREQ_BITS_MASK               (( uint32 )0x3Fu)
 259:.\Generated_Source\PSoC4/CyLib.h ****     #define CY_SYS_CLK_IMO_FREQ_CLEAR                   (( uint32 )(CY_SYS_CLK_IMO_FREQ_BITS_MASK <
 260:.\Generated_Source\PSoC4/CyLib.h **** #else
 261:.\Generated_Source\PSoC4/CyLib.h ****     #define CY_SYS_CLK_IMO_MIN_FREQ_MHZ                 (24u)
ARM GAS  C:\Users\CHRIST~1\AppData\Local\Temp\cc8KQrfd.s 			page 6


 262:.\Generated_Source\PSoC4/CyLib.h ****     #define CY_SYS_CLK_IMO_MAX_FREQ_MHZ                 (48u)
 263:.\Generated_Source\PSoC4/CyLib.h ****     #define CY_SYS_CLK_IMO_STEP_SIZE_MASK               (0x03u)
 264:.\Generated_Source\PSoC4/CyLib.h ****     #define CY_SYS_CLK_IMO_TRIM1_OFFSET_MASK            (( uint32 )(0xFFu))
 265:.\Generated_Source\PSoC4/CyLib.h ****     #define CY_SYS_CLK_IMO_TRIM2_FSOFFSET_MASK          (( uint32 )(0x07u))
 266:.\Generated_Source\PSoC4/CyLib.h ****     #define CY_SYS_CLK_IMO_TRIM3_VALUES_MASK            (( uint32 )(0x7Fu))
 267:.\Generated_Source\PSoC4/CyLib.h ****     #define CY_SYS_CLK_IMO_SELECT_FREQ_MASK             (( uint32 )(0x07u))
 268:.\Generated_Source\PSoC4/CyLib.h ****     #define CY_SYS_CLK_IMO_SELECT_24MHZ                 (( uint32 )(0x00u))
 269:.\Generated_Source\PSoC4/CyLib.h **** 
 270:.\Generated_Source\PSoC4/CyLib.h ****     #define CY_SYS_CLK_IMO_TRIM_DELAY_US                (( uint32 )(50u))
 271:.\Generated_Source\PSoC4/CyLib.h **** #endif  /* (CY_IP_SRSSV2) */
 272:.\Generated_Source\PSoC4/CyLib.h **** 
 273:.\Generated_Source\PSoC4/CyLib.h **** 
 274:.\Generated_Source\PSoC4/CyLib.h **** #if(CY_IP_SRSSV2)
 275:.\Generated_Source\PSoC4/CyLib.h ****         /* Conversion between CySysClkWriteImoFreq() parameter and register's value */
 276:.\Generated_Source\PSoC4/CyLib.h ****         extern const uint8 cyImoFreqMhz2Reg[CY_SYS_CLK_IMO_FREQ_TABLE_SIZE];
 277:.\Generated_Source\PSoC4/CyLib.h **** #endif /* (CY_IP_SRSSV2) */
 278:.\Generated_Source\PSoC4/CyLib.h **** 
 279:.\Generated_Source\PSoC4/CyLib.h **** 
 280:.\Generated_Source\PSoC4/CyLib.h **** /* CySysClkImoStart()/CySysClkImoStop() - implementation definitions */
 281:.\Generated_Source\PSoC4/CyLib.h **** #define CY_SYS_CLK_IMO_CONFIG_ENABLE                    (( uint32 )(( uint32 )0x01u << 31u))
 282:.\Generated_Source\PSoC4/CyLib.h **** 
 283:.\Generated_Source\PSoC4/CyLib.h **** 
 284:.\Generated_Source\PSoC4/CyLib.h **** /* CySysClkIloStart()/CySysClkIloStop() - implementation definitions */
 285:.\Generated_Source\PSoC4/CyLib.h **** #define CY_SYS_CLK_ILO_CONFIG_ENABLE                    (( uint32 )(( uint32 )0x01u << 31u))
 286:.\Generated_Source\PSoC4/CyLib.h **** 
 287:.\Generated_Source\PSoC4/CyLib.h **** 
 288:.\Generated_Source\PSoC4/CyLib.h **** /* CySysClkSetLfclkSource() - parameter definitions */
 289:.\Generated_Source\PSoC4/CyLib.h **** #if (CY_IP_WCO)
 290:.\Generated_Source\PSoC4/CyLib.h ****     #define CY_SYS_CLK_LFCLK_SRC_ILO                    (0u)
 291:.\Generated_Source\PSoC4/CyLib.h ****     #define CY_SYS_CLK_LFCLK_SRC_WCO                    (( uint32 )(( uint32 )0x01u << 30u))
 292:.\Generated_Source\PSoC4/CyLib.h **** #endif /* (CY_IP_WCO) */
 293:.\Generated_Source\PSoC4/CyLib.h **** 
 294:.\Generated_Source\PSoC4/CyLib.h **** /* CySysClkSetLfclkSource() - implementation definitions */
 295:.\Generated_Source\PSoC4/CyLib.h **** #if (CY_IP_WCO)
 296:.\Generated_Source\PSoC4/CyLib.h ****     #define CY_SYS_CLK_LFCLK_SEL_MASK                   (( uint32 )(( uint32 )0x03u << 30u))
 297:.\Generated_Source\PSoC4/CyLib.h **** #endif /* (CY_IP_WCO) */
 298:.\Generated_Source\PSoC4/CyLib.h **** 
 299:.\Generated_Source\PSoC4/CyLib.h **** 
 300:.\Generated_Source\PSoC4/CyLib.h **** #if(CY_IP_SRSSLT)
 301:.\Generated_Source\PSoC4/CyLib.h ****     /* CySysClkWriteHfclkDiv() - parameter definitions */
 302:.\Generated_Source\PSoC4/CyLib.h ****     #define CY_SYS_CLK_HFCLK_DIV_NODIV                  (0u)
 303:.\Generated_Source\PSoC4/CyLib.h ****     #define CY_SYS_CLK_HFCLK_DIV_2                      (1u)
 304:.\Generated_Source\PSoC4/CyLib.h ****     #define CY_SYS_CLK_HFCLK_DIV_4                      (2u)
 305:.\Generated_Source\PSoC4/CyLib.h ****     #define CY_SYS_CLK_HFCLK_DIV_8                      (3u)
 306:.\Generated_Source\PSoC4/CyLib.h **** 
 307:.\Generated_Source\PSoC4/CyLib.h ****     /* CySysClkWriteHfclkDiv() - implementation definitions */
 308:.\Generated_Source\PSoC4/CyLib.h ****     #define CY_SYS_CLK_SELECT_HFCLK_DIV_SHIFT           (2u)
 309:.\Generated_Source\PSoC4/CyLib.h ****     #define CY_SYS_CLK_SELECT_HFCLK_DIV_MASK            (( uint32 )0x03u)
 310:.\Generated_Source\PSoC4/CyLib.h **** #endif  /* (CY_IP_SRSSLT) */
 311:.\Generated_Source\PSoC4/CyLib.h **** 
 312:.\Generated_Source\PSoC4/CyLib.h **** 
 313:.\Generated_Source\PSoC4/CyLib.h **** /* Operating source for Pump clock */
 314:.\Generated_Source\PSoC4/CyLib.h **** #if(CY_IP_SRSSV2)
 315:.\Generated_Source\PSoC4/CyLib.h ****     #define CY_SYS_CLK_IMO_CONFIG_PUMP_SEL_SHIFT        (25u)
 316:.\Generated_Source\PSoC4/CyLib.h ****     #define CY_SYS_CLK_IMO_CONFIG_PUMP_SEL_MASK         ((uint32) 0x07u)
 317:.\Generated_Source\PSoC4/CyLib.h ****     #define CY_SYS_CLK_IMO_CONFIG_PUMP_SEL_IMO          (1u)
 318:.\Generated_Source\PSoC4/CyLib.h **** 
ARM GAS  C:\Users\CHRIST~1\AppData\Local\Temp\cc8KQrfd.s 			page 7


 319:.\Generated_Source\PSoC4/CyLib.h **** 	#define CY_SYS_CLK_IMO_CONFIG_PUMP_OSC              (( uint32 )(( uint32 )0x01u << 22u))
 320:.\Generated_Source\PSoC4/CyLib.h **** #else /* CY_IP_SRSSLT */
 321:.\Generated_Source\PSoC4/CyLib.h ****     #define CY_SYS_CLK_SELECT_PUMP_SEL_SHIFT            (4u)
 322:.\Generated_Source\PSoC4/CyLib.h ****     #define CY_SYS_CLK_SELECT_PUMP_SEL_MASK             ((uint32) 0x03u)
 323:.\Generated_Source\PSoC4/CyLib.h ****     #define CY_SYS_CLK_SELECT_PUMP_SEL_IMO              (1u)
 324:.\Generated_Source\PSoC4/CyLib.h **** #endif  /* (CY_IP_SRSSLT) */
 325:.\Generated_Source\PSoC4/CyLib.h **** 
 326:.\Generated_Source\PSoC4/CyLib.h **** 
 327:.\Generated_Source\PSoC4/CyLib.h **** #if (CY_PSOC4_4100BL || CY_PSOC4_4200BL)
 328:.\Generated_Source\PSoC4/CyLib.h ****     /* Radio configuration register */
 329:.\Generated_Source\PSoC4/CyLib.h ****     #define CY_SYS_XTAL_BLESS_RF_CONFIG_RF_ENABLE       (( uint32 )0x01u)
 330:.\Generated_Source\PSoC4/CyLib.h **** 
 331:.\Generated_Source\PSoC4/CyLib.h ****     /* RFCTRL mode transition control */
 332:.\Generated_Source\PSoC4/CyLib.h ****     #define CY_SYS_XTAL_BLERD_DBUS_XTAL_ENABLE          (( uint32 )(( uint32 )0x01u << 15u))
 333:.\Generated_Source\PSoC4/CyLib.h **** 
 334:.\Generated_Source\PSoC4/CyLib.h ****     /* XO is oscillating status */
 335:.\Generated_Source\PSoC4/CyLib.h ****     #define CY_SYS_XTAL_BLERD_FSM_XO_AMP_DETECT         (( uint32 )0x01u)
 336:.\Generated_Source\PSoC4/CyLib.h **** 
 337:.\Generated_Source\PSoC4/CyLib.h ****     /* BB bump configuration 2 */
 338:.\Generated_Source\PSoC4/CyLib.h ****     #define CY_SYS_XTAL_BLERD_BB_XO_CAPTRIM_X1_MASK     (( uint32 )(( uint32 )0x7Fu <<  8u))
 339:.\Generated_Source\PSoC4/CyLib.h ****     #define CY_SYS_XTAL_BLERD_BB_XO_CAPTRIM_X2_MASK     (( uint32 )(( uint32 )0x7Fu <<  0u))
 340:.\Generated_Source\PSoC4/CyLib.h ****     #define CY_SYS_XTAL_BLERD_BB_XO_CAPTRIM_X1_ADD_CAP  (( uint32 )(( uint32 )0x01u << 15u))
 341:.\Generated_Source\PSoC4/CyLib.h ****     #define CY_SYS_XTAL_BLERD_BB_XO_CAPTRIM_X2_ADD_CAP  (( uint32 )(( uint32 )0x01u <<  7u))
 342:.\Generated_Source\PSoC4/CyLib.h **** 
 343:.\Generated_Source\PSoC4/CyLib.h ****     /* BB bump configuration 1 */
 344:.\Generated_Source\PSoC4/CyLib.h ****     #define CY_SYS_XTAL_BLERD_BB_XO_TRIM                ((uint32) 0x2002u)
 345:.\Generated_Source\PSoC4/CyLib.h **** 
 346:.\Generated_Source\PSoC4/CyLib.h ****     /* CySysClkWriteEcoDiv() - parameter definitions */
 347:.\Generated_Source\PSoC4/CyLib.h ****     #define CY_SYS_CLK_ECO_DIV1                         ((uint32) 0x00)
 348:.\Generated_Source\PSoC4/CyLib.h ****     #define CY_SYS_CLK_ECO_DIV2                         ((uint32) 0x01)
 349:.\Generated_Source\PSoC4/CyLib.h ****     #define CY_SYS_CLK_ECO_DIV4                         ((uint32) 0x02)
 350:.\Generated_Source\PSoC4/CyLib.h ****     #define CY_SYS_CLK_ECO_DIV8                         ((uint32) 0x03)
 351:.\Generated_Source\PSoC4/CyLib.h **** 
 352:.\Generated_Source\PSoC4/CyLib.h ****     /* CySysClkWriteEcoDiv() - implementation definitions */
 353:.\Generated_Source\PSoC4/CyLib.h ****     #define CY_SYS_CLK_XTAL_CLK_DIV_MASK                ((uint32) 0x03)
 354:.\Generated_Source\PSoC4/CyLib.h **** #endif  /* (CY_PSOC4_4100BL || CY_PSOC4_4200BL) */
 355:.\Generated_Source\PSoC4/CyLib.h **** 
 356:.\Generated_Source\PSoC4/CyLib.h **** #if (CY_IP_WCO)
 357:.\Generated_Source\PSoC4/CyLib.h ****     /* WCO Configuration Register */
 358:.\Generated_Source\PSoC4/CyLib.h ****     #define CY_SYS_CLK_WCO_CONFIG_LPM_EN                (( uint32 )(( uint32 )0x01u <<  0u))
 359:.\Generated_Source\PSoC4/CyLib.h ****     #define CY_SYS_CLK_WCO_CONFIG_LPM_AUTO              (( uint32 )(( uint32 )0x01u <<  1u))
 360:.\Generated_Source\PSoC4/CyLib.h ****     #define CY_SYS_CLK_WCO_CONFIG_LPM_ENABLE            (( uint32 )(( uint32 )0x01u << 31u))
 361:.\Generated_Source\PSoC4/CyLib.h **** 
 362:.\Generated_Source\PSoC4/CyLib.h ****     /* WCO Status Register */
 363:.\Generated_Source\PSoC4/CyLib.h ****     #define CY_SYS_CLK_WCO_STATUS_OUT_BLNK_A            (( uint32 )(( uint32 )0x01u <<  0u))
 364:.\Generated_Source\PSoC4/CyLib.h **** 
 365:.\Generated_Source\PSoC4/CyLib.h ****     /* WCO Trim Register */
 366:.\Generated_Source\PSoC4/CyLib.h ****     #define CY_SYS_CLK_WCO_TRIM_XGM_MASK                (( uint32 ) 0x07u)
 367:.\Generated_Source\PSoC4/CyLib.h ****     #define CY_SYS_CLK_WCO_TRIM_XGM_SHIFT               (( uint32 ) 0x00u)
 368:.\Generated_Source\PSoC4/CyLib.h **** 
 369:.\Generated_Source\PSoC4/CyLib.h ****     #define CY_SYS_CLK_WCO_TRIM_XGM_3370NA              (( uint32 ) 0x00u)
 370:.\Generated_Source\PSoC4/CyLib.h ****     #define CY_SYS_CLK_WCO_TRIM_XGM_2620NA              (( uint32 ) 0x01u)
 371:.\Generated_Source\PSoC4/CyLib.h ****     #define CY_SYS_CLK_WCO_TRIM_XGM_2250NA              (( uint32 ) 0x02u)
 372:.\Generated_Source\PSoC4/CyLib.h ****     #define CY_SYS_CLK_WCO_TRIM_XGM_1500NA              (( uint32 ) 0x03u)
 373:.\Generated_Source\PSoC4/CyLib.h ****     #define CY_SYS_CLK_WCO_TRIM_XGM_1870NA              (( uint32 ) 0x04u)
 374:.\Generated_Source\PSoC4/CyLib.h ****     #define CY_SYS_CLK_WCO_TRIM_XGM_1120NA              (( uint32 ) 0x05u)
 375:.\Generated_Source\PSoC4/CyLib.h ****     #define CY_SYS_CLK_WCO_TRIM_XGM_750NA               (( uint32 ) 0x06u)
ARM GAS  C:\Users\CHRIST~1\AppData\Local\Temp\cc8KQrfd.s 			page 8


 376:.\Generated_Source\PSoC4/CyLib.h ****     #define CY_SYS_CLK_WCO_TRIM_XGM_0NA                 (( uint32 ) 0x07u)
 377:.\Generated_Source\PSoC4/CyLib.h **** 
 378:.\Generated_Source\PSoC4/CyLib.h ****     #define CY_SYS_CLK_WCO_TRIM_GM_MASK                 (( uint32 )(( uint32 )0x03u << 4u))
 379:.\Generated_Source\PSoC4/CyLib.h ****     #define CY_SYS_CLK_WCO_TRIM_GM_SHIFT                (( uint32 ) 0x04u)
 380:.\Generated_Source\PSoC4/CyLib.h ****     #define CY_SYS_CLK_WCO_TRIM_GM_HPM                  (( uint32 ) 0x01u)
 381:.\Generated_Source\PSoC4/CyLib.h ****     #define CY_SYS_CLK_WCO_TRIM_GM_LPM                  (( uint32 ) 0x02u)
 382:.\Generated_Source\PSoC4/CyLib.h **** #endif  /* (CY_IP_WCO) */
 383:.\Generated_Source\PSoC4/CyLib.h **** 
 384:.\Generated_Source\PSoC4/CyLib.h **** 
 385:.\Generated_Source\PSoC4/CyLib.h **** /*******************************************************************************
 386:.\Generated_Source\PSoC4/CyLib.h **** * WDT API Constants
 387:.\Generated_Source\PSoC4/CyLib.h **** *******************************************************************************/
 388:.\Generated_Source\PSoC4/CyLib.h **** #if(CY_IP_SRSSV2)
 389:.\Generated_Source\PSoC4/CyLib.h ****     #define CY_SYS_WDT_MODE_NONE                (0u)
 390:.\Generated_Source\PSoC4/CyLib.h ****     #define CY_SYS_WDT_MODE_INT                 (1u)
 391:.\Generated_Source\PSoC4/CyLib.h ****     #define CY_SYS_WDT_MODE_RESET               (2u)
 392:.\Generated_Source\PSoC4/CyLib.h ****     #define CY_SYS_WDT_MODE_INT_RESET           (3u)
 393:.\Generated_Source\PSoC4/CyLib.h **** 
 394:.\Generated_Source\PSoC4/CyLib.h ****     #define CY_SYS_WDT_COUNTER0_MASK            ((uint32)((uint32)0x01u))
 395:.\Generated_Source\PSoC4/CyLib.h ****     #define CY_SYS_WDT_COUNTER1_MASK            ((uint32)((uint32)0x01u << 8u))
 396:.\Generated_Source\PSoC4/CyLib.h ****     #define CY_SYS_WDT_COUNTER2_MASK            ((uint32)((uint32)0x01u << 16u))
 397:.\Generated_Source\PSoC4/CyLib.h **** 
 398:.\Generated_Source\PSoC4/CyLib.h ****     #define CY_SYS_WDT_CASCADE_NONE             ((uint32)0x00u)
 399:.\Generated_Source\PSoC4/CyLib.h ****     #define CY_SYS_WDT_CASCADE_01               ((uint32)0x01u << 3u)
 400:.\Generated_Source\PSoC4/CyLib.h ****     #define CY_SYS_WDT_CASCADE_12               ((uint32)0x01u << 11u)
 401:.\Generated_Source\PSoC4/CyLib.h **** 
 402:.\Generated_Source\PSoC4/CyLib.h ****     #define CY_SYS_WDT_COUNTER0_INT             ((uint32)0x01u << 2u)
 403:.\Generated_Source\PSoC4/CyLib.h ****     #define CY_SYS_WDT_COUNTER1_INT             ((uint32)0x01u << 10u)
 404:.\Generated_Source\PSoC4/CyLib.h ****     #define CY_SYS_WDT_COUNTER2_INT             ((uint32)0x01u << 18u)
 405:.\Generated_Source\PSoC4/CyLib.h **** 
 406:.\Generated_Source\PSoC4/CyLib.h ****     #define CY_SYS_WDT_COUNTER0_RESET           ((uint32)0x01u << 3u)
 407:.\Generated_Source\PSoC4/CyLib.h ****     #define CY_SYS_WDT_COUNTER1_RESET           ((uint32)0x01u << 11u)
 408:.\Generated_Source\PSoC4/CyLib.h ****     #define CY_SYS_WDT_COUNTER2_RESET           ((uint32)0x01u << 19u)
 409:.\Generated_Source\PSoC4/CyLib.h **** 
 410:.\Generated_Source\PSoC4/CyLib.h ****     #define CY_SYS_WDT_COUNTER0                 (0x00u)
 411:.\Generated_Source\PSoC4/CyLib.h ****     #define CY_SYS_WDT_COUNTER1                 (0x01u)
 412:.\Generated_Source\PSoC4/CyLib.h ****     #define CY_SYS_WDT_COUNTER2                 (0x02u)
 413:.\Generated_Source\PSoC4/CyLib.h **** 
 414:.\Generated_Source\PSoC4/CyLib.h ****     #define CY_SYS_WDT_MODE_MASK                (uint32)(0x03u)
 415:.\Generated_Source\PSoC4/CyLib.h **** 
 416:.\Generated_Source\PSoC4/CyLib.h ****     #define CY_SYS_WDT_CLK_LOCK_BITS_MASK       ((uint32)0x03u << 14u)
 417:.\Generated_Source\PSoC4/CyLib.h ****     #define CY_SYS_WDT_CLK_LOCK_BIT0            ((uint32)0x01u << 14u)
 418:.\Generated_Source\PSoC4/CyLib.h ****     #define CY_SYS_WDT_CLK_LOCK_BIT1            ((uint32)0x01u << 15u)
 419:.\Generated_Source\PSoC4/CyLib.h **** 
 420:.\Generated_Source\PSoC4/CyLib.h ****     #define CY_SYS_WDT_CONFIG_BITS2_MASK        (uint32)(0x1Fu)
 421:.\Generated_Source\PSoC4/CyLib.h ****     #define CY_SYS_WDT_CONFIG_BITS2_POS         (uint32)(24u)
 422:.\Generated_Source\PSoC4/CyLib.h ****     #define CY_SYS_WDT_LOWER_16BITS_MASK        (uint32)(0xFFFFu)
 423:.\Generated_Source\PSoC4/CyLib.h ****     #define CY_SYS_WDT_COUNTERS_MAX             (0x03u)
 424:.\Generated_Source\PSoC4/CyLib.h ****     #define CY_SYS_WDT_CNT_SHIFT                (0x08u)
 425:.\Generated_Source\PSoC4/CyLib.h ****     #define CY_SYS_WDT_CNT_MATCH_CLR_SHIFT      (0x02u)
 426:.\Generated_Source\PSoC4/CyLib.h ****     #define CY_SYS_WDT_CNT_STTS_SHIFT           (0x01u)
 427:.\Generated_Source\PSoC4/CyLib.h ****     #define CY_SYS_WDT_CNT_MATCH_SHIFT          (0x10u)
 428:.\Generated_Source\PSoC4/CyLib.h **** 
 429:.\Generated_Source\PSoC4/CyLib.h **** 
 430:.\Generated_Source\PSoC4/CyLib.h ****     #if (CY_PSOC4_4100 || CY_PSOC4_4200)
 431:.\Generated_Source\PSoC4/CyLib.h ****         #define CY_SYS_WDT_1LFCLK_DELAY_US      ((uint16)( 67u))
 432:.\Generated_Source\PSoC4/CyLib.h ****         #define CY_SYS_WDT_3LFCLK_DELAY_US      ((uint16)(201u))
ARM GAS  C:\Users\CHRIST~1\AppData\Local\Temp\cc8KQrfd.s 			page 9


 433:.\Generated_Source\PSoC4/CyLib.h ****     #endif /* (CY_PSOC4_4100 || CY_PSOC4_4200) */
 434:.\Generated_Source\PSoC4/CyLib.h **** 
 435:.\Generated_Source\PSoC4/CyLib.h ****     #if (CY_PSOC4_4000)
 436:.\Generated_Source\PSoC4/CyLib.h ****         #define CY_SYS_WDT_1LFCLK_DELAY_US      ((uint16)( 50u))
 437:.\Generated_Source\PSoC4/CyLib.h ****         #define CY_SYS_WDT_3LFCLK_DELAY_US      ((uint16)(150u))
 438:.\Generated_Source\PSoC4/CyLib.h ****     #endif /* (CY_PSOC4_4000) */
 439:.\Generated_Source\PSoC4/CyLib.h **** 
 440:.\Generated_Source\PSoC4/CyLib.h ****     #if (CY_IP_WCO)
 441:.\Generated_Source\PSoC4/CyLib.h **** 
 442:.\Generated_Source\PSoC4/CyLib.h ****         #define CY_SYS_WDT_1LFCLK_DELAY_US      \
 443:.\Generated_Source\PSoC4/CyLib.h ****             ((CY_SYS_CLK_LFCLK_SRC_ILO == (CY_SYS_WDT_CONFIG_REG & CY_SYS_CLK_LFCLK_SEL_MASK)) ? \
 444:.\Generated_Source\PSoC4/CyLib.h ****                                                 ((uint16)(67u)) : \
 445:.\Generated_Source\PSoC4/CyLib.h ****                                                 ((uint16)(31u)))
 446:.\Generated_Source\PSoC4/CyLib.h **** 
 447:.\Generated_Source\PSoC4/CyLib.h ****         #define CY_SYS_WDT_3LFCLK_DELAY_US      \
 448:.\Generated_Source\PSoC4/CyLib.h ****             ((CY_SYS_CLK_LFCLK_SRC_ILO == (CY_SYS_WDT_CONFIG_REG & CY_SYS_CLK_LFCLK_SEL_MASK)) ? \
 449:.\Generated_Source\PSoC4/CyLib.h ****                                                 ((uint16)(201u)) : \
 450:.\Generated_Source\PSoC4/CyLib.h ****                                                 ((uint16)(93u)))
 451:.\Generated_Source\PSoC4/CyLib.h **** 
 452:.\Generated_Source\PSoC4/CyLib.h ****     #endif /* (CY_IP_WCO) */
 453:.\Generated_Source\PSoC4/CyLib.h **** 
 454:.\Generated_Source\PSoC4/CyLib.h **** #else
 455:.\Generated_Source\PSoC4/CyLib.h ****     #define CY_SYS_WDT_KEY                      ((uint32)(0xACED8865u))
 456:.\Generated_Source\PSoC4/CyLib.h ****     #define CY_SYS_WDT_MATCH_MASK               ((uint32)(0x0000FFFFu))
 457:.\Generated_Source\PSoC4/CyLib.h ****     #define CY_SYS_WDT_IGNORE_BITS_MASK         ((uint32)(0x000F0000u))
 458:.\Generated_Source\PSoC4/CyLib.h ****     #define CY_SYS_WDT_IGNORE_BITS_SHIFT        ((uint32)(16u))
 459:.\Generated_Source\PSoC4/CyLib.h ****     #define CY_SYS_WDT_LOWER_BIT_MASK           ((uint32)(0x00000001u))
 460:.\Generated_Source\PSoC4/CyLib.h **** #endif  /* (CY_IP_SRSSV2) */
 461:.\Generated_Source\PSoC4/CyLib.h **** 
 462:.\Generated_Source\PSoC4/CyLib.h **** 
 463:.\Generated_Source\PSoC4/CyLib.h **** /* CySysXTAL_32KHZ_SetPowerMode() */
 464:.\Generated_Source\PSoC4/CyLib.h **** #define CY_SYS_CLK_WCO_HPM                   (0x0u)
 465:.\Generated_Source\PSoC4/CyLib.h **** #define CY_SYS_CLK_WCO_LPM                   (0x1u)
 466:.\Generated_Source\PSoC4/CyLib.h **** 
 467:.\Generated_Source\PSoC4/CyLib.h **** 
 468:.\Generated_Source\PSoC4/CyLib.h **** /*******************************************************************************
 469:.\Generated_Source\PSoC4/CyLib.h **** * System API Constants
 470:.\Generated_Source\PSoC4/CyLib.h **** *******************************************************************************/
 471:.\Generated_Source\PSoC4/CyLib.h **** 
 472:.\Generated_Source\PSoC4/CyLib.h **** /* CySysGetResetReason() */
 473:.\Generated_Source\PSoC4/CyLib.h **** #define CY_SYS_RESET_WDT_SHIFT          (0u)
 474:.\Generated_Source\PSoC4/CyLib.h **** #define CY_SYS_RESET_PROTFAULT_SHIFT    (3u)
 475:.\Generated_Source\PSoC4/CyLib.h **** #define CY_SYS_RESET_SW_SHIFT           (4u)
 476:.\Generated_Source\PSoC4/CyLib.h **** 
 477:.\Generated_Source\PSoC4/CyLib.h **** #define CY_SYS_RESET_WDT                ((uint32)1u << CY_SYS_RESET_WDT_SHIFT      )
 478:.\Generated_Source\PSoC4/CyLib.h **** #define CY_SYS_RESET_PROTFAULT          ((uint32)1u << CY_SYS_RESET_PROTFAULT_SHIFT)
 479:.\Generated_Source\PSoC4/CyLib.h **** #define CY_SYS_RESET_SW                 ((uint32)1u << CY_SYS_RESET_SW_SHIFT       )
 480:.\Generated_Source\PSoC4/CyLib.h **** 
 481:.\Generated_Source\PSoC4/CyLib.h **** 
 482:.\Generated_Source\PSoC4/CyLib.h **** /* CySoftwareReset() - implementation definitions */
 483:.\Generated_Source\PSoC4/CyLib.h **** 
 484:.\Generated_Source\PSoC4/CyLib.h **** /* Vector Key */
 485:.\Generated_Source\PSoC4/CyLib.h **** #define CY_SYS_CM0_AIRCR_VECTKEY_SHIFT      (16u)
 486:.\Generated_Source\PSoC4/CyLib.h **** #define CY_SYS_CM0_AIRCR_VECTKEY            ((uint32)((uint32)0x05FAu << CY_SYS_CM0_AIRCR_VECTKEY_S
 487:.\Generated_Source\PSoC4/CyLib.h **** #define CY_SYS_CM0_AIRCR_VECTKEY_MASK       ((uint32)((uint32)0xFFFFu << CY_SYS_CM0_AIRCR_VECTKEY_S
 488:.\Generated_Source\PSoC4/CyLib.h **** 
 489:.\Generated_Source\PSoC4/CyLib.h **** /* System Reset Request */
ARM GAS  C:\Users\CHRIST~1\AppData\Local\Temp\cc8KQrfd.s 			page 10


 490:.\Generated_Source\PSoC4/CyLib.h **** #define CY_SYS_CM0_AIRCR_SYSRESETREQ_SHIFT  (2u)
 491:.\Generated_Source\PSoC4/CyLib.h **** #define CY_SYS_CM0_AIRCR_SYSRESETREQ        ((uint32)((uint32)1u << CY_SYS_CM0_AIRCR_SYSRESETREQ_SH
 492:.\Generated_Source\PSoC4/CyLib.h **** 
 493:.\Generated_Source\PSoC4/CyLib.h **** 
 494:.\Generated_Source\PSoC4/CyLib.h **** #if defined(__ARMCC_VERSION)
 495:.\Generated_Source\PSoC4/CyLib.h **** 
 496:.\Generated_Source\PSoC4/CyLib.h ****     #define CyGlobalIntEnable           do                      \
 497:.\Generated_Source\PSoC4/CyLib.h ****                                         {                       \
 498:.\Generated_Source\PSoC4/CyLib.h ****                                             __enable_irq();     \
 499:.\Generated_Source\PSoC4/CyLib.h ****                                         } while ( 0 )
 500:.\Generated_Source\PSoC4/CyLib.h **** 
 501:.\Generated_Source\PSoC4/CyLib.h ****     #define CyGlobalIntDisable          do                      \
 502:.\Generated_Source\PSoC4/CyLib.h ****                                         {                       \
 503:.\Generated_Source\PSoC4/CyLib.h ****                                             __disable_irq();    \
 504:.\Generated_Source\PSoC4/CyLib.h ****                                         } while ( 0 )
 505:.\Generated_Source\PSoC4/CyLib.h **** 
 506:.\Generated_Source\PSoC4/CyLib.h **** #elif defined(__GNUC__) || defined (__ICCARM__)
 507:.\Generated_Source\PSoC4/CyLib.h **** 
 508:.\Generated_Source\PSoC4/CyLib.h ****     #define CyGlobalIntEnable           do                      \
 509:.\Generated_Source\PSoC4/CyLib.h ****                                         {                       \
 510:.\Generated_Source\PSoC4/CyLib.h ****                                             __asm("CPSIE   i"); \
 511:.\Generated_Source\PSoC4/CyLib.h ****                                         } while ( 0 )
 512:.\Generated_Source\PSoC4/CyLib.h **** 
 513:.\Generated_Source\PSoC4/CyLib.h ****     #define CyGlobalIntDisable          do                      \
 514:.\Generated_Source\PSoC4/CyLib.h ****                                         {                       \
 515:.\Generated_Source\PSoC4/CyLib.h ****                                             __asm("CPSID   i"); \
 516:.\Generated_Source\PSoC4/CyLib.h ****                                         } while ( 0 )
 517:.\Generated_Source\PSoC4/CyLib.h **** #else
 518:.\Generated_Source\PSoC4/CyLib.h ****     #error No compiler toolchain defined
 519:.\Generated_Source\PSoC4/CyLib.h ****     #define CyGlobalIntEnable
 520:.\Generated_Source\PSoC4/CyLib.h ****     #define CyGlobalIntDisable
 521:.\Generated_Source\PSoC4/CyLib.h **** #endif  /* (__ARMCC_VERSION) */
 522:.\Generated_Source\PSoC4/CyLib.h **** 
 523:.\Generated_Source\PSoC4/CyLib.h **** /* System tick timer */
 524:.\Generated_Source\PSoC4/CyLib.h **** #define CY_SYS_SYST_CSR_ENABLE               ((uint32) (0x01u))
 525:.\Generated_Source\PSoC4/CyLib.h **** #define CY_SYS_SYST_CSR_ENABLE_INT           ((uint32) (0x02u))
 526:.\Generated_Source\PSoC4/CyLib.h **** #define CY_SYS_SYST_CSR_CLK_SOURCE_SHIFT     (0x02u)
 527:.\Generated_Source\PSoC4/CyLib.h **** #define CY_SYS_SYST_CSR_COUNTFLAG_SHIFT      (16u)
 528:.\Generated_Source\PSoC4/CyLib.h **** #define CY_SYS_SYST_CSR_CLK_SRC_SYSCLK       ((uint32) (1u))
 529:.\Generated_Source\PSoC4/CyLib.h **** #define CY_SYS_SYST_CSR_CLK_SRC_LFCLK        (0u)
 530:.\Generated_Source\PSoC4/CyLib.h **** #define CY_SYS_SYST_RVR_CNT_MASK             (0x00FFFFFFu)
 531:.\Generated_Source\PSoC4/CyLib.h **** #define CY_SYS_SYST_NUM_OF_CALLBACKS         (5u)
 532:.\Generated_Source\PSoC4/CyLib.h **** 
 533:.\Generated_Source\PSoC4/CyLib.h **** 
 534:.\Generated_Source\PSoC4/CyLib.h **** /*******************************************************************************
 535:.\Generated_Source\PSoC4/CyLib.h **** * Macro Name: CyAssert
 536:.\Generated_Source\PSoC4/CyLib.h **** ********************************************************************************
 537:.\Generated_Source\PSoC4/CyLib.h **** * Summary:
 538:.\Generated_Source\PSoC4/CyLib.h **** *  Macro that evaluates the expression and, if it is false (evaluates to 0),
 539:.\Generated_Source\PSoC4/CyLib.h **** *  the processor is halted.
 540:.\Generated_Source\PSoC4/CyLib.h **** *
 541:.\Generated_Source\PSoC4/CyLib.h **** *  This macro is evaluated unless NDEBUG is defined.
 542:.\Generated_Source\PSoC4/CyLib.h **** *  If NDEBUG is defined, then no code is generated for this macro.
 543:.\Generated_Source\PSoC4/CyLib.h **** *  NDEBUG is defined by default for a Release build setting and not defined for
 544:.\Generated_Source\PSoC4/CyLib.h **** *  a Debug build setting.
 545:.\Generated_Source\PSoC4/CyLib.h **** *
 546:.\Generated_Source\PSoC4/CyLib.h **** * Parameters:
ARM GAS  C:\Users\CHRIST~1\AppData\Local\Temp\cc8KQrfd.s 			page 11


 547:.\Generated_Source\PSoC4/CyLib.h **** *  expr: Logical expression.  Asserts if false.
 548:.\Generated_Source\PSoC4/CyLib.h **** *
 549:.\Generated_Source\PSoC4/CyLib.h **** * Return:
 550:.\Generated_Source\PSoC4/CyLib.h **** *  None
 551:.\Generated_Source\PSoC4/CyLib.h **** *
 552:.\Generated_Source\PSoC4/CyLib.h **** *******************************************************************************/
 553:.\Generated_Source\PSoC4/CyLib.h **** #if !defined(NDEBUG)
 554:.\Generated_Source\PSoC4/CyLib.h ****     #define CYASSERT(x)                 do                              \
 555:.\Generated_Source\PSoC4/CyLib.h ****                                         {                               \
 556:.\Generated_Source\PSoC4/CyLib.h ****                                             if(0u == (x))               \
 557:.\Generated_Source\PSoC4/CyLib.h ****                                             {                           \
 558:.\Generated_Source\PSoC4/CyLib.h ****                                                 CyHalt((uint8) 0u);     \
 559:.\Generated_Source\PSoC4/CyLib.h ****                                             }                           \
 560:.\Generated_Source\PSoC4/CyLib.h ****                                         } while ( 0u )
 561:.\Generated_Source\PSoC4/CyLib.h **** #else
 562:.\Generated_Source\PSoC4/CyLib.h ****     #define CYASSERT(x)
 563:.\Generated_Source\PSoC4/CyLib.h **** #endif  /* !defined(NDEBUG) */
 564:.\Generated_Source\PSoC4/CyLib.h **** 
 565:.\Generated_Source\PSoC4/CyLib.h **** 
 566:.\Generated_Source\PSoC4/CyLib.h **** /*******************************************************************************
 567:.\Generated_Source\PSoC4/CyLib.h **** * Interrupt API Constants
 568:.\Generated_Source\PSoC4/CyLib.h **** *******************************************************************************/
 569:.\Generated_Source\PSoC4/CyLib.h **** #define CY_NUM_INTERRUPTS                   (CY_IP_INT_NR)
 570:.\Generated_Source\PSoC4/CyLib.h **** 
 571:.\Generated_Source\PSoC4/CyLib.h **** #define CY_MIN_PRIORITY                     (3u)
 572:.\Generated_Source\PSoC4/CyLib.h **** 
 573:.\Generated_Source\PSoC4/CyLib.h **** #define CY_INT_IRQ_BASE                     (16u)
 574:.\Generated_Source\PSoC4/CyLib.h **** #define CY_INT_CLEAR_DISABLE_ALL            (0xFFFFFFFFu)
 575:.\Generated_Source\PSoC4/CyLib.h **** #define CY_INT_ENABLE_RANGE_MASK            (0x1Fu)
 576:.\Generated_Source\PSoC4/CyLib.h **** 
 577:.\Generated_Source\PSoC4/CyLib.h **** /* Register n contains priorities for interrupts N=4n .. 4n+3 */
 578:.\Generated_Source\PSoC4/CyLib.h **** #define CY_INT_PRIORITY_SHIFT(number)       (( uint32 )6u + (8u * (( uint32 )(number) % 4u)))
 579:.\Generated_Source\PSoC4/CyLib.h **** 
 580:.\Generated_Source\PSoC4/CyLib.h **** /* Mask to get valid range of system priority 0-3 */
 581:.\Generated_Source\PSoC4/CyLib.h **** #define CY_INT_PRIORITY_MASK                (( uint32 ) 0x03u)
 582:.\Generated_Source\PSoC4/CyLib.h **** 
 583:.\Generated_Source\PSoC4/CyLib.h **** /* CyIntSetSysVector()/CyIntGetSysVector() - parameter definitions */
 584:.\Generated_Source\PSoC4/CyLib.h **** #define CY_INT_NMI_IRQN                      ( 2u)      /* Non Maskable Interrupt      */
 585:.\Generated_Source\PSoC4/CyLib.h **** #define CY_INT_HARD_FAULT_IRQN               ( 3u)      /* Hard Fault Interrupt        */
 586:.\Generated_Source\PSoC4/CyLib.h **** #define CY_INT_SVCALL_IRQN                   (11u)      /* SV Call Interrupt           */
 587:.\Generated_Source\PSoC4/CyLib.h **** #define CY_INT_PEND_SV_IRQN                  (14u)      /* Pend SV Interrupt           */
 588:.\Generated_Source\PSoC4/CyLib.h **** #define CY_INT_SYSTICK_IRQN                  (15u)      /* System Tick Interrupt       */
 589:.\Generated_Source\PSoC4/CyLib.h **** 
 590:.\Generated_Source\PSoC4/CyLib.h **** 
 591:.\Generated_Source\PSoC4/CyLib.h **** #if(CY_IP_SRSSV2)
 592:.\Generated_Source\PSoC4/CyLib.h **** 
 593:.\Generated_Source\PSoC4/CyLib.h **** 
 594:.\Generated_Source\PSoC4/CyLib.h ****     /*******************************************************************************
 595:.\Generated_Source\PSoC4/CyLib.h ****     * Low Voltage Detection API Constants
 596:.\Generated_Source\PSoC4/CyLib.h ****     *******************************************************************************/
 597:.\Generated_Source\PSoC4/CyLib.h **** 
 598:.\Generated_Source\PSoC4/CyLib.h ****     /* CySysLvdEnable() - parameter definitions */
 599:.\Generated_Source\PSoC4/CyLib.h ****     #define CY_LVD_THRESHOLD_1_75_V             (( uint32 )  0u)
 600:.\Generated_Source\PSoC4/CyLib.h ****     #define CY_LVD_THRESHOLD_1_80_V             (( uint32 )  1u)
 601:.\Generated_Source\PSoC4/CyLib.h ****     #define CY_LVD_THRESHOLD_1_90_V             (( uint32 )  2u)
 602:.\Generated_Source\PSoC4/CyLib.h ****     #define CY_LVD_THRESHOLD_2_00_V             (( uint32 )  3u)
 603:.\Generated_Source\PSoC4/CyLib.h ****     #define CY_LVD_THRESHOLD_2_10_V             (( uint32 )  4u)
ARM GAS  C:\Users\CHRIST~1\AppData\Local\Temp\cc8KQrfd.s 			page 12


 604:.\Generated_Source\PSoC4/CyLib.h ****     #define CY_LVD_THRESHOLD_2_20_V             (( uint32 )  5u)
 605:.\Generated_Source\PSoC4/CyLib.h ****     #define CY_LVD_THRESHOLD_2_30_V             (( uint32 )  6u)
 606:.\Generated_Source\PSoC4/CyLib.h ****     #define CY_LVD_THRESHOLD_2_40_V             (( uint32 )  7u)
 607:.\Generated_Source\PSoC4/CyLib.h ****     #define CY_LVD_THRESHOLD_2_50_V             (( uint32 )  8u)
 608:.\Generated_Source\PSoC4/CyLib.h ****     #define CY_LVD_THRESHOLD_2_60_V             (( uint32 )  9u)
 609:.\Generated_Source\PSoC4/CyLib.h ****     #define CY_LVD_THRESHOLD_2_70_V             (( uint32 ) 10u)
 610:.\Generated_Source\PSoC4/CyLib.h ****     #define CY_LVD_THRESHOLD_2_80_V             (( uint32 ) 11u)
 611:.\Generated_Source\PSoC4/CyLib.h ****     #define CY_LVD_THRESHOLD_2_90_V             (( uint32 ) 12u)
 612:.\Generated_Source\PSoC4/CyLib.h ****     #define CY_LVD_THRESHOLD_3_00_V             (( uint32 ) 13u)
 613:.\Generated_Source\PSoC4/CyLib.h ****     #define CY_LVD_THRESHOLD_3_20_V             (( uint32 ) 14u)
 614:.\Generated_Source\PSoC4/CyLib.h ****     #define CY_LVD_THRESHOLD_4_50_V             (( uint32 ) 15u)
 615:.\Generated_Source\PSoC4/CyLib.h **** 
 616:.\Generated_Source\PSoC4/CyLib.h ****     /* CySysLvdEnable()  - implementation definitions */
 617:.\Generated_Source\PSoC4/CyLib.h ****     #define CY_LVD_PWR_VMON_CONFIG_LVD_EN           (( uint32 ) 0x01u)
 618:.\Generated_Source\PSoC4/CyLib.h ****     #define CY_LVD_PWR_VMON_CONFIG_LVD_SEL_SHIFT    (1u)
 619:.\Generated_Source\PSoC4/CyLib.h ****     #define CY_LVD_PWR_VMON_CONFIG_LVD_SEL_MASK     (( uint32 ) (0x0F << CY_LVD_PWR_VMON_CONFIG_LVD
 620:.\Generated_Source\PSoC4/CyLib.h ****     #define CY_LVD_PROPAGATE_INT_TO_CPU             (( uint32 ) 0x02u)
 621:.\Generated_Source\PSoC4/CyLib.h **** 
 622:.\Generated_Source\PSoC4/CyLib.h ****     /* CySysLvdGetInterruptSource()/ CySysLvdClearInterrupt()  - parameter definitions  */
 623:.\Generated_Source\PSoC4/CyLib.h ****     #define CY_SYS_LVD_INT                          (( uint32 ) 0x02u)
 624:.\Generated_Source\PSoC4/CyLib.h **** #endif  /* (CY_IP_SRSSV2) */
 625:.\Generated_Source\PSoC4/CyLib.h **** 
 626:.\Generated_Source\PSoC4/CyLib.h **** /* CyDelay()/CyDelayFreq()  - implementation definitions */
 627:.\Generated_Source\PSoC4/CyLib.h **** #define CY_DELAY_MS_OVERFLOW                    (0x8000u)
 628:.\Generated_Source\PSoC4/CyLib.h **** #define CY_DELAY_1M_THRESHOLD                   (1000000u)
 629:.\Generated_Source\PSoC4/CyLib.h **** #define CY_DELAY_1M_MINUS_1_THRESHOLD           (999999u)
 630:.\Generated_Source\PSoC4/CyLib.h **** #define CY_DELAY_1K_THRESHOLD                   (1000u)
 631:.\Generated_Source\PSoC4/CyLib.h **** #define CY_DELAY_1K_MINUS_1_THRESHOLD           (999u)
 632:.\Generated_Source\PSoC4/CyLib.h **** 
 633:.\Generated_Source\PSoC4/CyLib.h **** 
 634:.\Generated_Source\PSoC4/CyLib.h **** /***************************************
 635:.\Generated_Source\PSoC4/CyLib.h **** * Registers
 636:.\Generated_Source\PSoC4/CyLib.h **** ***************************************/
 637:.\Generated_Source\PSoC4/CyLib.h **** 
 638:.\Generated_Source\PSoC4/CyLib.h **** 
 639:.\Generated_Source\PSoC4/CyLib.h **** /*******************************************************************************
 640:.\Generated_Source\PSoC4/CyLib.h **** * Clocks API Registers
 641:.\Generated_Source\PSoC4/CyLib.h **** *******************************************************************************/
 642:.\Generated_Source\PSoC4/CyLib.h **** #define CY_SYS_CLK_IMO_TRIM1_REG            (*(reg32 *) CYREG_CLK_IMO_TRIM1)
 643:.\Generated_Source\PSoC4/CyLib.h **** #define CY_SYS_CLK_IMO_TRIM1_PTR            ( (reg32 *) CYREG_CLK_IMO_TRIM1)
 644:.\Generated_Source\PSoC4/CyLib.h **** 
 645:.\Generated_Source\PSoC4/CyLib.h **** #define CY_SYS_CLK_IMO_TRIM2_REG            (*(reg32 *) CYREG_CLK_IMO_TRIM2)
 646:.\Generated_Source\PSoC4/CyLib.h **** #define CY_SYS_CLK_IMO_TRIM2_PTR            ( (reg32 *) CYREG_CLK_IMO_TRIM2)
 647:.\Generated_Source\PSoC4/CyLib.h **** 
 648:.\Generated_Source\PSoC4/CyLib.h **** #define CY_SYS_CLK_IMO_TRIM3_REG            (*(reg32 *) CYREG_CLK_IMO_TRIM3)
 649:.\Generated_Source\PSoC4/CyLib.h **** #define CY_SYS_CLK_IMO_TRIM3_PTR            ( (reg32 *) CYREG_CLK_IMO_TRIM3)
 650:.\Generated_Source\PSoC4/CyLib.h **** 
 651:.\Generated_Source\PSoC4/CyLib.h **** #define CY_SYS_CLK_IMO_CONFIG_REG           (*(reg32 *) CYREG_CLK_IMO_CONFIG)
 652:.\Generated_Source\PSoC4/CyLib.h **** #define CY_SYS_CLK_IMO_CONFIG_PTR           ( (reg32 *) CYREG_CLK_IMO_CONFIG)
 653:.\Generated_Source\PSoC4/CyLib.h **** 
 654:.\Generated_Source\PSoC4/CyLib.h **** #define CY_SYS_CLK_ILO_CONFIG_REG           (*(reg32 *) CYREG_CLK_ILO_CONFIG)
 655:.\Generated_Source\PSoC4/CyLib.h **** #define CY_SYS_CLK_ILO_CONFIG_PTR           ( (reg32 *) CYREG_CLK_ILO_CONFIG)
 656:.\Generated_Source\PSoC4/CyLib.h **** 
 657:.\Generated_Source\PSoC4/CyLib.h **** #define CY_SYS_CLK_SELECT_REG               (*(reg32 *) CYREG_CLK_SELECT)
 658:.\Generated_Source\PSoC4/CyLib.h **** #define CY_SYS_CLK_SELECT_PTR               ( (reg32 *) CYREG_CLK_SELECT)
 659:.\Generated_Source\PSoC4/CyLib.h **** 
 660:.\Generated_Source\PSoC4/CyLib.h **** #if(CY_IP_SRSSV2)
ARM GAS  C:\Users\CHRIST~1\AppData\Local\Temp\cc8KQrfd.s 			page 13


 661:.\Generated_Source\PSoC4/CyLib.h **** 
 662:.\Generated_Source\PSoC4/CyLib.h ****     #define CY_SYS_CLK_ILO_TRIM_REG             (*(reg32 *) CYREG_CLK_ILO_TRIM)
 663:.\Generated_Source\PSoC4/CyLib.h ****     #define CY_SYS_CLK_ILO_TRIM_PTR             ( (reg32 *) CYREG_CLK_ILO_TRIM)
 664:.\Generated_Source\PSoC4/CyLib.h **** 
 665:.\Generated_Source\PSoC4/CyLib.h ****     #define CY_SFLASH_IMO_TRIM_REG(number)      ( ((reg8 *) CYREG_SFLASH_IMO_TRIM00)[number])
 666:.\Generated_Source\PSoC4/CyLib.h ****     #define CY_SFLASH_IMO_TRIM_PTR(number)      (&((reg8 *) CYREG_SFLASH_IMO_TRIM00)[number])
 667:.\Generated_Source\PSoC4/CyLib.h **** 
 668:.\Generated_Source\PSoC4/CyLib.h ****     #define CY_SFLASH_IMO_MAXF0_REG             (*(reg8 *) CYREG_SFLASH_IMO_MAXF0)
 669:.\Generated_Source\PSoC4/CyLib.h ****     #define CY_SFLASH_IMO_MAXF0_PTR             ( (reg8 *) CYREG_SFLASH_IMO_MAXF0)
 670:.\Generated_Source\PSoC4/CyLib.h **** 
 671:.\Generated_Source\PSoC4/CyLib.h ****     #define CY_SFLASH_IMO_ABS0_REG              (*(reg8 *) CYREG_SFLASH_IMO_ABS0)
 672:.\Generated_Source\PSoC4/CyLib.h ****     #define CY_SFLASH_IMO_ABS0_PTR              ( (reg8 *) CYREG_SFLASH_IMO_ABS0)
 673:.\Generated_Source\PSoC4/CyLib.h **** 
 674:.\Generated_Source\PSoC4/CyLib.h ****     #define CY_SFLASH_IMO_TMPCO0_REG            (*(reg8 *) CYREG_SFLASH_IMO_TMPCO0)
 675:.\Generated_Source\PSoC4/CyLib.h ****     #define CY_SFLASH_IMO_TMPCO0_PTR            ( (reg8 *) CYREG_SFLASH_IMO_TMPCO0)
 676:.\Generated_Source\PSoC4/CyLib.h **** 
 677:.\Generated_Source\PSoC4/CyLib.h ****     #define CY_SFLASH_IMO_MAXF1_REG             (*(reg8 *) CYREG_SFLASH_IMO_MAXF1)
 678:.\Generated_Source\PSoC4/CyLib.h ****     #define CY_SFLASH_IMO_MAXF1_PTR             ( (reg8 *) CYREG_SFLASH_IMO_MAXF1)
 679:.\Generated_Source\PSoC4/CyLib.h **** 
 680:.\Generated_Source\PSoC4/CyLib.h ****     #define CY_SFLASH_IMO_ABS1_REG              (*(reg8 *) CYREG_SFLASH_IMO_ABS1)
 681:.\Generated_Source\PSoC4/CyLib.h ****     #define CY_SFLASH_IMO_ABS1_PTR              ( (reg8 *) CYREG_SFLASH_IMO_ABS1)
 682:.\Generated_Source\PSoC4/CyLib.h **** 
 683:.\Generated_Source\PSoC4/CyLib.h ****     #define CY_SFLASH_IMO_TMPCO1_REG            (*(reg8 *) CYREG_SFLASH_IMO_TMPCO1)
 684:.\Generated_Source\PSoC4/CyLib.h ****     #define CY_SFLASH_IMO_TMPCO1_PTR            ( (reg8 *) CYREG_SFLASH_IMO_TMPCO1)
 685:.\Generated_Source\PSoC4/CyLib.h **** 
 686:.\Generated_Source\PSoC4/CyLib.h ****     #define CY_SFLASH_IMO_MAXF2_REG             (*(reg8 *) CYREG_SFLASH_IMO_MAXF2)
 687:.\Generated_Source\PSoC4/CyLib.h ****     #define CY_SFLASH_IMO_MAXF2_PTR             ( (reg8 *) CYREG_SFLASH_IMO_MAXF2)
 688:.\Generated_Source\PSoC4/CyLib.h **** 
 689:.\Generated_Source\PSoC4/CyLib.h ****     #define CY_SFLASH_IMO_ABS2_REG              (*(reg8 *) CYREG_SFLASH_IMO_ABS2)
 690:.\Generated_Source\PSoC4/CyLib.h ****     #define CY_SFLASH_IMO_ABS2_PTR              ( (reg8 *) CYREG_SFLASH_IMO_ABS2)
 691:.\Generated_Source\PSoC4/CyLib.h **** 
 692:.\Generated_Source\PSoC4/CyLib.h ****     #define CY_SFLASH_IMO_TMPCO2_REG            (*(reg8 *) CYREG_SFLASH_IMO_TMPCO2)
 693:.\Generated_Source\PSoC4/CyLib.h ****     #define CY_SFLASH_IMO_TMPCO2_PTR            ( (reg8 *) CYREG_SFLASH_IMO_TMPCO2)
 694:.\Generated_Source\PSoC4/CyLib.h **** 
 695:.\Generated_Source\PSoC4/CyLib.h ****     #define CY_SFLASH_IMO_MAXF3_REG             (*(reg8 *) CYREG_SFLASH_IMO_MAXF3)
 696:.\Generated_Source\PSoC4/CyLib.h ****     #define CY_SFLASH_IMO_MAXF3_PTR             ( (reg8 *) CYREG_SFLASH_IMO_MAXF3)
 697:.\Generated_Source\PSoC4/CyLib.h **** 
 698:.\Generated_Source\PSoC4/CyLib.h ****     #define CY_SFLASH_IMO_ABS3_REG              (*(reg8 *) CYREG_SFLASH_IMO_ABS3)
 699:.\Generated_Source\PSoC4/CyLib.h ****     #define CY_SFLASH_IMO_ABS3_PTR              ( (reg8 *) CYREG_SFLASH_IMO_ABS3)
 700:.\Generated_Source\PSoC4/CyLib.h **** 
 701:.\Generated_Source\PSoC4/CyLib.h ****     #define CY_SFLASH_IMO_TMPCO3_REG            (*(reg8 *) CYREG_SFLASH_IMO_TMPCO3)
 702:.\Generated_Source\PSoC4/CyLib.h ****     #define CY_SFLASH_IMO_TMPCO3_PTR            ( (reg8 *) CYREG_SFLASH_IMO_TMPCO3)
 703:.\Generated_Source\PSoC4/CyLib.h **** 
 704:.\Generated_Source\PSoC4/CyLib.h ****     #define CY_SFLASH_IMO_ABS4_REG              (*(reg8 *) CYREG_SFLASH_IMO_ABS4)
 705:.\Generated_Source\PSoC4/CyLib.h ****     #define CY_SFLASH_IMO_ABS4_PTR              ( (reg8 *) CYREG_SFLASH_IMO_ABS4)
 706:.\Generated_Source\PSoC4/CyLib.h **** 
 707:.\Generated_Source\PSoC4/CyLib.h ****     #define CY_SFLASH_IMO_TMPCO4_REG            (*(reg8 *) CYREG_SFLASH_IMO_TMPCO4)
 708:.\Generated_Source\PSoC4/CyLib.h ****     #define CY_SFLASH_IMO_TMPCO4_PTR            ( (reg8 *) CYREG_SFLASH_IMO_TMPCO4)
 709:.\Generated_Source\PSoC4/CyLib.h **** 
 710:.\Generated_Source\PSoC4/CyLib.h ****     #define CY_PWR_BG_TRIM4_REG                 (*(reg32 *) CYREG_PWR_BG_TRIM4)
 711:.\Generated_Source\PSoC4/CyLib.h ****     #define CY_PWR_BG_TRIM4_PTR                 ( (reg32 *) CYREG_PWR_BG_TRIM4)
 712:.\Generated_Source\PSoC4/CyLib.h **** 
 713:.\Generated_Source\PSoC4/CyLib.h ****     #define CY_PWR_BG_TRIM5_REG                 (*(reg32 *) CYREG_PWR_BG_TRIM5)
 714:.\Generated_Source\PSoC4/CyLib.h ****     #define CY_PWR_BG_TRIM5_PTR                 ( (reg32 *) CYREG_PWR_BG_TRIM5)
 715:.\Generated_Source\PSoC4/CyLib.h **** 
 716:.\Generated_Source\PSoC4/CyLib.h **** #else
 717:.\Generated_Source\PSoC4/CyLib.h **** 
ARM GAS  C:\Users\CHRIST~1\AppData\Local\Temp\cc8KQrfd.s 			page 14


 718:.\Generated_Source\PSoC4/CyLib.h ****     #define CY_SYS_CLK_IMO_SELECT_REG           (*(reg32 *) CYREG_CLK_IMO_SELECT)
 719:.\Generated_Source\PSoC4/CyLib.h ****     #define CY_SYS_CLK_IMO_SELECT_PTR           ( (reg32 *) CYREG_CLK_IMO_SELECT)
 720:.\Generated_Source\PSoC4/CyLib.h **** 
 721:.\Generated_Source\PSoC4/CyLib.h ****     #define CY_SFLASH_IMO_TCTRIM_REG(number)    ( ((reg8 *) CYREG_SFLASH_IMO_TCTRIM_LT00)[number])
 722:.\Generated_Source\PSoC4/CyLib.h ****     #define CY_SFLASH_IMO_TCTRIM_PTR(number)    (&((reg8 *) CYREG_SFLASH_IMO_TCTRIM_LT00)[number])
 723:.\Generated_Source\PSoC4/CyLib.h **** 
 724:.\Generated_Source\PSoC4/CyLib.h ****     #define CY_SFLASH_IMO_TRIM_REG(number)      ( ((reg8 *) CYREG_SFLASH_IMO_TRIM_LT00)[number])
 725:.\Generated_Source\PSoC4/CyLib.h ****     #define CY_SFLASH_IMO_TRIM_PTR(number)      (&((reg8 *) CYREG_SFLASH_IMO_TRIM_LT00)[number])
 726:.\Generated_Source\PSoC4/CyLib.h **** 
 727:.\Generated_Source\PSoC4/CyLib.h **** #endif  /* (CY_IP_SRSSV2) */
 728:.\Generated_Source\PSoC4/CyLib.h **** 
 729:.\Generated_Source\PSoC4/CyLib.h **** 
 730:.\Generated_Source\PSoC4/CyLib.h **** #if (CY_PSOC4_4100BL || CY_PSOC4_4200BL)
 731:.\Generated_Source\PSoC4/CyLib.h ****     /* Radio configuration register */
 732:.\Generated_Source\PSoC4/CyLib.h ****     #define CY_SYS_XTAL_BLESS_RF_CONFIG_REG         (*(reg32 *) CYREG_BLE_BLESS_RF_CONFIG)
 733:.\Generated_Source\PSoC4/CyLib.h ****     #define CY_SYS_XTAL_BLESS_RF_CONFIG_PTR         ( (reg32 *) CYREG_BLE_BLESS_RF_CONFIG)
 734:.\Generated_Source\PSoC4/CyLib.h **** 
 735:.\Generated_Source\PSoC4/CyLib.h ****     /* RFCTRL mode transition control */
 736:.\Generated_Source\PSoC4/CyLib.h ****     #define CY_SYS_XTAL_BLERD_DBUS_REG              (*(reg32 *) CYREG_BLE_BLERD_DBUS)
 737:.\Generated_Source\PSoC4/CyLib.h ****     #define CY_SYS_XTAL_BLERD_DBUS_PTR              ( (reg32 *) CYREG_BLE_BLERD_DBUS)
 738:.\Generated_Source\PSoC4/CyLib.h **** 
 739:.\Generated_Source\PSoC4/CyLib.h ****     /* RFCTRL state information */
 740:.\Generated_Source\PSoC4/CyLib.h ****     #define CY_SYS_XTAL_BLERD_FSM_REG              (*(reg32 *) CYREG_BLE_BLERD_FSM)
 741:.\Generated_Source\PSoC4/CyLib.h ****     #define CY_SYS_XTAL_BLERD_FSM_PTR              ( (reg32 *) CYREG_BLE_BLERD_FSM)
 742:.\Generated_Source\PSoC4/CyLib.h **** 
 743:.\Generated_Source\PSoC4/CyLib.h ****     /* BB bump configuration 1 */
 744:.\Generated_Source\PSoC4/CyLib.h ****     #define CY_SYS_XTAL_BLERD_BB_XO_REG             (*(reg32 *) CYREG_BLE_BLERD_BB_XO)
 745:.\Generated_Source\PSoC4/CyLib.h ****     #define CY_SYS_XTAL_BLERD_BB_XO_PTR             ( (reg32 *) CYREG_BLE_BLERD_BB_XO)
 746:.\Generated_Source\PSoC4/CyLib.h **** 
 747:.\Generated_Source\PSoC4/CyLib.h ****     /* BB bump configuration 2 */
 748:.\Generated_Source\PSoC4/CyLib.h ****     #define CY_SYS_XTAL_BLERD_BB_XO_CAPTRIM_REG     (*(reg32 *) CYREG_BLE_BLERD_BB_XO_CAPTRIM)
 749:.\Generated_Source\PSoC4/CyLib.h ****     #define CY_SYS_XTAL_BLERD_BB_XO_CAPTRIM_PTR     ( (reg32 *) CYREG_BLE_BLERD_BB_XO_CAPTRIM)
 750:.\Generated_Source\PSoC4/CyLib.h **** 
 751:.\Generated_Source\PSoC4/CyLib.h ****     /* Crystal clock divider configuration register */
 752:.\Generated_Source\PSoC4/CyLib.h ****     #define CY_SYS_CLK_XTAL_CLK_DIV_CONFIG_REG      (*(reg32 *) CYREG_BLE_BLESS_XTAL_CLK_DIV_CONFIG
 753:.\Generated_Source\PSoC4/CyLib.h ****     #define CY_SYS_CLK_XTAL_CLK_DIV_CONFIG_PTR      ( (reg32 *) CYREG_BLE_BLESS_XTAL_CLK_DIV_CONFIG
 754:.\Generated_Source\PSoC4/CyLib.h **** #endif  /* (CY_PSOC4_4100BL || CY_PSOC4_4200BL) */
 755:.\Generated_Source\PSoC4/CyLib.h **** 
 756:.\Generated_Source\PSoC4/CyLib.h **** #if (CY_IP_WCO)
 757:.\Generated_Source\PSoC4/CyLib.h ****     /* WCO Status Register */
 758:.\Generated_Source\PSoC4/CyLib.h ****     #define CY_SYS_CLK_WCO_STATUS_REG               (*(reg32 *) CYREG_BLE_BLESS_WCO_STATUS)
 759:.\Generated_Source\PSoC4/CyLib.h ****     #define CY_SYS_CLK_WCO_STATUS_PTR               ( (reg32 *) CYREG_BLE_BLESS_WCO_STATUS)
 760:.\Generated_Source\PSoC4/CyLib.h **** 
 761:.\Generated_Source\PSoC4/CyLib.h ****     /* WCO Configuration Register */
 762:.\Generated_Source\PSoC4/CyLib.h ****     #define CY_SYS_CLK_WCO_CONFIG_REG               (*(reg32 *) CYREG_BLE_BLESS_WCO_CONFIG)
 763:.\Generated_Source\PSoC4/CyLib.h ****     #define CY_SYS_CLK_WCO_CONFIG_PTR               ( (reg32 *) CYREG_BLE_BLESS_WCO_CONFIG)
 764:.\Generated_Source\PSoC4/CyLib.h **** 
 765:.\Generated_Source\PSoC4/CyLib.h ****     /* WCO Trim Register */
 766:.\Generated_Source\PSoC4/CyLib.h ****     #define CY_SYS_CLK_WCO_TRIM_REG                 (*(reg32 *) CYREG_BLE_BLESS_WCO_TRIM)
 767:.\Generated_Source\PSoC4/CyLib.h ****     #define CY_SYS_CLK_WCO_TRIM_PTR                 ( (reg32 *) CYREG_BLE_BLESS_WCO_TRIM)
 768:.\Generated_Source\PSoC4/CyLib.h **** #endif  /* (CY_IP_WCO) */
 769:.\Generated_Source\PSoC4/CyLib.h **** 
 770:.\Generated_Source\PSoC4/CyLib.h **** 
 771:.\Generated_Source\PSoC4/CyLib.h **** /*******************************************************************************
 772:.\Generated_Source\PSoC4/CyLib.h **** * WDT API Registers
 773:.\Generated_Source\PSoC4/CyLib.h **** *******************************************************************************/
 774:.\Generated_Source\PSoC4/CyLib.h **** #if(CY_IP_SRSSV2)
ARM GAS  C:\Users\CHRIST~1\AppData\Local\Temp\cc8KQrfd.s 			page 15


 775:.\Generated_Source\PSoC4/CyLib.h ****     #define CY_SYS_WDT_CTRLOW_REG               (*(reg32 *) CYREG_WDT_CTRLOW)
 776:.\Generated_Source\PSoC4/CyLib.h ****     #define CY_SYS_WDT_CTRLOW_PTR               ( (reg32 *) CYREG_WDT_CTRLOW)
 777:.\Generated_Source\PSoC4/CyLib.h **** 
 778:.\Generated_Source\PSoC4/CyLib.h ****     #define CY_SYS_WDT_CTRHIGH_REG              (*(reg32 *) CYREG_WDT_CTRHIGH)
 779:.\Generated_Source\PSoC4/CyLib.h ****     #define CY_SYS_WDT_CTRHIGH_PTR              ( (reg32 *) CYREG_WDT_CTRHIGH)
 780:.\Generated_Source\PSoC4/CyLib.h **** 
 781:.\Generated_Source\PSoC4/CyLib.h ****     #define CY_SYS_WDT_MATCH_REG                (*(reg32 *) CYREG_WDT_MATCH)
 782:.\Generated_Source\PSoC4/CyLib.h ****     #define CY_SYS_WDT_MATCH_PTR                ( (reg32 *) CYREG_WDT_MATCH)
 783:.\Generated_Source\PSoC4/CyLib.h **** 
 784:.\Generated_Source\PSoC4/CyLib.h ****     #define CY_SYS_WDT_CONFIG_REG               (*(reg32 *) CYREG_WDT_CONFIG)
 785:.\Generated_Source\PSoC4/CyLib.h ****     #define CY_SYS_WDT_CONFIG_PTR               ( (reg32 *) CYREG_WDT_CONFIG)
 786:.\Generated_Source\PSoC4/CyLib.h **** 
 787:.\Generated_Source\PSoC4/CyLib.h ****     #define CY_SYS_WDT_CONTROL_REG              (*(reg32 *) CYREG_WDT_CONTROL)
 788:.\Generated_Source\PSoC4/CyLib.h ****     #define CY_SYS_WDT_CONTROL_PTR              ( (reg32 *) CYREG_WDT_CONTROL)
 789:.\Generated_Source\PSoC4/CyLib.h **** #else
 790:.\Generated_Source\PSoC4/CyLib.h ****     #define CY_SYS_WDT_DISABLE_KEY_REG          (*(reg32 *) CYREG_WDT_DISABLE_KEY)
 791:.\Generated_Source\PSoC4/CyLib.h ****     #define CY_SYS_WDT_DISABLE_KEY_PTR          ( (reg32 *) CYREG_WDT_DISABLE_KEY)
 792:.\Generated_Source\PSoC4/CyLib.h **** 
 793:.\Generated_Source\PSoC4/CyLib.h ****     #define CY_SYS_WDT_MATCH_REG                (*(reg32 *) CYREG_WDT_MATCH)
 794:.\Generated_Source\PSoC4/CyLib.h ****     #define CY_SYS_WDT_MATCH_PTR                ( (reg32 *) CYREG_WDT_MATCH)
 795:.\Generated_Source\PSoC4/CyLib.h **** 
 796:.\Generated_Source\PSoC4/CyLib.h ****     #define CY_SYS_WDT_COUNTER_REG              (*(reg32 *) CYREG_WDT_COUNTER)
 797:.\Generated_Source\PSoC4/CyLib.h ****     #define CY_SYS_WDT_COUNTER_PTR              ( (reg32 *) CYREG_WDT_COUNTER)
 798:.\Generated_Source\PSoC4/CyLib.h **** 
 799:.\Generated_Source\PSoC4/CyLib.h ****     #define CY_SYS_SRSS_INTR_REG                (*(reg32 *) CYREG_SRSS_INTR)
 800:.\Generated_Source\PSoC4/CyLib.h ****     #define CY_SYS_SRSS_INTR_PTR                ( (reg32 *) CYREG_SRSS_INTR)
 801:.\Generated_Source\PSoC4/CyLib.h **** 
 802:.\Generated_Source\PSoC4/CyLib.h ****     #define CY_SYS_SRSS_INTR_MASK_REG           (*(reg32 *) CYREG_SRSS_INTR_MASK)
 803:.\Generated_Source\PSoC4/CyLib.h ****     #define CY_SYS_SRSS_INTR_MASK_PTR           ( (reg32 *) CYREG_SRSS_INTR_MASK)
 804:.\Generated_Source\PSoC4/CyLib.h **** #endif  /* (CY_IP_SRSSV2) */
 805:.\Generated_Source\PSoC4/CyLib.h **** 
 806:.\Generated_Source\PSoC4/CyLib.h **** 
 807:.\Generated_Source\PSoC4/CyLib.h **** /*******************************************************************************
 808:.\Generated_Source\PSoC4/CyLib.h **** * System API Registers
 809:.\Generated_Source\PSoC4/CyLib.h **** *******************************************************************************/
 810:.\Generated_Source\PSoC4/CyLib.h **** #define CY_SYS_CM0_AIRCR_REG                (*(reg32 *) CYREG_CM0_AIRCR)
 811:.\Generated_Source\PSoC4/CyLib.h **** #define CY_SYS_CM0_AIRCR_PTR                ( (reg32 *) CYREG_CM0_AIRCR)
 812:.\Generated_Source\PSoC4/CyLib.h **** 
 813:.\Generated_Source\PSoC4/CyLib.h **** /* Reset Cause Observation Register */
 814:.\Generated_Source\PSoC4/CyLib.h **** #define CY_SYS_RES_CAUSE_REG                (*(reg32 *) CYREG_RES_CAUSE)
 815:.\Generated_Source\PSoC4/CyLib.h **** #define CY_SYS_RES_CAUSE_PTR                ( (reg32 *) CYREG_RES_CAUSE)
 816:.\Generated_Source\PSoC4/CyLib.h **** 
 817:.\Generated_Source\PSoC4/CyLib.h **** #if(CY_IP_SRSSV2)
 818:.\Generated_Source\PSoC4/CyLib.h **** 
 819:.\Generated_Source\PSoC4/CyLib.h ****     /*******************************************************************************
 820:.\Generated_Source\PSoC4/CyLib.h ****     * Low Voltage Detection
 821:.\Generated_Source\PSoC4/CyLib.h ****     *******************************************************************************/
 822:.\Generated_Source\PSoC4/CyLib.h **** 
 823:.\Generated_Source\PSoC4/CyLib.h ****     /* Voltage Monitoring Trim and Configuration */
 824:.\Generated_Source\PSoC4/CyLib.h ****     #define CY_LVD_PWR_VMON_CONFIG_REG          (*(reg32 *) CYREG_PWR_VMON_CONFIG)
 825:.\Generated_Source\PSoC4/CyLib.h ****     #define CY_LVD_PWR_VMON_CONFIG_PTR          ( (reg32 *) CYREG_PWR_VMON_CONFIG)
 826:.\Generated_Source\PSoC4/CyLib.h **** 
 827:.\Generated_Source\PSoC4/CyLib.h ****     /* Power System Interrupt Mask Register */
 828:.\Generated_Source\PSoC4/CyLib.h ****     #define CY_LVD_PWR_INTR_MASK_REG            (*(reg32 *) CYREG_PWR_INTR_MASK)
 829:.\Generated_Source\PSoC4/CyLib.h ****     #define CY_LVD_PWR_INTR_MASK_PTR            ( (reg32 *) CYREG_PWR_INTR_MASK)
 830:.\Generated_Source\PSoC4/CyLib.h **** 
 831:.\Generated_Source\PSoC4/CyLib.h ****     /* Power System Interrupt Register */
ARM GAS  C:\Users\CHRIST~1\AppData\Local\Temp\cc8KQrfd.s 			page 16


 832:.\Generated_Source\PSoC4/CyLib.h ****     #define CY_LVD_PWR_INTR_REG                 (*(reg32 *) CYREG_PWR_INTR)
 833:.\Generated_Source\PSoC4/CyLib.h ****     #define CY_LVD_PWR_INTR_PTR                 ( (reg32 *) CYREG_PWR_INTR)
 834:.\Generated_Source\PSoC4/CyLib.h **** 
 835:.\Generated_Source\PSoC4/CyLib.h **** #endif  /* (CY_IP_SRSSV2) */
 836:.\Generated_Source\PSoC4/CyLib.h **** 
 837:.\Generated_Source\PSoC4/CyLib.h **** 
 838:.\Generated_Source\PSoC4/CyLib.h **** /*******************************************************************************
 839:.\Generated_Source\PSoC4/CyLib.h **** * Interrupt API Registers
 840:.\Generated_Source\PSoC4/CyLib.h **** *******************************************************************************/
 841:.\Generated_Source\PSoC4/CyLib.h **** #define CY_INT_VECT_TABLE                   ( (cyisraddress **) CYDEV_SRAM_BASE)
 842:.\Generated_Source\PSoC4/CyLib.h **** 
 843:.\Generated_Source\PSoC4/CyLib.h **** #define CY_INT_PRIORITY_REG(number)         ( ((reg32 *) CYREG_CM0_IPR0)[(number)/4u])
 844:.\Generated_Source\PSoC4/CyLib.h **** #define CY_INT_PRIORITY_PTR(number)         (&((reg32 *) CYREG_CM0_IPR0)[(number)/4u])
 845:.\Generated_Source\PSoC4/CyLib.h **** 
 846:.\Generated_Source\PSoC4/CyLib.h **** #define CY_INT_ENABLE_REG                   (*(reg32 *) CYREG_CM0_ISER)
 847:.\Generated_Source\PSoC4/CyLib.h **** #define CY_INT_ENABLE_PTR                   ( (reg32 *) CYREG_CM0_ISER)
 848:.\Generated_Source\PSoC4/CyLib.h **** 
 849:.\Generated_Source\PSoC4/CyLib.h **** #define CY_INT_CLEAR_REG                    (*(reg32 *) CYREG_CM0_ICER)
 850:.\Generated_Source\PSoC4/CyLib.h **** #define CY_INT_CLEAR_PTR                    ( (reg32 *) CYREG_CM0_ICER)
 851:.\Generated_Source\PSoC4/CyLib.h **** 
 852:.\Generated_Source\PSoC4/CyLib.h **** #define CY_INT_SET_PEND_REG                 (*(reg32 *) CYREG_CM0_ISPR)
 853:.\Generated_Source\PSoC4/CyLib.h **** #define CY_INT_SET_PEND_PTR                 ( (reg32 *) CYREG_CM0_ISPR)
 854:.\Generated_Source\PSoC4/CyLib.h **** 
 855:.\Generated_Source\PSoC4/CyLib.h **** #define CY_INT_CLR_PEND_REG                 (*(reg32 *) CYREG_CM0_ICPR)
 856:.\Generated_Source\PSoC4/CyLib.h **** #define CY_INT_CLR_PEND_PTR                 ( (reg32 *) CYREG_CM0_ICPR)
 857:.\Generated_Source\PSoC4/CyLib.h **** 
 858:.\Generated_Source\PSoC4/CyLib.h **** 
 859:.\Generated_Source\PSoC4/CyLib.h **** /*******************************************************************************
 860:.\Generated_Source\PSoC4/CyLib.h **** * System tick API Registers
 861:.\Generated_Source\PSoC4/CyLib.h **** *******************************************************************************/
 862:.\Generated_Source\PSoC4/CyLib.h **** #define CY_SYS_SYST_CSR_REG                 (*(reg32 *) CYREG_CM0_SYST_CSR)
 863:.\Generated_Source\PSoC4/CyLib.h **** #define CY_SYS_SYST_CSR_PTR                 ( (reg32 *) CYREG_CM0_SYST_CSR)
 864:.\Generated_Source\PSoC4/CyLib.h **** 
 865:.\Generated_Source\PSoC4/CyLib.h **** #define CY_SYS_SYST_RVR_REG                 (*(reg32 *) CYREG_CM0_SYST_RVR)
 866:.\Generated_Source\PSoC4/CyLib.h **** #define CY_SYS_SYST_RVR_PTR                 ( (reg32 *) CYREG_CM0_SYST_RVR)
 867:.\Generated_Source\PSoC4/CyLib.h **** 
 868:.\Generated_Source\PSoC4/CyLib.h **** #define CY_SYS_SYST_CVR_REG                 (*(reg32 *) CYREG_CM0_SYST_CVR)
 869:.\Generated_Source\PSoC4/CyLib.h **** #define CY_SYS_SYST_CVR_PTR                 ( (reg32 *) CYREG_CM0_SYST_CVR)
 870:.\Generated_Source\PSoC4/CyLib.h **** 
 871:.\Generated_Source\PSoC4/CyLib.h **** #define CY_SYS_SYST_CALIB_REG               (*(reg32 *) CYREG_CM0_SYST_CALIB)
 872:.\Generated_Source\PSoC4/CyLib.h **** #define CY_SYS_SYST_CALIB_PTR               ( (reg32 *) CYREG_CM0_SYST_CALIB)
 873:.\Generated_Source\PSoC4/CyLib.h **** 
 874:.\Generated_Source\PSoC4/CyLib.h **** 
 875:.\Generated_Source\PSoC4/CyLib.h **** #if (CY_IP_WCO)
 876:.\Generated_Source\PSoC4/CyLib.h **** 
 877:.\Generated_Source\PSoC4/CyLib.h ****     /*******************************************************************************
 878:.\Generated_Source\PSoC4/CyLib.h ****     * Function Name: CySysClkWcoSetHighPowerMode
 879:.\Generated_Source\PSoC4/CyLib.h ****     ********************************************************************************
 880:.\Generated_Source\PSoC4/CyLib.h ****     *
 881:.\Generated_Source\PSoC4/CyLib.h ****     * Summary:
 882:.\Generated_Source\PSoC4/CyLib.h ****     *  Sets the high power mode for the 32 KHz WCO.
 883:.\Generated_Source\PSoC4/CyLib.h ****     *
 884:.\Generated_Source\PSoC4/CyLib.h ****     * Parameters:
 885:.\Generated_Source\PSoC4/CyLib.h ****     *  None
 886:.\Generated_Source\PSoC4/CyLib.h ****     *
 887:.\Generated_Source\PSoC4/CyLib.h ****     * Return:
 888:.\Generated_Source\PSoC4/CyLib.h ****     *  None
ARM GAS  C:\Users\CHRIST~1\AppData\Local\Temp\cc8KQrfd.s 			page 17


 889:.\Generated_Source\PSoC4/CyLib.h ****     *
 890:.\Generated_Source\PSoC4/CyLib.h ****     * Side Effects:
 891:.\Generated_Source\PSoC4/CyLib.h ****     *  None
 892:.\Generated_Source\PSoC4/CyLib.h ****     *
 893:.\Generated_Source\PSoC4/CyLib.h ****     *******************************************************************************/
 894:.\Generated_Source\PSoC4/CyLib.h ****     static CY_INLINE void CySysClkWcoSetHighPowerMode(void)
 895:.\Generated_Source\PSoC4/CyLib.h ****     {
  25              		.loc 1 895 0
  26              		.cfi_startproc
  27 0000 80B5     		push	{r7, lr}
  28              		.cfi_def_cfa_offset 8
  29              		.cfi_offset 7, -8
  30              		.cfi_offset 14, -4
  31 0002 00AF     		add	r7, sp, #0
  32              		.cfi_def_cfa_register 7
 896:.\Generated_Source\PSoC4/CyLib.h ****         /* Switch off low power mode for WCO */
 897:.\Generated_Source\PSoC4/CyLib.h ****         CY_SYS_CLK_WCO_CONFIG_REG &= (uint32) ~CY_SYS_CLK_WCO_CONFIG_LPM_EN;
  33              		.loc 1 897 0
  34 0004 0B4B     		ldr	r3, .L2
  35 0006 0B4A     		ldr	r2, .L2
  36 0008 1268     		ldr	r2, [r2]
  37 000a 0121     		mov	r1, #1
  38 000c 8A43     		bic	r2, r1
  39 000e 1A60     		str	r2, [r3]
 898:.\Generated_Source\PSoC4/CyLib.h **** 
 899:.\Generated_Source\PSoC4/CyLib.h ****         /* Restore WCO trim register HPM settings */
 900:.\Generated_Source\PSoC4/CyLib.h ****         CY_SYS_CLK_WCO_TRIM_REG = (CY_SYS_CLK_WCO_TRIM_REG & (uint32)(~CY_SYS_CLK_WCO_TRIM_GM_MASK)
  40              		.loc 1 900 0
  41 0010 094B     		ldr	r3, .L2+4
  42 0012 094A     		ldr	r2, .L2+4
  43 0014 1268     		ldr	r2, [r2]
  44 0016 3021     		mov	r1, #48
  45 0018 8A43     		bic	r2, r1
 901:.\Generated_Source\PSoC4/CyLib.h ****                     | (uint32)(CY_SYS_CLK_WCO_TRIM_GM_HPM << CY_SYS_CLK_WCO_TRIM_GM_SHIFT);
  46              		.loc 1 901 0
  47 001a 1021     		mov	r1, #16
  48 001c 0A43     		orr	r2, r1
 900:.\Generated_Source\PSoC4/CyLib.h ****                     | (uint32)(CY_SYS_CLK_WCO_TRIM_GM_HPM << CY_SYS_CLK_WCO_TRIM_GM_SHIFT);
  49              		.loc 1 900 0
  50 001e 1A60     		str	r2, [r3]
 902:.\Generated_Source\PSoC4/CyLib.h ****         CY_SYS_CLK_WCO_TRIM_REG = (CY_SYS_CLK_WCO_TRIM_REG & (uint32)(~CY_SYS_CLK_WCO_TRIM_XGM_MASK
  51              		.loc 1 902 0
  52 0020 054B     		ldr	r3, .L2+4
  53 0022 054A     		ldr	r2, .L2+4
  54 0024 1268     		ldr	r2, [r2]
  55 0026 0721     		mov	r1, #7
  56 0028 8A43     		bic	r2, r1
 903:.\Generated_Source\PSoC4/CyLib.h ****                     | (uint32)(CY_SYS_CLK_WCO_TRIM_XGM_2620NA << CY_SYS_CLK_WCO_TRIM_XGM_SHIFT);
  57              		.loc 1 903 0
  58 002a 0121     		mov	r1, #1
  59 002c 0A43     		orr	r2, r1
 902:.\Generated_Source\PSoC4/CyLib.h ****         CY_SYS_CLK_WCO_TRIM_REG = (CY_SYS_CLK_WCO_TRIM_REG & (uint32)(~CY_SYS_CLK_WCO_TRIM_XGM_MASK
  60              		.loc 1 902 0
  61 002e 1A60     		str	r2, [r3]
 904:.\Generated_Source\PSoC4/CyLib.h ****     }
  62              		.loc 1 904 0
  63 0030 BD46     		mov	sp, r7
ARM GAS  C:\Users\CHRIST~1\AppData\Local\Temp\cc8KQrfd.s 			page 18


  64              		@ sp needed
  65 0032 80BD     		pop	{r7, pc}
  66              	.L3:
  67              		.align	2
  68              	.L2:
  69 0034 00F02E40 		.word	1076817920
  70 0038 00FF2E40 		.word	1076821760
  71              		.cfi_endproc
  72              	.LFE0:
  73              		.size	CySysClkWcoSetHighPowerMode, .-CySysClkWcoSetHighPowerMode
  74              		.section	.text.CySysClkWcoSetLowPowerMode,"ax",%progbits
  75              		.align	2
  76              		.code	16
  77              		.thumb_func
  78              		.type	CySysClkWcoSetLowPowerMode, %function
  79              	CySysClkWcoSetLowPowerMode:
  80              	.LFB1:
 905:.\Generated_Source\PSoC4/CyLib.h **** 
 906:.\Generated_Source\PSoC4/CyLib.h **** 
 907:.\Generated_Source\PSoC4/CyLib.h ****     /*******************************************************************************
 908:.\Generated_Source\PSoC4/CyLib.h ****     * Function Name: CySysClkWcoSetLowPowerMode
 909:.\Generated_Source\PSoC4/CyLib.h ****     ********************************************************************************
 910:.\Generated_Source\PSoC4/CyLib.h ****     *
 911:.\Generated_Source\PSoC4/CyLib.h ****     * Summary:
 912:.\Generated_Source\PSoC4/CyLib.h ****     *  Sets the low power mode for the 32 KHz WCO.
 913:.\Generated_Source\PSoC4/CyLib.h ****     *
 914:.\Generated_Source\PSoC4/CyLib.h ****     * Parameters:
 915:.\Generated_Source\PSoC4/CyLib.h ****     *  None
 916:.\Generated_Source\PSoC4/CyLib.h ****     *
 917:.\Generated_Source\PSoC4/CyLib.h ****     * Return:
 918:.\Generated_Source\PSoC4/CyLib.h ****     *  None
 919:.\Generated_Source\PSoC4/CyLib.h ****     *
 920:.\Generated_Source\PSoC4/CyLib.h ****     * Side Effects:
 921:.\Generated_Source\PSoC4/CyLib.h ****     *  None
 922:.\Generated_Source\PSoC4/CyLib.h ****     *
 923:.\Generated_Source\PSoC4/CyLib.h ****     *******************************************************************************/
 924:.\Generated_Source\PSoC4/CyLib.h ****     static CY_INLINE void CySysClkWcoSetLowPowerMode(void)
 925:.\Generated_Source\PSoC4/CyLib.h ****     {
  81              		.loc 1 925 0
  82              		.cfi_startproc
  83 0000 80B5     		push	{r7, lr}
  84              		.cfi_def_cfa_offset 8
  85              		.cfi_offset 7, -8
  86              		.cfi_offset 14, -4
  87 0002 00AF     		add	r7, sp, #0
  88              		.cfi_def_cfa_register 7
 926:.\Generated_Source\PSoC4/CyLib.h ****         /* Switch off auto low power mode in WCO */
 927:.\Generated_Source\PSoC4/CyLib.h ****         CY_SYS_CLK_WCO_CONFIG_REG &= ((uint32)~CY_SYS_CLK_WCO_CONFIG_LPM_AUTO);
  89              		.loc 1 927 0
  90 0004 0E4B     		ldr	r3, .L5
  91 0006 0E4A     		ldr	r2, .L5
  92 0008 1268     		ldr	r2, [r2]
  93 000a 0221     		mov	r1, #2
  94 000c 8A43     		bic	r2, r1
  95 000e 1A60     		str	r2, [r3]
 928:.\Generated_Source\PSoC4/CyLib.h **** 
 929:.\Generated_Source\PSoC4/CyLib.h ****         /* Change WCO trim register settings to LPM */
ARM GAS  C:\Users\CHRIST~1\AppData\Local\Temp\cc8KQrfd.s 			page 19


 930:.\Generated_Source\PSoC4/CyLib.h ****         CY_SYS_CLK_WCO_TRIM_REG = (CY_SYS_CLK_WCO_TRIM_REG & (uint32)(~CY_SYS_CLK_WCO_TRIM_XGM_MASK
  96              		.loc 1 930 0
  97 0010 0C4B     		ldr	r3, .L5+4
  98 0012 0C4A     		ldr	r2, .L5+4
  99 0014 1268     		ldr	r2, [r2]
 100 0016 0721     		mov	r1, #7
 101 0018 8A43     		bic	r2, r1
 931:.\Generated_Source\PSoC4/CyLib.h ****                     | (uint32)(CY_SYS_CLK_WCO_TRIM_XGM_2250NA << CY_SYS_CLK_WCO_TRIM_XGM_SHIFT);
 102              		.loc 1 931 0
 103 001a 0221     		mov	r1, #2
 104 001c 0A43     		orr	r2, r1
 930:.\Generated_Source\PSoC4/CyLib.h ****                     | (uint32)(CY_SYS_CLK_WCO_TRIM_XGM_2250NA << CY_SYS_CLK_WCO_TRIM_XGM_SHIFT);
 105              		.loc 1 930 0
 106 001e 1A60     		str	r2, [r3]
 932:.\Generated_Source\PSoC4/CyLib.h ****         CY_SYS_CLK_WCO_TRIM_REG = (CY_SYS_CLK_WCO_TRIM_REG & (uint32)(~CY_SYS_CLK_WCO_TRIM_GM_MASK)
 107              		.loc 1 932 0
 108 0020 084B     		ldr	r3, .L5+4
 109 0022 084A     		ldr	r2, .L5+4
 110 0024 1268     		ldr	r2, [r2]
 111 0026 3021     		mov	r1, #48
 112 0028 8A43     		bic	r2, r1
 933:.\Generated_Source\PSoC4/CyLib.h ****                     | (uint32)(CY_SYS_CLK_WCO_TRIM_GM_LPM << CY_SYS_CLK_WCO_TRIM_GM_SHIFT);
 113              		.loc 1 933 0
 114 002a 2021     		mov	r1, #32
 115 002c 0A43     		orr	r2, r1
 932:.\Generated_Source\PSoC4/CyLib.h ****         CY_SYS_CLK_WCO_TRIM_REG = (CY_SYS_CLK_WCO_TRIM_REG & (uint32)(~CY_SYS_CLK_WCO_TRIM_GM_MASK)
 116              		.loc 1 932 0
 117 002e 1A60     		str	r2, [r3]
 934:.\Generated_Source\PSoC4/CyLib.h **** 
 935:.\Generated_Source\PSoC4/CyLib.h ****         /* Switch on low power mode for WCO */
 936:.\Generated_Source\PSoC4/CyLib.h ****         CY_SYS_CLK_WCO_CONFIG_REG |= CY_SYS_CLK_WCO_CONFIG_LPM_EN;
 118              		.loc 1 936 0
 119 0030 034B     		ldr	r3, .L5
 120 0032 034A     		ldr	r2, .L5
 121 0034 1268     		ldr	r2, [r2]
 122 0036 0121     		mov	r1, #1
 123 0038 0A43     		orr	r2, r1
 124 003a 1A60     		str	r2, [r3]
 937:.\Generated_Source\PSoC4/CyLib.h ****     }
 125              		.loc 1 937 0
 126 003c BD46     		mov	sp, r7
 127              		@ sp needed
 128 003e 80BD     		pop	{r7, pc}
 129              	.L6:
 130              		.align	2
 131              	.L5:
 132 0040 00F02E40 		.word	1076817920
 133 0044 00FF2E40 		.word	1076821760
 134              		.cfi_endproc
 135              	.LFE1:
 136              		.size	CySysClkWcoSetLowPowerMode, .-CySysClkWcoSetLowPowerMode
 137              		.global	cydelayFreqHz
 138              		.data
 139              		.align	2
 140              		.type	cydelayFreqHz, %object
 141              		.size	cydelayFreqHz, 4
 142              	cydelayFreqHz:
ARM GAS  C:\Users\CHRIST~1\AppData\Local\Temp\cc8KQrfd.s 			page 20


 143 0000 00366E01 		.word	24000000
 144              		.global	cydelayFreqKhz
 145              		.align	2
 146              		.type	cydelayFreqKhz, %object
 147              		.size	cydelayFreqKhz, 4
 148              	cydelayFreqKhz:
 149 0004 C05D0000 		.word	24000
 150              		.global	cydelayFreqMhz
 151              		.type	cydelayFreqMhz, %object
 152              		.size	cydelayFreqMhz, 1
 153              	cydelayFreqMhz:
 154 0008 18       		.byte	24
 155              		.global	cydelay32kMs
 156 0009 000000   		.align	2
 157              		.type	cydelay32kMs, %object
 158              		.size	cydelay32kMs, 4
 159              	cydelay32kMs:
 160 000c 0000E02E 		.word	786432000
 161              		.global	lfclkPosedgeWdtCounter0Enabled
 162              		.bss
 163              		.align	2
 164              		.type	lfclkPosedgeWdtCounter0Enabled, %object
 165              		.size	lfclkPosedgeWdtCounter0Enabled, 4
 166              	lfclkPosedgeWdtCounter0Enabled:
 167 0000 00000000 		.space	4
 168              		.global	lfclkPosedgeEnabledWdtCounter
 169              		.align	2
 170              		.type	lfclkPosedgeEnabledWdtCounter, %object
 171              		.size	lfclkPosedgeEnabledWdtCounter, 4
 172              	lfclkPosedgeEnabledWdtCounter:
 173 0004 00000000 		.space	4
 174              		.global	lfclkPosedgeWdtCounter0Mode
 175              		.align	2
 176              		.type	lfclkPosedgeWdtCounter0Mode, %object
 177              		.size	lfclkPosedgeWdtCounter0Mode, 4
 178              	lfclkPosedgeWdtCounter0Mode:
 179 0008 00000000 		.space	4
 180              		.align	2
 181              	CySysTickCallbacks:
 182 000c 00000000 		.space	20
 182      00000000 
 182      00000000 
 182      00000000 
 182      00000000 
 183              		.global	CySysTickInitVar
 184              		.align	2
 185              		.type	CySysTickInitVar, %object
 186              		.size	CySysTickInitVar, 4
 187              	CySysTickInitVar:
 188 0020 00000000 		.space	4
 189              		.global	cyImoFreqMhz2Reg
 190              		.section	.rodata
 191              		.align	2
 192              		.type	cyImoFreqMhz2Reg, %object
 193              		.size	cyImoFreqMhz2Reg, 46
 194              	cyImoFreqMhz2Reg:
 195 0000 03       		.byte	3
ARM GAS  C:\Users\CHRIST~1\AppData\Local\Temp\cc8KQrfd.s 			page 21


 196 0001 04       		.byte	4
 197 0002 05       		.byte	5
 198 0003 06       		.byte	6
 199 0004 07       		.byte	7
 200 0005 08       		.byte	8
 201 0006 09       		.byte	9
 202 0007 0A       		.byte	10
 203 0008 0B       		.byte	11
 204 0009 0C       		.byte	12
 205 000a 0E       		.byte	14
 206 000b 0F       		.byte	15
 207 000c 10       		.byte	16
 208 000d 11       		.byte	17
 209 000e 12       		.byte	18
 210 000f 13       		.byte	19
 211 0010 14       		.byte	20
 212 0011 15       		.byte	21
 213 0012 16       		.byte	22
 214 0013 17       		.byte	23
 215 0014 18       		.byte	24
 216 0015 19       		.byte	25
 217 0016 1B       		.byte	27
 218 0017 1C       		.byte	28
 219 0018 1D       		.byte	29
 220 0019 1E       		.byte	30
 221 001a 1F       		.byte	31
 222 001b 20       		.byte	32
 223 001c 21       		.byte	33
 224 001d 22       		.byte	34
 225 001e 23       		.byte	35
 226 001f 25       		.byte	37
 227 0020 26       		.byte	38
 228 0021 27       		.byte	39
 229 0022 28       		.byte	40
 230 0023 29       		.byte	41
 231 0024 2A       		.byte	42
 232 0025 2B       		.byte	43
 233 0026 2E       		.byte	46
 234 0027 2F       		.byte	47
 235 0028 30       		.byte	48
 236 0029 31       		.byte	49
 237 002a 32       		.byte	50
 238 002b 33       		.byte	51
 239 002c 34       		.byte	52
 240 002d 35       		.byte	53
 241 002e 0000     		.section	.text.CySysClkImoStart,"ax",%progbits
 242              		.align	2
 243              		.global	CySysClkImoStart
 244              		.code	16
 245              		.thumb_func
 246              		.type	CySysClkImoStart, %function
 247              	CySysClkImoStart:
 248              	.LFB2:
 249              		.file 2 ".\\Generated_Source\\PSoC4\\CyLib.c"
   1:.\Generated_Source\PSoC4/CyLib.c **** /*******************************************************************************
   2:.\Generated_Source\PSoC4/CyLib.c **** * File Name: CyLib.c
   3:.\Generated_Source\PSoC4/CyLib.c **** * Version 4.20
ARM GAS  C:\Users\CHRIST~1\AppData\Local\Temp\cc8KQrfd.s 			page 22


   4:.\Generated_Source\PSoC4/CyLib.c **** *
   5:.\Generated_Source\PSoC4/CyLib.c **** *  Description:
   6:.\Generated_Source\PSoC4/CyLib.c **** *   Provides a system API for the clocking, interrupts, and watchdog timer.
   7:.\Generated_Source\PSoC4/CyLib.c **** *
   8:.\Generated_Source\PSoC4/CyLib.c **** *  Note:
   9:.\Generated_Source\PSoC4/CyLib.c **** *   Documentation of the API's in this file is located in the
  10:.\Generated_Source\PSoC4/CyLib.c **** *   System Reference Guide provided with PSoC Creator.
  11:.\Generated_Source\PSoC4/CyLib.c **** *
  12:.\Generated_Source\PSoC4/CyLib.c **** ********************************************************************************
  13:.\Generated_Source\PSoC4/CyLib.c **** * Copyright 2010-2014, Cypress Semiconductor Corporation.  All rights reserved.
  14:.\Generated_Source\PSoC4/CyLib.c **** * You may use this file only in accordance with the license, terms, conditions,
  15:.\Generated_Source\PSoC4/CyLib.c **** * disclaimers, and limitations in the end user license agreement accompanying
  16:.\Generated_Source\PSoC4/CyLib.c **** * the software package with which this file was provided.
  17:.\Generated_Source\PSoC4/CyLib.c **** *******************************************************************************/
  18:.\Generated_Source\PSoC4/CyLib.c **** 
  19:.\Generated_Source\PSoC4/CyLib.c **** #include "CyLib.h"
  20:.\Generated_Source\PSoC4/CyLib.c **** 
  21:.\Generated_Source\PSoC4/CyLib.c **** 
  22:.\Generated_Source\PSoC4/CyLib.c **** /* Do not use these definitions directly in your application */
  23:.\Generated_Source\PSoC4/CyLib.c **** uint32 cydelayFreqHz  = CYDEV_BCLK__SYSCLK__HZ;
  24:.\Generated_Source\PSoC4/CyLib.c **** uint32 cydelayFreqKhz = (CYDEV_BCLK__SYSCLK__HZ + CY_DELAY_1K_MINUS_1_THRESHOLD) / CY_DELAY_1K_THRE
  25:.\Generated_Source\PSoC4/CyLib.c **** uint8  cydelayFreqMhz = (uint8)((CYDEV_BCLK__SYSCLK__HZ + CY_DELAY_1M_MINUS_1_THRESHOLD) / CY_DELAY
  26:.\Generated_Source\PSoC4/CyLib.c **** uint32 cydelay32kMs   = CY_DELAY_MS_OVERFLOW * ((CYDEV_BCLK__SYSCLK__HZ + CY_DELAY_1K_MINUS_1_THRES
  27:.\Generated_Source\PSoC4/CyLib.c ****                         CY_DELAY_1K_THRESHOLD);
  28:.\Generated_Source\PSoC4/CyLib.c **** 
  29:.\Generated_Source\PSoC4/CyLib.c **** #if (CY_IP_WCO)
  30:.\Generated_Source\PSoC4/CyLib.c ****     static uint32 CySysClkGetLfclkSource(void);
  31:.\Generated_Source\PSoC4/CyLib.c **** #endif /* (CY_IP_WCO) */
  32:.\Generated_Source\PSoC4/CyLib.c **** 
  33:.\Generated_Source\PSoC4/CyLib.c **** #if(CY_IP_SRSSV2)
  34:.\Generated_Source\PSoC4/CyLib.c ****     /* CySysClkLfclkPosedgeCatch() / CySysClkLfclkPosedgeRestore() */
  35:.\Generated_Source\PSoC4/CyLib.c ****     uint32 lfclkPosedgeWdtCounter0Enabled = 0u;
  36:.\Generated_Source\PSoC4/CyLib.c ****     uint32 lfclkPosedgeEnabledWdtCounter  = 0u;
  37:.\Generated_Source\PSoC4/CyLib.c ****     uint32 lfclkPosedgeWdtCounter0Mode    = CY_SYS_WDT_MODE_NONE;
  38:.\Generated_Source\PSoC4/CyLib.c **** 
  39:.\Generated_Source\PSoC4/CyLib.c ****     static void CySysClkLfclkPosedgeCatch(void);
  40:.\Generated_Source\PSoC4/CyLib.c ****     static void CySysClkLfclkPosedgeRestore(void);
  41:.\Generated_Source\PSoC4/CyLib.c **** 
  42:.\Generated_Source\PSoC4/CyLib.c ****     static uint32 CySysWdtLocked(void);
  43:.\Generated_Source\PSoC4/CyLib.c ****     static uint32 CySysClkIloEnabled(void);
  44:.\Generated_Source\PSoC4/CyLib.c ****     #if (CY_IP_WCO)
  45:.\Generated_Source\PSoC4/CyLib.c ****         static uint32 CySysClkWcoEnabled(void);
  46:.\Generated_Source\PSoC4/CyLib.c ****     #endif /* (CY_IP_WCO) */
  47:.\Generated_Source\PSoC4/CyLib.c **** #endif /* (CY_IP_SRSSV2) */
  48:.\Generated_Source\PSoC4/CyLib.c **** 
  49:.\Generated_Source\PSoC4/CyLib.c **** 
  50:.\Generated_Source\PSoC4/CyLib.c **** static cySysTickCallback CySysTickCallbacks[CY_SYS_SYST_NUM_OF_CALLBACKS];
  51:.\Generated_Source\PSoC4/CyLib.c **** static void CySysTickServiceCallbacks(void);
  52:.\Generated_Source\PSoC4/CyLib.c **** uint32 CySysTickInitVar = 0u;
  53:.\Generated_Source\PSoC4/CyLib.c **** 
  54:.\Generated_Source\PSoC4/CyLib.c **** 
  55:.\Generated_Source\PSoC4/CyLib.c **** #if(CY_IP_SRSSV2)
  56:.\Generated_Source\PSoC4/CyLib.c ****         /* Conversion between CySysClkWriteImoFreq() parameter and register's value */
  57:.\Generated_Source\PSoC4/CyLib.c ****         const uint8 cyImoFreqMhz2Reg[CY_SYS_CLK_IMO_FREQ_TABLE_SIZE] = {
  58:.\Generated_Source\PSoC4/CyLib.c ****             /*  3 MHz */ 0x03u,  /*  4 MHz */ 0x04u,  /*  5 MHz */ 0x05u,  /*  6 MHz */ 0x06u,
  59:.\Generated_Source\PSoC4/CyLib.c ****             /*  7 MHz */ 0x07u,  /*  8 MHz */ 0x08u,  /*  9 MHz */ 0x09u,  /* 10 MHz */ 0x0Au,
  60:.\Generated_Source\PSoC4/CyLib.c ****             /* 11 MHz */ 0x0Bu,  /* 12 MHz */ 0x0Cu,  /* 13 MHz */ 0x0Eu,  /* 14 MHz */ 0x0Fu,
ARM GAS  C:\Users\CHRIST~1\AppData\Local\Temp\cc8KQrfd.s 			page 23


  61:.\Generated_Source\PSoC4/CyLib.c ****             /* 15 MHz */ 0x10u,  /* 16 MHz */ 0x11u,  /* 17 MHz */ 0x12u,  /* 18 MHz */ 0x13u,
  62:.\Generated_Source\PSoC4/CyLib.c ****             /* 19 MHz */ 0x14u,  /* 20 MHz */ 0x15u,  /* 21 MHz */ 0x16u,  /* 22 MHz */ 0x17u,
  63:.\Generated_Source\PSoC4/CyLib.c ****             /* 23 MHz */ 0x18u,  /* 24 MHz */ 0x19u,  /* 25 MHz */ 0x1Bu,  /* 26 MHz */ 0x1Cu,
  64:.\Generated_Source\PSoC4/CyLib.c ****             /* 27 MHz */ 0x1Du,  /* 28 MHz */ 0x1Eu,  /* 29 MHz */ 0x1Fu,  /* 30 MHz */ 0x20u,
  65:.\Generated_Source\PSoC4/CyLib.c ****             /* 31 MHz */ 0x21u,  /* 32 MHz */ 0x22u,  /* 33 MHz */ 0x23u,  /* 34 MHz */ 0x25u,
  66:.\Generated_Source\PSoC4/CyLib.c ****             /* 35 MHz */ 0x26u,  /* 36 MHz */ 0x27u,  /* 37 MHz */ 0x28u,  /* 38 MHz */ 0x29u,
  67:.\Generated_Source\PSoC4/CyLib.c ****             /* 39 MHz */ 0x2Au,  /* 40 MHz */ 0x2Bu,  /* 41 MHz */ 0x2Eu,  /* 42 MHz */ 0x2Fu,
  68:.\Generated_Source\PSoC4/CyLib.c ****             /* 43 MHz */ 0x30u,  /* 44 MHz */ 0x31u,  /* 45 MHz */ 0x32u,  /* 46 MHz */ 0x33u,
  69:.\Generated_Source\PSoC4/CyLib.c ****             /* 47 MHz */ 0x34u,  /* 48 MHz */ 0x35u };
  70:.\Generated_Source\PSoC4/CyLib.c **** #endif /* (CY_IP_SRSSV2) */
  71:.\Generated_Source\PSoC4/CyLib.c **** 
  72:.\Generated_Source\PSoC4/CyLib.c **** 
  73:.\Generated_Source\PSoC4/CyLib.c **** /*******************************************************************************
  74:.\Generated_Source\PSoC4/CyLib.c **** * Function Name: CySysClkImoStart
  75:.\Generated_Source\PSoC4/CyLib.c **** ********************************************************************************
  76:.\Generated_Source\PSoC4/CyLib.c **** *
  77:.\Generated_Source\PSoC4/CyLib.c **** * Summary:
  78:.\Generated_Source\PSoC4/CyLib.c **** *  Enables the IMO.
  79:.\Generated_Source\PSoC4/CyLib.c **** *
  80:.\Generated_Source\PSoC4/CyLib.c **** * Parameters:
  81:.\Generated_Source\PSoC4/CyLib.c **** *  None
  82:.\Generated_Source\PSoC4/CyLib.c **** *
  83:.\Generated_Source\PSoC4/CyLib.c **** * Return:
  84:.\Generated_Source\PSoC4/CyLib.c **** *  None
  85:.\Generated_Source\PSoC4/CyLib.c **** *
  86:.\Generated_Source\PSoC4/CyLib.c **** *******************************************************************************/
  87:.\Generated_Source\PSoC4/CyLib.c **** void CySysClkImoStart(void)
  88:.\Generated_Source\PSoC4/CyLib.c **** {
 250              		.loc 2 88 0
 251              		.cfi_startproc
 252 0000 80B5     		push	{r7, lr}
 253              		.cfi_def_cfa_offset 8
 254              		.cfi_offset 7, -8
 255              		.cfi_offset 14, -4
 256 0002 00AF     		add	r7, sp, #0
 257              		.cfi_def_cfa_register 7
  89:.\Generated_Source\PSoC4/CyLib.c ****     CY_SYS_CLK_IMO_CONFIG_REG |= CY_SYS_CLK_IMO_CONFIG_ENABLE;
 258              		.loc 2 89 0
 259 0004 044B     		ldr	r3, .L8
 260 0006 044A     		ldr	r2, .L8
 261 0008 1268     		ldr	r2, [r2]
 262 000a 8021     		mov	r1, #128
 263 000c 0906     		lsl	r1, r1, #24
 264 000e 0A43     		orr	r2, r1
 265 0010 1A60     		str	r2, [r3]
  90:.\Generated_Source\PSoC4/CyLib.c **** }
 266              		.loc 2 90 0
 267 0012 BD46     		mov	sp, r7
 268              		@ sp needed
 269 0014 80BD     		pop	{r7, pc}
 270              	.L9:
 271 0016 C046     		.align	2
 272              	.L8:
 273 0018 08010B40 		.word	1074462984
 274              		.cfi_endproc
 275              	.LFE2:
 276              		.size	CySysClkImoStart, .-CySysClkImoStart
ARM GAS  C:\Users\CHRIST~1\AppData\Local\Temp\cc8KQrfd.s 			page 24


 277              		.section	.text.CySysClkImoStop,"ax",%progbits
 278              		.align	2
 279              		.global	CySysClkImoStop
 280              		.code	16
 281              		.thumb_func
 282              		.type	CySysClkImoStop, %function
 283              	CySysClkImoStop:
 284              	.LFB3:
  91:.\Generated_Source\PSoC4/CyLib.c **** 
  92:.\Generated_Source\PSoC4/CyLib.c **** 
  93:.\Generated_Source\PSoC4/CyLib.c **** /*******************************************************************************
  94:.\Generated_Source\PSoC4/CyLib.c **** * Function Name: CySysClkImoStop
  95:.\Generated_Source\PSoC4/CyLib.c **** ********************************************************************************
  96:.\Generated_Source\PSoC4/CyLib.c **** *
  97:.\Generated_Source\PSoC4/CyLib.c **** * Summary:
  98:.\Generated_Source\PSoC4/CyLib.c **** *  Disables the IMO.
  99:.\Generated_Source\PSoC4/CyLib.c **** *
 100:.\Generated_Source\PSoC4/CyLib.c **** * Parameters:
 101:.\Generated_Source\PSoC4/CyLib.c **** *  None
 102:.\Generated_Source\PSoC4/CyLib.c **** *
 103:.\Generated_Source\PSoC4/CyLib.c **** * Return:
 104:.\Generated_Source\PSoC4/CyLib.c **** *  None
 105:.\Generated_Source\PSoC4/CyLib.c **** *
 106:.\Generated_Source\PSoC4/CyLib.c **** *******************************************************************************/
 107:.\Generated_Source\PSoC4/CyLib.c **** void CySysClkImoStop(void)
 108:.\Generated_Source\PSoC4/CyLib.c **** {
 285              		.loc 2 108 0
 286              		.cfi_startproc
 287 0000 80B5     		push	{r7, lr}
 288              		.cfi_def_cfa_offset 8
 289              		.cfi_offset 7, -8
 290              		.cfi_offset 14, -4
 291 0002 00AF     		add	r7, sp, #0
 292              		.cfi_def_cfa_register 7
 109:.\Generated_Source\PSoC4/CyLib.c ****     CY_SYS_CLK_IMO_CONFIG_REG &= ( uint32 ) ( ~( uint32 )CY_SYS_CLK_IMO_CONFIG_ENABLE);
 293              		.loc 2 109 0
 294 0004 034B     		ldr	r3, .L11
 295 0006 034A     		ldr	r2, .L11
 296 0008 1268     		ldr	r2, [r2]
 297 000a 5200     		lsl	r2, r2, #1
 298 000c 5208     		lsr	r2, r2, #1
 299 000e 1A60     		str	r2, [r3]
 110:.\Generated_Source\PSoC4/CyLib.c **** }
 300              		.loc 2 110 0
 301 0010 BD46     		mov	sp, r7
 302              		@ sp needed
 303 0012 80BD     		pop	{r7, pc}
 304              	.L12:
 305              		.align	2
 306              	.L11:
 307 0014 08010B40 		.word	1074462984
 308              		.cfi_endproc
 309              	.LFE3:
 310              		.size	CySysClkImoStop, .-CySysClkImoStop
 311              		.section	.text.CySysClkIloStart,"ax",%progbits
 312              		.align	2
 313              		.global	CySysClkIloStart
ARM GAS  C:\Users\CHRIST~1\AppData\Local\Temp\cc8KQrfd.s 			page 25


 314              		.code	16
 315              		.thumb_func
 316              		.type	CySysClkIloStart, %function
 317              	CySysClkIloStart:
 318              	.LFB4:
 111:.\Generated_Source\PSoC4/CyLib.c **** 
 112:.\Generated_Source\PSoC4/CyLib.c **** 
 113:.\Generated_Source\PSoC4/CyLib.c **** /*******************************************************************************
 114:.\Generated_Source\PSoC4/CyLib.c **** * Function Name: CySysClkIloStart
 115:.\Generated_Source\PSoC4/CyLib.c **** ********************************************************************************
 116:.\Generated_Source\PSoC4/CyLib.c **** *
 117:.\Generated_Source\PSoC4/CyLib.c **** * Summary:
 118:.\Generated_Source\PSoC4/CyLib.c **** *  Enables the ILO. Refer to the device datasheet for the ILO startup time.
 119:.\Generated_Source\PSoC4/CyLib.c **** *
 120:.\Generated_Source\PSoC4/CyLib.c **** * Parameters:
 121:.\Generated_Source\PSoC4/CyLib.c **** *  None
 122:.\Generated_Source\PSoC4/CyLib.c **** *
 123:.\Generated_Source\PSoC4/CyLib.c **** * Return:
 124:.\Generated_Source\PSoC4/CyLib.c **** *  None
 125:.\Generated_Source\PSoC4/CyLib.c **** *
 126:.\Generated_Source\PSoC4/CyLib.c **** *******************************************************************************/
 127:.\Generated_Source\PSoC4/CyLib.c **** void CySysClkIloStart(void)
 128:.\Generated_Source\PSoC4/CyLib.c **** {
 319              		.loc 2 128 0
 320              		.cfi_startproc
 321 0000 80B5     		push	{r7, lr}
 322              		.cfi_def_cfa_offset 8
 323              		.cfi_offset 7, -8
 324              		.cfi_offset 14, -4
 325 0002 00AF     		add	r7, sp, #0
 326              		.cfi_def_cfa_register 7
 129:.\Generated_Source\PSoC4/CyLib.c ****     CY_SYS_CLK_ILO_CONFIG_REG |= CY_SYS_CLK_ILO_CONFIG_ENABLE;
 327              		.loc 2 129 0
 328 0004 044B     		ldr	r3, .L14
 329 0006 044A     		ldr	r2, .L14
 330 0008 1268     		ldr	r2, [r2]
 331 000a 8021     		mov	r1, #128
 332 000c 0906     		lsl	r1, r1, #24
 333 000e 0A43     		orr	r2, r1
 334 0010 1A60     		str	r2, [r3]
 130:.\Generated_Source\PSoC4/CyLib.c **** }
 335              		.loc 2 130 0
 336 0012 BD46     		mov	sp, r7
 337              		@ sp needed
 338 0014 80BD     		pop	{r7, pc}
 339              	.L15:
 340 0016 C046     		.align	2
 341              	.L14:
 342 0018 04010B40 		.word	1074462980
 343              		.cfi_endproc
 344              	.LFE4:
 345              		.size	CySysClkIloStart, .-CySysClkIloStart
 346              		.section	.text.CySysClkIloStop,"ax",%progbits
 347              		.align	2
 348              		.global	CySysClkIloStop
 349              		.code	16
 350              		.thumb_func
ARM GAS  C:\Users\CHRIST~1\AppData\Local\Temp\cc8KQrfd.s 			page 26


 351              		.type	CySysClkIloStop, %function
 352              	CySysClkIloStop:
 353              	.LFB5:
 131:.\Generated_Source\PSoC4/CyLib.c **** 
 132:.\Generated_Source\PSoC4/CyLib.c **** 
 133:.\Generated_Source\PSoC4/CyLib.c **** /*******************************************************************************
 134:.\Generated_Source\PSoC4/CyLib.c **** * Function Name: CySysClkIloStop
 135:.\Generated_Source\PSoC4/CyLib.c **** ********************************************************************************
 136:.\Generated_Source\PSoC4/CyLib.c **** *
 137:.\Generated_Source\PSoC4/CyLib.c **** * Summary:
 138:.\Generated_Source\PSoC4/CyLib.c **** *  Disables the ILO.
 139:.\Generated_Source\PSoC4/CyLib.c **** *
 140:.\Generated_Source\PSoC4/CyLib.c **** * Parameters:
 141:.\Generated_Source\PSoC4/CyLib.c **** *  None
 142:.\Generated_Source\PSoC4/CyLib.c **** *
 143:.\Generated_Source\PSoC4/CyLib.c **** * Return:
 144:.\Generated_Source\PSoC4/CyLib.c **** *  None
 145:.\Generated_Source\PSoC4/CyLib.c **** *
 146:.\Generated_Source\PSoC4/CyLib.c **** * Side Effects:
 147:.\Generated_Source\PSoC4/CyLib.c **** *  This function will have no effect if the WDT is locked (CySysWdtLock() is
 148:.\Generated_Source\PSoC4/CyLib.c **** *  called). Call CySysWdtUnlock() to unlock the WDT and be able to stop ILO.
 149:.\Generated_Source\PSoC4/CyLib.c **** *
 150:.\Generated_Source\PSoC4/CyLib.c **** *  PSoC 4100 / PSoC 4200: Note that ILO is required for WDT's operation.
 151:.\Generated_Source\PSoC4/CyLib.c **** *  The ILO is required for the WDT operation.
 152:.\Generated_Source\PSoC4/CyLib.c **** *
 153:.\Generated_Source\PSoC4/CyLib.c **** *  PSoC 4100-BL / PSoC 4200-BL:
 154:.\Generated_Source\PSoC4/CyLib.c **** *  Stopping the ILO will affect the peripheral clocked by the LFCLK, if the
 155:.\Generated_Source\PSoC4/CyLib.c **** *  LFCLK is configured to be sourced by the ILO.
 156:.\Generated_Source\PSoC4/CyLib.c **** *
 157:.\Generated_Source\PSoC4/CyLib.c **** *******************************************************************************/
 158:.\Generated_Source\PSoC4/CyLib.c **** void CySysClkIloStop(void)
 159:.\Generated_Source\PSoC4/CyLib.c **** {
 354              		.loc 2 159 0
 355              		.cfi_startproc
 356 0000 90B5     		push	{r4, r7, lr}
 357              		.cfi_def_cfa_offset 12
 358              		.cfi_offset 4, -12
 359              		.cfi_offset 7, -8
 360              		.cfi_offset 14, -4
 361 0002 83B0     		sub	sp, sp, #12
 362              		.cfi_def_cfa_offset 24
 363 0004 00AF     		add	r7, sp, #0
 364              		.cfi_def_cfa_register 7
 160:.\Generated_Source\PSoC4/CyLib.c ****     #if(CY_IP_SRSSV2)
 161:.\Generated_Source\PSoC4/CyLib.c ****         uint8  interruptState;
 162:.\Generated_Source\PSoC4/CyLib.c **** 
 163:.\Generated_Source\PSoC4/CyLib.c ****         /* Do nothing if WDT is locked or ILO is disabled */
 164:.\Generated_Source\PSoC4/CyLib.c ****         if (0u == CySysWdtLocked())
 365              		.loc 2 164 0
 366 0006 FFF7FEFF 		bl	CySysWdtLocked
 367 000a 031E     		sub	r3, r0, #0
 368 000c 22D1     		bne	.L16
 165:.\Generated_Source\PSoC4/CyLib.c ****         {
 166:.\Generated_Source\PSoC4/CyLib.c ****             if (0u != CySysClkIloEnabled())
 369              		.loc 2 166 0
 370 000e FFF7FEFF 		bl	CySysClkIloEnabled
 371 0012 031E     		sub	r3, r0, #0
ARM GAS  C:\Users\CHRIST~1\AppData\Local\Temp\cc8KQrfd.s 			page 27


 372 0014 1ED0     		beq	.L16
 167:.\Generated_Source\PSoC4/CyLib.c ****             {
 168:.\Generated_Source\PSoC4/CyLib.c **** 
 169:.\Generated_Source\PSoC4/CyLib.c ****             #if (CY_IP_WCO)
 170:.\Generated_Source\PSoC4/CyLib.c ****                 if (CY_SYS_CLK_LFCLK_SRC_ILO == CySysClkGetLfclkSource())
 373              		.loc 2 170 0
 374 0016 FFF7FEFF 		bl	CySysClkGetLfclkSource
 375 001a 031E     		sub	r3, r0, #0
 376 001c 14D1     		bne	.L18
 171:.\Generated_Source\PSoC4/CyLib.c ****                 {
 172:.\Generated_Source\PSoC4/CyLib.c ****             #endif /* (CY_IP_WCO) */
 173:.\Generated_Source\PSoC4/CyLib.c **** 
 174:.\Generated_Source\PSoC4/CyLib.c ****                 interruptState = CyEnterCriticalSection();
 377              		.loc 2 174 0
 378 001e FC1D     		add	r4, r7, #7
 379 0020 FFF7FEFF 		bl	CyEnterCriticalSection
 380 0024 031C     		mov	r3, r0
 381 0026 2370     		strb	r3, [r4]
 175:.\Generated_Source\PSoC4/CyLib.c ****                 CySysClkLfclkPosedgeCatch();
 382              		.loc 2 175 0
 383 0028 FFF7FEFF 		bl	CySysClkLfclkPosedgeCatch
 176:.\Generated_Source\PSoC4/CyLib.c ****                 CY_SYS_CLK_ILO_CONFIG_REG &= ( uint32 ) ( ~( uint32 )CY_SYS_CLK_ILO_CONFIG_ENABLE);
 384              		.loc 2 176 0
 385 002c 0B4B     		ldr	r3, .L19
 386 002e 0B4A     		ldr	r2, .L19
 387 0030 1268     		ldr	r2, [r2]
 388 0032 5200     		lsl	r2, r2, #1
 389 0034 5208     		lsr	r2, r2, #1
 390 0036 1A60     		str	r2, [r3]
 177:.\Generated_Source\PSoC4/CyLib.c ****                 CySysClkLfclkPosedgeRestore();
 391              		.loc 2 177 0
 392 0038 FFF7FEFF 		bl	CySysClkLfclkPosedgeRestore
 178:.\Generated_Source\PSoC4/CyLib.c ****                 CyExitCriticalSection(interruptState);
 393              		.loc 2 178 0
 394 003c FB1D     		add	r3, r7, #7
 395 003e 1B78     		ldrb	r3, [r3]
 396 0040 181C     		mov	r0, r3
 397 0042 FFF7FEFF 		bl	CyExitCriticalSection
 398 0046 05E0     		b	.L16
 399              	.L18:
 179:.\Generated_Source\PSoC4/CyLib.c **** 
 180:.\Generated_Source\PSoC4/CyLib.c ****             #if (CY_IP_WCO)
 181:.\Generated_Source\PSoC4/CyLib.c ****                 }
 182:.\Generated_Source\PSoC4/CyLib.c ****                 else /* Safe to disable - shortened pulse does not impact peripheral */
 183:.\Generated_Source\PSoC4/CyLib.c ****                 {
 184:.\Generated_Source\PSoC4/CyLib.c ****                     CY_SYS_CLK_ILO_CONFIG_REG &= ( uint32 ) ( ~( uint32 )CY_SYS_CLK_ILO_CONFIG_ENAB
 400              		.loc 2 184 0
 401 0048 044B     		ldr	r3, .L19
 402 004a 044A     		ldr	r2, .L19
 403 004c 1268     		ldr	r2, [r2]
 404 004e 5200     		lsl	r2, r2, #1
 405 0050 5208     		lsr	r2, r2, #1
 406 0052 1A60     		str	r2, [r3]
 407              	.L16:
 185:.\Generated_Source\PSoC4/CyLib.c ****                 }
 186:.\Generated_Source\PSoC4/CyLib.c ****             #endif /* (CY_IP_WCO) */
 187:.\Generated_Source\PSoC4/CyLib.c **** 
ARM GAS  C:\Users\CHRIST~1\AppData\Local\Temp\cc8KQrfd.s 			page 28


 188:.\Generated_Source\PSoC4/CyLib.c ****             }
 189:.\Generated_Source\PSoC4/CyLib.c ****         }
 190:.\Generated_Source\PSoC4/CyLib.c ****     #else
 191:.\Generated_Source\PSoC4/CyLib.c ****         CY_SYS_CLK_ILO_CONFIG_REG &= ( uint32 ) ( ~( uint32 )CY_SYS_CLK_ILO_CONFIG_ENABLE);
 192:.\Generated_Source\PSoC4/CyLib.c ****     #endif /* (CY_IP_SRSSV2) */
 193:.\Generated_Source\PSoC4/CyLib.c **** }
 408              		.loc 2 193 0
 409 0054 BD46     		mov	sp, r7
 410 0056 03B0     		add	sp, sp, #12
 411              		@ sp needed
 412 0058 90BD     		pop	{r4, r7, pc}
 413              	.L20:
 414 005a C046     		.align	2
 415              	.L19:
 416 005c 04010B40 		.word	1074462980
 417              		.cfi_endproc
 418              	.LFE5:
 419              		.size	CySysClkIloStop, .-CySysClkIloStop
 420              		.section	.text.CySysClkIloEnabled,"ax",%progbits
 421              		.align	2
 422              		.code	16
 423              		.thumb_func
 424              		.type	CySysClkIloEnabled, %function
 425              	CySysClkIloEnabled:
 426              	.LFB6:
 194:.\Generated_Source\PSoC4/CyLib.c **** 
 195:.\Generated_Source\PSoC4/CyLib.c **** #if(CY_IP_SRSSV2)
 196:.\Generated_Source\PSoC4/CyLib.c ****     /*******************************************************************************
 197:.\Generated_Source\PSoC4/CyLib.c ****     * Function Name: CySysClkIloEnabled
 198:.\Generated_Source\PSoC4/CyLib.c ****     ********************************************************************************
 199:.\Generated_Source\PSoC4/CyLib.c ****     *
 200:.\Generated_Source\PSoC4/CyLib.c ****     * Summary:
 201:.\Generated_Source\PSoC4/CyLib.c ****     *  Reports ILO enable state.
 202:.\Generated_Source\PSoC4/CyLib.c ****     *
 203:.\Generated_Source\PSoC4/CyLib.c ****     * Parameters:
 204:.\Generated_Source\PSoC4/CyLib.c ****     *  None
 205:.\Generated_Source\PSoC4/CyLib.c ****     *
 206:.\Generated_Source\PSoC4/CyLib.c ****     * Return:
 207:.\Generated_Source\PSoC4/CyLib.c ****     *  1 if ILO is enabled, and 0 if ILO is disabled.
 208:.\Generated_Source\PSoC4/CyLib.c ****     *
 209:.\Generated_Source\PSoC4/CyLib.c ****     *******************************************************************************/
 210:.\Generated_Source\PSoC4/CyLib.c ****     static uint32 CySysClkIloEnabled(void)
 211:.\Generated_Source\PSoC4/CyLib.c ****     {
 427              		.loc 2 211 0
 428              		.cfi_startproc
 429 0000 80B5     		push	{r7, lr}
 430              		.cfi_def_cfa_offset 8
 431              		.cfi_offset 7, -8
 432              		.cfi_offset 14, -4
 433 0002 00AF     		add	r7, sp, #0
 434              		.cfi_def_cfa_register 7
 212:.\Generated_Source\PSoC4/CyLib.c ****         /* Prohibits writing to WDT registers and ILO/WCO registers when not equal 0 */
 213:.\Generated_Source\PSoC4/CyLib.c ****         return ((0u != (CY_SYS_CLK_ILO_CONFIG_REG & (uint32)(CY_SYS_CLK_ILO_CONFIG_ENABLE))) ?
 435              		.loc 2 213 0
 436 0004 044B     		ldr	r3, .L25
 437 0006 1B68     		ldr	r3, [r3]
 214:.\Generated_Source\PSoC4/CyLib.c ****             (uint32) 1u :
ARM GAS  C:\Users\CHRIST~1\AppData\Local\Temp\cc8KQrfd.s 			page 29


 438              		.loc 2 214 0
 439 0008 002B     		cmp	r3, #0
 440 000a 01DA     		bge	.L22
 441              		.loc 2 214 0 is_stmt 0 discriminator 1
 442 000c 0123     		mov	r3, #1
 443 000e 00E0     		b	.L23
 444              	.L22:
 445              		.loc 2 214 0 discriminator 2
 446 0010 0023     		mov	r3, #0
 447              	.L23:
 215:.\Generated_Source\PSoC4/CyLib.c ****             (uint32) 0u);
 216:.\Generated_Source\PSoC4/CyLib.c ****     }
 448              		.loc 2 216 0 is_stmt 1
 449 0012 181C     		mov	r0, r3
 450 0014 BD46     		mov	sp, r7
 451              		@ sp needed
 452 0016 80BD     		pop	{r7, pc}
 453              	.L26:
 454              		.align	2
 455              	.L25:
 456 0018 04010B40 		.word	1074462980
 457              		.cfi_endproc
 458              	.LFE6:
 459              		.size	CySysClkIloEnabled, .-CySysClkIloEnabled
 460              		.section	.text.CySysClkGetLfclkSource,"ax",%progbits
 461              		.align	2
 462              		.code	16
 463              		.thumb_func
 464              		.type	CySysClkGetLfclkSource, %function
 465              	CySysClkGetLfclkSource:
 466              	.LFB7:
 217:.\Generated_Source\PSoC4/CyLib.c **** #endif /* (CY_IP_SRSSV2) */
 218:.\Generated_Source\PSoC4/CyLib.c **** 
 219:.\Generated_Source\PSoC4/CyLib.c **** 
 220:.\Generated_Source\PSoC4/CyLib.c **** /*******************************************************************************
 221:.\Generated_Source\PSoC4/CyLib.c **** * Function Name: CySysClkGetLfclkSource
 222:.\Generated_Source\PSoC4/CyLib.c **** ********************************************************************************
 223:.\Generated_Source\PSoC4/CyLib.c **** *
 224:.\Generated_Source\PSoC4/CyLib.c **** * Summary:
 225:.\Generated_Source\PSoC4/CyLib.c **** *  Gets the clock source for the LFCLK clock.
 226:.\Generated_Source\PSoC4/CyLib.c **** *  The function is applicable only for the PSoC 4100-BL and PSoC 4200-BL.
 227:.\Generated_Source\PSoC4/CyLib.c **** *
 228:.\Generated_Source\PSoC4/CyLib.c **** * Parameters:
 229:.\Generated_Source\PSoC4/CyLib.c **** *  None
 230:.\Generated_Source\PSoC4/CyLib.c **** *
 231:.\Generated_Source\PSoC4/CyLib.c **** * Return:
 232:.\Generated_Source\PSoC4/CyLib.c **** *  The LFCLK source:
 233:.\Generated_Source\PSoC4/CyLib.c **** *   CY_SYS_CLK_LFCLK_SRC_ILO    Internal Low Frequency (32 kHz) Oscillator (ILO)
 234:.\Generated_Source\PSoC4/CyLib.c **** *   CY_SYS_CLK_LFCLK_SRC_WCO    Low Frequency Watch Crystal Oscillator (WCO)
 235:.\Generated_Source\PSoC4/CyLib.c **** *
 236:.\Generated_Source\PSoC4/CyLib.c **** *******************************************************************************/
 237:.\Generated_Source\PSoC4/CyLib.c **** #if (CY_IP_WCO)
 238:.\Generated_Source\PSoC4/CyLib.c ****     static uint32 CySysClkGetLfclkSource(void)
 239:.\Generated_Source\PSoC4/CyLib.c ****     {
 467              		.loc 2 239 0
 468              		.cfi_startproc
 469 0000 80B5     		push	{r7, lr}
ARM GAS  C:\Users\CHRIST~1\AppData\Local\Temp\cc8KQrfd.s 			page 30


 470              		.cfi_def_cfa_offset 8
 471              		.cfi_offset 7, -8
 472              		.cfi_offset 14, -4
 473 0002 82B0     		sub	sp, sp, #8
 474              		.cfi_def_cfa_offset 16
 475 0004 00AF     		add	r7, sp, #0
 476              		.cfi_def_cfa_register 7
 240:.\Generated_Source\PSoC4/CyLib.c ****         uint32 lfclkSource;
 241:.\Generated_Source\PSoC4/CyLib.c ****         lfclkSource = CY_SYS_WDT_CONFIG_REG & CY_SYS_CLK_LFCLK_SEL_MASK;
 477              		.loc 2 241 0
 478 0006 054B     		ldr	r3, .L29
 479 0008 1B68     		ldr	r3, [r3]
 480 000a 9B0F     		lsr	r3, r3, #30
 481 000c 9B07     		lsl	r3, r3, #30
 482 000e 7B60     		str	r3, [r7, #4]
 242:.\Generated_Source\PSoC4/CyLib.c ****         return (lfclkSource);
 483              		.loc 2 242 0
 484 0010 7B68     		ldr	r3, [r7, #4]
 243:.\Generated_Source\PSoC4/CyLib.c ****     }
 485              		.loc 2 243 0
 486 0012 181C     		mov	r0, r3
 487 0014 BD46     		mov	sp, r7
 488 0016 02B0     		add	sp, sp, #8
 489              		@ sp needed
 490 0018 80BD     		pop	{r7, pc}
 491              	.L30:
 492 001a C046     		.align	2
 493              	.L29:
 494 001c 0C020B40 		.word	1074463244
 495              		.cfi_endproc
 496              	.LFE7:
 497              		.size	CySysClkGetLfclkSource, .-CySysClkGetLfclkSource
 498              		.section	.text.CySysClkSetLfclkSource,"ax",%progbits
 499              		.align	2
 500              		.global	CySysClkSetLfclkSource
 501              		.code	16
 502              		.thumb_func
 503              		.type	CySysClkSetLfclkSource, %function
 504              	CySysClkSetLfclkSource:
 505              	.LFB8:
 244:.\Generated_Source\PSoC4/CyLib.c **** #endif /* (CY_IP_WCO) */
 245:.\Generated_Source\PSoC4/CyLib.c **** 
 246:.\Generated_Source\PSoC4/CyLib.c **** 
 247:.\Generated_Source\PSoC4/CyLib.c **** /*******************************************************************************
 248:.\Generated_Source\PSoC4/CyLib.c **** * Function Name: CySysClkSetLfclkSource
 249:.\Generated_Source\PSoC4/CyLib.c **** ********************************************************************************
 250:.\Generated_Source\PSoC4/CyLib.c **** *
 251:.\Generated_Source\PSoC4/CyLib.c **** * Summary:
 252:.\Generated_Source\PSoC4/CyLib.c **** *  Sets the clock source for the LFCLK clock.
 253:.\Generated_Source\PSoC4/CyLib.c **** *
 254:.\Generated_Source\PSoC4/CyLib.c **** *  The switch between LFCLK sources must be done between positive edges of
 255:.\Generated_Source\PSoC4/CyLib.c **** *  the LFCLK, because the glitch risk is around LFCLK positive edge. To ensure
 256:.\Generated_Source\PSoC4/CyLib.c **** *  that the switch can be done safely, the WDT counter value is read until it
 257:.\Generated_Source\PSoC4/CyLib.c **** *  changes.
 258:.\Generated_Source\PSoC4/CyLib.c **** *
 259:.\Generated_Source\PSoC4/CyLib.c **** *  That means that the positive edge just finished and the switch is performed.
 260:.\Generated_Source\PSoC4/CyLib.c **** *  The enabled WDT counter is used for that purpose. If no counters are enabled,
ARM GAS  C:\Users\CHRIST~1\AppData\Local\Temp\cc8KQrfd.s 			page 31


 261:.\Generated_Source\PSoC4/CyLib.c **** *  the counter 0 is enabled. And after LFCLK source is switched, the counter 0
 262:.\Generated_Source\PSoC4/CyLib.c **** *  configuration is restored back.
 263:.\Generated_Source\PSoC4/CyLib.c **** *
 264:.\Generated_Source\PSoC4/CyLib.c **** *  The function is applicable only for the PSoC 4100-BL and PSoC 4200-BL.
 265:.\Generated_Source\PSoC4/CyLib.c **** *
 266:.\Generated_Source\PSoC4/CyLib.c **** * Parameters:
 267:.\Generated_Source\PSoC4/CyLib.c **** *  source: One of the available LFCLK sources.
 268:.\Generated_Source\PSoC4/CyLib.c **** *   CY_SYS_CLK_LFCLK_SRC_ILO    Internal Low Frequency (32 kHz) Oscillator (ILO)
 269:.\Generated_Source\PSoC4/CyLib.c **** *   CY_SYS_CLK_LFCLK_SRC_WCO    Low Frequency Watch Crystal Oscillator (WCO)
 270:.\Generated_Source\PSoC4/CyLib.c **** *
 271:.\Generated_Source\PSoC4/CyLib.c **** * Return:
 272:.\Generated_Source\PSoC4/CyLib.c **** *  None
 273:.\Generated_Source\PSoC4/CyLib.c **** *
 274:.\Generated_Source\PSoC4/CyLib.c **** * Side Effects:
 275:.\Generated_Source\PSoC4/CyLib.c **** *  This function will have no effect if the WDT is locked (CySysWdtLock() is
 276:.\Generated_Source\PSoC4/CyLib.c **** *  called). Call CySysWdtUnlock() to unlock the WDT.
 277:.\Generated_Source\PSoC4/CyLib.c **** *
 278:.\Generated_Source\PSoC4/CyLib.c **** *  The current source and the new source must both be running and stable before
 279:.\Generated_Source\PSoC4/CyLib.c **** *  calling this function.
 280:.\Generated_Source\PSoC4/CyLib.c **** *
 281:.\Generated_Source\PSoC4/CyLib.c **** *  Changing the LFCLK clock source may change the LFCLK clock frequency and
 282:.\Generated_Source\PSoC4/CyLib.c **** *  affect the functionality that uses this clock. For example, watchdog timer
 283:.\Generated_Source\PSoC4/CyLib.c **** *  (WDT) is clocked by LFCLK.
 284:.\Generated_Source\PSoC4/CyLib.c **** *
 285:.\Generated_Source\PSoC4/CyLib.c **** *******************************************************************************/
 286:.\Generated_Source\PSoC4/CyLib.c **** #if (CY_IP_WCO)
 287:.\Generated_Source\PSoC4/CyLib.c ****     void CySysClkSetLfclkSource(uint32 source)
 288:.\Generated_Source\PSoC4/CyLib.c ****     {
 506              		.loc 2 288 0
 507              		.cfi_startproc
 508 0000 90B5     		push	{r4, r7, lr}
 509              		.cfi_def_cfa_offset 12
 510              		.cfi_offset 4, -12
 511              		.cfi_offset 7, -8
 512              		.cfi_offset 14, -4
 513 0002 85B0     		sub	sp, sp, #20
 514              		.cfi_def_cfa_offset 32
 515 0004 00AF     		add	r7, sp, #0
 516              		.cfi_def_cfa_register 7
 517 0006 7860     		str	r0, [r7, #4]
 289:.\Generated_Source\PSoC4/CyLib.c ****         uint8  interruptState;
 290:.\Generated_Source\PSoC4/CyLib.c **** 
 291:.\Generated_Source\PSoC4/CyLib.c ****         if (CySysClkGetLfclkSource() != source)
 518              		.loc 2 291 0
 519 0008 FFF7FEFF 		bl	CySysClkGetLfclkSource
 520 000c 021E     		sub	r2, r0, #0
 521 000e 7B68     		ldr	r3, [r7, #4]
 522 0010 9A42     		cmp	r2, r3
 523 0012 19D0     		beq	.L31
 292:.\Generated_Source\PSoC4/CyLib.c ****         {
 293:.\Generated_Source\PSoC4/CyLib.c ****             interruptState = CyEnterCriticalSection();
 524              		.loc 2 293 0
 525 0014 0F23     		mov	r3, #15
 526 0016 FC18     		add	r4, r7, r3
 527 0018 FFF7FEFF 		bl	CyEnterCriticalSection
 528 001c 031C     		mov	r3, r0
 529 001e 2370     		strb	r3, [r4]
ARM GAS  C:\Users\CHRIST~1\AppData\Local\Temp\cc8KQrfd.s 			page 32


 294:.\Generated_Source\PSoC4/CyLib.c **** 
 295:.\Generated_Source\PSoC4/CyLib.c ****             CySysClkLfclkPosedgeCatch();
 530              		.loc 2 295 0
 531 0020 FFF7FEFF 		bl	CySysClkLfclkPosedgeCatch
 296:.\Generated_Source\PSoC4/CyLib.c **** 
 297:.\Generated_Source\PSoC4/CyLib.c ****             CY_SYS_WDT_CONFIG_REG = (CY_SYS_WDT_CONFIG_REG & (uint32)(~CY_SYS_CLK_LFCLK_SEL_MASK)) 
 532              		.loc 2 297 0
 533 0024 0A4B     		ldr	r3, .L33
 534 0026 0A4A     		ldr	r2, .L33
 535 0028 1268     		ldr	r2, [r2]
 536 002a 9200     		lsl	r2, r2, #2
 537 002c 9108     		lsr	r1, r2, #2
 298:.\Generated_Source\PSoC4/CyLib.c ****                                     (source & CY_SYS_CLK_LFCLK_SEL_MASK);
 538              		.loc 2 298 0
 539 002e 7A68     		ldr	r2, [r7, #4]
 540 0030 920F     		lsr	r2, r2, #30
 541 0032 9207     		lsl	r2, r2, #30
 297:.\Generated_Source\PSoC4/CyLib.c ****                                     (source & CY_SYS_CLK_LFCLK_SEL_MASK);
 542              		.loc 2 297 0
 543 0034 0A43     		orr	r2, r1
 544 0036 1A60     		str	r2, [r3]
 299:.\Generated_Source\PSoC4/CyLib.c **** 
 300:.\Generated_Source\PSoC4/CyLib.c ****             CySysClkLfclkPosedgeRestore();
 545              		.loc 2 300 0
 546 0038 FFF7FEFF 		bl	CySysClkLfclkPosedgeRestore
 301:.\Generated_Source\PSoC4/CyLib.c **** 
 302:.\Generated_Source\PSoC4/CyLib.c ****             CyExitCriticalSection(interruptState);
 547              		.loc 2 302 0
 548 003c 0F23     		mov	r3, #15
 549 003e FB18     		add	r3, r7, r3
 550 0040 1B78     		ldrb	r3, [r3]
 551 0042 181C     		mov	r0, r3
 552 0044 FFF7FEFF 		bl	CyExitCriticalSection
 553              	.L31:
 303:.\Generated_Source\PSoC4/CyLib.c ****         }
 304:.\Generated_Source\PSoC4/CyLib.c ****     }
 554              		.loc 2 304 0
 555 0048 BD46     		mov	sp, r7
 556 004a 05B0     		add	sp, sp, #20
 557              		@ sp needed
 558 004c 90BD     		pop	{r4, r7, pc}
 559              	.L34:
 560 004e C046     		.align	2
 561              	.L33:
 562 0050 0C020B40 		.word	1074463244
 563              		.cfi_endproc
 564              	.LFE8:
 565              		.size	CySysClkSetLfclkSource, .-CySysClkSetLfclkSource
 566              		.section	.text.CySysClkWriteHfclkDirect,"ax",%progbits
 567              		.align	2
 568              		.global	CySysClkWriteHfclkDirect
 569              		.code	16
 570              		.thumb_func
 571              		.type	CySysClkWriteHfclkDirect, %function
 572              	CySysClkWriteHfclkDirect:
 573              	.LFB9:
 305:.\Generated_Source\PSoC4/CyLib.c **** #endif /* (CY_IP_WCO) */
ARM GAS  C:\Users\CHRIST~1\AppData\Local\Temp\cc8KQrfd.s 			page 33


 306:.\Generated_Source\PSoC4/CyLib.c **** 
 307:.\Generated_Source\PSoC4/CyLib.c **** 
 308:.\Generated_Source\PSoC4/CyLib.c **** /*******************************************************************************
 309:.\Generated_Source\PSoC4/CyLib.c **** * Function Name: CySysClkWriteHfclkDirect
 310:.\Generated_Source\PSoC4/CyLib.c **** ********************************************************************************
 311:.\Generated_Source\PSoC4/CyLib.c **** *
 312:.\Generated_Source\PSoC4/CyLib.c **** * Summary:
 313:.\Generated_Source\PSoC4/CyLib.c **** *  Selects the direct source for the HFCLK.
 314:.\Generated_Source\PSoC4/CyLib.c **** *
 315:.\Generated_Source\PSoC4/CyLib.c **** * Parameters:
 316:.\Generated_Source\PSoC4/CyLib.c **** *  clkSelect: One of the available HFCLK direct sources:
 317:.\Generated_Source\PSoC4/CyLib.c **** *   Define                    Source
 318:.\Generated_Source\PSoC4/CyLib.c **** *    CY_SYS_CLK_HFCLK_IMO      IMO
 319:.\Generated_Source\PSoC4/CyLib.c **** *    CY_SYS_CLK_HFCLK_EXTCLK   External clock pin
 320:.\Generated_Source\PSoC4/CyLib.c **** *    CY_SYS_CLK_HFCLK_ECO      External crystal oscillator
 321:.\Generated_Source\PSoC4/CyLib.c **** *                                           (applicable only for PSoC 4200-BL)
 322:.\Generated_Source\PSoC4/CyLib.c **** *
 323:.\Generated_Source\PSoC4/CyLib.c **** * Return:
 324:.\Generated_Source\PSoC4/CyLib.c **** *  None
 325:.\Generated_Source\PSoC4/CyLib.c **** *
 326:.\Generated_Source\PSoC4/CyLib.c **** * Side Effects:
 327:.\Generated_Source\PSoC4/CyLib.c **** *  The new source must be running and stable before calling this function.
 328:.\Generated_Source\PSoC4/CyLib.c **** *
 329:.\Generated_Source\PSoC4/CyLib.c **** *  PSoC 4000:
 330:.\Generated_Source\PSoC4/CyLib.c **** *  The SYSCLK has a maximum speed of 16 MHz, so HFCLK and SYSCLK dividers should
 331:.\Generated_Source\PSoC4/CyLib.c **** *  be selected in a way to not to exceed 16 MHz for the System clock.
 332:.\Generated_Source\PSoC4/CyLib.c **** *
 333:.\Generated_Source\PSoC4/CyLib.c **** *  If the SYSCLK clock frequency increases during device operation, call
 334:.\Generated_Source\PSoC4/CyLib.c **** *  CySysFlashSetWaitCycles() with the appropriate parameter to adjust the number
 335:.\Generated_Source\PSoC4/CyLib.c **** *  of clock cycles the cache will wait before sampling data comes back from Flash.
 336:.\Generated_Source\PSoC4/CyLib.c **** *  If the SYSCLK clock frequency decreases, you can call
 337:.\Generated_Source\PSoC4/CyLib.c **** *  CySysFlashSetWaitCycles() to improve the CPU performance. See
 338:.\Generated_Source\PSoC4/CyLib.c **** *  CySysFlashSetWaitCycles() description for more information.
 339:.\Generated_Source\PSoC4/CyLib.c **** *
 340:.\Generated_Source\PSoC4/CyLib.c **** *******************************************************************************/
 341:.\Generated_Source\PSoC4/CyLib.c **** void CySysClkWriteHfclkDirect(uint32 clkSelect)
 342:.\Generated_Source\PSoC4/CyLib.c **** {
 574              		.loc 2 342 0
 575              		.cfi_startproc
 576 0000 90B5     		push	{r4, r7, lr}
 577              		.cfi_def_cfa_offset 12
 578              		.cfi_offset 4, -12
 579              		.cfi_offset 7, -8
 580              		.cfi_offset 14, -4
 581 0002 85B0     		sub	sp, sp, #20
 582              		.cfi_def_cfa_offset 32
 583 0004 00AF     		add	r7, sp, #0
 584              		.cfi_def_cfa_register 7
 585 0006 7860     		str	r0, [r7, #4]
 343:.\Generated_Source\PSoC4/CyLib.c ****     uint8  interruptState;
 344:.\Generated_Source\PSoC4/CyLib.c **** 
 345:.\Generated_Source\PSoC4/CyLib.c ****     interruptState = CyEnterCriticalSection();
 586              		.loc 2 345 0
 587 0008 0F23     		mov	r3, #15
 588 000a FC18     		add	r4, r7, r3
 589 000c FFF7FEFF 		bl	CyEnterCriticalSection
 590 0010 031C     		mov	r3, r0
ARM GAS  C:\Users\CHRIST~1\AppData\Local\Temp\cc8KQrfd.s 			page 34


 591 0012 2370     		strb	r3, [r4]
 346:.\Generated_Source\PSoC4/CyLib.c **** 
 347:.\Generated_Source\PSoC4/CyLib.c ****     CY_SYS_CLK_SELECT_REG = ((CY_SYS_CLK_SELECT_REG & (( uint32 ) ~(( uint32 )CY_SYS_CLK_SELECT_DIR
 592              		.loc 2 347 0
 593 0014 094B     		ldr	r3, .L36
 594 0016 094A     		ldr	r2, .L36
 595 0018 1268     		ldr	r2, [r2]
 596 001a 0721     		mov	r1, #7
 597 001c 8A43     		bic	r2, r1
 598 001e 111C     		mov	r1, r2
 348:.\Generated_Source\PSoC4/CyLib.c ****                         (( uint32 ) (clkSelect & ( uint32 )CY_SYS_CLK_SELECT_DIRECT_SEL_PARAM_MASK)
 599              		.loc 2 348 0
 600 0020 7A68     		ldr	r2, [r7, #4]
 601 0022 0320     		mov	r0, #3
 602 0024 0240     		and	r2, r0
 347:.\Generated_Source\PSoC4/CyLib.c ****                         (( uint32 ) (clkSelect & ( uint32 )CY_SYS_CLK_SELECT_DIRECT_SEL_PARAM_MASK)
 603              		.loc 2 347 0
 604 0026 0A43     		orr	r2, r1
 605 0028 1A60     		str	r2, [r3]
 349:.\Generated_Source\PSoC4/CyLib.c **** 
 350:.\Generated_Source\PSoC4/CyLib.c ****     CyExitCriticalSection(interruptState);
 606              		.loc 2 350 0
 607 002a 0F23     		mov	r3, #15
 608 002c FB18     		add	r3, r7, r3
 609 002e 1B78     		ldrb	r3, [r3]
 610 0030 181C     		mov	r0, r3
 611 0032 FFF7FEFF 		bl	CyExitCriticalSection
 351:.\Generated_Source\PSoC4/CyLib.c **** }
 612              		.loc 2 351 0
 613 0036 BD46     		mov	sp, r7
 614 0038 05B0     		add	sp, sp, #20
 615              		@ sp needed
 616 003a 90BD     		pop	{r4, r7, pc}
 617              	.L37:
 618              		.align	2
 619              	.L36:
 620 003c 00010B40 		.word	1074462976
 621              		.cfi_endproc
 622              	.LFE9:
 623              		.size	CySysClkWriteHfclkDirect, .-CySysClkWriteHfclkDirect
 624              		.section	.text.CySysClkWriteSysclkDiv,"ax",%progbits
 625              		.align	2
 626              		.global	CySysClkWriteSysclkDiv
 627              		.code	16
 628              		.thumb_func
 629              		.type	CySysClkWriteSysclkDiv, %function
 630              	CySysClkWriteSysclkDiv:
 631              	.LFB10:
 352:.\Generated_Source\PSoC4/CyLib.c **** 
 353:.\Generated_Source\PSoC4/CyLib.c **** 
 354:.\Generated_Source\PSoC4/CyLib.c **** /*******************************************************************************
 355:.\Generated_Source\PSoC4/CyLib.c **** * Function Name: CySysClkWriteSysclkDiv
 356:.\Generated_Source\PSoC4/CyLib.c **** ********************************************************************************
 357:.\Generated_Source\PSoC4/CyLib.c **** *
 358:.\Generated_Source\PSoC4/CyLib.c **** * Summary:
 359:.\Generated_Source\PSoC4/CyLib.c **** *  Selects the prescaler divide amount for SYSCLK from HFCLK.
 360:.\Generated_Source\PSoC4/CyLib.c **** *
ARM GAS  C:\Users\CHRIST~1\AppData\Local\Temp\cc8KQrfd.s 			page 35


 361:.\Generated_Source\PSoC4/CyLib.c **** * Parameters:
 362:.\Generated_Source\PSoC4/CyLib.c **** *  divider: Power of 2 prescaler selection
 363:.\Generated_Source\PSoC4/CyLib.c **** *
 364:.\Generated_Source\PSoC4/CyLib.c **** *   Define                        Description
 365:.\Generated_Source\PSoC4/CyLib.c **** *   CY_SYS_CLK_SYSCLK_DIV1        SYSCLK = HFCLK / 1
 366:.\Generated_Source\PSoC4/CyLib.c **** *   CY_SYS_CLK_SYSCLK_DIV2        SYSCLK = HFCLK / 2
 367:.\Generated_Source\PSoC4/CyLib.c **** *   CY_SYS_CLK_SYSCLK_DIV4        SYSCLK = HFCLK / 4
 368:.\Generated_Source\PSoC4/CyLib.c **** *   CY_SYS_CLK_SYSCLK_DIV8        SYSCLK = HFCLK / 8
 369:.\Generated_Source\PSoC4/CyLib.c **** *   CY_SYS_CLK_SYSCLK_DIV16       SYSCLK = HFCLK / 16  (N/A for 4000 Family)
 370:.\Generated_Source\PSoC4/CyLib.c **** *   CY_SYS_CLK_SYSCLK_DIV32       SYSCLK = HFCLK / 32  (N/A for 4000 Family)
 371:.\Generated_Source\PSoC4/CyLib.c **** *   CY_SYS_CLK_SYSCLK_DIV64       SYSCLK = HFCLK / 64  (N/A for 4000 Family)
 372:.\Generated_Source\PSoC4/CyLib.c **** *   CY_SYS_CLK_SYSCLK_DIV128      SYSCLK = HFCLK / 128 (N/A for 4000 Family)
 373:.\Generated_Source\PSoC4/CyLib.c **** *
 374:.\Generated_Source\PSoC4/CyLib.c **** * Return:
 375:.\Generated_Source\PSoC4/CyLib.c **** *  None
 376:.\Generated_Source\PSoC4/CyLib.c **** *
 377:.\Generated_Source\PSoC4/CyLib.c **** * Side Effects:
 378:.\Generated_Source\PSoC4/CyLib.c **** *  4000 Family:
 379:.\Generated_Source\PSoC4/CyLib.c **** *  The SYS_CLK has the speed of 16 MHz, so dividers HF_CLK and SYS_CLK
 380:.\Generated_Source\PSoC4/CyLib.c **** *  dividers should be selected in a way, not to exceed 16 MHz for SYS_CLK.
 381:.\Generated_Source\PSoC4/CyLib.c **** *
 382:.\Generated_Source\PSoC4/CyLib.c **** *  If the SYSCLK clock frequency increases during the device operation, call
 383:.\Generated_Source\PSoC4/CyLib.c **** *  CySysFlashSetWaitCycles() with the appropriate parameter to adjust the number
 384:.\Generated_Source\PSoC4/CyLib.c **** *  of clock cycles the cache will wait before sampling data comes back from Flash.
 385:.\Generated_Source\PSoC4/CyLib.c **** *  If the SYSCLK clock frequency decreases, you can call
 386:.\Generated_Source\PSoC4/CyLib.c **** *  CySysFlashSetWaitCycles() to improve the CPU performance. See
 387:.\Generated_Source\PSoC4/CyLib.c **** *  CySysFlashSetWaitCycles() description for more information.
 388:.\Generated_Source\PSoC4/CyLib.c **** *
 389:.\Generated_Source\PSoC4/CyLib.c **** *******************************************************************************/
 390:.\Generated_Source\PSoC4/CyLib.c **** void CySysClkWriteSysclkDiv(uint32 divider)
 391:.\Generated_Source\PSoC4/CyLib.c **** {
 632              		.loc 2 391 0
 633              		.cfi_startproc
 634 0000 90B5     		push	{r4, r7, lr}
 635              		.cfi_def_cfa_offset 12
 636              		.cfi_offset 4, -12
 637              		.cfi_offset 7, -8
 638              		.cfi_offset 14, -4
 639 0002 85B0     		sub	sp, sp, #20
 640              		.cfi_def_cfa_offset 32
 641 0004 00AF     		add	r7, sp, #0
 642              		.cfi_def_cfa_register 7
 643 0006 7860     		str	r0, [r7, #4]
 392:.\Generated_Source\PSoC4/CyLib.c ****     uint8  interruptState;
 393:.\Generated_Source\PSoC4/CyLib.c **** 
 394:.\Generated_Source\PSoC4/CyLib.c ****     interruptState = CyEnterCriticalSection();
 644              		.loc 2 394 0
 645 0008 0F23     		mov	r3, #15
 646 000a FC18     		add	r4, r7, r3
 647 000c FFF7FEFF 		bl	CyEnterCriticalSection
 648 0010 031C     		mov	r3, r0
 649 0012 2370     		strb	r3, [r4]
 395:.\Generated_Source\PSoC4/CyLib.c **** 
 396:.\Generated_Source\PSoC4/CyLib.c ****     CY_SYS_CLK_SELECT_REG = ((uint32)(((uint32)divider & CY_SYS_CLK_SELECT_SYSCLK_DIV_MASK) <<
 650              		.loc 2 396 0
 651 0014 094B     		ldr	r3, .L39
 652 0016 7A68     		ldr	r2, [r7, #4]
ARM GAS  C:\Users\CHRIST~1\AppData\Local\Temp\cc8KQrfd.s 			page 36


 653 0018 0721     		mov	r1, #7
 654 001a 0A40     		and	r2, r1
 655 001c D104     		lsl	r1, r2, #19
 397:.\Generated_Source\PSoC4/CyLib.c ****                                     CY_SYS_CLK_SELECT_SYSCLK_DIV_SHIFT)) |
 398:.\Generated_Source\PSoC4/CyLib.c ****                             (CY_SYS_CLK_SELECT_REG & ((uint32)(~(uint32)(CY_SYS_CLK_SELECT_SYSCLK_D
 656              		.loc 2 398 0
 657 001e 074A     		ldr	r2, .L39
 658 0020 1268     		ldr	r2, [r2]
 659 0022 0748     		ldr	r0, .L39+4
 660 0024 0240     		and	r2, r0
 397:.\Generated_Source\PSoC4/CyLib.c ****                                     CY_SYS_CLK_SELECT_SYSCLK_DIV_SHIFT)) |
 661              		.loc 2 397 0
 662 0026 0A43     		orr	r2, r1
 396:.\Generated_Source\PSoC4/CyLib.c ****                                     CY_SYS_CLK_SELECT_SYSCLK_DIV_SHIFT)) |
 663              		.loc 2 396 0
 664 0028 1A60     		str	r2, [r3]
 399:.\Generated_Source\PSoC4/CyLib.c ****                                     CY_SYS_CLK_SELECT_SYSCLK_DIV_SHIFT))));
 400:.\Generated_Source\PSoC4/CyLib.c **** 
 401:.\Generated_Source\PSoC4/CyLib.c ****     CyExitCriticalSection(interruptState);
 665              		.loc 2 401 0
 666 002a 0F23     		mov	r3, #15
 667 002c FB18     		add	r3, r7, r3
 668 002e 1B78     		ldrb	r3, [r3]
 669 0030 181C     		mov	r0, r3
 670 0032 FFF7FEFF 		bl	CyExitCriticalSection
 402:.\Generated_Source\PSoC4/CyLib.c **** }
 671              		.loc 2 402 0
 672 0036 BD46     		mov	sp, r7
 673 0038 05B0     		add	sp, sp, #20
 674              		@ sp needed
 675 003a 90BD     		pop	{r4, r7, pc}
 676              	.L40:
 677              		.align	2
 678              	.L39:
 679 003c 00010B40 		.word	1074462976
 680 0040 FFFFC7FF 		.word	-3670017
 681              		.cfi_endproc
 682              	.LFE10:
 683              		.size	CySysClkWriteSysclkDiv, .-CySysClkWriteSysclkDiv
 684              		.section	.text.CySysClkWriteImoFreq,"ax",%progbits
 685              		.align	2
 686              		.global	CySysClkWriteImoFreq
 687              		.code	16
 688              		.thumb_func
 689              		.type	CySysClkWriteImoFreq, %function
 690              	CySysClkWriteImoFreq:
 691              	.LFB11:
 403:.\Generated_Source\PSoC4/CyLib.c **** 
 404:.\Generated_Source\PSoC4/CyLib.c **** 
 405:.\Generated_Source\PSoC4/CyLib.c **** #if(CY_IP_SRSSV2)
 406:.\Generated_Source\PSoC4/CyLib.c **** 
 407:.\Generated_Source\PSoC4/CyLib.c ****     /*******************************************************************************
 408:.\Generated_Source\PSoC4/CyLib.c ****     * Function Name: CySysClkWriteImoFreq
 409:.\Generated_Source\PSoC4/CyLib.c ****     ********************************************************************************
 410:.\Generated_Source\PSoC4/CyLib.c ****     *
 411:.\Generated_Source\PSoC4/CyLib.c ****     * Summary:
 412:.\Generated_Source\PSoC4/CyLib.c ****     *  Sets the frequency of the IMO.
ARM GAS  C:\Users\CHRIST~1\AppData\Local\Temp\cc8KQrfd.s 			page 37


 413:.\Generated_Source\PSoC4/CyLib.c ****     *
 414:.\Generated_Source\PSoC4/CyLib.c ****     * Parameters:
 415:.\Generated_Source\PSoC4/CyLib.c ****     *  freq: Valid range [3-48].  Frequency for operation of the IMO.
 416:.\Generated_Source\PSoC4/CyLib.c ****     *  Note: Invalid frequency will be ignored.
 417:.\Generated_Source\PSoC4/CyLib.c ****     *
 418:.\Generated_Source\PSoC4/CyLib.c ****     * Return:
 419:.\Generated_Source\PSoC4/CyLib.c ****     *  None
 420:.\Generated_Source\PSoC4/CyLib.c ****     *
 421:.\Generated_Source\PSoC4/CyLib.c ****     * Side Effects:
 422:.\Generated_Source\PSoC4/CyLib.c ****     *  If the SYSCLK clock frequency increases during the device operation, call
 423:.\Generated_Source\PSoC4/CyLib.c ****     *  CySysFlashSetWaitCycles() with the appropriate parameter to adjust the number
 424:.\Generated_Source\PSoC4/CyLib.c ****     *  of clock cycles the cache will wait before sampling data comes back from Flash.
 425:.\Generated_Source\PSoC4/CyLib.c ****     *  If the SYSCLK clock frequency decreases, you can call
 426:.\Generated_Source\PSoC4/CyLib.c ****     *  CySysFlashSetWaitCycles() to improve the CPU performance.
 427:.\Generated_Source\PSoC4/CyLib.c ****     *  See CySysFlashSetWaitCycles() description for more information.
 428:.\Generated_Source\PSoC4/CyLib.c ****     *
 429:.\Generated_Source\PSoC4/CyLib.c ****     *******************************************************************************/
 430:.\Generated_Source\PSoC4/CyLib.c ****     void CySysClkWriteImoFreq(uint32 freq)
 431:.\Generated_Source\PSoC4/CyLib.c ****     {
 692              		.loc 2 431 0
 693              		.cfi_startproc
 694 0000 90B5     		push	{r4, r7, lr}
 695              		.cfi_def_cfa_offset 12
 696              		.cfi_offset 4, -12
 697              		.cfi_offset 7, -8
 698              		.cfi_offset 14, -4
 699 0002 85B0     		sub	sp, sp, #20
 700              		.cfi_def_cfa_offset 32
 701 0004 00AF     		add	r7, sp, #0
 702              		.cfi_def_cfa_register 7
 703 0006 7860     		str	r0, [r7, #4]
 432:.\Generated_Source\PSoC4/CyLib.c ****         uint8  bgTrim4;
 433:.\Generated_Source\PSoC4/CyLib.c ****         uint8  bgTrim5;
 434:.\Generated_Source\PSoC4/CyLib.c ****         uint8  interruptState;
 435:.\Generated_Source\PSoC4/CyLib.c ****         uint8  newImoTrim2Value;
 436:.\Generated_Source\PSoC4/CyLib.c ****         uint8  currentImoTrim2Value;
 437:.\Generated_Source\PSoC4/CyLib.c **** 
 438:.\Generated_Source\PSoC4/CyLib.c **** 
 439:.\Generated_Source\PSoC4/CyLib.c ****         if ((freq >= CY_SYS_CLK_IMO_MIN_FREQ_MHZ) && (freq <= CY_SYS_CLK_IMO_MAX_FREQ_MHZ))
 704              		.loc 2 439 0
 705 0008 7B68     		ldr	r3, [r7, #4]
 706 000a 022B     		cmp	r3, #2
 707 000c 00D8     		bhi	.LCB513
 708 000e BBE0     		b	.L42	@long jump
 709              	.LCB513:
 710              		.loc 2 439 0 is_stmt 0 discriminator 1
 711 0010 7B68     		ldr	r3, [r7, #4]
 712 0012 302B     		cmp	r3, #48
 713 0014 00D9     		bls	.LCB516
 714 0016 B7E0     		b	.L42	@long jump
 715              	.LCB516:
 440:.\Generated_Source\PSoC4/CyLib.c ****         {
 441:.\Generated_Source\PSoC4/CyLib.c ****             if(freq <= CY_SFLASH_IMO_MAXF0_REG)
 716              		.loc 2 441 0 is_stmt 1
 717 0018 5E4B     		ldr	r3, .L53
 718 001a 1B78     		ldrb	r3, [r3]
 719 001c DBB2     		uxtb	r3, r3
ARM GAS  C:\Users\CHRIST~1\AppData\Local\Temp\cc8KQrfd.s 			page 38


 720 001e 1A1E     		sub	r2, r3, #0
 721 0020 7B68     		ldr	r3, [r7, #4]
 722 0022 9A42     		cmp	r2, r3
 723 0024 0AD3     		bcc	.L43
 442:.\Generated_Source\PSoC4/CyLib.c ****             {
 443:.\Generated_Source\PSoC4/CyLib.c ****                 bgTrim4 = CY_SFLASH_IMO_ABS0_REG;
 724              		.loc 2 443 0
 725 0026 5C4A     		ldr	r2, .L53+4
 726 0028 0F23     		mov	r3, #15
 727 002a FB18     		add	r3, r7, r3
 728 002c 1278     		ldrb	r2, [r2]
 729 002e 1A70     		strb	r2, [r3]
 444:.\Generated_Source\PSoC4/CyLib.c ****                 bgTrim5 = CY_SFLASH_IMO_TMPCO0_REG;
 730              		.loc 2 444 0
 731 0030 5A4A     		ldr	r2, .L53+8
 732 0032 0E23     		mov	r3, #14
 733 0034 FB18     		add	r3, r7, r3
 734 0036 1278     		ldrb	r2, [r2]
 735 0038 1A70     		strb	r2, [r3]
 736 003a 3FE0     		b	.L44
 737              	.L43:
 445:.\Generated_Source\PSoC4/CyLib.c ****             }
 446:.\Generated_Source\PSoC4/CyLib.c ****             else if(freq <= CY_SFLASH_IMO_MAXF1_REG)
 738              		.loc 2 446 0
 739 003c 584B     		ldr	r3, .L53+12
 740 003e 1B78     		ldrb	r3, [r3]
 741 0040 DBB2     		uxtb	r3, r3
 742 0042 1A1E     		sub	r2, r3, #0
 743 0044 7B68     		ldr	r3, [r7, #4]
 744 0046 9A42     		cmp	r2, r3
 745 0048 0AD3     		bcc	.L45
 447:.\Generated_Source\PSoC4/CyLib.c ****             {
 448:.\Generated_Source\PSoC4/CyLib.c ****                 bgTrim4 = CY_SFLASH_IMO_ABS1_REG;
 746              		.loc 2 448 0
 747 004a 564A     		ldr	r2, .L53+16
 748 004c 0F23     		mov	r3, #15
 749 004e FB18     		add	r3, r7, r3
 750 0050 1278     		ldrb	r2, [r2]
 751 0052 1A70     		strb	r2, [r3]
 449:.\Generated_Source\PSoC4/CyLib.c ****                 bgTrim5 = CY_SFLASH_IMO_TMPCO1_REG;
 752              		.loc 2 449 0
 753 0054 544A     		ldr	r2, .L53+20
 754 0056 0E23     		mov	r3, #14
 755 0058 FB18     		add	r3, r7, r3
 756 005a 1278     		ldrb	r2, [r2]
 757 005c 1A70     		strb	r2, [r3]
 758 005e 2DE0     		b	.L44
 759              	.L45:
 450:.\Generated_Source\PSoC4/CyLib.c ****             }
 451:.\Generated_Source\PSoC4/CyLib.c ****             else if(freq <= CY_SFLASH_IMO_MAXF2_REG)
 760              		.loc 2 451 0
 761 0060 524B     		ldr	r3, .L53+24
 762 0062 1B78     		ldrb	r3, [r3]
 763 0064 DBB2     		uxtb	r3, r3
 764 0066 1A1E     		sub	r2, r3, #0
 765 0068 7B68     		ldr	r3, [r7, #4]
 766 006a 9A42     		cmp	r2, r3
ARM GAS  C:\Users\CHRIST~1\AppData\Local\Temp\cc8KQrfd.s 			page 39


 767 006c 0AD3     		bcc	.L46
 452:.\Generated_Source\PSoC4/CyLib.c ****             {
 453:.\Generated_Source\PSoC4/CyLib.c ****                 bgTrim4 = CY_SFLASH_IMO_ABS2_REG;
 768              		.loc 2 453 0
 769 006e 504A     		ldr	r2, .L53+28
 770 0070 0F23     		mov	r3, #15
 771 0072 FB18     		add	r3, r7, r3
 772 0074 1278     		ldrb	r2, [r2]
 773 0076 1A70     		strb	r2, [r3]
 454:.\Generated_Source\PSoC4/CyLib.c ****                 bgTrim5 = CY_SFLASH_IMO_TMPCO2_REG;
 774              		.loc 2 454 0
 775 0078 4E4A     		ldr	r2, .L53+32
 776 007a 0E23     		mov	r3, #14
 777 007c FB18     		add	r3, r7, r3
 778 007e 1278     		ldrb	r2, [r2]
 779 0080 1A70     		strb	r2, [r3]
 780 0082 1BE0     		b	.L44
 781              	.L46:
 455:.\Generated_Source\PSoC4/CyLib.c ****             }
 456:.\Generated_Source\PSoC4/CyLib.c ****             else if(freq <= CY_SFLASH_IMO_MAXF3_REG)
 782              		.loc 2 456 0
 783 0084 4C4B     		ldr	r3, .L53+36
 784 0086 1B78     		ldrb	r3, [r3]
 785 0088 DBB2     		uxtb	r3, r3
 786 008a 1A1E     		sub	r2, r3, #0
 787 008c 7B68     		ldr	r3, [r7, #4]
 788 008e 9A42     		cmp	r2, r3
 789 0090 0AD3     		bcc	.L47
 457:.\Generated_Source\PSoC4/CyLib.c ****             {
 458:.\Generated_Source\PSoC4/CyLib.c ****                 bgTrim4 = CY_SFLASH_IMO_ABS3_REG;
 790              		.loc 2 458 0
 791 0092 4A4A     		ldr	r2, .L53+40
 792 0094 0F23     		mov	r3, #15
 793 0096 FB18     		add	r3, r7, r3
 794 0098 1278     		ldrb	r2, [r2]
 795 009a 1A70     		strb	r2, [r3]
 459:.\Generated_Source\PSoC4/CyLib.c ****                 bgTrim5 = CY_SFLASH_IMO_TMPCO3_REG;
 796              		.loc 2 459 0
 797 009c 484A     		ldr	r2, .L53+44
 798 009e 0E23     		mov	r3, #14
 799 00a0 FB18     		add	r3, r7, r3
 800 00a2 1278     		ldrb	r2, [r2]
 801 00a4 1A70     		strb	r2, [r3]
 802 00a6 09E0     		b	.L44
 803              	.L47:
 460:.\Generated_Source\PSoC4/CyLib.c ****             }
 461:.\Generated_Source\PSoC4/CyLib.c ****             else
 462:.\Generated_Source\PSoC4/CyLib.c ****             {
 463:.\Generated_Source\PSoC4/CyLib.c ****                 bgTrim4 = CY_SFLASH_IMO_ABS4_REG;
 804              		.loc 2 463 0
 805 00a8 464A     		ldr	r2, .L53+48
 806 00aa 0F23     		mov	r3, #15
 807 00ac FB18     		add	r3, r7, r3
 808 00ae 1278     		ldrb	r2, [r2]
 809 00b0 1A70     		strb	r2, [r3]
 464:.\Generated_Source\PSoC4/CyLib.c ****                 bgTrim5 = CY_SFLASH_IMO_TMPCO4_REG;
 810              		.loc 2 464 0
ARM GAS  C:\Users\CHRIST~1\AppData\Local\Temp\cc8KQrfd.s 			page 40


 811 00b2 454A     		ldr	r2, .L53+52
 812 00b4 0E23     		mov	r3, #14
 813 00b6 FB18     		add	r3, r7, r3
 814 00b8 1278     		ldrb	r2, [r2]
 815 00ba 1A70     		strb	r2, [r3]
 816              	.L44:
 465:.\Generated_Source\PSoC4/CyLib.c ****             }
 466:.\Generated_Source\PSoC4/CyLib.c **** 
 467:.\Generated_Source\PSoC4/CyLib.c ****             /* Get IMO_TRIM2 value for the new frequency */
 468:.\Generated_Source\PSoC4/CyLib.c ****             newImoTrim2Value = cyImoFreqMhz2Reg[freq - CY_SYS_CLK_IMO_FREQ_TABLE_OFFSET];
 817              		.loc 2 468 0
 818 00bc 7B68     		ldr	r3, [r7, #4]
 819 00be DA1E     		sub	r2, r3, #3
 820 00c0 0C23     		mov	r3, #12
 821 00c2 FB18     		add	r3, r7, r3
 822 00c4 4149     		ldr	r1, .L53+56
 823 00c6 8A5C     		ldrb	r2, [r1, r2]
 824 00c8 1A70     		strb	r2, [r3]
 469:.\Generated_Source\PSoC4/CyLib.c **** 
 470:.\Generated_Source\PSoC4/CyLib.c **** 
 471:.\Generated_Source\PSoC4/CyLib.c ****             interruptState = CyEnterCriticalSection();
 825              		.loc 2 471 0
 826 00ca 0B23     		mov	r3, #11
 827 00cc FC18     		add	r4, r7, r3
 828 00ce FFF7FEFF 		bl	CyEnterCriticalSection
 829 00d2 031C     		mov	r3, r0
 830 00d4 2370     		strb	r3, [r4]
 472:.\Generated_Source\PSoC4/CyLib.c **** 
 473:.\Generated_Source\PSoC4/CyLib.c ****             /***************************************************************************
 474:.\Generated_Source\PSoC4/CyLib.c ****             * The IMO can have a different trim per frequency. To avoid possible corner
 475:.\Generated_Source\PSoC4/CyLib.c ****             * cases where a trim change can exceed the maximum frequency, the trim must
 476:.\Generated_Source\PSoC4/CyLib.c ****             * be applied at a frequency that is low enough.
 477:.\Generated_Source\PSoC4/CyLib.c ****             *
 478:.\Generated_Source\PSoC4/CyLib.c ****             * Comparing IMO_TRIM2 values for the current and new frequencies, since
 479:.\Generated_Source\PSoC4/CyLib.c ****             * IMO_TRIM2 value as a function of IMO frequency is a strictly increasing
 480:.\Generated_Source\PSoC4/CyLib.c ****             * function and is time-invariant.
 481:.\Generated_Source\PSoC4/CyLib.c ****             ***************************************************************************/
 482:.\Generated_Source\PSoC4/CyLib.c ****             if ((newImoTrim2Value >= CY_SYS_CLK_IMO_BOUNDARY_FREQ_TRIM2) && (freq >= CY_SYS_CLK_IMO
 831              		.loc 2 482 0
 832 00d6 0C23     		mov	r3, #12
 833 00d8 FB18     		add	r3, r7, r3
 834 00da 1B78     		ldrb	r3, [r3]
 835 00dc 2F2B     		cmp	r3, #47
 836 00de 0DD9     		bls	.L48
 837              		.loc 2 482 0 is_stmt 0 discriminator 1
 838 00e0 7B68     		ldr	r3, [r7, #4]
 839 00e2 2A2B     		cmp	r3, #42
 840 00e4 0AD9     		bls	.L48
 483:.\Generated_Source\PSoC4/CyLib.c ****             {
 484:.\Generated_Source\PSoC4/CyLib.c ****                 /* Set boundary IMO frequency: safe for IMO above 48 MHZ trimming */
 485:.\Generated_Source\PSoC4/CyLib.c ****                 CY_SYS_CLK_IMO_TRIM2_REG = (uint32) cyImoFreqMhz2Reg[CY_SYS_CLK_IMO_TEMP_FREQ_MHZ -
 841              		.loc 2 485 0 is_stmt 1
 842 00e6 3A4B     		ldr	r3, .L53+60
 843 00e8 1922     		mov	r2, #25
 844 00ea 1A60     		str	r2, [r3]
 486:.\Generated_Source\PSoC4/CyLib.c ****                                                                      CY_SYS_CLK_IMO_FREQ_TABLE_OFFS
 487:.\Generated_Source\PSoC4/CyLib.c **** 
ARM GAS  C:\Users\CHRIST~1\AppData\Local\Temp\cc8KQrfd.s 			page 41


 488:.\Generated_Source\PSoC4/CyLib.c ****                 CyDelayCycles(CY_SYS_CLK_IMO_FREQ_TIMEOUT_CYCLES);
 845              		.loc 2 488 0
 846 00ec 0520     		mov	r0, #5
 847 00ee FFF7FEFF 		bl	CyDelayCycles
 489:.\Generated_Source\PSoC4/CyLib.c **** 
 490:.\Generated_Source\PSoC4/CyLib.c ****                 currentImoTrim2Value = CY_SYS_CLK_IMO_TEMP_FREQ_TRIM2;
 848              		.loc 2 490 0
 849 00f2 0D23     		mov	r3, #13
 850 00f4 FB18     		add	r3, r7, r3
 851 00f6 1922     		mov	r2, #25
 852 00f8 1A70     		strb	r2, [r3]
 853 00fa 07E0     		b	.L49
 854              	.L48:
 491:.\Generated_Source\PSoC4/CyLib.c ****             }
 492:.\Generated_Source\PSoC4/CyLib.c ****             else
 493:.\Generated_Source\PSoC4/CyLib.c ****             {
 494:.\Generated_Source\PSoC4/CyLib.c ****                 currentImoTrim2Value = (uint8) (CY_SYS_CLK_IMO_TRIM2_REG & CY_SYS_CLK_IMO_FREQ_BITS
 855              		.loc 2 494 0
 856 00fc 344B     		ldr	r3, .L53+60
 857 00fe 1B68     		ldr	r3, [r3]
 858 0100 DAB2     		uxtb	r2, r3
 859 0102 0D23     		mov	r3, #13
 860 0104 FB18     		add	r3, r7, r3
 861 0106 3F21     		mov	r1, #63
 862 0108 0A40     		and	r2, r1
 863 010a 1A70     		strb	r2, [r3]
 864              	.L49:
 495:.\Generated_Source\PSoC4/CyLib.c ****             }
 496:.\Generated_Source\PSoC4/CyLib.c **** 
 497:.\Generated_Source\PSoC4/CyLib.c **** 
 498:.\Generated_Source\PSoC4/CyLib.c ****             /***************************************************************************
 499:.\Generated_Source\PSoC4/CyLib.c ****             * A trim change needs to be allowed to settle (within 5us) before the Freq
 500:.\Generated_Source\PSoC4/CyLib.c ****             * can be changed to a new frequency.
 501:.\Generated_Source\PSoC4/CyLib.c ****             *
 502:.\Generated_Source\PSoC4/CyLib.c ****             * Comparing IMO_TRIM2 values for the current and new frequencies, since
 503:.\Generated_Source\PSoC4/CyLib.c ****             * IMO_TRIM2 value as a function of IMO frequency is a strictly increasing
 504:.\Generated_Source\PSoC4/CyLib.c ****             * function and is time-invariant.
 505:.\Generated_Source\PSoC4/CyLib.c ****             ***************************************************************************/
 506:.\Generated_Source\PSoC4/CyLib.c ****             if (newImoTrim2Value < currentImoTrim2Value)
 865              		.loc 2 506 0
 866 010c 0C23     		mov	r3, #12
 867 010e FA18     		add	r2, r7, r3
 868 0110 0D23     		mov	r3, #13
 869 0112 FB18     		add	r3, r7, r3
 870 0114 1278     		ldrb	r2, [r2]
 871 0116 1B78     		ldrb	r3, [r3]
 872 0118 9A42     		cmp	r2, r3
 873 011a 08D2     		bcs	.L50
 507:.\Generated_Source\PSoC4/CyLib.c ****             {
 508:.\Generated_Source\PSoC4/CyLib.c ****                 /* Set new IMO frequency */
 509:.\Generated_Source\PSoC4/CyLib.c ****                 CY_SYS_CLK_IMO_TRIM2_REG = cyImoFreqMhz2Reg[freq - CY_SYS_CLK_IMO_FREQ_TABLE_OFFSET
 874              		.loc 2 509 0
 875 011c 2C4B     		ldr	r3, .L53+60
 876 011e 7A68     		ldr	r2, [r7, #4]
 877 0120 033A     		sub	r2, r2, #3
 878 0122 2A49     		ldr	r1, .L53+56
 879 0124 8A5C     		ldrb	r2, [r1, r2]
ARM GAS  C:\Users\CHRIST~1\AppData\Local\Temp\cc8KQrfd.s 			page 42


 880 0126 1A60     		str	r2, [r3]
 510:.\Generated_Source\PSoC4/CyLib.c ****                 CyDelayCycles(CY_SYS_CLK_IMO_FREQ_TIMEOUT_CYCLES);
 881              		.loc 2 510 0
 882 0128 0520     		mov	r0, #5
 883 012a FFF7FEFF 		bl	CyDelayCycles
 884              	.L50:
 511:.\Generated_Source\PSoC4/CyLib.c ****             }
 512:.\Generated_Source\PSoC4/CyLib.c **** 
 513:.\Generated_Source\PSoC4/CyLib.c ****             /* Set trims for the new IMO frequency */
 514:.\Generated_Source\PSoC4/CyLib.c ****             CY_SYS_CLK_IMO_TRIM1_REG = (uint32) CY_SFLASH_IMO_TRIM_REG(freq - CY_SYS_CLK_IMO_FREQ_T
 885              		.loc 2 514 0
 886 012e 294B     		ldr	r3, .L53+64
 887 0130 7A68     		ldr	r2, [r7, #4]
 888 0132 2549     		ldr	r1, .L53+52
 889 0134 8C46     		mov	ip, r1
 890 0136 6244     		add	r2, r2, ip
 891 0138 1278     		ldrb	r2, [r2]
 892 013a D2B2     		uxtb	r2, r2
 893 013c 1A60     		str	r2, [r3]
 515:.\Generated_Source\PSoC4/CyLib.c ****             CY_PWR_BG_TRIM4_REG  = bgTrim4;
 894              		.loc 2 515 0
 895 013e 264B     		ldr	r3, .L53+68
 896 0140 0F22     		mov	r2, #15
 897 0142 BA18     		add	r2, r7, r2
 898 0144 1278     		ldrb	r2, [r2]
 899 0146 1A60     		str	r2, [r3]
 516:.\Generated_Source\PSoC4/CyLib.c ****             CY_PWR_BG_TRIM5_REG  = bgTrim5;
 900              		.loc 2 516 0
 901 0148 244B     		ldr	r3, .L53+72
 902 014a 0E22     		mov	r2, #14
 903 014c BA18     		add	r2, r7, r2
 904 014e 1278     		ldrb	r2, [r2]
 905 0150 1A60     		str	r2, [r3]
 517:.\Generated_Source\PSoC4/CyLib.c ****             CyDelayUs(CY_SYS_CLK_IMO_TRIM_TIMEOUT_US);
 906              		.loc 2 517 0
 907 0152 0520     		mov	r0, #5
 908 0154 FFF7FEFF 		bl	CyDelayUs
 518:.\Generated_Source\PSoC4/CyLib.c **** 
 519:.\Generated_Source\PSoC4/CyLib.c ****             if (newImoTrim2Value > currentImoTrim2Value)
 909              		.loc 2 519 0
 910 0158 0C23     		mov	r3, #12
 911 015a FA18     		add	r2, r7, r3
 912 015c 0D23     		mov	r3, #13
 913 015e FB18     		add	r3, r7, r3
 914 0160 1278     		ldrb	r2, [r2]
 915 0162 1B78     		ldrb	r3, [r3]
 916 0164 9A42     		cmp	r2, r3
 917 0166 08D9     		bls	.L51
 520:.\Generated_Source\PSoC4/CyLib.c ****             {
 521:.\Generated_Source\PSoC4/CyLib.c ****                 /* Set new IMO frequency */
 522:.\Generated_Source\PSoC4/CyLib.c ****                 CY_SYS_CLK_IMO_TRIM2_REG = cyImoFreqMhz2Reg[freq - CY_SYS_CLK_IMO_FREQ_TABLE_OFFSET
 918              		.loc 2 522 0
 919 0168 194B     		ldr	r3, .L53+60
 920 016a 7A68     		ldr	r2, [r7, #4]
 921 016c 033A     		sub	r2, r2, #3
 922 016e 1749     		ldr	r1, .L53+56
 923 0170 8A5C     		ldrb	r2, [r1, r2]
ARM GAS  C:\Users\CHRIST~1\AppData\Local\Temp\cc8KQrfd.s 			page 43


 924 0172 1A60     		str	r2, [r3]
 523:.\Generated_Source\PSoC4/CyLib.c ****                 CyDelayCycles(CY_SYS_CLK_IMO_FREQ_TIMEOUT_CYCLES);
 925              		.loc 2 523 0
 926 0174 0520     		mov	r0, #5
 927 0176 FFF7FEFF 		bl	CyDelayCycles
 928              	.L51:
 524:.\Generated_Source\PSoC4/CyLib.c ****             }
 525:.\Generated_Source\PSoC4/CyLib.c **** 
 526:.\Generated_Source\PSoC4/CyLib.c ****             CyExitCriticalSection(interruptState);
 929              		.loc 2 526 0
 930 017a 0B23     		mov	r3, #11
 931 017c FB18     		add	r3, r7, r3
 932 017e 1B78     		ldrb	r3, [r3]
 933 0180 181C     		mov	r0, r3
 934 0182 FFF7FEFF 		bl	CyExitCriticalSection
 935 0186 02E0     		b	.L41
 936              	.L42:
 527:.\Generated_Source\PSoC4/CyLib.c ****         }
 528:.\Generated_Source\PSoC4/CyLib.c ****         else
 529:.\Generated_Source\PSoC4/CyLib.c ****         {
 530:.\Generated_Source\PSoC4/CyLib.c ****             /* Halt CPU in debug mode if new frequency is invalid */
 531:.\Generated_Source\PSoC4/CyLib.c ****             CYASSERT(0u != 0u);
 937              		.loc 2 531 0 discriminator 1
 938 0188 0020     		mov	r0, #0
 939 018a FFF7FEFF 		bl	CyHalt
 940              	.L41:
 532:.\Generated_Source\PSoC4/CyLib.c ****         }
 533:.\Generated_Source\PSoC4/CyLib.c ****     }
 941              		.loc 2 533 0
 942 018e BD46     		mov	sp, r7
 943 0190 05B0     		add	sp, sp, #20
 944              		@ sp needed
 945 0192 90BD     		pop	{r4, r7, pc}
 946              	.L54:
 947              		.align	2
 948              	.L53:
 949 0194 C0F1FF0F 		.word	268431808
 950 0198 C1F1FF0F 		.word	268431809
 951 019c C2F1FF0F 		.word	268431810
 952 01a0 C3F1FF0F 		.word	268431811
 953 01a4 C4F1FF0F 		.word	268431812
 954 01a8 C5F1FF0F 		.word	268431813
 955 01ac C6F1FF0F 		.word	268431814
 956 01b0 C7F1FF0F 		.word	268431815
 957 01b4 C8F1FF0F 		.word	268431816
 958 01b8 C9F1FF0F 		.word	268431817
 959 01bc CAF1FF0F 		.word	268431818
 960 01c0 CBF1FF0F 		.word	268431819
 961 01c4 CCF1FF0F 		.word	268431820
 962 01c8 CDF1FF0F 		.word	268431821
 963 01cc 00000000 		.word	cyImoFreqMhz2Reg
 964 01d0 2CFF0B40 		.word	1074528044
 965 01d4 28FF0B40 		.word	1074528040
 966 01d8 1CFF0B40 		.word	1074528028
 967 01dc 20FF0B40 		.word	1074528032
 968              		.cfi_endproc
 969              	.LFE11:
ARM GAS  C:\Users\CHRIST~1\AppData\Local\Temp\cc8KQrfd.s 			page 44


 970              		.size	CySysClkWriteImoFreq, .-CySysClkWriteImoFreq
 971              		.section	.text.CySysClkEcoStart,"ax",%progbits
 972              		.align	2
 973              		.global	CySysClkEcoStart
 974              		.code	16
 975              		.thumb_func
 976              		.type	CySysClkEcoStart, %function
 977              	CySysClkEcoStart:
 978              	.LFB12:
 534:.\Generated_Source\PSoC4/CyLib.c **** 
 535:.\Generated_Source\PSoC4/CyLib.c **** 
 536:.\Generated_Source\PSoC4/CyLib.c **** #else
 537:.\Generated_Source\PSoC4/CyLib.c **** 
 538:.\Generated_Source\PSoC4/CyLib.c **** 
 539:.\Generated_Source\PSoC4/CyLib.c ****     /*******************************************************************************
 540:.\Generated_Source\PSoC4/CyLib.c ****     * Function Name: CySysClkWriteHfclkDiv
 541:.\Generated_Source\PSoC4/CyLib.c ****     ********************************************************************************
 542:.\Generated_Source\PSoC4/CyLib.c ****     *
 543:.\Generated_Source\PSoC4/CyLib.c ****     * Summary:
 544:.\Generated_Source\PSoC4/CyLib.c ****     *  Selects HF clk predivider value.
 545:.\Generated_Source\PSoC4/CyLib.c ****     *
 546:.\Generated_Source\PSoC4/CyLib.c ****     * Parameters:
 547:.\Generated_Source\PSoC4/CyLib.c ****     *  divider: HF clock divider value
 548:.\Generated_Source\PSoC4/CyLib.c ****     *   Define                        Description
 549:.\Generated_Source\PSoC4/CyLib.c ****     *   CY_SYS_CLK_HFCLK_DIV_NODIV    Transparent mode (w/o dividing)
 550:.\Generated_Source\PSoC4/CyLib.c ****     *   CY_SYS_CLK_HFCLK_DIV_2        Divide selected clock source by 2
 551:.\Generated_Source\PSoC4/CyLib.c ****     *   CY_SYS_CLK_HFCLK_DIV_4        Divide selected clock source by 4
 552:.\Generated_Source\PSoC4/CyLib.c ****     *   CY_SYS_CLK_HFCLK_DIV_8        Divide selected clock source by 8
 553:.\Generated_Source\PSoC4/CyLib.c ****     *
 554:.\Generated_Source\PSoC4/CyLib.c ****     * Return:
 555:.\Generated_Source\PSoC4/CyLib.c ****     *  None
 556:.\Generated_Source\PSoC4/CyLib.c ****     *
 557:.\Generated_Source\PSoC4/CyLib.c ****     * Side Effects:
 558:.\Generated_Source\PSoC4/CyLib.c ****     *  If the SYSCLK clock frequency increases during the device operation, call
 559:.\Generated_Source\PSoC4/CyLib.c ****     *  CySysFlashSetWaitCycles() with the appropriate parameter to adjust the number
 560:.\Generated_Source\PSoC4/CyLib.c ****     *  of clock cycles the cache will wait before sampling data comes back from Flash.
 561:.\Generated_Source\PSoC4/CyLib.c ****     *  If the SYSCLK clock frequency decreases, you can call
 562:.\Generated_Source\PSoC4/CyLib.c ****     *  CySysFlashSetWaitCycles() to improve the CPU performance. See
 563:.\Generated_Source\PSoC4/CyLib.c ****     *  CySysFlashSetWaitCycles() description for more information.
 564:.\Generated_Source\PSoC4/CyLib.c ****     *
 565:.\Generated_Source\PSoC4/CyLib.c **** 
 566:.\Generated_Source\PSoC4/CyLib.c ****     *
 567:.\Generated_Source\PSoC4/CyLib.c ****     *******************************************************************************/
 568:.\Generated_Source\PSoC4/CyLib.c ****     void CySysClkWriteHfclkDiv(uint32 divider)
 569:.\Generated_Source\PSoC4/CyLib.c ****     {
 570:.\Generated_Source\PSoC4/CyLib.c ****         uint8  interruptState;
 571:.\Generated_Source\PSoC4/CyLib.c **** 
 572:.\Generated_Source\PSoC4/CyLib.c ****         interruptState = CyEnterCriticalSection();
 573:.\Generated_Source\PSoC4/CyLib.c **** 
 574:.\Generated_Source\PSoC4/CyLib.c ****         CY_SYS_CLK_SELECT_REG = ((CY_SYS_CLK_SELECT_REG & ((uint32) (~(CY_SYS_CLK_SELECT_HFCLK_DIV_
 575:.\Generated_Source\PSoC4/CyLib.c ****                                         CY_SYS_CLK_SELECT_HFCLK_DIV_SHIFT)))) |
 576:.\Generated_Source\PSoC4/CyLib.c ****                     ((uint32)((divider & CY_SYS_CLK_SELECT_HFCLK_DIV_MASK) << CY_SYS_CLK_SELECT_HFC
 577:.\Generated_Source\PSoC4/CyLib.c **** 
 578:.\Generated_Source\PSoC4/CyLib.c ****         CyExitCriticalSection(interruptState);
 579:.\Generated_Source\PSoC4/CyLib.c ****     }
 580:.\Generated_Source\PSoC4/CyLib.c **** 
 581:.\Generated_Source\PSoC4/CyLib.c **** 
ARM GAS  C:\Users\CHRIST~1\AppData\Local\Temp\cc8KQrfd.s 			page 45


 582:.\Generated_Source\PSoC4/CyLib.c ****     /*******************************************************************************
 583:.\Generated_Source\PSoC4/CyLib.c ****     * Function Name: CySysClkWriteImoFreq
 584:.\Generated_Source\PSoC4/CyLib.c ****     ********************************************************************************
 585:.\Generated_Source\PSoC4/CyLib.c ****     *
 586:.\Generated_Source\PSoC4/CyLib.c ****     * Summary:
 587:.\Generated_Source\PSoC4/CyLib.c ****     *  Sets the frequency of the IMO.
 588:.\Generated_Source\PSoC4/CyLib.c ****     *
 589:.\Generated_Source\PSoC4/CyLib.c ****     * Parameters:
 590:.\Generated_Source\PSoC4/CyLib.c ****     *  freq: Valid values are 24, 32 and 48 MHz.
 591:.\Generated_Source\PSoC4/CyLib.c ****     *
 592:.\Generated_Source\PSoC4/CyLib.c ****     *  Note: The CPU is halted if new frequency is invalid and project is
 593:.\Generated_Source\PSoC4/CyLib.c ****     *  compiled in debug mode.
 594:.\Generated_Source\PSoC4/CyLib.c ****     *
 595:.\Generated_Source\PSoC4/CyLib.c ****     * Return:
 596:.\Generated_Source\PSoC4/CyLib.c ****     *  None
 597:.\Generated_Source\PSoC4/CyLib.c ****     *
 598:.\Generated_Source\PSoC4/CyLib.c ****     * Side Effects:
 599:.\Generated_Source\PSoC4/CyLib.c ****     *  If the SYSCLK clock frequency increases during the device operation, call
 600:.\Generated_Source\PSoC4/CyLib.c ****     *  CySysFlashSetWaitCycles() with the appropriate parameter to adjust the number
 601:.\Generated_Source\PSoC4/CyLib.c ****     *  of clock cycles the cache will wait before sampling data comes back from Flash.
 602:.\Generated_Source\PSoC4/CyLib.c ****     *  If the SYSCLK clock frequency decreases, you can call
 603:.\Generated_Source\PSoC4/CyLib.c ****     *  CySysFlashSetWaitCycles() to improve the CPU performance. See
 604:.\Generated_Source\PSoC4/CyLib.c ****     *  CySysFlashSetWaitCycles() description for more information.
 605:.\Generated_Source\PSoC4/CyLib.c ****     *
 606:.\Generated_Source\PSoC4/CyLib.c ****     *  The System Clock (SYSCLK) has maximum speed of 16 MHz, so HFCLK and SYSCLK
 607:.\Generated_Source\PSoC4/CyLib.c ****     *  dividers should be selected in a way, to not to exceed 16 MHz for the System
 608:.\Generated_Source\PSoC4/CyLib.c ****     *  clock.
 609:.\Generated_Source\PSoC4/CyLib.c ****     *
 610:.\Generated_Source\PSoC4/CyLib.c ****     *******************************************************************************/
 611:.\Generated_Source\PSoC4/CyLib.c ****     void CySysClkWriteImoFreq(uint32 freq)
 612:.\Generated_Source\PSoC4/CyLib.c ****     {
 613:.\Generated_Source\PSoC4/CyLib.c ****         uint8  interruptState;
 614:.\Generated_Source\PSoC4/CyLib.c **** 
 615:.\Generated_Source\PSoC4/CyLib.c ****         if ((freq == 24u) || (freq == 32u) || (freq == 48u))
 616:.\Generated_Source\PSoC4/CyLib.c ****         {
 617:.\Generated_Source\PSoC4/CyLib.c ****             interruptState = CyEnterCriticalSection();
 618:.\Generated_Source\PSoC4/CyLib.c **** 
 619:.\Generated_Source\PSoC4/CyLib.c ****             /* Set IMO to 24 MHz - CLK_IMO_SELECT.FREQ = 0 */
 620:.\Generated_Source\PSoC4/CyLib.c ****             CY_SYS_CLK_IMO_SELECT_REG &= ((uint32) ~CY_SYS_CLK_IMO_SELECT_FREQ_MASK);
 621:.\Generated_Source\PSoC4/CyLib.c **** 
 622:.\Generated_Source\PSoC4/CyLib.c ****             /* Apply coarse trim */
 623:.\Generated_Source\PSoC4/CyLib.c ****             CY_SYS_CLK_IMO_TRIM1_REG = (CY_SYS_CLK_IMO_TRIM1_REG & ((uint32) ~CY_SYS_CLK_IMO_TRIM1_
 624:.\Generated_Source\PSoC4/CyLib.c ****                 (CY_SFLASH_IMO_TRIM_REG(freq - CY_SYS_CLK_IMO_MIN_FREQ_MHZ) & CY_SYS_CLK_IMO_TRIM1_
 625:.\Generated_Source\PSoC4/CyLib.c **** 
 626:.\Generated_Source\PSoC4/CyLib.c ****             /* Zero out fine trim */
 627:.\Generated_Source\PSoC4/CyLib.c ****             CY_SYS_CLK_IMO_TRIM2_REG = CY_SYS_CLK_IMO_TRIM2_REG & ((uint32) ~CY_SYS_CLK_IMO_TRIM2_F
 628:.\Generated_Source\PSoC4/CyLib.c **** 
 629:.\Generated_Source\PSoC4/CyLib.c ****             /* Apply TC trim */
 630:.\Generated_Source\PSoC4/CyLib.c ****             CY_SYS_CLK_IMO_TRIM3_REG = (CY_SYS_CLK_IMO_TRIM3_REG & ((uint32) ~CY_SYS_CLK_IMO_TRIM3_
 631:.\Generated_Source\PSoC4/CyLib.c ****                 (CY_SFLASH_IMO_TCTRIM_REG(freq - CY_SYS_CLK_IMO_MIN_FREQ_MHZ) & CY_SYS_CLK_IMO_TRIM
 632:.\Generated_Source\PSoC4/CyLib.c **** 
 633:.\Generated_Source\PSoC4/CyLib.c ****             CyDelayCycles(CY_SYS_CLK_IMO_TRIM_DELAY_US);
 634:.\Generated_Source\PSoC4/CyLib.c **** 
 635:.\Generated_Source\PSoC4/CyLib.c ****             if (freq > CY_SYS_CLK_IMO_MIN_FREQ_MHZ)
 636:.\Generated_Source\PSoC4/CyLib.c ****             {
 637:.\Generated_Source\PSoC4/CyLib.c ****                 /* Select nearby intermediate frequency */
 638:.\Generated_Source\PSoC4/CyLib.c ****                 CY_SYS_CLK_IMO_SELECT_REG = (CY_SYS_CLK_IMO_SELECT_REG & ((uint32) ~CY_SYS_CLK_IMO_
ARM GAS  C:\Users\CHRIST~1\AppData\Local\Temp\cc8KQrfd.s 			page 46


 639:.\Generated_Source\PSoC4/CyLib.c ****                     (((freq - 4u - CY_SYS_CLK_IMO_MIN_FREQ_MHZ) >> 2u) & CY_SYS_CLK_IMO_SELECT_FREQ
 640:.\Generated_Source\PSoC4/CyLib.c **** 
 641:.\Generated_Source\PSoC4/CyLib.c ****                 CyDelayCycles(CY_SYS_CLK_IMO_TRIM_DELAY_US);
 642:.\Generated_Source\PSoC4/CyLib.c **** 
 643:.\Generated_Source\PSoC4/CyLib.c ****                 /* Make small step to final frequency */
 644:.\Generated_Source\PSoC4/CyLib.c ****                 /* Select nearby intermediate frequency */
 645:.\Generated_Source\PSoC4/CyLib.c ****                 CY_SYS_CLK_IMO_SELECT_REG = (CY_SYS_CLK_IMO_SELECT_REG & ((uint32) ~CY_SYS_CLK_IMO_
 646:.\Generated_Source\PSoC4/CyLib.c ****                     (((freq - CY_SYS_CLK_IMO_MIN_FREQ_MHZ) >> 2u) & CY_SYS_CLK_IMO_SELECT_FREQ_MASK
 647:.\Generated_Source\PSoC4/CyLib.c ****             }
 648:.\Generated_Source\PSoC4/CyLib.c **** 
 649:.\Generated_Source\PSoC4/CyLib.c ****             CyExitCriticalSection(interruptState);
 650:.\Generated_Source\PSoC4/CyLib.c ****         }
 651:.\Generated_Source\PSoC4/CyLib.c ****         else
 652:.\Generated_Source\PSoC4/CyLib.c ****         {
 653:.\Generated_Source\PSoC4/CyLib.c ****             /* Halt CPU in debug mode if new frequency is invalid */
 654:.\Generated_Source\PSoC4/CyLib.c ****             CYASSERT(0u != 0u);
 655:.\Generated_Source\PSoC4/CyLib.c ****         }
 656:.\Generated_Source\PSoC4/CyLib.c ****     }
 657:.\Generated_Source\PSoC4/CyLib.c **** 
 658:.\Generated_Source\PSoC4/CyLib.c **** #endif /* (CY_IP_SRSSV2) */
 659:.\Generated_Source\PSoC4/CyLib.c **** 
 660:.\Generated_Source\PSoC4/CyLib.c **** 
 661:.\Generated_Source\PSoC4/CyLib.c **** #if (CY_PSOC4_4100BL || CY_PSOC4_4200BL)
 662:.\Generated_Source\PSoC4/CyLib.c **** 
 663:.\Generated_Source\PSoC4/CyLib.c ****     /*******************************************************************************
 664:.\Generated_Source\PSoC4/CyLib.c ****     * Function Name: CySysClkEcoStart
 665:.\Generated_Source\PSoC4/CyLib.c ****     ********************************************************************************
 666:.\Generated_Source\PSoC4/CyLib.c ****     *
 667:.\Generated_Source\PSoC4/CyLib.c ****     * Summary:
 668:.\Generated_Source\PSoC4/CyLib.c ****     *  Starts the External Crystal Oscillator (ECO). Refer to the device datasheet
 669:.\Generated_Source\PSoC4/CyLib.c ****     *  for the ECO startup time.
 670:.\Generated_Source\PSoC4/CyLib.c ****     *
 671:.\Generated_Source\PSoC4/CyLib.c ****     *  The timeout interval is measured based on the system frequency defined by
 672:.\Generated_Source\PSoC4/CyLib.c ****     *  PSoC Creator at build time. If System clock frequency is changed in
 673:.\Generated_Source\PSoC4/CyLib.c ****     *  runtime, the CyDelayFreq() with the appropriate parameter should be called.
 674:.\Generated_Source\PSoC4/CyLib.c ****     *
 675:.\Generated_Source\PSoC4/CyLib.c ****     * Parameters:
 676:.\Generated_Source\PSoC4/CyLib.c ****     *  timeoutUs: Timeout in microseconds. If zero is specified, the function
 677:.\Generated_Source\PSoC4/CyLib.c ****     *             starts the crystal and returns CYRET_SUCCESS. If non-zero
 678:.\Generated_Source\PSoC4/CyLib.c ****     *             value is passed, the CYRET_SUCCESS is returned once crystal
 679:.\Generated_Source\PSoC4/CyLib.c ****     *             is oscillating and amplitude reached 60% and it does not mean
 680:.\Generated_Source\PSoC4/CyLib.c ****     *             24 MHz crystal is within 50 ppm. If it is not oscillating or
 681:.\Generated_Source\PSoC4/CyLib.c ****     *             amplitude didn't reach 60% after specified amount of time, the
 682:.\Generated_Source\PSoC4/CyLib.c ****     *             CYRET_TIMEOUT is returned.
 683:.\Generated_Source\PSoC4/CyLib.c ****     *
 684:.\Generated_Source\PSoC4/CyLib.c ****     * Return:
 685:.\Generated_Source\PSoC4/CyLib.c ****     *   CYRET_SUCCESS - Completed successfully. The ECO is oscillating and amplitude
 686:.\Generated_Source\PSoC4/CyLib.c ****     *                   reached 60% and it does not mean 24 MHz crystal is within
 687:.\Generated_Source\PSoC4/CyLib.c ****     *                   50 ppm.
 688:.\Generated_Source\PSoC4/CyLib.c ****     *   CYRET_TIMEOUT - Timeout occurred.
 689:.\Generated_Source\PSoC4/CyLib.c ****     *
 690:.\Generated_Source\PSoC4/CyLib.c ****     *******************************************************************************/
 691:.\Generated_Source\PSoC4/CyLib.c ****     cystatus CySysClkEcoStart(uint32 timeoutUs)
 692:.\Generated_Source\PSoC4/CyLib.c ****     {
 979              		.loc 2 692 0
 980              		.cfi_startproc
 981 0000 80B5     		push	{r7, lr}
ARM GAS  C:\Users\CHRIST~1\AppData\Local\Temp\cc8KQrfd.s 			page 47


 982              		.cfi_def_cfa_offset 8
 983              		.cfi_offset 7, -8
 984              		.cfi_offset 14, -4
 985 0002 84B0     		sub	sp, sp, #16
 986              		.cfi_def_cfa_offset 24
 987 0004 00AF     		add	r7, sp, #0
 988              		.cfi_def_cfa_register 7
 989 0006 7860     		str	r0, [r7, #4]
 693:.\Generated_Source\PSoC4/CyLib.c ****         cystatus status = CYRET_SUCCESS;
 990              		.loc 2 693 0
 991 0008 0023     		mov	r3, #0
 992 000a FB60     		str	r3, [r7, #12]
 694:.\Generated_Source\PSoC4/CyLib.c **** 
 695:.\Generated_Source\PSoC4/CyLib.c ****         /* Enable the RF oscillator band gap */
 696:.\Generated_Source\PSoC4/CyLib.c ****         CY_SYS_XTAL_BLESS_RF_CONFIG_REG |= CY_SYS_XTAL_BLESS_RF_CONFIG_RF_ENABLE;
 993              		.loc 2 696 0
 994 000c 154B     		ldr	r3, .L61
 995 000e 154A     		ldr	r2, .L61
 996 0010 1268     		ldr	r2, [r2]
 997 0012 0121     		mov	r1, #1
 998 0014 0A43     		orr	r2, r1
 999 0016 1A60     		str	r2, [r3]
 697:.\Generated_Source\PSoC4/CyLib.c **** 
 698:.\Generated_Source\PSoC4/CyLib.c ****         /* Update trimming register */
 699:.\Generated_Source\PSoC4/CyLib.c ****         CY_SYS_XTAL_BLERD_BB_XO_REG = CY_SYS_XTAL_BLERD_BB_XO_TRIM;
 1000              		.loc 2 699 0
 1001 0018 134B     		ldr	r3, .L61+4
 1002 001a 144A     		ldr	r2, .L61+8
 1003 001c 1A60     		str	r2, [r3]
 700:.\Generated_Source\PSoC4/CyLib.c **** 
 701:.\Generated_Source\PSoC4/CyLib.c ****         /* Enable the Crystal */
 702:.\Generated_Source\PSoC4/CyLib.c ****         CY_SYS_XTAL_BLERD_DBUS_REG |= CY_SYS_XTAL_BLERD_DBUS_XTAL_ENABLE;
 1004              		.loc 2 702 0
 1005 001e 144B     		ldr	r3, .L61+12
 1006 0020 134A     		ldr	r2, .L61+12
 1007 0022 1268     		ldr	r2, [r2]
 1008 0024 8021     		mov	r1, #128
 1009 0026 0902     		lsl	r1, r1, #8
 1010 0028 0A43     		orr	r2, r1
 1011 002a 1A60     		str	r2, [r3]
 703:.\Generated_Source\PSoC4/CyLib.c **** 
 704:.\Generated_Source\PSoC4/CyLib.c ****         if(timeoutUs > 0u)
 1012              		.loc 2 704 0
 1013 002c 7B68     		ldr	r3, [r7, #4]
 1014 002e 002B     		cmp	r3, #0
 1015 0030 12D0     		beq	.L56
 705:.\Generated_Source\PSoC4/CyLib.c ****         {
 706:.\Generated_Source\PSoC4/CyLib.c ****             status = CYRET_TIMEOUT;
 1016              		.loc 2 706 0
 1017 0032 1023     		mov	r3, #16
 1018 0034 FB60     		str	r3, [r7, #12]
 707:.\Generated_Source\PSoC4/CyLib.c **** 
 708:.\Generated_Source\PSoC4/CyLib.c ****             for( ; timeoutUs > 0u; timeoutUs--)
 1019              		.loc 2 708 0
 1020 0036 0CE0     		b	.L57
 1021              	.L59:
 709:.\Generated_Source\PSoC4/CyLib.c ****             {
ARM GAS  C:\Users\CHRIST~1\AppData\Local\Temp\cc8KQrfd.s 			page 48


 710:.\Generated_Source\PSoC4/CyLib.c ****                 CyDelayUs(1u);
 1022              		.loc 2 710 0
 1023 0038 0120     		mov	r0, #1
 1024 003a FFF7FEFF 		bl	CyDelayUs
 711:.\Generated_Source\PSoC4/CyLib.c **** 
 712:.\Generated_Source\PSoC4/CyLib.c ****                 if(0u != CySysClkEcoReadStatus())
 1025              		.loc 2 712 0
 1026 003e FFF7FEFF 		bl	CySysClkEcoReadStatus
 1027 0042 031E     		sub	r3, r0, #0
 1028 0044 02D0     		beq	.L58
 713:.\Generated_Source\PSoC4/CyLib.c ****                 {
 714:.\Generated_Source\PSoC4/CyLib.c ****                     status = CYRET_SUCCESS;
 1029              		.loc 2 714 0
 1030 0046 0023     		mov	r3, #0
 1031 0048 FB60     		str	r3, [r7, #12]
 715:.\Generated_Source\PSoC4/CyLib.c ****                     break;
 1032              		.loc 2 715 0
 1033 004a 05E0     		b	.L56
 1034              	.L58:
 708:.\Generated_Source\PSoC4/CyLib.c ****             {
 1035              		.loc 2 708 0
 1036 004c 7B68     		ldr	r3, [r7, #4]
 1037 004e 013B     		sub	r3, r3, #1
 1038 0050 7B60     		str	r3, [r7, #4]
 1039              	.L57:
 708:.\Generated_Source\PSoC4/CyLib.c ****             {
 1040              		.loc 2 708 0 is_stmt 0 discriminator 1
 1041 0052 7B68     		ldr	r3, [r7, #4]
 1042 0054 002B     		cmp	r3, #0
 1043 0056 EFD1     		bne	.L59
 1044              	.L56:
 716:.\Generated_Source\PSoC4/CyLib.c ****                 }
 717:.\Generated_Source\PSoC4/CyLib.c ****             }
 718:.\Generated_Source\PSoC4/CyLib.c **** 
 719:.\Generated_Source\PSoC4/CyLib.c ****         }
 720:.\Generated_Source\PSoC4/CyLib.c **** 
 721:.\Generated_Source\PSoC4/CyLib.c ****         return(status);
 1045              		.loc 2 721 0 is_stmt 1
 1046 0058 FB68     		ldr	r3, [r7, #12]
 722:.\Generated_Source\PSoC4/CyLib.c ****     }
 1047              		.loc 2 722 0
 1048 005a 181C     		mov	r0, r3
 1049 005c BD46     		mov	sp, r7
 1050 005e 04B0     		add	sp, sp, #16
 1051              		@ sp needed
 1052 0060 80BD     		pop	{r7, pc}
 1053              	.L62:
 1054 0062 C046     		.align	2
 1055              	.L61:
 1056 0064 60F02E40 		.word	1076818016
 1057 0068 78002E40 		.word	1076756600
 1058 006c 02200000 		.word	8194
 1059 0070 10002E40 		.word	1076756496
 1060              		.cfi_endproc
 1061              	.LFE12:
 1062              		.size	CySysClkEcoStart, .-CySysClkEcoStart
 1063              		.section	.text.CySysClkEcoStop,"ax",%progbits
ARM GAS  C:\Users\CHRIST~1\AppData\Local\Temp\cc8KQrfd.s 			page 49


 1064              		.align	2
 1065              		.global	CySysClkEcoStop
 1066              		.code	16
 1067              		.thumb_func
 1068              		.type	CySysClkEcoStop, %function
 1069              	CySysClkEcoStop:
 1070              	.LFB13:
 723:.\Generated_Source\PSoC4/CyLib.c **** 
 724:.\Generated_Source\PSoC4/CyLib.c **** 
 725:.\Generated_Source\PSoC4/CyLib.c ****     /*******************************************************************************
 726:.\Generated_Source\PSoC4/CyLib.c ****     * Function Name: CySysClkEcoStop
 727:.\Generated_Source\PSoC4/CyLib.c ****     ********************************************************************************
 728:.\Generated_Source\PSoC4/CyLib.c ****     *
 729:.\Generated_Source\PSoC4/CyLib.c ****     * Summary:
 730:.\Generated_Source\PSoC4/CyLib.c ****     *  Stops the megahertz crystal.
 731:.\Generated_Source\PSoC4/CyLib.c ****     *
 732:.\Generated_Source\PSoC4/CyLib.c ****     * Parameters:
 733:.\Generated_Source\PSoC4/CyLib.c ****     *  None
 734:.\Generated_Source\PSoC4/CyLib.c ****     *
 735:.\Generated_Source\PSoC4/CyLib.c ****     * Return:
 736:.\Generated_Source\PSoC4/CyLib.c ****     *  None
 737:.\Generated_Source\PSoC4/CyLib.c ****     *
 738:.\Generated_Source\PSoC4/CyLib.c ****     *******************************************************************************/
 739:.\Generated_Source\PSoC4/CyLib.c ****     void CySysClkEcoStop(void)
 740:.\Generated_Source\PSoC4/CyLib.c ****     {
 1071              		.loc 2 740 0
 1072              		.cfi_startproc
 1073 0000 80B5     		push	{r7, lr}
 1074              		.cfi_def_cfa_offset 8
 1075              		.cfi_offset 7, -8
 1076              		.cfi_offset 14, -4
 1077 0002 00AF     		add	r7, sp, #0
 1078              		.cfi_def_cfa_register 7
 741:.\Generated_Source\PSoC4/CyLib.c ****         /* Disable the RF oscillator band gap */
 742:.\Generated_Source\PSoC4/CyLib.c ****         CY_SYS_XTAL_BLESS_RF_CONFIG_REG &= (uint32) ~CY_SYS_XTAL_BLESS_RF_CONFIG_RF_ENABLE;
 1079              		.loc 2 742 0
 1080 0004 064B     		ldr	r3, .L64
 1081 0006 064A     		ldr	r2, .L64
 1082 0008 1268     		ldr	r2, [r2]
 1083 000a 0121     		mov	r1, #1
 1084 000c 8A43     		bic	r2, r1
 1085 000e 1A60     		str	r2, [r3]
 743:.\Generated_Source\PSoC4/CyLib.c **** 
 744:.\Generated_Source\PSoC4/CyLib.c ****         /* Disable the Crystal */
 745:.\Generated_Source\PSoC4/CyLib.c ****         CY_SYS_XTAL_BLERD_DBUS_REG &= (uint32) ~CY_SYS_XTAL_BLERD_DBUS_XTAL_ENABLE;
 1086              		.loc 2 745 0
 1087 0010 044B     		ldr	r3, .L64+4
 1088 0012 044A     		ldr	r2, .L64+4
 1089 0014 1268     		ldr	r2, [r2]
 1090 0016 0449     		ldr	r1, .L64+8
 1091 0018 0A40     		and	r2, r1
 1092 001a 1A60     		str	r2, [r3]
 746:.\Generated_Source\PSoC4/CyLib.c ****     }
 1093              		.loc 2 746 0
 1094 001c BD46     		mov	sp, r7
 1095              		@ sp needed
 1096 001e 80BD     		pop	{r7, pc}
ARM GAS  C:\Users\CHRIST~1\AppData\Local\Temp\cc8KQrfd.s 			page 50


 1097              	.L65:
 1098              		.align	2
 1099              	.L64:
 1100 0020 60F02E40 		.word	1076818016
 1101 0024 10002E40 		.word	1076756496
 1102 0028 FF7FFFFF 		.word	-32769
 1103              		.cfi_endproc
 1104              	.LFE13:
 1105              		.size	CySysClkEcoStop, .-CySysClkEcoStop
 1106              		.section	.text.CySysClkEcoReadStatus,"ax",%progbits
 1107              		.align	2
 1108              		.global	CySysClkEcoReadStatus
 1109              		.code	16
 1110              		.thumb_func
 1111              		.type	CySysClkEcoReadStatus, %function
 1112              	CySysClkEcoReadStatus:
 1113              	.LFB14:
 747:.\Generated_Source\PSoC4/CyLib.c **** 
 748:.\Generated_Source\PSoC4/CyLib.c **** 
 749:.\Generated_Source\PSoC4/CyLib.c ****     /*******************************************************************************
 750:.\Generated_Source\PSoC4/CyLib.c ****     * Function Name: CySysClkEcoReadStatus
 751:.\Generated_Source\PSoC4/CyLib.c ****     ********************************************************************************
 752:.\Generated_Source\PSoC4/CyLib.c ****     *
 753:.\Generated_Source\PSoC4/CyLib.c ****     * Summary:
 754:.\Generated_Source\PSoC4/CyLib.c ****     *  Read status bit (50 ppm reached) for the megahertz crystal.
 755:.\Generated_Source\PSoC4/CyLib.c ****     *
 756:.\Generated_Source\PSoC4/CyLib.c ****     * Parameters:
 757:.\Generated_Source\PSoC4/CyLib.c ****     *  None
 758:.\Generated_Source\PSoC4/CyLib.c ****     *
 759:.\Generated_Source\PSoC4/CyLib.c ****     * Return:
 760:.\Generated_Source\PSoC4/CyLib.c ****     *  Non-zero indicates that XTAL output reached 50 ppm.
 761:.\Generated_Source\PSoC4/CyLib.c ****     *
 762:.\Generated_Source\PSoC4/CyLib.c ****     *******************************************************************************/
 763:.\Generated_Source\PSoC4/CyLib.c ****     uint32 CySysClkEcoReadStatus(void)
 764:.\Generated_Source\PSoC4/CyLib.c ****     {
 1114              		.loc 2 764 0
 1115              		.cfi_startproc
 1116 0000 80B5     		push	{r7, lr}
 1117              		.cfi_def_cfa_offset 8
 1118              		.cfi_offset 7, -8
 1119              		.cfi_offset 14, -4
 1120 0002 00AF     		add	r7, sp, #0
 1121              		.cfi_def_cfa_register 7
 765:.\Generated_Source\PSoC4/CyLib.c ****         return (CY_SYS_XTAL_BLERD_FSM_REG & CY_SYS_XTAL_BLERD_FSM_XO_AMP_DETECT);
 1122              		.loc 2 765 0
 1123 0004 034B     		ldr	r3, .L68
 1124 0006 1B68     		ldr	r3, [r3]
 1125 0008 0122     		mov	r2, #1
 1126 000a 1340     		and	r3, r2
 766:.\Generated_Source\PSoC4/CyLib.c ****     }
 1127              		.loc 2 766 0
 1128 000c 181C     		mov	r0, r3
 1129 000e BD46     		mov	sp, r7
 1130              		@ sp needed
 1131 0010 80BD     		pop	{r7, pc}
 1132              	.L69:
 1133 0012 C046     		.align	2
ARM GAS  C:\Users\CHRIST~1\AppData\Local\Temp\cc8KQrfd.s 			page 51


 1134              	.L68:
 1135 0014 0C002E40 		.word	1076756492
 1136              		.cfi_endproc
 1137              	.LFE14:
 1138              		.size	CySysClkEcoReadStatus, .-CySysClkEcoReadStatus
 1139              		.section	.text.CySysClkWriteEcoDiv,"ax",%progbits
 1140              		.align	2
 1141              		.global	CySysClkWriteEcoDiv
 1142              		.code	16
 1143              		.thumb_func
 1144              		.type	CySysClkWriteEcoDiv, %function
 1145              	CySysClkWriteEcoDiv:
 1146              	.LFB15:
 767:.\Generated_Source\PSoC4/CyLib.c **** 
 768:.\Generated_Source\PSoC4/CyLib.c **** 
 769:.\Generated_Source\PSoC4/CyLib.c ****     /*******************************************************************************
 770:.\Generated_Source\PSoC4/CyLib.c ****     * Function Name: CySysClkWriteEcoDiv
 771:.\Generated_Source\PSoC4/CyLib.c ****     ********************************************************************************
 772:.\Generated_Source\PSoC4/CyLib.c ****     *
 773:.\Generated_Source\PSoC4/CyLib.c ****     * Summary:
 774:.\Generated_Source\PSoC4/CyLib.c ****     *  Selects value for the ECO divider.
 775:.\Generated_Source\PSoC4/CyLib.c ****     *
 776:.\Generated_Source\PSoC4/CyLib.c ****     * Parameters:
 777:.\Generated_Source\PSoC4/CyLib.c ****     *  divider: Power of 2 divider selection.
 778:.\Generated_Source\PSoC4/CyLib.c ****     *
 779:.\Generated_Source\PSoC4/CyLib.c ****     *   Define                        Description
 780:.\Generated_Source\PSoC4/CyLib.c ****     *   CY_SYS_CLK_ECO_DIV1             HFCLK = ECO / 1
 781:.\Generated_Source\PSoC4/CyLib.c ****     *   CY_SYS_CLK_ECO_DIV2             HFCLK = ECO / 2
 782:.\Generated_Source\PSoC4/CyLib.c ****     *   CY_SYS_CLK_ECO_DIV4             HFCLK = ECO / 4
 783:.\Generated_Source\PSoC4/CyLib.c ****     *   CY_SYS_CLK_ECO_DIV8             HFCLK = ECO / 8
 784:.\Generated_Source\PSoC4/CyLib.c ****     *
 785:.\Generated_Source\PSoC4/CyLib.c ****     * Return:
 786:.\Generated_Source\PSoC4/CyLib.c ****     *  None
 787:.\Generated_Source\PSoC4/CyLib.c ****     *
 788:.\Generated_Source\PSoC4/CyLib.c ****     * Side Effects:
 789:.\Generated_Source\PSoC4/CyLib.c ****     *  If the SYSCLK clock frequency increases during the device operation, call
 790:.\Generated_Source\PSoC4/CyLib.c ****     *  CySysFlashSetWaitCycles() with the appropriate parameter to adjust the number
 791:.\Generated_Source\PSoC4/CyLib.c ****     *  of clock cycles the cache will wait before sampling data comes back from Flash.
 792:.\Generated_Source\PSoC4/CyLib.c ****     *  If the SYSCLK clock frequency decreases, you can call
 793:.\Generated_Source\PSoC4/CyLib.c ****     *  CySysFlashSetWaitCycles() to improve the CPU performance. See
 794:.\Generated_Source\PSoC4/CyLib.c ****     *  CySysFlashSetWaitCycles() description for more information.
 795:.\Generated_Source\PSoC4/CyLib.c ****     *
 796:.\Generated_Source\PSoC4/CyLib.c ****     *******************************************************************************/
 797:.\Generated_Source\PSoC4/CyLib.c ****     void CySysClkWriteEcoDiv(uint32 divider)
 798:.\Generated_Source\PSoC4/CyLib.c ****     {
 1147              		.loc 2 798 0
 1148              		.cfi_startproc
 1149 0000 90B5     		push	{r4, r7, lr}
 1150              		.cfi_def_cfa_offset 12
 1151              		.cfi_offset 4, -12
 1152              		.cfi_offset 7, -8
 1153              		.cfi_offset 14, -4
 1154 0002 85B0     		sub	sp, sp, #20
 1155              		.cfi_def_cfa_offset 32
 1156 0004 00AF     		add	r7, sp, #0
 1157              		.cfi_def_cfa_register 7
 1158 0006 7860     		str	r0, [r7, #4]
ARM GAS  C:\Users\CHRIST~1\AppData\Local\Temp\cc8KQrfd.s 			page 52


 799:.\Generated_Source\PSoC4/CyLib.c ****         uint8  interruptState;
 800:.\Generated_Source\PSoC4/CyLib.c **** 
 801:.\Generated_Source\PSoC4/CyLib.c ****         interruptState = CyEnterCriticalSection();
 1159              		.loc 2 801 0
 1160 0008 0F23     		mov	r3, #15
 1161 000a FC18     		add	r4, r7, r3
 1162 000c FFF7FEFF 		bl	CyEnterCriticalSection
 1163 0010 031C     		mov	r3, r0
 1164 0012 2370     		strb	r3, [r4]
 802:.\Generated_Source\PSoC4/CyLib.c **** 
 803:.\Generated_Source\PSoC4/CyLib.c ****         CY_SYS_CLK_XTAL_CLK_DIV_CONFIG_REG =  (divider & CY_SYS_CLK_XTAL_CLK_DIV_MASK) |
 1165              		.loc 2 803 0
 1166 0014 094B     		ldr	r3, .L71
 1167 0016 7A68     		ldr	r2, [r7, #4]
 1168 0018 0321     		mov	r1, #3
 1169 001a 1140     		and	r1, r2
 804:.\Generated_Source\PSoC4/CyLib.c ****                                               (CY_SYS_CLK_XTAL_CLK_DIV_CONFIG_REG & ((uint32) ~CY_S
 1170              		.loc 2 804 0
 1171 001c 074A     		ldr	r2, .L71
 1172 001e 1268     		ldr	r2, [r2]
 1173 0020 0320     		mov	r0, #3
 1174 0022 8243     		bic	r2, r0
 803:.\Generated_Source\PSoC4/CyLib.c ****                                               (CY_SYS_CLK_XTAL_CLK_DIV_CONFIG_REG & ((uint32) ~CY_S
 1175              		.loc 2 803 0
 1176 0024 0A43     		orr	r2, r1
 1177 0026 1A60     		str	r2, [r3]
 805:.\Generated_Source\PSoC4/CyLib.c **** 
 806:.\Generated_Source\PSoC4/CyLib.c ****         CyExitCriticalSection(interruptState);
 1178              		.loc 2 806 0
 1179 0028 0F23     		mov	r3, #15
 1180 002a FB18     		add	r3, r7, r3
 1181 002c 1B78     		ldrb	r3, [r3]
 1182 002e 181C     		mov	r0, r3
 1183 0030 FFF7FEFF 		bl	CyExitCriticalSection
 807:.\Generated_Source\PSoC4/CyLib.c ****     }
 1184              		.loc 2 807 0
 1185 0034 BD46     		mov	sp, r7
 1186 0036 05B0     		add	sp, sp, #20
 1187              		@ sp needed
 1188 0038 90BD     		pop	{r4, r7, pc}
 1189              	.L72:
 1190 003a C046     		.align	2
 1191              	.L71:
 1192 003c 64F02E40 		.word	1076818020
 1193              		.cfi_endproc
 1194              	.LFE15:
 1195              		.size	CySysClkWriteEcoDiv, .-CySysClkWriteEcoDiv
 1196              		.section	.text.CySysClkWcoStart,"ax",%progbits
 1197              		.align	2
 1198              		.global	CySysClkWcoStart
 1199              		.code	16
 1200              		.thumb_func
 1201              		.type	CySysClkWcoStart, %function
 1202              	CySysClkWcoStart:
 1203              	.LFB16:
 808:.\Generated_Source\PSoC4/CyLib.c **** #endif /* (CY_PSOC4_4100BL || CY_PSOC4_4200BL) */
 809:.\Generated_Source\PSoC4/CyLib.c **** 
ARM GAS  C:\Users\CHRIST~1\AppData\Local\Temp\cc8KQrfd.s 			page 53


 810:.\Generated_Source\PSoC4/CyLib.c **** 
 811:.\Generated_Source\PSoC4/CyLib.c **** #if (CY_IP_WCO)
 812:.\Generated_Source\PSoC4/CyLib.c ****     /*******************************************************************************
 813:.\Generated_Source\PSoC4/CyLib.c ****     * Function Name: CySysClkWcoStart
 814:.\Generated_Source\PSoC4/CyLib.c ****     ********************************************************************************
 815:.\Generated_Source\PSoC4/CyLib.c ****     *
 816:.\Generated_Source\PSoC4/CyLib.c ****     * Summary:
 817:.\Generated_Source\PSoC4/CyLib.c ****     *  Enables the Watch Crystal Oscillator (WCO). The WCO is used as a source for
 818:.\Generated_Source\PSoC4/CyLib.c ****     *  LFCLK.  Similar to ILO, WCO is also available in all modes except Hibernate
 819:.\Generated_Source\PSoC4/CyLib.c ****     *  and Stop modes.
 820:.\Generated_Source\PSoC4/CyLib.c ****     *
 821:.\Generated_Source\PSoC4/CyLib.c ****     *  The WCO is always enabled in High Power Mode (HPM). Refer to the device
 822:.\Generated_Source\PSoC4/CyLib.c ****     *  datasheet for the  WCO startup time. Once WCO becomes stable it can be
 823:.\Generated_Source\PSoC4/CyLib.c ****     *  switched to the Low Power Mode (LPM). Note that oscillator can be unstable
 824:.\Generated_Source\PSoC4/CyLib.c ****     *  during switch and hence its output should not be used at the moment.
 825:.\Generated_Source\PSoC4/CyLib.c ****     *
 826:.\Generated_Source\PSoC4/CyLib.c ****     *  The CySysClkWcoSetPowerMode() function configures WCO power mode.
 827:.\Generated_Source\PSoC4/CyLib.c ****     *
 828:.\Generated_Source\PSoC4/CyLib.c ****     * Parameters:
 829:.\Generated_Source\PSoC4/CyLib.c ****     *  None
 830:.\Generated_Source\PSoC4/CyLib.c ****     *
 831:.\Generated_Source\PSoC4/CyLib.c ****     * Return:
 832:.\Generated_Source\PSoC4/CyLib.c ****     *  None
 833:.\Generated_Source\PSoC4/CyLib.c ****     *
 834:.\Generated_Source\PSoC4/CyLib.c ****     *******************************************************************************/
 835:.\Generated_Source\PSoC4/CyLib.c ****     void CySysClkWcoStart(void)
 836:.\Generated_Source\PSoC4/CyLib.c ****     {
 1204              		.loc 2 836 0
 1205              		.cfi_startproc
 1206 0000 80B5     		push	{r7, lr}
 1207              		.cfi_def_cfa_offset 8
 1208              		.cfi_offset 7, -8
 1209              		.cfi_offset 14, -4
 1210 0002 00AF     		add	r7, sp, #0
 1211              		.cfi_def_cfa_register 7
 837:.\Generated_Source\PSoC4/CyLib.c ****         CySysClkWcoSetHighPowerMode();
 1212              		.loc 2 837 0
 1213 0004 FFF7FEFF 		bl	CySysClkWcoSetHighPowerMode
 838:.\Generated_Source\PSoC4/CyLib.c ****         CY_SYS_CLK_WCO_CONFIG_REG |= CY_SYS_CLK_WCO_CONFIG_LPM_ENABLE;
 1214              		.loc 2 838 0
 1215 0008 044B     		ldr	r3, .L74
 1216 000a 044A     		ldr	r2, .L74
 1217 000c 1268     		ldr	r2, [r2]
 1218 000e 8021     		mov	r1, #128
 1219 0010 0906     		lsl	r1, r1, #24
 1220 0012 0A43     		orr	r2, r1
 1221 0014 1A60     		str	r2, [r3]
 839:.\Generated_Source\PSoC4/CyLib.c ****     }
 1222              		.loc 2 839 0
 1223 0016 BD46     		mov	sp, r7
 1224              		@ sp needed
 1225 0018 80BD     		pop	{r7, pc}
 1226              	.L75:
 1227 001a C046     		.align	2
 1228              	.L74:
 1229 001c 00F02E40 		.word	1076817920
 1230              		.cfi_endproc
ARM GAS  C:\Users\CHRIST~1\AppData\Local\Temp\cc8KQrfd.s 			page 54


 1231              	.LFE16:
 1232              		.size	CySysClkWcoStart, .-CySysClkWcoStart
 1233              		.section	.text.CySysClkWcoStop,"ax",%progbits
 1234              		.align	2
 1235              		.global	CySysClkWcoStop
 1236              		.code	16
 1237              		.thumb_func
 1238              		.type	CySysClkWcoStop, %function
 1239              	CySysClkWcoStop:
 1240              	.LFB17:
 840:.\Generated_Source\PSoC4/CyLib.c **** 
 841:.\Generated_Source\PSoC4/CyLib.c **** 
 842:.\Generated_Source\PSoC4/CyLib.c ****     /*******************************************************************************
 843:.\Generated_Source\PSoC4/CyLib.c ****     * Function Name: CySysClkWcoStop
 844:.\Generated_Source\PSoC4/CyLib.c ****     ********************************************************************************
 845:.\Generated_Source\PSoC4/CyLib.c ****     *
 846:.\Generated_Source\PSoC4/CyLib.c ****     * Summary:
 847:.\Generated_Source\PSoC4/CyLib.c ****     *  Disables the 32KHz Crystal Oscillator.
 848:.\Generated_Source\PSoC4/CyLib.c ****     *
 849:.\Generated_Source\PSoC4/CyLib.c ****     * Parameters:
 850:.\Generated_Source\PSoC4/CyLib.c ****     *  None
 851:.\Generated_Source\PSoC4/CyLib.c ****     *
 852:.\Generated_Source\PSoC4/CyLib.c ****     * Return:
 853:.\Generated_Source\PSoC4/CyLib.c ****     *  None
 854:.\Generated_Source\PSoC4/CyLib.c ****     *
 855:.\Generated_Source\PSoC4/CyLib.c ****     *******************************************************************************/
 856:.\Generated_Source\PSoC4/CyLib.c ****     void  CySysClkWcoStop(void)
 857:.\Generated_Source\PSoC4/CyLib.c ****     {
 1241              		.loc 2 857 0
 1242              		.cfi_startproc
 1243 0000 90B5     		push	{r4, r7, lr}
 1244              		.cfi_def_cfa_offset 12
 1245              		.cfi_offset 4, -12
 1246              		.cfi_offset 7, -8
 1247              		.cfi_offset 14, -4
 1248 0002 83B0     		sub	sp, sp, #12
 1249              		.cfi_def_cfa_offset 24
 1250 0004 00AF     		add	r7, sp, #0
 1251              		.cfi_def_cfa_register 7
 858:.\Generated_Source\PSoC4/CyLib.c ****         uint8  interruptState;
 859:.\Generated_Source\PSoC4/CyLib.c **** 
 860:.\Generated_Source\PSoC4/CyLib.c ****         if (0u != CySysClkWcoEnabled())
 1252              		.loc 2 860 0
 1253 0006 FFF7FEFF 		bl	CySysClkWcoEnabled
 1254 000a 031E     		sub	r3, r0, #0
 1255 000c 21D0     		beq	.L76
 861:.\Generated_Source\PSoC4/CyLib.c ****         {
 862:.\Generated_Source\PSoC4/CyLib.c **** 
 863:.\Generated_Source\PSoC4/CyLib.c ****             if (CY_SYS_CLK_LFCLK_SRC_WCO == CySysClkGetLfclkSource())
 1256              		.loc 2 863 0
 1257 000e FFF7FEFF 		bl	CySysClkGetLfclkSource
 1258 0012 021C     		mov	r2, r0
 1259 0014 8023     		mov	r3, #128
 1260 0016 DB05     		lsl	r3, r3, #23
 1261 0018 9A42     		cmp	r2, r3
 1262 001a 14D1     		bne	.L78
 864:.\Generated_Source\PSoC4/CyLib.c ****             {
ARM GAS  C:\Users\CHRIST~1\AppData\Local\Temp\cc8KQrfd.s 			page 55


 865:.\Generated_Source\PSoC4/CyLib.c ****                 interruptState = CyEnterCriticalSection();
 1263              		.loc 2 865 0
 1264 001c FC1D     		add	r4, r7, #7
 1265 001e FFF7FEFF 		bl	CyEnterCriticalSection
 1266 0022 031C     		mov	r3, r0
 1267 0024 2370     		strb	r3, [r4]
 866:.\Generated_Source\PSoC4/CyLib.c ****                 CySysClkLfclkPosedgeCatch();
 1268              		.loc 2 866 0
 1269 0026 FFF7FEFF 		bl	CySysClkLfclkPosedgeCatch
 867:.\Generated_Source\PSoC4/CyLib.c ****                 CY_SYS_CLK_WCO_CONFIG_REG &= (uint32) ~CY_SYS_CLK_WCO_CONFIG_LPM_ENABLE;
 1270              		.loc 2 867 0
 1271 002a 0B4B     		ldr	r3, .L79
 1272 002c 0A4A     		ldr	r2, .L79
 1273 002e 1268     		ldr	r2, [r2]
 1274 0030 5200     		lsl	r2, r2, #1
 1275 0032 5208     		lsr	r2, r2, #1
 1276 0034 1A60     		str	r2, [r3]
 868:.\Generated_Source\PSoC4/CyLib.c ****                 CySysClkLfclkPosedgeRestore();
 1277              		.loc 2 868 0
 1278 0036 FFF7FEFF 		bl	CySysClkLfclkPosedgeRestore
 869:.\Generated_Source\PSoC4/CyLib.c ****                 CyExitCriticalSection(interruptState);
 1279              		.loc 2 869 0
 1280 003a FB1D     		add	r3, r7, #7
 1281 003c 1B78     		ldrb	r3, [r3]
 1282 003e 181C     		mov	r0, r3
 1283 0040 FFF7FEFF 		bl	CyExitCriticalSection
 1284 0044 05E0     		b	.L76
 1285              	.L78:
 870:.\Generated_Source\PSoC4/CyLib.c ****             }
 871:.\Generated_Source\PSoC4/CyLib.c ****             else /* Safe to disable - shortened pulse does not impact peripheral */
 872:.\Generated_Source\PSoC4/CyLib.c ****             {
 873:.\Generated_Source\PSoC4/CyLib.c ****                 CY_SYS_CLK_WCO_CONFIG_REG &= (uint32) ~CY_SYS_CLK_WCO_CONFIG_LPM_ENABLE;
 1286              		.loc 2 873 0
 1287 0046 044B     		ldr	r3, .L79
 1288 0048 034A     		ldr	r2, .L79
 1289 004a 1268     		ldr	r2, [r2]
 1290 004c 5200     		lsl	r2, r2, #1
 1291 004e 5208     		lsr	r2, r2, #1
 1292 0050 1A60     		str	r2, [r3]
 1293              	.L76:
 874:.\Generated_Source\PSoC4/CyLib.c ****             }
 875:.\Generated_Source\PSoC4/CyLib.c ****         } /* Otherwise do nothing. WCO configuration cannot be changed. */
 876:.\Generated_Source\PSoC4/CyLib.c ****     }
 1294              		.loc 2 876 0
 1295 0052 BD46     		mov	sp, r7
 1296 0054 03B0     		add	sp, sp, #12
 1297              		@ sp needed
 1298 0056 90BD     		pop	{r4, r7, pc}
 1299              	.L80:
 1300              		.align	2
 1301              	.L79:
 1302 0058 00F02E40 		.word	1076817920
 1303              		.cfi_endproc
 1304              	.LFE17:
 1305              		.size	CySysClkWcoStop, .-CySysClkWcoStop
 1306              		.section	.text.CySysClkWcoEnabled,"ax",%progbits
 1307              		.align	2
ARM GAS  C:\Users\CHRIST~1\AppData\Local\Temp\cc8KQrfd.s 			page 56


 1308              		.code	16
 1309              		.thumb_func
 1310              		.type	CySysClkWcoEnabled, %function
 1311              	CySysClkWcoEnabled:
 1312              	.LFB18:
 877:.\Generated_Source\PSoC4/CyLib.c **** 
 878:.\Generated_Source\PSoC4/CyLib.c **** 
 879:.\Generated_Source\PSoC4/CyLib.c ****     /*******************************************************************************
 880:.\Generated_Source\PSoC4/CyLib.c ****     * Function Name: CySysClkWcoEnabled
 881:.\Generated_Source\PSoC4/CyLib.c ****     ********************************************************************************
 882:.\Generated_Source\PSoC4/CyLib.c ****     *
 883:.\Generated_Source\PSoC4/CyLib.c ****     * Summary:
 884:.\Generated_Source\PSoC4/CyLib.c ****     *  Reports WCO enable state.
 885:.\Generated_Source\PSoC4/CyLib.c ****     *
 886:.\Generated_Source\PSoC4/CyLib.c ****     * Parameters:
 887:.\Generated_Source\PSoC4/CyLib.c ****     *  None
 888:.\Generated_Source\PSoC4/CyLib.c ****     *
 889:.\Generated_Source\PSoC4/CyLib.c ****     * Return:
 890:.\Generated_Source\PSoC4/CyLib.c ****     *  1 if WCO is enabled, and 0 if WCO is disabled.
 891:.\Generated_Source\PSoC4/CyLib.c ****     *
 892:.\Generated_Source\PSoC4/CyLib.c ****     *******************************************************************************/
 893:.\Generated_Source\PSoC4/CyLib.c ****     static uint32 CySysClkWcoEnabled(void)
 894:.\Generated_Source\PSoC4/CyLib.c ****     {
 1313              		.loc 2 894 0
 1314              		.cfi_startproc
 1315 0000 80B5     		push	{r7, lr}
 1316              		.cfi_def_cfa_offset 8
 1317              		.cfi_offset 7, -8
 1318              		.cfi_offset 14, -4
 1319 0002 00AF     		add	r7, sp, #0
 1320              		.cfi_def_cfa_register 7
 895:.\Generated_Source\PSoC4/CyLib.c ****         return ((0u != (CY_SYS_CLK_WCO_CONFIG_REG & (uint32)(CY_SYS_CLK_WCO_CONFIG_LPM_ENABLE))) ?
 1321              		.loc 2 895 0
 1322 0004 044B     		ldr	r3, .L85
 1323 0006 1B68     		ldr	r3, [r3]
 896:.\Generated_Source\PSoC4/CyLib.c ****                 (uint32) 1u :
 1324              		.loc 2 896 0
 1325 0008 002B     		cmp	r3, #0
 1326 000a 01DA     		bge	.L82
 1327              		.loc 2 896 0 is_stmt 0 discriminator 1
 1328 000c 0123     		mov	r3, #1
 1329 000e 00E0     		b	.L83
 1330              	.L82:
 1331              		.loc 2 896 0 discriminator 2
 1332 0010 0023     		mov	r3, #0
 1333              	.L83:
 897:.\Generated_Source\PSoC4/CyLib.c ****                 (uint32) 0u);
 898:.\Generated_Source\PSoC4/CyLib.c ****     }
 1334              		.loc 2 898 0 is_stmt 1
 1335 0012 181C     		mov	r0, r3
 1336 0014 BD46     		mov	sp, r7
 1337              		@ sp needed
 1338 0016 80BD     		pop	{r7, pc}
 1339              	.L86:
 1340              		.align	2
 1341              	.L85:
 1342 0018 00F02E40 		.word	1076817920
ARM GAS  C:\Users\CHRIST~1\AppData\Local\Temp\cc8KQrfd.s 			page 57


 1343              		.cfi_endproc
 1344              	.LFE18:
 1345              		.size	CySysClkWcoEnabled, .-CySysClkWcoEnabled
 1346              		.section	.text.CySysClkWcoSetPowerMode,"ax",%progbits
 1347              		.align	2
 1348              		.global	CySysClkWcoSetPowerMode
 1349              		.code	16
 1350              		.thumb_func
 1351              		.type	CySysClkWcoSetPowerMode, %function
 1352              	CySysClkWcoSetPowerMode:
 1353              	.LFB19:
 899:.\Generated_Source\PSoC4/CyLib.c **** 
 900:.\Generated_Source\PSoC4/CyLib.c **** 
 901:.\Generated_Source\PSoC4/CyLib.c ****     /*******************************************************************************
 902:.\Generated_Source\PSoC4/CyLib.c ****     * Function Name: CySysClkWcoSetPowerMode
 903:.\Generated_Source\PSoC4/CyLib.c ****     ********************************************************************************
 904:.\Generated_Source\PSoC4/CyLib.c ****     *
 905:.\Generated_Source\PSoC4/CyLib.c ****     * Summary:
 906:.\Generated_Source\PSoC4/CyLib.c ****     *  Sets the power mode for the 32 KHz WCO.
 907:.\Generated_Source\PSoC4/CyLib.c ****     *
 908:.\Generated_Source\PSoC4/CyLib.c ****     * Parameters:
 909:.\Generated_Source\PSoC4/CyLib.c ****     *  uint32 mode:
 910:.\Generated_Source\PSoC4/CyLib.c ****     *   CY_SYS_CLK_WCO_HPM  - High power mode
 911:.\Generated_Source\PSoC4/CyLib.c ****     *   CY_SYS_CLK_WCO_LPM  - Low power mode
 912:.\Generated_Source\PSoC4/CyLib.c ****     *
 913:.\Generated_Source\PSoC4/CyLib.c ****     * Return:
 914:.\Generated_Source\PSoC4/CyLib.c ****     *  Previous power mode. The same as parameters.
 915:.\Generated_Source\PSoC4/CyLib.c ****     *
 916:.\Generated_Source\PSoC4/CyLib.c ****     *******************************************************************************/
 917:.\Generated_Source\PSoC4/CyLib.c ****     uint32 CySysClkWcoSetPowerMode(uint32 mode)
 918:.\Generated_Source\PSoC4/CyLib.c ****     {
 1354              		.loc 2 918 0
 1355              		.cfi_startproc
 1356 0000 80B5     		push	{r7, lr}
 1357              		.cfi_def_cfa_offset 8
 1358              		.cfi_offset 7, -8
 1359              		.cfi_offset 14, -4
 1360 0002 84B0     		sub	sp, sp, #16
 1361              		.cfi_def_cfa_offset 24
 1362 0004 00AF     		add	r7, sp, #0
 1363              		.cfi_def_cfa_register 7
 1364 0006 7860     		str	r0, [r7, #4]
 919:.\Generated_Source\PSoC4/CyLib.c ****         uint32 status;
 920:.\Generated_Source\PSoC4/CyLib.c **** 
 921:.\Generated_Source\PSoC4/CyLib.c ****         status = CY_SYS_CLK_WCO_CONFIG_REG & CY_SYS_CLK_WCO_LPM;
 1365              		.loc 2 921 0
 1366 0008 0C4B     		ldr	r3, .L94
 1367 000a 1B68     		ldr	r3, [r3]
 1368 000c 0122     		mov	r2, #1
 1369 000e 1340     		and	r3, r2
 1370 0010 FB60     		str	r3, [r7, #12]
 922:.\Generated_Source\PSoC4/CyLib.c **** 
 923:.\Generated_Source\PSoC4/CyLib.c ****         switch(mode)
 1371              		.loc 2 923 0
 1372 0012 7B68     		ldr	r3, [r7, #4]
 1373 0014 002B     		cmp	r3, #0
 1374 0016 02D0     		beq	.L89
ARM GAS  C:\Users\CHRIST~1\AppData\Local\Temp\cc8KQrfd.s 			page 58


 1375 0018 012B     		cmp	r3, #1
 1376 001a 03D0     		beq	.L90
 1377 001c 05E0     		b	.L93
 1378              	.L89:
 924:.\Generated_Source\PSoC4/CyLib.c ****         {
 925:.\Generated_Source\PSoC4/CyLib.c ****         case CY_SYS_CLK_WCO_HPM:
 926:.\Generated_Source\PSoC4/CyLib.c ****                 CySysClkWcoSetHighPowerMode();
 1379              		.loc 2 926 0
 1380 001e FFF7FEFF 		bl	CySysClkWcoSetHighPowerMode
 927:.\Generated_Source\PSoC4/CyLib.c ****             break;
 1381              		.loc 2 927 0
 1382 0022 06E0     		b	.L91
 1383              	.L90:
 928:.\Generated_Source\PSoC4/CyLib.c **** 
 929:.\Generated_Source\PSoC4/CyLib.c ****         case CY_SYS_CLK_WCO_LPM:
 930:.\Generated_Source\PSoC4/CyLib.c ****                 CySysClkWcoSetLowPowerMode();
 1384              		.loc 2 930 0
 1385 0024 FFF7FEFF 		bl	CySysClkWcoSetLowPowerMode
 931:.\Generated_Source\PSoC4/CyLib.c ****             break;
 1386              		.loc 2 931 0
 1387 0028 03E0     		b	.L91
 1388              	.L93:
 932:.\Generated_Source\PSoC4/CyLib.c **** 
 933:.\Generated_Source\PSoC4/CyLib.c ****         default:
 934:.\Generated_Source\PSoC4/CyLib.c ****             CYASSERT(0u != 0u);
 1389              		.loc 2 934 0
 1390 002a 0020     		mov	r0, #0
 1391 002c FFF7FEFF 		bl	CyHalt
 935:.\Generated_Source\PSoC4/CyLib.c ****             break;
 1392              		.loc 2 935 0
 1393 0030 C046     		mov	r8, r8
 1394              	.L91:
 936:.\Generated_Source\PSoC4/CyLib.c ****         }
 937:.\Generated_Source\PSoC4/CyLib.c **** 
 938:.\Generated_Source\PSoC4/CyLib.c ****         return (status);
 1395              		.loc 2 938 0
 1396 0032 FB68     		ldr	r3, [r7, #12]
 939:.\Generated_Source\PSoC4/CyLib.c ****     }
 1397              		.loc 2 939 0
 1398 0034 181C     		mov	r0, r3
 1399 0036 BD46     		mov	sp, r7
 1400 0038 04B0     		add	sp, sp, #16
 1401              		@ sp needed
 1402 003a 80BD     		pop	{r7, pc}
 1403              	.L95:
 1404              		.align	2
 1405              	.L94:
 1406 003c 00F02E40 		.word	1076817920
 1407              		.cfi_endproc
 1408              	.LFE19:
 1409              		.size	CySysClkWcoSetPowerMode, .-CySysClkWcoSetPowerMode
 1410              		.section	.text.CySysWdtLock,"ax",%progbits
 1411              		.align	2
 1412              		.global	CySysWdtLock
 1413              		.code	16
 1414              		.thumb_func
 1415              		.type	CySysWdtLock, %function
ARM GAS  C:\Users\CHRIST~1\AppData\Local\Temp\cc8KQrfd.s 			page 59


 1416              	CySysWdtLock:
 1417              	.LFB20:
 940:.\Generated_Source\PSoC4/CyLib.c **** 
 941:.\Generated_Source\PSoC4/CyLib.c **** #endif  /* (CY_IP_WCO) */
 942:.\Generated_Source\PSoC4/CyLib.c **** 
 943:.\Generated_Source\PSoC4/CyLib.c **** 
 944:.\Generated_Source\PSoC4/CyLib.c **** #if(CY_IP_SRSSV2)
 945:.\Generated_Source\PSoC4/CyLib.c **** 
 946:.\Generated_Source\PSoC4/CyLib.c **** 
 947:.\Generated_Source\PSoC4/CyLib.c ****     /*******************************************************************************
 948:.\Generated_Source\PSoC4/CyLib.c ****     * Function Name: CySysWdtLock
 949:.\Generated_Source\PSoC4/CyLib.c ****     ********************************************************************************
 950:.\Generated_Source\PSoC4/CyLib.c ****     *
 951:.\Generated_Source\PSoC4/CyLib.c ****     * Summary:
 952:.\Generated_Source\PSoC4/CyLib.c ****     *  Locks out configuration changes to the Watchdog timer registers and ILO
 953:.\Generated_Source\PSoC4/CyLib.c ****     *  configuration register.
 954:.\Generated_Source\PSoC4/CyLib.c ****     *
 955:.\Generated_Source\PSoC4/CyLib.c ****     * Parameters:
 956:.\Generated_Source\PSoC4/CyLib.c ****     *  None
 957:.\Generated_Source\PSoC4/CyLib.c ****     *
 958:.\Generated_Source\PSoC4/CyLib.c ****     * Return:
 959:.\Generated_Source\PSoC4/CyLib.c ****     *  None
 960:.\Generated_Source\PSoC4/CyLib.c ****     *
 961:.\Generated_Source\PSoC4/CyLib.c ****     * Side effects:
 962:.\Generated_Source\PSoC4/CyLib.c ****     *  After this function was called, ILO clock can't be disabled until
 963:.\Generated_Source\PSoC4/CyLib.c ****     *  CySysWdtUnlock() is called.
 964:.\Generated_Source\PSoC4/CyLib.c ****     *
 965:.\Generated_Source\PSoC4/CyLib.c ****     *******************************************************************************/
 966:.\Generated_Source\PSoC4/CyLib.c ****     void CySysWdtLock(void)
 967:.\Generated_Source\PSoC4/CyLib.c ****     {
 1418              		.loc 2 967 0
 1419              		.cfi_startproc
 1420 0000 90B5     		push	{r4, r7, lr}
 1421              		.cfi_def_cfa_offset 12
 1422              		.cfi_offset 4, -12
 1423              		.cfi_offset 7, -8
 1424              		.cfi_offset 14, -4
 1425 0002 83B0     		sub	sp, sp, #12
 1426              		.cfi_def_cfa_offset 24
 1427 0004 00AF     		add	r7, sp, #0
 1428              		.cfi_def_cfa_register 7
 968:.\Generated_Source\PSoC4/CyLib.c ****         uint8 interruptState;
 969:.\Generated_Source\PSoC4/CyLib.c ****         interruptState = CyEnterCriticalSection();
 1429              		.loc 2 969 0
 1430 0006 FC1D     		add	r4, r7, #7
 1431 0008 FFF7FEFF 		bl	CyEnterCriticalSection
 1432 000c 031C     		mov	r3, r0
 1433 000e 2370     		strb	r3, [r4]
 970:.\Generated_Source\PSoC4/CyLib.c **** 
 971:.\Generated_Source\PSoC4/CyLib.c ****         CY_SYS_CLK_SELECT_REG = (CY_SYS_CLK_SELECT_REG & (uint32)(~CY_SYS_WDT_CLK_LOCK_BITS_MASK)) 
 1434              		.loc 2 971 0
 1435 0010 074B     		ldr	r3, .L97
 1436 0012 074A     		ldr	r2, .L97
 1437 0014 1268     		ldr	r2, [r2]
 1438 0016 C021     		mov	r1, #192
 1439 0018 0902     		lsl	r1, r1, #8
 1440 001a 0A43     		orr	r2, r1
ARM GAS  C:\Users\CHRIST~1\AppData\Local\Temp\cc8KQrfd.s 			page 60


 1441 001c 1A60     		str	r2, [r3]
 972:.\Generated_Source\PSoC4/CyLib.c ****                  CY_SYS_WDT_CLK_LOCK_BITS_MASK;
 973:.\Generated_Source\PSoC4/CyLib.c **** 
 974:.\Generated_Source\PSoC4/CyLib.c ****         CyExitCriticalSection(interruptState);
 1442              		.loc 2 974 0
 1443 001e FB1D     		add	r3, r7, #7
 1444 0020 1B78     		ldrb	r3, [r3]
 1445 0022 181C     		mov	r0, r3
 1446 0024 FFF7FEFF 		bl	CyExitCriticalSection
 975:.\Generated_Source\PSoC4/CyLib.c ****     }
 1447              		.loc 2 975 0
 1448 0028 BD46     		mov	sp, r7
 1449 002a 03B0     		add	sp, sp, #12
 1450              		@ sp needed
 1451 002c 90BD     		pop	{r4, r7, pc}
 1452              	.L98:
 1453 002e C046     		.align	2
 1454              	.L97:
 1455 0030 00010B40 		.word	1074462976
 1456              		.cfi_endproc
 1457              	.LFE20:
 1458              		.size	CySysWdtLock, .-CySysWdtLock
 1459              		.section	.text.CySysWdtLocked,"ax",%progbits
 1460              		.align	2
 1461              		.code	16
 1462              		.thumb_func
 1463              		.type	CySysWdtLocked, %function
 1464              	CySysWdtLocked:
 1465              	.LFB21:
 976:.\Generated_Source\PSoC4/CyLib.c **** 
 977:.\Generated_Source\PSoC4/CyLib.c **** 
 978:.\Generated_Source\PSoC4/CyLib.c ****     /*******************************************************************************
 979:.\Generated_Source\PSoC4/CyLib.c ****     * Function Name: CySysWdtLocked
 980:.\Generated_Source\PSoC4/CyLib.c ****     ********************************************************************************
 981:.\Generated_Source\PSoC4/CyLib.c ****     *
 982:.\Generated_Source\PSoC4/CyLib.c ****     * Summary:
 983:.\Generated_Source\PSoC4/CyLib.c ****     *  Reports WDT lock state.
 984:.\Generated_Source\PSoC4/CyLib.c ****     *
 985:.\Generated_Source\PSoC4/CyLib.c ****     * Parameters:
 986:.\Generated_Source\PSoC4/CyLib.c ****     *  None
 987:.\Generated_Source\PSoC4/CyLib.c ****     *
 988:.\Generated_Source\PSoC4/CyLib.c ****     * Return:
 989:.\Generated_Source\PSoC4/CyLib.c ****     *  1 - WDT is locked, and 0 - WDT is unlocked.
 990:.\Generated_Source\PSoC4/CyLib.c ****     *
 991:.\Generated_Source\PSoC4/CyLib.c ****     *******************************************************************************/
 992:.\Generated_Source\PSoC4/CyLib.c ****     static uint32 CySysWdtLocked(void)
 993:.\Generated_Source\PSoC4/CyLib.c ****     {
 1466              		.loc 2 993 0
 1467              		.cfi_startproc
 1468 0000 80B5     		push	{r7, lr}
 1469              		.cfi_def_cfa_offset 8
 1470              		.cfi_offset 7, -8
 1471              		.cfi_offset 14, -4
 1472 0002 00AF     		add	r7, sp, #0
 1473              		.cfi_def_cfa_register 7
 994:.\Generated_Source\PSoC4/CyLib.c ****         /* Prohibits writing to WDT registers and ILO/WCO registers when not equal 0 */
 995:.\Generated_Source\PSoC4/CyLib.c ****         return ((0u != (CY_SYS_CLK_SELECT_REG & (uint32)(CY_SYS_WDT_CLK_LOCK_BITS_MASK))) ? (uint32
ARM GAS  C:\Users\CHRIST~1\AppData\Local\Temp\cc8KQrfd.s 			page 61


 1474              		.loc 2 995 0
 1475 0004 054B     		ldr	r3, .L103
 1476 0006 1A68     		ldr	r2, [r3]
 1477 0008 C023     		mov	r3, #192
 1478 000a 1B02     		lsl	r3, r3, #8
 1479 000c 1340     		and	r3, r2
 1480 000e 01D0     		beq	.L100
 1481              		.loc 2 995 0 is_stmt 0 discriminator 1
 1482 0010 0123     		mov	r3, #1
 1483 0012 00E0     		b	.L101
 1484              	.L100:
 1485              		.loc 2 995 0 discriminator 2
 1486 0014 0023     		mov	r3, #0
 1487              	.L101:
 996:.\Generated_Source\PSoC4/CyLib.c ****     }
 1488              		.loc 2 996 0 is_stmt 1 discriminator 4
 1489 0016 181C     		mov	r0, r3
 1490 0018 BD46     		mov	sp, r7
 1491              		@ sp needed
 1492 001a 80BD     		pop	{r7, pc}
 1493              	.L104:
 1494              		.align	2
 1495              	.L103:
 1496 001c 00010B40 		.word	1074462976
 1497              		.cfi_endproc
 1498              	.LFE21:
 1499              		.size	CySysWdtLocked, .-CySysWdtLocked
 1500              		.section	.text.CySysWdtUnlock,"ax",%progbits
 1501              		.align	2
 1502              		.global	CySysWdtUnlock
 1503              		.code	16
 1504              		.thumb_func
 1505              		.type	CySysWdtUnlock, %function
 1506              	CySysWdtUnlock:
 1507              	.LFB22:
 997:.\Generated_Source\PSoC4/CyLib.c **** 
 998:.\Generated_Source\PSoC4/CyLib.c **** 
 999:.\Generated_Source\PSoC4/CyLib.c ****     /*******************************************************************************
1000:.\Generated_Source\PSoC4/CyLib.c ****     * Function Name: CySysWdtUnlock
1001:.\Generated_Source\PSoC4/CyLib.c ****     ********************************************************************************
1002:.\Generated_Source\PSoC4/CyLib.c ****     *
1003:.\Generated_Source\PSoC4/CyLib.c ****     * Summary:
1004:.\Generated_Source\PSoC4/CyLib.c ****     *  Unlocks the Watchdog Timer configuration register.
1005:.\Generated_Source\PSoC4/CyLib.c ****     *
1006:.\Generated_Source\PSoC4/CyLib.c ****     * Parameters:
1007:.\Generated_Source\PSoC4/CyLib.c ****     *  None
1008:.\Generated_Source\PSoC4/CyLib.c ****     *
1009:.\Generated_Source\PSoC4/CyLib.c ****     * Return:
1010:.\Generated_Source\PSoC4/CyLib.c ****     *  None
1011:.\Generated_Source\PSoC4/CyLib.c ****     *
1012:.\Generated_Source\PSoC4/CyLib.c ****     *******************************************************************************/
1013:.\Generated_Source\PSoC4/CyLib.c ****     void CySysWdtUnlock(void)
1014:.\Generated_Source\PSoC4/CyLib.c ****     {
 1508              		.loc 2 1014 0
 1509              		.cfi_startproc
 1510 0000 90B5     		push	{r4, r7, lr}
 1511              		.cfi_def_cfa_offset 12
ARM GAS  C:\Users\CHRIST~1\AppData\Local\Temp\cc8KQrfd.s 			page 62


 1512              		.cfi_offset 4, -12
 1513              		.cfi_offset 7, -8
 1514              		.cfi_offset 14, -4
 1515 0002 83B0     		sub	sp, sp, #12
 1516              		.cfi_def_cfa_offset 24
 1517 0004 00AF     		add	r7, sp, #0
 1518              		.cfi_def_cfa_register 7
1015:.\Generated_Source\PSoC4/CyLib.c ****         uint8 interruptState;
1016:.\Generated_Source\PSoC4/CyLib.c ****         interruptState = CyEnterCriticalSection();
 1519              		.loc 2 1016 0
 1520 0006 FC1D     		add	r4, r7, #7
 1521 0008 FFF7FEFF 		bl	CyEnterCriticalSection
 1522 000c 031C     		mov	r3, r0
 1523 000e 2370     		strb	r3, [r4]
1017:.\Generated_Source\PSoC4/CyLib.c **** 
1018:.\Generated_Source\PSoC4/CyLib.c ****         /* Removing WDT lock requires two writes */
1019:.\Generated_Source\PSoC4/CyLib.c ****         CY_SYS_CLK_SELECT_REG = ((CY_SYS_CLK_SELECT_REG & (uint32)(~CY_SYS_WDT_CLK_LOCK_BITS_MASK))
 1524              		.loc 2 1019 0
 1525 0010 0C4B     		ldr	r3, .L106
 1526 0012 0C4A     		ldr	r2, .L106
 1527 0014 1268     		ldr	r2, [r2]
 1528 0016 0C49     		ldr	r1, .L106+4
 1529 0018 0A40     		and	r2, r1
 1530 001a 8021     		mov	r1, #128
 1531 001c C901     		lsl	r1, r1, #7
 1532 001e 0A43     		orr	r2, r1
 1533 0020 1A60     		str	r2, [r3]
1020:.\Generated_Source\PSoC4/CyLib.c ****                 CY_SYS_WDT_CLK_LOCK_BIT0);
1021:.\Generated_Source\PSoC4/CyLib.c **** 
1022:.\Generated_Source\PSoC4/CyLib.c ****         CY_SYS_CLK_SELECT_REG = ((CY_SYS_CLK_SELECT_REG & (uint32)(~CY_SYS_WDT_CLK_LOCK_BITS_MASK))
 1534              		.loc 2 1022 0
 1535 0022 084B     		ldr	r3, .L106
 1536 0024 074A     		ldr	r2, .L106
 1537 0026 1268     		ldr	r2, [r2]
 1538 0028 0749     		ldr	r1, .L106+4
 1539 002a 0A40     		and	r2, r1
 1540 002c 8021     		mov	r1, #128
 1541 002e 0902     		lsl	r1, r1, #8
 1542 0030 0A43     		orr	r2, r1
 1543 0032 1A60     		str	r2, [r3]
1023:.\Generated_Source\PSoC4/CyLib.c ****                 CY_SYS_WDT_CLK_LOCK_BIT1);
1024:.\Generated_Source\PSoC4/CyLib.c **** 
1025:.\Generated_Source\PSoC4/CyLib.c ****         CyExitCriticalSection(interruptState);
 1544              		.loc 2 1025 0
 1545 0034 FB1D     		add	r3, r7, #7
 1546 0036 1B78     		ldrb	r3, [r3]
 1547 0038 181C     		mov	r0, r3
 1548 003a FFF7FEFF 		bl	CyExitCriticalSection
1026:.\Generated_Source\PSoC4/CyLib.c ****     }
 1549              		.loc 2 1026 0
 1550 003e BD46     		mov	sp, r7
 1551 0040 03B0     		add	sp, sp, #12
 1552              		@ sp needed
 1553 0042 90BD     		pop	{r4, r7, pc}
 1554              	.L107:
 1555              		.align	2
 1556              	.L106:
ARM GAS  C:\Users\CHRIST~1\AppData\Local\Temp\cc8KQrfd.s 			page 63


 1557 0044 00010B40 		.word	1074462976
 1558 0048 FF3FFFFF 		.word	-49153
 1559              		.cfi_endproc
 1560              	.LFE22:
 1561              		.size	CySysWdtUnlock, .-CySysWdtUnlock
 1562              		.section	.text.CySysWdtReadEnabledStatus,"ax",%progbits
 1563              		.align	2
 1564              		.global	CySysWdtReadEnabledStatus
 1565              		.code	16
 1566              		.thumb_func
 1567              		.type	CySysWdtReadEnabledStatus, %function
 1568              	CySysWdtReadEnabledStatus:
 1569              	.LFB23:
1027:.\Generated_Source\PSoC4/CyLib.c **** 
1028:.\Generated_Source\PSoC4/CyLib.c **** 
1029:.\Generated_Source\PSoC4/CyLib.c ****     /*******************************************************************************
1030:.\Generated_Source\PSoC4/CyLib.c ****     * Function Name: CySysWdtReadEnabledStatus
1031:.\Generated_Source\PSoC4/CyLib.c ****     ********************************************************************************
1032:.\Generated_Source\PSoC4/CyLib.c ****     *
1033:.\Generated_Source\PSoC4/CyLib.c ****     * Summary:
1034:.\Generated_Source\PSoC4/CyLib.c ****     *  Reads the enabled status of one of the three WDT counters.
1035:.\Generated_Source\PSoC4/CyLib.c ****     *
1036:.\Generated_Source\PSoC4/CyLib.c ****     * Parameters:
1037:.\Generated_Source\PSoC4/CyLib.c ****     *  counterNum: Valid range [0-2].  Number of the WDT counter.
1038:.\Generated_Source\PSoC4/CyLib.c ****     *
1039:.\Generated_Source\PSoC4/CyLib.c ****     * Return:
1040:.\Generated_Source\PSoC4/CyLib.c ****     *  Status of WDT counter:
1041:.\Generated_Source\PSoC4/CyLib.c ****     *   0 - counter is disabled
1042:.\Generated_Source\PSoC4/CyLib.c ****     *   1 - counter is enabled
1043:.\Generated_Source\PSoC4/CyLib.c ****     *
1044:.\Generated_Source\PSoC4/CyLib.c ****     * Side Effects:
1045:.\Generated_Source\PSoC4/CyLib.c ****     *  This function returns actual WDT counter status from status register. It may
1046:.\Generated_Source\PSoC4/CyLib.c ****     *  take up to 3 LFCLK cycles since WDT counter was enabled for WDT status
1047:.\Generated_Source\PSoC4/CyLib.c ****     *  register to contain actual data.
1048:.\Generated_Source\PSoC4/CyLib.c ****     *
1049:.\Generated_Source\PSoC4/CyLib.c ****     *******************************************************************************/
1050:.\Generated_Source\PSoC4/CyLib.c ****     uint32 CySysWdtReadEnabledStatus(uint32 counterNum)
1051:.\Generated_Source\PSoC4/CyLib.c ****     {
 1570              		.loc 2 1051 0
 1571              		.cfi_startproc
 1572 0000 80B5     		push	{r7, lr}
 1573              		.cfi_def_cfa_offset 8
 1574              		.cfi_offset 7, -8
 1575              		.cfi_offset 14, -4
 1576 0002 82B0     		sub	sp, sp, #8
 1577              		.cfi_def_cfa_offset 16
 1578 0004 00AF     		add	r7, sp, #0
 1579              		.cfi_def_cfa_register 7
 1580 0006 7860     		str	r0, [r7, #4]
1052:.\Generated_Source\PSoC4/CyLib.c ****         CYASSERT(counterNum < CY_SYS_WDT_COUNTERS_MAX);
 1581              		.loc 2 1052 0
 1582 0008 7B68     		ldr	r3, [r7, #4]
 1583 000a 022B     		cmp	r3, #2
 1584 000c 02D9     		bls	.L109
 1585              		.loc 2 1052 0 is_stmt 0 discriminator 1
 1586 000e 0020     		mov	r0, #0
 1587 0010 FFF7FEFF 		bl	CyHalt
ARM GAS  C:\Users\CHRIST~1\AppData\Local\Temp\cc8KQrfd.s 			page 64


 1588              	.L109:
1053:.\Generated_Source\PSoC4/CyLib.c ****         return ((CY_SYS_WDT_CONTROL_REG >> ((CY_SYS_WDT_CNT_SHIFT * counterNum) + CY_SYS_WDT_CNT_ST
 1589              		.loc 2 1053 0 is_stmt 1
 1590 0014 054B     		ldr	r3, .L111
 1591 0016 1B68     		ldr	r3, [r3]
 1592 0018 7A68     		ldr	r2, [r7, #4]
 1593 001a D200     		lsl	r2, r2, #3
 1594 001c 0132     		add	r2, r2, #1
 1595 001e D340     		lsr	r3, r3, r2
 1596 0020 0122     		mov	r2, #1
 1597 0022 1340     		and	r3, r2
1054:.\Generated_Source\PSoC4/CyLib.c ****     }
 1598              		.loc 2 1054 0
 1599 0024 181C     		mov	r0, r3
 1600 0026 BD46     		mov	sp, r7
 1601 0028 02B0     		add	sp, sp, #8
 1602              		@ sp needed
 1603 002a 80BD     		pop	{r7, pc}
 1604              	.L112:
 1605              		.align	2
 1606              	.L111:
 1607 002c 10020B40 		.word	1074463248
 1608              		.cfi_endproc
 1609              	.LFE23:
 1610              		.size	CySysWdtReadEnabledStatus, .-CySysWdtReadEnabledStatus
 1611              		.section	.text.CySysWdtWriteMode,"ax",%progbits
 1612              		.align	2
 1613              		.global	CySysWdtWriteMode
 1614              		.code	16
 1615              		.thumb_func
 1616              		.type	CySysWdtWriteMode, %function
 1617              	CySysWdtWriteMode:
 1618              	.LFB24:
1055:.\Generated_Source\PSoC4/CyLib.c **** 
1056:.\Generated_Source\PSoC4/CyLib.c **** 
1057:.\Generated_Source\PSoC4/CyLib.c ****     /*******************************************************************************
1058:.\Generated_Source\PSoC4/CyLib.c ****     * Function Name: CySysWdtWriteMode
1059:.\Generated_Source\PSoC4/CyLib.c ****     ********************************************************************************
1060:.\Generated_Source\PSoC4/CyLib.c ****     *
1061:.\Generated_Source\PSoC4/CyLib.c ****     * Summary:
1062:.\Generated_Source\PSoC4/CyLib.c ****     *   Writes the mode of one of the three WDT counters.
1063:.\Generated_Source\PSoC4/CyLib.c ****     *
1064:.\Generated_Source\PSoC4/CyLib.c ****     * Parameters:
1065:.\Generated_Source\PSoC4/CyLib.c ****     *   counterNum: Valid range [0-2].  Number of the WDT counter.
1066:.\Generated_Source\PSoC4/CyLib.c ****     *   mode:       Mode of operation for the counter
1067:.\Generated_Source\PSoC4/CyLib.c ****     *       Define                   Mode
1068:.\Generated_Source\PSoC4/CyLib.c ****     *    CY_SYS_WDT_MODE_NONE       Free running
1069:.\Generated_Source\PSoC4/CyLib.c ****     *    CY_SYS_WDT_MODE_INT        Interrupt generated on match for counter 0
1070:.\Generated_Source\PSoC4/CyLib.c ****     *                               and 1, and on bit toggle for counter 2.
1071:.\Generated_Source\PSoC4/CyLib.c ****     *    CY_SYS_WDT_MODE_RESET      Reset on match (valid for counter 0 and 1
1072:.\Generated_Source\PSoC4/CyLib.c ****     *                               only)
1073:.\Generated_Source\PSoC4/CyLib.c ****     *    CY_SYS_WDT_MODE_INT_RESET  Generate an interrupt.  Generate a reset on
1074:.\Generated_Source\PSoC4/CyLib.c ****     *                                    the 3rd unhandled interrupt.
1075:.\Generated_Source\PSoC4/CyLib.c ****     *                                    (valid for counter 0 and 1 only)
1076:.\Generated_Source\PSoC4/CyLib.c ****     * Return:
1077:.\Generated_Source\PSoC4/CyLib.c ****     *   None
1078:.\Generated_Source\PSoC4/CyLib.c ****     *
ARM GAS  C:\Users\CHRIST~1\AppData\Local\Temp\cc8KQrfd.s 			page 65


1079:.\Generated_Source\PSoC4/CyLib.c ****     * Side Effects:
1080:.\Generated_Source\PSoC4/CyLib.c ****     *   WDT counter counterNum should be disabled to set mode. Otherwise this
1081:.\Generated_Source\PSoC4/CyLib.c ****     *   function call will have no effect. If the specified counter is enabled,
1082:.\Generated_Source\PSoC4/CyLib.c ****     *   call CySysWdtDisable() function with the corresponding parameter to
1083:.\Generated_Source\PSoC4/CyLib.c ****     *   disable specified counter and wait for it to stop.
1084:.\Generated_Source\PSoC4/CyLib.c ****     *
1085:.\Generated_Source\PSoC4/CyLib.c ****     *******************************************************************************/
1086:.\Generated_Source\PSoC4/CyLib.c ****     void CySysWdtWriteMode(uint32 counterNum, uint32 mode)
1087:.\Generated_Source\PSoC4/CyLib.c ****     {
 1619              		.loc 2 1087 0
 1620              		.cfi_startproc
 1621 0000 80B5     		push	{r7, lr}
 1622              		.cfi_def_cfa_offset 8
 1623              		.cfi_offset 7, -8
 1624              		.cfi_offset 14, -4
 1625 0002 84B0     		sub	sp, sp, #16
 1626              		.cfi_def_cfa_offset 24
 1627 0004 00AF     		add	r7, sp, #0
 1628              		.cfi_def_cfa_register 7
 1629 0006 7860     		str	r0, [r7, #4]
 1630 0008 3960     		str	r1, [r7]
1088:.\Generated_Source\PSoC4/CyLib.c ****         uint32 configRegValue;
1089:.\Generated_Source\PSoC4/CyLib.c **** 
1090:.\Generated_Source\PSoC4/CyLib.c ****         CYASSERT(counterNum < CY_SYS_WDT_COUNTERS_MAX);
 1631              		.loc 2 1090 0
 1632 000a 7B68     		ldr	r3, [r7, #4]
 1633 000c 022B     		cmp	r3, #2
 1634 000e 02D9     		bls	.L114
 1635              		.loc 2 1090 0 is_stmt 0 discriminator 1
 1636 0010 0020     		mov	r0, #0
 1637 0012 FFF7FEFF 		bl	CyHalt
 1638              	.L114:
1091:.\Generated_Source\PSoC4/CyLib.c **** 
1092:.\Generated_Source\PSoC4/CyLib.c ****         if(0u == CySysWdtReadEnabledStatus(counterNum))
 1639              		.loc 2 1092 0 is_stmt 1
 1640 0016 7B68     		ldr	r3, [r7, #4]
 1641 0018 181C     		mov	r0, r3
 1642 001a FFF7FEFF 		bl	CySysWdtReadEnabledStatus
 1643 001e 031E     		sub	r3, r0, #0
 1644 0020 15D1     		bne	.L113
1093:.\Generated_Source\PSoC4/CyLib.c ****         {
1094:.\Generated_Source\PSoC4/CyLib.c ****             configRegValue = CY_SYS_WDT_CONFIG_REG &
 1645              		.loc 2 1094 0
 1646 0022 0C4B     		ldr	r3, .L116
 1647 0024 1B68     		ldr	r3, [r3]
1095:.\Generated_Source\PSoC4/CyLib.c ****                                 (uint32)~((uint32)(CY_SYS_WDT_MODE_MASK << (counterNum * CY_SYS_WDT
 1648              		.loc 2 1095 0
 1649 0026 7A68     		ldr	r2, [r7, #4]
 1650 0028 D200     		lsl	r2, r2, #3
 1651 002a 111C     		mov	r1, r2
 1652 002c 0322     		mov	r2, #3
 1653 002e 8A40     		lsl	r2, r2, r1
 1654 0030 D243     		mvn	r2, r2
1094:.\Generated_Source\PSoC4/CyLib.c ****                                 (uint32)~((uint32)(CY_SYS_WDT_MODE_MASK << (counterNum * CY_SYS_WDT
 1655              		.loc 2 1094 0
 1656 0032 1340     		and	r3, r2
 1657 0034 FB60     		str	r3, [r7, #12]
ARM GAS  C:\Users\CHRIST~1\AppData\Local\Temp\cc8KQrfd.s 			page 66


1096:.\Generated_Source\PSoC4/CyLib.c ****             configRegValue |= (uint32)((mode & CY_SYS_WDT_MODE_MASK) << (counterNum * CY_SYS_WDT_CN
 1658              		.loc 2 1096 0
 1659 0036 3B68     		ldr	r3, [r7]
 1660 0038 0322     		mov	r2, #3
 1661 003a 1340     		and	r3, r2
 1662 003c 7A68     		ldr	r2, [r7, #4]
 1663 003e D200     		lsl	r2, r2, #3
 1664 0040 9340     		lsl	r3, r3, r2
 1665 0042 FA68     		ldr	r2, [r7, #12]
 1666 0044 1343     		orr	r3, r2
 1667 0046 FB60     		str	r3, [r7, #12]
1097:.\Generated_Source\PSoC4/CyLib.c ****             CY_SYS_WDT_CONFIG_REG = configRegValue;
 1668              		.loc 2 1097 0
 1669 0048 024B     		ldr	r3, .L116
 1670 004a FA68     		ldr	r2, [r7, #12]
 1671 004c 1A60     		str	r2, [r3]
 1672              	.L113:
1098:.\Generated_Source\PSoC4/CyLib.c ****         }
1099:.\Generated_Source\PSoC4/CyLib.c ****     }
 1673              		.loc 2 1099 0
 1674 004e BD46     		mov	sp, r7
 1675 0050 04B0     		add	sp, sp, #16
 1676              		@ sp needed
 1677 0052 80BD     		pop	{r7, pc}
 1678              	.L117:
 1679              		.align	2
 1680              	.L116:
 1681 0054 0C020B40 		.word	1074463244
 1682              		.cfi_endproc
 1683              	.LFE24:
 1684              		.size	CySysWdtWriteMode, .-CySysWdtWriteMode
 1685              		.section	.text.CySysWdtReadMode,"ax",%progbits
 1686              		.align	2
 1687              		.global	CySysWdtReadMode
 1688              		.code	16
 1689              		.thumb_func
 1690              		.type	CySysWdtReadMode, %function
 1691              	CySysWdtReadMode:
 1692              	.LFB25:
1100:.\Generated_Source\PSoC4/CyLib.c **** 
1101:.\Generated_Source\PSoC4/CyLib.c **** 
1102:.\Generated_Source\PSoC4/CyLib.c ****     /*******************************************************************************
1103:.\Generated_Source\PSoC4/CyLib.c ****     * Function Name: CySysWdtReadMode
1104:.\Generated_Source\PSoC4/CyLib.c ****     ********************************************************************************
1105:.\Generated_Source\PSoC4/CyLib.c ****     *
1106:.\Generated_Source\PSoC4/CyLib.c ****     * Summary:
1107:.\Generated_Source\PSoC4/CyLib.c ****     *  Reads the mode of one of the three WDT counters.
1108:.\Generated_Source\PSoC4/CyLib.c ****     *
1109:.\Generated_Source\PSoC4/CyLib.c ****     * Parameters:
1110:.\Generated_Source\PSoC4/CyLib.c ****     *  counterNum: Valid range [0-2].  Number of the WDT counter.
1111:.\Generated_Source\PSoC4/CyLib.c ****     *
1112:.\Generated_Source\PSoC4/CyLib.c ****     * Return:
1113:.\Generated_Source\PSoC4/CyLib.c ****     *  Mode of the counter.  Same enumerated values as mode parameter used in
1114:.\Generated_Source\PSoC4/CyLib.c ****     *  CySysWdtWriteMode().
1115:.\Generated_Source\PSoC4/CyLib.c ****     *
1116:.\Generated_Source\PSoC4/CyLib.c ****     *******************************************************************************/
1117:.\Generated_Source\PSoC4/CyLib.c ****     uint32 CySysWdtReadMode(uint32 counterNum)
ARM GAS  C:\Users\CHRIST~1\AppData\Local\Temp\cc8KQrfd.s 			page 67


1118:.\Generated_Source\PSoC4/CyLib.c ****     {
 1693              		.loc 2 1118 0
 1694              		.cfi_startproc
 1695 0000 80B5     		push	{r7, lr}
 1696              		.cfi_def_cfa_offset 8
 1697              		.cfi_offset 7, -8
 1698              		.cfi_offset 14, -4
 1699 0002 82B0     		sub	sp, sp, #8
 1700              		.cfi_def_cfa_offset 16
 1701 0004 00AF     		add	r7, sp, #0
 1702              		.cfi_def_cfa_register 7
 1703 0006 7860     		str	r0, [r7, #4]
1119:.\Generated_Source\PSoC4/CyLib.c ****         return ((CY_SYS_WDT_CONFIG_REG >> (counterNum * CY_SYS_WDT_CNT_SHIFT)) & CY_SYS_WDT_MODE_MA
 1704              		.loc 2 1119 0
 1705 0008 054B     		ldr	r3, .L120
 1706 000a 1B68     		ldr	r3, [r3]
 1707 000c 7A68     		ldr	r2, [r7, #4]
 1708 000e D200     		lsl	r2, r2, #3
 1709 0010 D340     		lsr	r3, r3, r2
 1710 0012 0322     		mov	r2, #3
 1711 0014 1340     		and	r3, r2
1120:.\Generated_Source\PSoC4/CyLib.c ****     }
 1712              		.loc 2 1120 0
 1713 0016 181C     		mov	r0, r3
 1714 0018 BD46     		mov	sp, r7
 1715 001a 02B0     		add	sp, sp, #8
 1716              		@ sp needed
 1717 001c 80BD     		pop	{r7, pc}
 1718              	.L121:
 1719 001e C046     		.align	2
 1720              	.L120:
 1721 0020 0C020B40 		.word	1074463244
 1722              		.cfi_endproc
 1723              	.LFE25:
 1724              		.size	CySysWdtReadMode, .-CySysWdtReadMode
 1725              		.section	.text.CySysWdtWriteClearOnMatch,"ax",%progbits
 1726              		.align	2
 1727              		.global	CySysWdtWriteClearOnMatch
 1728              		.code	16
 1729              		.thumb_func
 1730              		.type	CySysWdtWriteClearOnMatch, %function
 1731              	CySysWdtWriteClearOnMatch:
 1732              	.LFB26:
1121:.\Generated_Source\PSoC4/CyLib.c **** 
1122:.\Generated_Source\PSoC4/CyLib.c **** 
1123:.\Generated_Source\PSoC4/CyLib.c ****     /*******************************************************************************
1124:.\Generated_Source\PSoC4/CyLib.c ****     * Function Name: CySysWdtWriteClearOnMatch
1125:.\Generated_Source\PSoC4/CyLib.c ****     ********************************************************************************
1126:.\Generated_Source\PSoC4/CyLib.c ****     *
1127:.\Generated_Source\PSoC4/CyLib.c ****     * Summary:
1128:.\Generated_Source\PSoC4/CyLib.c ****     *  Configures the WDT counter clear on a match setting.  If configured to clear
1129:.\Generated_Source\PSoC4/CyLib.c ****     *  on match, the counter will count from 0 to the MatchValue giving it a
1130:.\Generated_Source\PSoC4/CyLib.c ****     *  period of (MatchValue + 1).
1131:.\Generated_Source\PSoC4/CyLib.c ****     *
1132:.\Generated_Source\PSoC4/CyLib.c ****     * Parameters:
1133:.\Generated_Source\PSoC4/CyLib.c ****     *  counterNum:
1134:.\Generated_Source\PSoC4/CyLib.c ****     *   Valid range [0-1].  Number of the WDT counter.  Match values are not
ARM GAS  C:\Users\CHRIST~1\AppData\Local\Temp\cc8KQrfd.s 			page 68


1135:.\Generated_Source\PSoC4/CyLib.c ****     *   supported by counter 2.
1136:.\Generated_Source\PSoC4/CyLib.c ****     *
1137:.\Generated_Source\PSoC4/CyLib.c ****     * enable:
1138:.\Generated_Source\PSoC4/CyLib.c ****     *   0 to disable, 1 to enable
1139:.\Generated_Source\PSoC4/CyLib.c ****     *
1140:.\Generated_Source\PSoC4/CyLib.c ****     * Return:
1141:.\Generated_Source\PSoC4/CyLib.c ****     *   None
1142:.\Generated_Source\PSoC4/CyLib.c ****     *
1143:.\Generated_Source\PSoC4/CyLib.c ****     * Side Effects:
1144:.\Generated_Source\PSoC4/CyLib.c ****     *   WDT counter counterNum should be disabled. Otherwise this function call will
1145:.\Generated_Source\PSoC4/CyLib.c ****     *   have no effect. If the specified counter is enabled, call CySysWdtDisable()
1146:.\Generated_Source\PSoC4/CyLib.c ****     *   function with the corresponding parameter to disable specified counter and
1147:.\Generated_Source\PSoC4/CyLib.c ****     *   wait for it to stop. This may take up to three LFCLK cycles.
1148:.\Generated_Source\PSoC4/CyLib.c ****     *
1149:.\Generated_Source\PSoC4/CyLib.c ****     *******************************************************************************/
1150:.\Generated_Source\PSoC4/CyLib.c ****     void CySysWdtWriteClearOnMatch(uint32 counterNum, uint32 enable)
1151:.\Generated_Source\PSoC4/CyLib.c ****     {
 1733              		.loc 2 1151 0
 1734              		.cfi_startproc
 1735 0000 80B5     		push	{r7, lr}
 1736              		.cfi_def_cfa_offset 8
 1737              		.cfi_offset 7, -8
 1738              		.cfi_offset 14, -4
 1739 0002 84B0     		sub	sp, sp, #16
 1740              		.cfi_def_cfa_offset 24
 1741 0004 00AF     		add	r7, sp, #0
 1742              		.cfi_def_cfa_register 7
 1743 0006 7860     		str	r0, [r7, #4]
 1744 0008 3960     		str	r1, [r7]
1152:.\Generated_Source\PSoC4/CyLib.c ****         uint32 configRegValue;
1153:.\Generated_Source\PSoC4/CyLib.c **** 
1154:.\Generated_Source\PSoC4/CyLib.c ****         CYASSERT((counterNum == CY_SYS_WDT_COUNTER0) ||
 1745              		.loc 2 1154 0
 1746 000a 7B68     		ldr	r3, [r7, #4]
 1747 000c 002B     		cmp	r3, #0
 1748 000e 02D0     		beq	.L123
 1749              		.loc 2 1154 0 is_stmt 0 discriminator 2
 1750 0010 7B68     		ldr	r3, [r7, #4]
 1751 0012 012B     		cmp	r3, #1
 1752 0014 01D1     		bne	.L124
 1753              	.L123:
 1754              		.loc 2 1154 0 discriminator 3
 1755 0016 0123     		mov	r3, #1
 1756 0018 00E0     		b	.L125
 1757              	.L124:
 1758              		.loc 2 1154 0 discriminator 4
 1759 001a 0023     		mov	r3, #0
 1760              	.L125:
 1761              		.loc 2 1154 0 discriminator 6
 1762 001c 002B     		cmp	r3, #0
 1763 001e 02D1     		bne	.L126
 1764              		.loc 2 1154 0 discriminator 7
 1765 0020 0020     		mov	r0, #0
 1766 0022 FFF7FEFF 		bl	CyHalt
 1767              	.L126:
1155:.\Generated_Source\PSoC4/CyLib.c ****                  (counterNum == CY_SYS_WDT_COUNTER1));
1156:.\Generated_Source\PSoC4/CyLib.c **** 
ARM GAS  C:\Users\CHRIST~1\AppData\Local\Temp\cc8KQrfd.s 			page 69


1157:.\Generated_Source\PSoC4/CyLib.c ****         if(0u == CySysWdtReadEnabledStatus(counterNum))
 1768              		.loc 2 1157 0 is_stmt 1
 1769 0026 7B68     		ldr	r3, [r7, #4]
 1770 0028 181C     		mov	r0, r3
 1771 002a FFF7FEFF 		bl	CySysWdtReadEnabledStatus
 1772 002e 031E     		sub	r3, r0, #0
 1773 0030 16D1     		bne	.L122
1158:.\Generated_Source\PSoC4/CyLib.c ****         {
1159:.\Generated_Source\PSoC4/CyLib.c ****             configRegValue = CY_SYS_WDT_CONFIG_REG &
 1774              		.loc 2 1159 0
 1775 0032 0D4B     		ldr	r3, .L128
 1776 0034 1B68     		ldr	r3, [r3]
1160:.\Generated_Source\PSoC4/CyLib.c ****                 (uint32)~((uint32)((uint32)1u << ((counterNum * CY_SYS_WDT_CNT_SHIFT) + CY_SYS_WDT_
 1777              		.loc 2 1160 0
 1778 0036 7A68     		ldr	r2, [r7, #4]
 1779 0038 D200     		lsl	r2, r2, #3
 1780 003a 0232     		add	r2, r2, #2
 1781 003c 111C     		mov	r1, r2
 1782 003e 0122     		mov	r2, #1
 1783 0040 8A40     		lsl	r2, r2, r1
 1784 0042 D243     		mvn	r2, r2
1159:.\Generated_Source\PSoC4/CyLib.c ****                 (uint32)~((uint32)((uint32)1u << ((counterNum * CY_SYS_WDT_CNT_SHIFT) + CY_SYS_WDT_
 1785              		.loc 2 1159 0
 1786 0044 1340     		and	r3, r2
 1787 0046 FB60     		str	r3, [r7, #12]
1161:.\Generated_Source\PSoC4/CyLib.c **** 
1162:.\Generated_Source\PSoC4/CyLib.c ****             configRegValue
1163:.\Generated_Source\PSoC4/CyLib.c ****                 |= (uint32)(enable << ((counterNum * CY_SYS_WDT_CNT_SHIFT) + CY_SYS_WDT_CNT_MATCH_C
 1788              		.loc 2 1163 0
 1789 0048 7B68     		ldr	r3, [r7, #4]
 1790 004a DB00     		lsl	r3, r3, #3
 1791 004c 0233     		add	r3, r3, #2
 1792 004e 1A1C     		mov	r2, r3
 1793 0050 3B68     		ldr	r3, [r7]
 1794 0052 9340     		lsl	r3, r3, r2
 1795 0054 FA68     		ldr	r2, [r7, #12]
 1796 0056 1343     		orr	r3, r2
 1797 0058 FB60     		str	r3, [r7, #12]
1164:.\Generated_Source\PSoC4/CyLib.c **** 
1165:.\Generated_Source\PSoC4/CyLib.c ****             CY_SYS_WDT_CONFIG_REG = configRegValue;
 1798              		.loc 2 1165 0
 1799 005a 034B     		ldr	r3, .L128
 1800 005c FA68     		ldr	r2, [r7, #12]
 1801 005e 1A60     		str	r2, [r3]
 1802              	.L122:
1166:.\Generated_Source\PSoC4/CyLib.c ****         }
1167:.\Generated_Source\PSoC4/CyLib.c ****     }
 1803              		.loc 2 1167 0
 1804 0060 BD46     		mov	sp, r7
 1805 0062 04B0     		add	sp, sp, #16
 1806              		@ sp needed
 1807 0064 80BD     		pop	{r7, pc}
 1808              	.L129:
 1809 0066 C046     		.align	2
 1810              	.L128:
 1811 0068 0C020B40 		.word	1074463244
 1812              		.cfi_endproc
ARM GAS  C:\Users\CHRIST~1\AppData\Local\Temp\cc8KQrfd.s 			page 70


 1813              	.LFE26:
 1814              		.size	CySysWdtWriteClearOnMatch, .-CySysWdtWriteClearOnMatch
 1815              		.section	.text.CySysWdtReadClearOnMatch,"ax",%progbits
 1816              		.align	2
 1817              		.global	CySysWdtReadClearOnMatch
 1818              		.code	16
 1819              		.thumb_func
 1820              		.type	CySysWdtReadClearOnMatch, %function
 1821              	CySysWdtReadClearOnMatch:
 1822              	.LFB27:
1168:.\Generated_Source\PSoC4/CyLib.c **** 
1169:.\Generated_Source\PSoC4/CyLib.c **** 
1170:.\Generated_Source\PSoC4/CyLib.c ****     /*******************************************************************************
1171:.\Generated_Source\PSoC4/CyLib.c ****     * Function Name: CySysWdtReadClearOnMatch
1172:.\Generated_Source\PSoC4/CyLib.c ****     ********************************************************************************
1173:.\Generated_Source\PSoC4/CyLib.c ****     *
1174:.\Generated_Source\PSoC4/CyLib.c ****     * Summary:
1175:.\Generated_Source\PSoC4/CyLib.c ****     *  Reads the clear on match setting for the specified counter.
1176:.\Generated_Source\PSoC4/CyLib.c ****     *
1177:.\Generated_Source\PSoC4/CyLib.c ****     * Parameters:
1178:.\Generated_Source\PSoC4/CyLib.c ****     *   counterNum: Valid range [0-1].  Number of the WDT counter.  Match values are
1179:.\Generated_Source\PSoC4/CyLib.c ****     *               not supported by counter 2.
1180:.\Generated_Source\PSoC4/CyLib.c ****     *
1181:.\Generated_Source\PSoC4/CyLib.c ****     * Return:
1182:.\Generated_Source\PSoC4/CyLib.c ****     *   Clear on Match status: 1 if enabled, 0 if disabled
1183:.\Generated_Source\PSoC4/CyLib.c ****     *
1184:.\Generated_Source\PSoC4/CyLib.c ****     *******************************************************************************/
1185:.\Generated_Source\PSoC4/CyLib.c ****     uint32 CySysWdtReadClearOnMatch(uint32 counterNum)
1186:.\Generated_Source\PSoC4/CyLib.c ****     {
 1823              		.loc 2 1186 0
 1824              		.cfi_startproc
 1825 0000 80B5     		push	{r7, lr}
 1826              		.cfi_def_cfa_offset 8
 1827              		.cfi_offset 7, -8
 1828              		.cfi_offset 14, -4
 1829 0002 82B0     		sub	sp, sp, #8
 1830              		.cfi_def_cfa_offset 16
 1831 0004 00AF     		add	r7, sp, #0
 1832              		.cfi_def_cfa_register 7
 1833 0006 7860     		str	r0, [r7, #4]
1187:.\Generated_Source\PSoC4/CyLib.c ****         CYASSERT((counterNum == CY_SYS_WDT_COUNTER0) ||
 1834              		.loc 2 1187 0
 1835 0008 7B68     		ldr	r3, [r7, #4]
 1836 000a 002B     		cmp	r3, #0
 1837 000c 02D0     		beq	.L131
 1838              		.loc 2 1187 0 is_stmt 0 discriminator 2
 1839 000e 7B68     		ldr	r3, [r7, #4]
 1840 0010 012B     		cmp	r3, #1
 1841 0012 01D1     		bne	.L132
 1842              	.L131:
 1843              		.loc 2 1187 0 discriminator 3
 1844 0014 0123     		mov	r3, #1
 1845 0016 00E0     		b	.L133
 1846              	.L132:
 1847              		.loc 2 1187 0 discriminator 4
 1848 0018 0023     		mov	r3, #0
 1849              	.L133:
ARM GAS  C:\Users\CHRIST~1\AppData\Local\Temp\cc8KQrfd.s 			page 71


