ARM GAS  C:\Users\CHRIST~1\AppData\Local\Temp\cc8KQrfd.s 			page 1


   1              		.cpu cortex-m0
   2              		.fpu softvfp
   3              		.eabi_attribute 20, 1
   4              		.eabi_attribute 21, 1
   5              		.eabi_attribute 23, 3
   6              		.eabi_attribute 24, 1
   7              		.eabi_attribute 25, 1
   8              		.eabi_attribute 26, 1
   9              		.eabi_attribute 30, 6
  10              		.eabi_attribute 34, 0
  11              		.eabi_attribute 18, 4
  12              		.code	16
  13              		.file	"CyLib.c"
  14              		.text
  15              	.Ltext0:
  16              		.cfi_sections	.debug_frame
  17              		.section	.text.CySysClkWcoSetHighPowerMode,"ax",%progbits
  18              		.align	2
  19              		.code	16
  20              		.thumb_func
  21              		.type	CySysClkWcoSetHighPowerMode, %function
  22              	CySysClkWcoSetHighPowerMode:
  23              	.LFB0:
  24              		.file 1 ".\\Generated_Source\\PSoC4\\CyLib.h"
   1:.\Generated_Source\PSoC4/CyLib.h **** /*******************************************************************************
   2:.\Generated_Source\PSoC4/CyLib.h **** * File Name: CyLib.h
   3:.\Generated_Source\PSoC4/CyLib.h **** * Version 4.20
   4:.\Generated_Source\PSoC4/CyLib.h **** *
   5:.\Generated_Source\PSoC4/CyLib.h **** *  Description:
   6:.\Generated_Source\PSoC4/CyLib.h **** *
   7:.\Generated_Source\PSoC4/CyLib.h **** *  Note:
   8:.\Generated_Source\PSoC4/CyLib.h **** *   Documentation of the API's in this file is located in the
   9:.\Generated_Source\PSoC4/CyLib.h **** *   System Reference Guide provided with PSoC Creator.
  10:.\Generated_Source\PSoC4/CyLib.h **** *
  11:.\Generated_Source\PSoC4/CyLib.h **** ********************************************************************************
  12:.\Generated_Source\PSoC4/CyLib.h **** * Copyright 2008-2014, Cypress Semiconductor Corporation.  All rights reserved.
  13:.\Generated_Source\PSoC4/CyLib.h **** * You may use this file only in accordance with the license, terms, conditions,
  14:.\Generated_Source\PSoC4/CyLib.h **** * disclaimers, and limitations in the end user license agreement accompanying
  15:.\Generated_Source\PSoC4/CyLib.h **** * the software package with which this file was provided.
  16:.\Generated_Source\PSoC4/CyLib.h **** *******************************************************************************/
  17:.\Generated_Source\PSoC4/CyLib.h **** 
  18:.\Generated_Source\PSoC4/CyLib.h **** #if !defined(CY_BOOT_CYLIB_H)
  19:.\Generated_Source\PSoC4/CyLib.h **** #define CY_BOOT_CYLIB_H
  20:.\Generated_Source\PSoC4/CyLib.h **** 
  21:.\Generated_Source\PSoC4/CyLib.h **** #include "cytypes.h"
  22:.\Generated_Source\PSoC4/CyLib.h **** #include "cydevice_trm.h"
  23:.\Generated_Source\PSoC4/CyLib.h **** 
  24:.\Generated_Source\PSoC4/CyLib.h **** #include <string.h>
  25:.\Generated_Source\PSoC4/CyLib.h **** #include <limits.h>
  26:.\Generated_Source\PSoC4/CyLib.h **** #include <ctype.h>
  27:.\Generated_Source\PSoC4/CyLib.h **** 
  28:.\Generated_Source\PSoC4/CyLib.h **** 
  29:.\Generated_Source\PSoC4/CyLib.h **** /***************************************
  30:.\Generated_Source\PSoC4/CyLib.h **** *    Function Prototypes
  31:.\Generated_Source\PSoC4/CyLib.h **** ***************************************/
  32:.\Generated_Source\PSoC4/CyLib.h **** 
  33:.\Generated_Source\PSoC4/CyLib.h **** /* Clocks API */
ARM GAS  C:\Users\CHRIST~1\AppData\Local\Temp\cc8KQrfd.s 			page 2


  34:.\Generated_Source\PSoC4/CyLib.h **** void CySysClkImoStart(void);
  35:.\Generated_Source\PSoC4/CyLib.h **** void CySysClkImoStop(void);
  36:.\Generated_Source\PSoC4/CyLib.h **** void CySysClkIloStart(void);
  37:.\Generated_Source\PSoC4/CyLib.h **** void CySysClkIloStop(void);
  38:.\Generated_Source\PSoC4/CyLib.h **** void CySysClkWriteHfclkDirect(uint32 clkSelect);
  39:.\Generated_Source\PSoC4/CyLib.h **** 
  40:.\Generated_Source\PSoC4/CyLib.h **** #if !(CY_PSOC4_4100 || CY_PSOC4_4200)
  41:.\Generated_Source\PSoC4/CyLib.h ****     void CySysClkWriteHfclkDiv(uint32 divider);
  42:.\Generated_Source\PSoC4/CyLib.h **** #endif /* !(CY_PSOC4_4100 || CY_PSOC4_4200) */
  43:.\Generated_Source\PSoC4/CyLib.h **** 
  44:.\Generated_Source\PSoC4/CyLib.h **** void CySysClkWriteSysclkDiv(uint32 divider);
  45:.\Generated_Source\PSoC4/CyLib.h **** void CySysClkWriteImoFreq(uint32 freq);
  46:.\Generated_Source\PSoC4/CyLib.h **** 
  47:.\Generated_Source\PSoC4/CyLib.h **** #if (CY_IP_WCO)
  48:.\Generated_Source\PSoC4/CyLib.h ****     void CySysClkSetLfclkSource(uint32 source);
  49:.\Generated_Source\PSoC4/CyLib.h **** #endif /* (CY_IP_WCO) */
  50:.\Generated_Source\PSoC4/CyLib.h **** 
  51:.\Generated_Source\PSoC4/CyLib.h **** #if (CY_PSOC4_4100BL || CY_PSOC4_4200BL)
  52:.\Generated_Source\PSoC4/CyLib.h ****     void CySysClkWriteEcoDiv(uint32 divider);
  53:.\Generated_Source\PSoC4/CyLib.h **** #endif /* (CY_PSOC4_4100BL || CY_PSOC4_4200BL) */
  54:.\Generated_Source\PSoC4/CyLib.h **** 
  55:.\Generated_Source\PSoC4/CyLib.h **** 
  56:.\Generated_Source\PSoC4/CyLib.h **** #if(CY_IP_SRSSV2)
  57:.\Generated_Source\PSoC4/CyLib.h ****     /* WDT API */
  58:.\Generated_Source\PSoC4/CyLib.h ****     void   CySysWdtLock(void);
  59:.\Generated_Source\PSoC4/CyLib.h ****     void   CySysWdtUnlock(void);
  60:.\Generated_Source\PSoC4/CyLib.h ****     void   CySysWdtWriteMode(uint32 counterNum, uint32 mode);
  61:.\Generated_Source\PSoC4/CyLib.h ****     uint32 CySysWdtReadMode(uint32 counterNum);
  62:.\Generated_Source\PSoC4/CyLib.h ****     uint32 CySysWdtReadEnabledStatus(uint32 counterNum);
  63:.\Generated_Source\PSoC4/CyLib.h ****     void   CySysWdtWriteClearOnMatch(uint32 counterNum, uint32 enable);
  64:.\Generated_Source\PSoC4/CyLib.h ****     uint32 CySysWdtReadClearOnMatch(uint32 counterNum);
  65:.\Generated_Source\PSoC4/CyLib.h ****     void   CySysWdtEnable(uint32 counterMask);
  66:.\Generated_Source\PSoC4/CyLib.h ****     void   CySysWdtDisable(uint32 counterMask);
  67:.\Generated_Source\PSoC4/CyLib.h ****     void   CySysWdtWriteCascade(uint32 cascadeMask);
  68:.\Generated_Source\PSoC4/CyLib.h ****     uint32 CySysWdtReadCascade(void);
  69:.\Generated_Source\PSoC4/CyLib.h ****     void   CySysWdtWriteMatch(uint32 counterNum, uint32 match);
  70:.\Generated_Source\PSoC4/CyLib.h ****     void   CySysWdtWriteToggleBit(uint32 bits);
  71:.\Generated_Source\PSoC4/CyLib.h ****     uint32 CySysWdtReadToggleBit(void);
  72:.\Generated_Source\PSoC4/CyLib.h ****     uint32 CySysWdtReadMatch(uint32 counterNum);
  73:.\Generated_Source\PSoC4/CyLib.h ****     uint32 CySysWdtReadCount(uint32 counterNum);
  74:.\Generated_Source\PSoC4/CyLib.h ****     uint32 CySysWdtGetInterruptSource(void);
  75:.\Generated_Source\PSoC4/CyLib.h ****     void   CySysWdtClearInterrupt(uint32 counterMask);
  76:.\Generated_Source\PSoC4/CyLib.h ****     void   CySysWdtResetCounters(uint32 countersMask);
  77:.\Generated_Source\PSoC4/CyLib.h **** #else
  78:.\Generated_Source\PSoC4/CyLib.h ****     /* WDT API */
  79:.\Generated_Source\PSoC4/CyLib.h ****     uint32 CySysWdtReadEnabledStatus(void);
  80:.\Generated_Source\PSoC4/CyLib.h ****     void   CySysWdtEnable(void);
  81:.\Generated_Source\PSoC4/CyLib.h ****     void   CySysWdtDisable(void);
  82:.\Generated_Source\PSoC4/CyLib.h ****     void   CySysWdtWriteMatch(uint32 match);
  83:.\Generated_Source\PSoC4/CyLib.h ****     uint32 CySysWdtReadMatch(void);
  84:.\Generated_Source\PSoC4/CyLib.h ****     uint32 CySysWdtReadCount(void);
  85:.\Generated_Source\PSoC4/CyLib.h ****     void   CySysWdtWriteIgnoreBits(uint32 bitsNum);
  86:.\Generated_Source\PSoC4/CyLib.h ****     uint32 CySysWdtReadIgnoreBits(void);
  87:.\Generated_Source\PSoC4/CyLib.h ****     void   CySysWdtClearInterrupt(void);
  88:.\Generated_Source\PSoC4/CyLib.h ****     void   CySysWdtMaskInterrupt(void);
  89:.\Generated_Source\PSoC4/CyLib.h ****     void   CySysWdtUnmaskInterrupt(void);
  90:.\Generated_Source\PSoC4/CyLib.h **** #endif  /* (CY_IP_SRSSV2) */
ARM GAS  C:\Users\CHRIST~1\AppData\Local\Temp\cc8KQrfd.s 			page 3


  91:.\Generated_Source\PSoC4/CyLib.h **** 
  92:.\Generated_Source\PSoC4/CyLib.h **** 
  93:.\Generated_Source\PSoC4/CyLib.h **** #if(CY_IP_SRSSV2)
  94:.\Generated_Source\PSoC4/CyLib.h ****     /* Low Voltage Detection */
  95:.\Generated_Source\PSoC4/CyLib.h ****     void   CySysLvdEnable(uint32 threshold);
  96:.\Generated_Source\PSoC4/CyLib.h ****     void   CySysLvdDisable(void);
  97:.\Generated_Source\PSoC4/CyLib.h ****     uint32 CySysLvdGetInterruptSource(void);
  98:.\Generated_Source\PSoC4/CyLib.h ****     void   CySysLvdClearInterrupt(void);
  99:.\Generated_Source\PSoC4/CyLib.h **** #endif  /* (CY_IP_SRSSV2) */
 100:.\Generated_Source\PSoC4/CyLib.h **** 
 101:.\Generated_Source\PSoC4/CyLib.h **** 
 102:.\Generated_Source\PSoC4/CyLib.h **** /* Interrupt Function Prototypes */
 103:.\Generated_Source\PSoC4/CyLib.h **** cyisraddress CyIntSetSysVector(uint8 number, cyisraddress address);
 104:.\Generated_Source\PSoC4/CyLib.h **** cyisraddress CyIntGetSysVector(uint8 number);
 105:.\Generated_Source\PSoC4/CyLib.h **** 
 106:.\Generated_Source\PSoC4/CyLib.h **** cyisraddress CyIntSetVector(uint8 number, cyisraddress address);
 107:.\Generated_Source\PSoC4/CyLib.h **** cyisraddress CyIntGetVector(uint8 number);
 108:.\Generated_Source\PSoC4/CyLib.h **** 
 109:.\Generated_Source\PSoC4/CyLib.h **** void   CyIntSetPriority(uint8 number, uint8 priority);
 110:.\Generated_Source\PSoC4/CyLib.h **** uint8  CyIntGetPriority(uint8 number);
 111:.\Generated_Source\PSoC4/CyLib.h **** 
 112:.\Generated_Source\PSoC4/CyLib.h **** void   CyIntEnable(uint8 number);
 113:.\Generated_Source\PSoC4/CyLib.h **** uint8  CyIntGetState(uint8 number);
 114:.\Generated_Source\PSoC4/CyLib.h **** void   CyIntDisable(uint8 number);
 115:.\Generated_Source\PSoC4/CyLib.h **** 
 116:.\Generated_Source\PSoC4/CyLib.h **** void   CyIntSetPending(uint8 number);
 117:.\Generated_Source\PSoC4/CyLib.h **** void   CyIntClearPending(uint8 number);
 118:.\Generated_Source\PSoC4/CyLib.h **** 
 119:.\Generated_Source\PSoC4/CyLib.h **** uint32 CyDisableInts(void);
 120:.\Generated_Source\PSoC4/CyLib.h **** void   CyEnableInts(uint32 mask);
 121:.\Generated_Source\PSoC4/CyLib.h **** 
 122:.\Generated_Source\PSoC4/CyLib.h **** /* System Function Prototypes */
 123:.\Generated_Source\PSoC4/CyLib.h **** void  CyDelay(uint32 milliseconds);
 124:.\Generated_Source\PSoC4/CyLib.h **** void  CyDelayUs(uint16 microseconds);
 125:.\Generated_Source\PSoC4/CyLib.h **** void  CyDelayFreq(uint32 freq);
 126:.\Generated_Source\PSoC4/CyLib.h **** void  CyDelayCycles(uint32 cycles);
 127:.\Generated_Source\PSoC4/CyLib.h **** 
 128:.\Generated_Source\PSoC4/CyLib.h **** /* General APIs */
 129:.\Generated_Source\PSoC4/CyLib.h **** void  CySoftwareReset(void);
 130:.\Generated_Source\PSoC4/CyLib.h **** uint8 CyEnterCriticalSection(void);
 131:.\Generated_Source\PSoC4/CyLib.h **** void  CyExitCriticalSection(uint8 savedIntrStatus);
 132:.\Generated_Source\PSoC4/CyLib.h **** void  CyHalt(uint8 reason);
 133:.\Generated_Source\PSoC4/CyLib.h **** uint32 CySysGetResetReason(uint32 reason);
 134:.\Generated_Source\PSoC4/CyLib.h **** 
 135:.\Generated_Source\PSoC4/CyLib.h **** /* Default interrupt handler */
 136:.\Generated_Source\PSoC4/CyLib.h **** CY_ISR_PROTO(IntDefaultHandler);
 137:.\Generated_Source\PSoC4/CyLib.h **** 
 138:.\Generated_Source\PSoC4/CyLib.h **** /* System tick timer APIs */
 139:.\Generated_Source\PSoC4/CyLib.h **** typedef void (*cySysTickCallback)(void);
 140:.\Generated_Source\PSoC4/CyLib.h **** 
 141:.\Generated_Source\PSoC4/CyLib.h **** void CySysTickStart(void);
 142:.\Generated_Source\PSoC4/CyLib.h **** void CySysTickInit(void);
 143:.\Generated_Source\PSoC4/CyLib.h **** void CySysTickEnable(void);
 144:.\Generated_Source\PSoC4/CyLib.h **** void CySysTickStop(void);
 145:.\Generated_Source\PSoC4/CyLib.h **** void CySysTickEnableInterrupt(void);
 146:.\Generated_Source\PSoC4/CyLib.h **** void CySysTickDisableInterrupt(void);
 147:.\Generated_Source\PSoC4/CyLib.h **** void CySysTickSetReload(uint32 value);
ARM GAS  C:\Users\CHRIST~1\AppData\Local\Temp\cc8KQrfd.s 			page 4


 148:.\Generated_Source\PSoC4/CyLib.h **** uint32 CySysTickGetReload(void);
 149:.\Generated_Source\PSoC4/CyLib.h **** uint32 CySysTickGetValue(void);
 150:.\Generated_Source\PSoC4/CyLib.h **** cySysTickCallback CySysTickSetCallback(uint32 number, cySysTickCallback function);
 151:.\Generated_Source\PSoC4/CyLib.h **** cySysTickCallback CySysTickGetCallback(uint32 number);
 152:.\Generated_Source\PSoC4/CyLib.h **** 
 153:.\Generated_Source\PSoC4/CyLib.h **** #if(CY_PSOC4_4100BL || CY_PSOC4_4200BL || CY_PSOC5)
 154:.\Generated_Source\PSoC4/CyLib.h ****     void CySysTickSetClockSource(uint32 clockSource);
 155:.\Generated_Source\PSoC4/CyLib.h **** #endif /* (CY_PSOC4_4100BL || CY_PSOC4_4200BL || CY_PSOC5) */
 156:.\Generated_Source\PSoC4/CyLib.h **** 
 157:.\Generated_Source\PSoC4/CyLib.h **** uint32 CySysTickGetCountFlag(void);
 158:.\Generated_Source\PSoC4/CyLib.h **** void CySysTickClear(void);
 159:.\Generated_Source\PSoC4/CyLib.h **** extern uint32 CySysTickInitVar;
 160:.\Generated_Source\PSoC4/CyLib.h **** 
 161:.\Generated_Source\PSoC4/CyLib.h **** /* Do not use these definitions directly in your application */
 162:.\Generated_Source\PSoC4/CyLib.h **** extern uint32 cydelayFreqHz;
 163:.\Generated_Source\PSoC4/CyLib.h **** extern uint32 cydelayFreqKhz;
 164:.\Generated_Source\PSoC4/CyLib.h **** extern uint8  cydelayFreqMhz;
 165:.\Generated_Source\PSoC4/CyLib.h **** extern uint32 cydelay32kMs;
 166:.\Generated_Source\PSoC4/CyLib.h **** 
 167:.\Generated_Source\PSoC4/CyLib.h **** #if (CY_PSOC4_4100BL || CY_PSOC4_4200BL)
 168:.\Generated_Source\PSoC4/CyLib.h ****     cystatus CySysClkEcoStart(uint32 timeoutUs);
 169:.\Generated_Source\PSoC4/CyLib.h ****     void     CySysClkEcoStop(void);
 170:.\Generated_Source\PSoC4/CyLib.h ****     uint32   CySysClkEcoReadStatus(void);
 171:.\Generated_Source\PSoC4/CyLib.h **** #endif  /* (CY_PSOC4_4100BL || CY_PSOC4_4200BL) */
 172:.\Generated_Source\PSoC4/CyLib.h **** 
 173:.\Generated_Source\PSoC4/CyLib.h **** #if (CY_IP_WCO)
 174:.\Generated_Source\PSoC4/CyLib.h ****     void   CySysClkWcoStart(void);
 175:.\Generated_Source\PSoC4/CyLib.h ****     void   CySysClkWcoStop(void);
 176:.\Generated_Source\PSoC4/CyLib.h ****     uint32 CySysClkWcoSetPowerMode(uint32 mode);
 177:.\Generated_Source\PSoC4/CyLib.h ****     static CY_INLINE void CySysClkWcoSetHighPowerMode(void);
 178:.\Generated_Source\PSoC4/CyLib.h ****     static CY_INLINE void CySysClkWcoSetLowPowerMode(void);
 179:.\Generated_Source\PSoC4/CyLib.h **** #endif  /* (CY_IP_WCO) */
 180:.\Generated_Source\PSoC4/CyLib.h **** 
 181:.\Generated_Source\PSoC4/CyLib.h **** 
 182:.\Generated_Source\PSoC4/CyLib.h **** #if(CY_IP_SRSSV2)
 183:.\Generated_Source\PSoC4/CyLib.h ****     /* CySysClkLfclkPosedgeCatch() / CySysClkLfclkPosedgeRestore() */
 184:.\Generated_Source\PSoC4/CyLib.h ****     extern uint32 lfclkPosedgeWdtCounter0Enabled;
 185:.\Generated_Source\PSoC4/CyLib.h ****     extern uint32 lfclkPosedgeEnabledWdtCounter;
 186:.\Generated_Source\PSoC4/CyLib.h ****     extern uint32 lfclkPosedgeWdtCounter0Mode;
 187:.\Generated_Source\PSoC4/CyLib.h **** #endif /* (CY_IP_SRSSV2) */
 188:.\Generated_Source\PSoC4/CyLib.h **** 
 189:.\Generated_Source\PSoC4/CyLib.h **** 
 190:.\Generated_Source\PSoC4/CyLib.h **** /***************************************
 191:.\Generated_Source\PSoC4/CyLib.h **** * API Constants
 192:.\Generated_Source\PSoC4/CyLib.h **** ***************************************/
 193:.\Generated_Source\PSoC4/CyLib.h **** 
 194:.\Generated_Source\PSoC4/CyLib.h **** 
 195:.\Generated_Source\PSoC4/CyLib.h **** /*******************************************************************************
 196:.\Generated_Source\PSoC4/CyLib.h **** * Clock API Constants
 197:.\Generated_Source\PSoC4/CyLib.h **** *******************************************************************************/
 198:.\Generated_Source\PSoC4/CyLib.h **** 
 199:.\Generated_Source\PSoC4/CyLib.h **** /* CySysClkWriteHfclkDirect() - implementation definitions */
 200:.\Generated_Source\PSoC4/CyLib.h **** #if(CY_IP_SRSSV2)
 201:.\Generated_Source\PSoC4/CyLib.h ****     #define CY_SYS_CLK_SELECT_DIRECT_SEL_MASK           (( uint32 ) 0x07u)
 202:.\Generated_Source\PSoC4/CyLib.h ****     #if (CY_PSOC4_4100BL || CY_PSOC4_4200BL)
 203:.\Generated_Source\PSoC4/CyLib.h ****         /* The ECO is the valid option */
 204:.\Generated_Source\PSoC4/CyLib.h ****         #define CY_SYS_CLK_SELECT_DIRECT_SEL_PARAM_MASK     (( uint32 ) 0x03u)
ARM GAS  C:\Users\CHRIST~1\AppData\Local\Temp\cc8KQrfd.s 			page 5


 205:.\Generated_Source\PSoC4/CyLib.h ****     #else
 206:.\Generated_Source\PSoC4/CyLib.h ****         #define CY_SYS_CLK_SELECT_DIRECT_SEL_PARAM_MASK     (( uint32 ) 0x01u)
 207:.\Generated_Source\PSoC4/CyLib.h ****     #endif  /* (CY_PSOC4_4100BL || CY_PSOC4_4200BL) */
 208:.\Generated_Source\PSoC4/CyLib.h **** #else
 209:.\Generated_Source\PSoC4/CyLib.h ****     #define CY_SYS_CLK_SELECT_DIRECT_SEL_MASK           (( uint32 ) 0x03u)
 210:.\Generated_Source\PSoC4/CyLib.h ****     #define CY_SYS_CLK_SELECT_DIRECT_SEL_PARAM_MASK     (CY_SYS_CLK_SELECT_DIRECT_SEL_MASK)
 211:.\Generated_Source\PSoC4/CyLib.h **** #endif  /* (CY_IP_SRSSV2) */
 212:.\Generated_Source\PSoC4/CyLib.h **** 
 213:.\Generated_Source\PSoC4/CyLib.h **** /* CySysClkWriteHfclkDirect() - parameter definitions */
 214:.\Generated_Source\PSoC4/CyLib.h **** #define CY_SYS_CLK_HFCLK_IMO                            (0u)
 215:.\Generated_Source\PSoC4/CyLib.h **** #define CY_SYS_CLK_HFCLK_EXTCLK                         (1u)
 216:.\Generated_Source\PSoC4/CyLib.h **** #if (CY_PSOC4_4100BL || CY_PSOC4_4200BL)
 217:.\Generated_Source\PSoC4/CyLib.h ****     #define CY_SYS_CLK_HFCLK_ECO                        (2u)
 218:.\Generated_Source\PSoC4/CyLib.h **** #endif  /* (CY_PSOC4_4100BL || CY_PSOC4_4200BL) */
 219:.\Generated_Source\PSoC4/CyLib.h **** 
 220:.\Generated_Source\PSoC4/CyLib.h **** /* CySysClkWriteSysclkDiv() - parameter definitions */
 221:.\Generated_Source\PSoC4/CyLib.h **** #define CY_SYS_CLK_SYSCLK_DIV1                          (0u)
 222:.\Generated_Source\PSoC4/CyLib.h **** #define CY_SYS_CLK_SYSCLK_DIV2                          (1u)
 223:.\Generated_Source\PSoC4/CyLib.h **** #define CY_SYS_CLK_SYSCLK_DIV4                          (2u)
 224:.\Generated_Source\PSoC4/CyLib.h **** #define CY_SYS_CLK_SYSCLK_DIV8                          (3u)
 225:.\Generated_Source\PSoC4/CyLib.h **** #if(CY_IP_SRSSV2)
 226:.\Generated_Source\PSoC4/CyLib.h ****     #define CY_SYS_CLK_SYSCLK_DIV16                     (4u)
 227:.\Generated_Source\PSoC4/CyLib.h ****     #define CY_SYS_CLK_SYSCLK_DIV32                     (5u)
 228:.\Generated_Source\PSoC4/CyLib.h ****     #define CY_SYS_CLK_SYSCLK_DIV64                     (6u)
 229:.\Generated_Source\PSoC4/CyLib.h ****     #define CY_SYS_CLK_SYSCLK_DIV128                    (7u)
 230:.\Generated_Source\PSoC4/CyLib.h **** #endif  /* (CY_IP_SRSSV2) */
 231:.\Generated_Source\PSoC4/CyLib.h **** 
 232:.\Generated_Source\PSoC4/CyLib.h **** 
 233:.\Generated_Source\PSoC4/CyLib.h **** /* CySysClkWriteSysclkDiv() - implementation definitions */
 234:.\Generated_Source\PSoC4/CyLib.h **** #if(CY_IP_SRSSV2)
 235:.\Generated_Source\PSoC4/CyLib.h ****     #define CY_SYS_CLK_SELECT_SYSCLK_DIV_SHIFT          (19u)
 236:.\Generated_Source\PSoC4/CyLib.h ****     #define CY_SYS_CLK_SELECT_SYSCLK_DIV_MASK           (( uint32 )0x07u)
 237:.\Generated_Source\PSoC4/CyLib.h **** #else
 238:.\Generated_Source\PSoC4/CyLib.h ****     #define CY_SYS_CLK_SELECT_SYSCLK_DIV_SHIFT          (6u)
 239:.\Generated_Source\PSoC4/CyLib.h ****     #define CY_SYS_CLK_SELECT_SYSCLK_DIV_MASK           (( uint32 )0x03u)
 240:.\Generated_Source\PSoC4/CyLib.h **** #endif  /* (CY_IP_SRSSV2) */
 241:.\Generated_Source\PSoC4/CyLib.h **** 
 242:.\Generated_Source\PSoC4/CyLib.h **** 
 243:.\Generated_Source\PSoC4/CyLib.h **** /* CySysClkWriteImoFreq() - implementation definitions */
 244:.\Generated_Source\PSoC4/CyLib.h **** #if(CY_IP_SRSSV2)
 245:.\Generated_Source\PSoC4/CyLib.h ****     #define CY_SYS_CLK_IMO_MAX_FREQ_MHZ                 (48u)
 246:.\Generated_Source\PSoC4/CyLib.h ****     #define CY_SYS_CLK_IMO_MIN_FREQ_MHZ                 (3u)
 247:.\Generated_Source\PSoC4/CyLib.h **** 
 248:.\Generated_Source\PSoC4/CyLib.h ****     #define CY_SYS_CLK_IMO_TEMP_FREQ_MHZ                (24u)
 249:.\Generated_Source\PSoC4/CyLib.h ****     #define CY_SYS_CLK_IMO_TEMP_FREQ_TRIM2              (0x19u)     /* Corresponds to 24 MHz */
 250:.\Generated_Source\PSoC4/CyLib.h **** 
 251:.\Generated_Source\PSoC4/CyLib.h ****     #define CY_SYS_CLK_IMO_BOUNDARY_FREQ_MHZ            (43u)
 252:.\Generated_Source\PSoC4/CyLib.h ****     #define CY_SYS_CLK_IMO_BOUNDARY_FREQ_TRIM2          (0x30u)     /* Corresponds to 43 MHz */
 253:.\Generated_Source\PSoC4/CyLib.h **** 
 254:.\Generated_Source\PSoC4/CyLib.h ****     #define CY_SYS_CLK_IMO_FREQ_TIMEOUT_CYCLES          (5u)
 255:.\Generated_Source\PSoC4/CyLib.h ****     #define CY_SYS_CLK_IMO_TRIM_TIMEOUT_US              (5u)
 256:.\Generated_Source\PSoC4/CyLib.h ****     #define CY_SYS_CLK_IMO_FREQ_TABLE_SIZE              (46u)
 257:.\Generated_Source\PSoC4/CyLib.h ****     #define CY_SYS_CLK_IMO_FREQ_TABLE_OFFSET            (3u)
 258:.\Generated_Source\PSoC4/CyLib.h ****     #define CY_SYS_CLK_IMO_FREQ_BITS_MASK               (( uint32 )0x3Fu)
 259:.\Generated_Source\PSoC4/CyLib.h ****     #define CY_SYS_CLK_IMO_FREQ_CLEAR                   (( uint32 )(CY_SYS_CLK_IMO_FREQ_BITS_MASK <
 260:.\Generated_Source\PSoC4/CyLib.h **** #else
 261:.\Generated_Source\PSoC4/CyLib.h ****     #define CY_SYS_CLK_IMO_MIN_FREQ_MHZ                 (24u)
ARM GAS  C:\Users\CHRIST~1\AppData\Local\Temp\cc8KQrfd.s 			page 6


 262:.\Generated_Source\PSoC4/CyLib.h ****     #define CY_SYS_CLK_IMO_MAX_FREQ_MHZ                 (48u)
 263:.\Generated_Source\PSoC4/CyLib.h ****     #define CY_SYS_CLK_IMO_STEP_SIZE_MASK               (0x03u)
 264:.\Generated_Source\PSoC4/CyLib.h ****     #define CY_SYS_CLK_IMO_TRIM1_OFFSET_MASK            (( uint32 )(0xFFu))
 265:.\Generated_Source\PSoC4/CyLib.h ****     #define CY_SYS_CLK_IMO_TRIM2_FSOFFSET_MASK          (( uint32 )(0x07u))
 266:.\Generated_Source\PSoC4/CyLib.h ****     #define CY_SYS_CLK_IMO_TRIM3_VALUES_MASK            (( uint32 )(0x7Fu))
 267:.\Generated_Source\PSoC4/CyLib.h ****     #define CY_SYS_CLK_IMO_SELECT_FREQ_MASK             (( uint32 )(0x07u))
 268:.\Generated_Source\PSoC4/CyLib.h ****     #define CY_SYS_CLK_IMO_SELECT_24MHZ                 (( uint32 )(0x00u))
 269:.\Generated_Source\PSoC4/CyLib.h **** 
 270:.\Generated_Source\PSoC4/CyLib.h ****     #define CY_SYS_CLK_IMO_TRIM_DELAY_US                (( uint32 )(50u))
 271:.\Generated_Source\PSoC4/CyLib.h **** #endif  /* (CY_IP_SRSSV2) */
 272:.\Generated_Source\PSoC4/CyLib.h **** 
 273:.\Generated_Source\PSoC4/CyLib.h **** 
 274:.\Generated_Source\PSoC4/CyLib.h **** #if(CY_IP_SRSSV2)
 275:.\Generated_Source\PSoC4/CyLib.h ****         /* Conversion between CySysClkWriteImoFreq() parameter and register's value */
 276:.\Generated_Source\PSoC4/CyLib.h ****         extern const uint8 cyImoFreqMhz2Reg[CY_SYS_CLK_IMO_FREQ_TABLE_SIZE];
 277:.\Generated_Source\PSoC4/CyLib.h **** #endif /* (CY_IP_SRSSV2) */
 278:.\Generated_Source\PSoC4/CyLib.h **** 
 279:.\Generated_Source\PSoC4/CyLib.h **** 
 280:.\Generated_Source\PSoC4/CyLib.h **** /* CySysClkImoStart()/CySysClkImoStop() - implementation definitions */
 281:.\Generated_Source\PSoC4/CyLib.h **** #define CY_SYS_CLK_IMO_CONFIG_ENABLE                    (( uint32 )(( uint32 )0x01u << 31u))
 282:.\Generated_Source\PSoC4/CyLib.h **** 
 283:.\Generated_Source\PSoC4/CyLib.h **** 
 284:.\Generated_Source\PSoC4/CyLib.h **** /* CySysClkIloStart()/CySysClkIloStop() - implementation definitions */
 285:.\Generated_Source\PSoC4/CyLib.h **** #define CY_SYS_CLK_ILO_CONFIG_ENABLE                    (( uint32 )(( uint32 )0x01u << 31u))
 286:.\Generated_Source\PSoC4/CyLib.h **** 
 287:.\Generated_Source\PSoC4/CyLib.h **** 
 288:.\Generated_Source\PSoC4/CyLib.h **** /* CySysClkSetLfclkSource() - parameter definitions */
 289:.\Generated_Source\PSoC4/CyLib.h **** #if (CY_IP_WCO)
 290:.\Generated_Source\PSoC4/CyLib.h ****     #define CY_SYS_CLK_LFCLK_SRC_ILO                    (0u)
 291:.\Generated_Source\PSoC4/CyLib.h ****     #define CY_SYS_CLK_LFCLK_SRC_WCO                    (( uint32 )(( uint32 )0x01u << 30u))
 292:.\Generated_Source\PSoC4/CyLib.h **** #endif /* (CY_IP_WCO) */
 293:.\Generated_Source\PSoC4/CyLib.h **** 
 294:.\Generated_Source\PSoC4/CyLib.h **** /* CySysClkSetLfclkSource() - implementation definitions */
 295:.\Generated_Source\PSoC4/CyLib.h **** #if (CY_IP_WCO)
 296:.\Generated_Source\PSoC4/CyLib.h ****     #define CY_SYS_CLK_LFCLK_SEL_MASK                   (( uint32 )(( uint32 )0x03u << 30u))
 297:.\Generated_Source\PSoC4/CyLib.h **** #endif /* (CY_IP_WCO) */
 298:.\Generated_Source\PSoC4/CyLib.h **** 
 299:.\Generated_Source\PSoC4/CyLib.h **** 
 300:.\Generated_Source\PSoC4/CyLib.h **** #if(CY_IP_SRSSLT)
 301:.\Generated_Source\PSoC4/CyLib.h ****     /* CySysClkWriteHfclkDiv() - parameter definitions */
 302:.\Generated_Source\PSoC4/CyLib.h ****     #define CY_SYS_CLK_HFCLK_DIV_NODIV                  (0u)
 303:.\Generated_Source\PSoC4/CyLib.h ****     #define CY_SYS_CLK_HFCLK_DIV_2                      (1u)
 304:.\Generated_Source\PSoC4/CyLib.h ****     #define CY_SYS_CLK_HFCLK_DIV_4                      (2u)
 305:.\Generated_Source\PSoC4/CyLib.h ****     #define CY_SYS_CLK_HFCLK_DIV_8                      (3u)
 306:.\Generated_Source\PSoC4/CyLib.h **** 
 307:.\Generated_Source\PSoC4/CyLib.h ****     /* CySysClkWriteHfclkDiv() - implementation definitions */
 308:.\Generated_Source\PSoC4/CyLib.h ****     #define CY_SYS_CLK_SELECT_HFCLK_DIV_SHIFT           (2u)
 309:.\Generated_Source\PSoC4/CyLib.h ****     #define CY_SYS_CLK_SELECT_HFCLK_DIV_MASK            (( uint32 )0x03u)
 310:.\Generated_Source\PSoC4/CyLib.h **** #endif  /* (CY_IP_SRSSLT) */
 311:.\Generated_Source\PSoC4/CyLib.h **** 
 312:.\Generated_Source\PSoC4/CyLib.h **** 
 313:.\Generated_Source\PSoC4/CyLib.h **** /* Operating source for Pump clock */
 314:.\Generated_Source\PSoC4/CyLib.h **** #if(CY_IP_SRSSV2)
 315:.\Generated_Source\PSoC4/CyLib.h ****     #define CY_SYS_CLK_IMO_CONFIG_PUMP_SEL_SHIFT        (25u)
 316:.\Generated_Source\PSoC4/CyLib.h ****     #define CY_SYS_CLK_IMO_CONFIG_PUMP_SEL_MASK         ((uint32) 0x07u)
 317:.\Generated_Source\PSoC4/CyLib.h ****     #define CY_SYS_CLK_IMO_CONFIG_PUMP_SEL_IMO          (1u)
 318:.\Generated_Source\PSoC4/CyLib.h **** 
ARM GAS  C:\Users\CHRIST~1\AppData\Local\Temp\cc8KQrfd.s 			page 7


 319:.\Generated_Source\PSoC4/CyLib.h **** 	#define CY_SYS_CLK_IMO_CONFIG_PUMP_OSC              (( uint32 )(( uint32 )0x01u << 22u))
 320:.\Generated_Source\PSoC4/CyLib.h **** #else /* CY_IP_SRSSLT */
 321:.\Generated_Source\PSoC4/CyLib.h ****     #define CY_SYS_CLK_SELECT_PUMP_SEL_SHIFT            (4u)
 322:.\Generated_Source\PSoC4/CyLib.h ****     #define CY_SYS_CLK_SELECT_PUMP_SEL_MASK             ((uint32) 0x03u)
 323:.\Generated_Source\PSoC4/CyLib.h ****     #define CY_SYS_CLK_SELECT_PUMP_SEL_IMO              (1u)
 324:.\Generated_Source\PSoC4/CyLib.h **** #endif  /* (CY_IP_SRSSLT) */
 325:.\Generated_Source\PSoC4/CyLib.h **** 
 326:.\Generated_Source\PSoC4/CyLib.h **** 
 327:.\Generated_Source\PSoC4/CyLib.h **** #if (CY_PSOC4_4100BL || CY_PSOC4_4200BL)
 328:.\Generated_Source\PSoC4/CyLib.h ****     /* Radio configuration register */
 329:.\Generated_Source\PSoC4/CyLib.h ****     #define CY_SYS_XTAL_BLESS_RF_CONFIG_RF_ENABLE       (( uint32 )0x01u)
 330:.\Generated_Source\PSoC4/CyLib.h **** 
 331:.\Generated_Source\PSoC4/CyLib.h ****     /* RFCTRL mode transition control */
 332:.\Generated_Source\PSoC4/CyLib.h ****     #define CY_SYS_XTAL_BLERD_DBUS_XTAL_ENABLE          (( uint32 )(( uint32 )0x01u << 15u))
 333:.\Generated_Source\PSoC4/CyLib.h **** 
 334:.\Generated_Source\PSoC4/CyLib.h ****     /* XO is oscillating status */
 335:.\Generated_Source\PSoC4/CyLib.h ****     #define CY_SYS_XTAL_BLERD_FSM_XO_AMP_DETECT         (( uint32 )0x01u)
 336:.\Generated_Source\PSoC4/CyLib.h **** 
 337:.\Generated_Source\PSoC4/CyLib.h ****     /* BB bump configuration 2 */
 338:.\Generated_Source\PSoC4/CyLib.h ****     #define CY_SYS_XTAL_BLERD_BB_XO_CAPTRIM_X1_MASK     (( uint32 )(( uint32 )0x7Fu <<  8u))
 339:.\Generated_Source\PSoC4/CyLib.h ****     #define CY_SYS_XTAL_BLERD_BB_XO_CAPTRIM_X2_MASK     (( uint32 )(( uint32 )0x7Fu <<  0u))
 340:.\Generated_Source\PSoC4/CyLib.h ****     #define CY_SYS_XTAL_BLERD_BB_XO_CAPTRIM_X1_ADD_CAP  (( uint32 )(( uint32 )0x01u << 15u))
 341:.\Generated_Source\PSoC4/CyLib.h ****     #define CY_SYS_XTAL_BLERD_BB_XO_CAPTRIM_X2_ADD_CAP  (( uint32 )(( uint32 )0x01u <<  7u))
 342:.\Generated_Source\PSoC4/CyLib.h **** 
 343:.\Generated_Source\PSoC4/CyLib.h ****     /* BB bump configuration 1 */
 344:.\Generated_Source\PSoC4/CyLib.h ****     #define CY_SYS_XTAL_BLERD_BB_XO_TRIM                ((uint32) 0x2002u)
 345:.\Generated_Source\PSoC4/CyLib.h **** 
 346:.\Generated_Source\PSoC4/CyLib.h ****     /* CySysClkWriteEcoDiv() - parameter definitions */
 347:.\Generated_Source\PSoC4/CyLib.h ****     #define CY_SYS_CLK_ECO_DIV1                         ((uint32) 0x00)
 348:.\Generated_Source\PSoC4/CyLib.h ****     #define CY_SYS_CLK_ECO_DIV2                         ((uint32) 0x01)
 349:.\Generated_Source\PSoC4/CyLib.h ****     #define CY_SYS_CLK_ECO_DIV4                         ((uint32) 0x02)
 350:.\Generated_Source\PSoC4/CyLib.h ****     #define CY_SYS_CLK_ECO_DIV8                         ((uint32) 0x03)
 351:.\Generated_Source\PSoC4/CyLib.h **** 
 352:.\Generated_Source\PSoC4/CyLib.h ****     /* CySysClkWriteEcoDiv() - implementation definitions */
 353:.\Generated_Source\PSoC4/CyLib.h ****     #define CY_SYS_CLK_XTAL_CLK_DIV_MASK                ((uint32) 0x03)
 354:.\Generated_Source\PSoC4/CyLib.h **** #endif  /* (CY_PSOC4_4100BL || CY_PSOC4_4200BL) */
 355:.\Generated_Source\PSoC4/CyLib.h **** 
 356:.\Generated_Source\PSoC4/CyLib.h **** #if (CY_IP_WCO)
 357:.\Generated_Source\PSoC4/CyLib.h ****     /* WCO Configuration Register */
 358:.\Generated_Source\PSoC4/CyLib.h ****     #define CY_SYS_CLK_WCO_CONFIG_LPM_EN                (( uint32 )(( uint32 )0x01u <<  0u))
 359:.\Generated_Source\PSoC4/CyLib.h ****     #define CY_SYS_CLK_WCO_CONFIG_LPM_AUTO              (( uint32 )(( uint32 )0x01u <<  1u))
 360:.\Generated_Source\PSoC4/CyLib.h ****     #define CY_SYS_CLK_WCO_CONFIG_LPM_ENABLE            (( uint32 )(( uint32 )0x01u << 31u))
 361:.\Generated_Source\PSoC4/CyLib.h **** 
 362:.\Generated_Source\PSoC4/CyLib.h ****     /* WCO Status Register */
 363:.\Generated_Source\PSoC4/CyLib.h ****     #define CY_SYS_CLK_WCO_STATUS_OUT_BLNK_A            (( uint32 )(( uint32 )0x01u <<  0u))
 364:.\Generated_Source\PSoC4/CyLib.h **** 
 365:.\Generated_Source\PSoC4/CyLib.h ****     /* WCO Trim Register */
 366:.\Generated_Source\PSoC4/CyLib.h ****     #define CY_SYS_CLK_WCO_TRIM_XGM_MASK                (( uint32 ) 0x07u)
 367:.\Generated_Source\PSoC4/CyLib.h ****     #define CY_SYS_CLK_WCO_TRIM_XGM_SHIFT               (( uint32 ) 0x00u)
 368:.\Generated_Source\PSoC4/CyLib.h **** 
 369:.\Generated_Source\PSoC4/CyLib.h ****     #define CY_SYS_CLK_WCO_TRIM_XGM_3370NA              (( uint32 ) 0x00u)
 370:.\Generated_Source\PSoC4/CyLib.h ****     #define CY_SYS_CLK_WCO_TRIM_XGM_2620NA              (( uint32 ) 0x01u)
 371:.\Generated_Source\PSoC4/CyLib.h ****     #define CY_SYS_CLK_WCO_TRIM_XGM_2250NA              (( uint32 ) 0x02u)
 372:.\Generated_Source\PSoC4/CyLib.h ****     #define CY_SYS_CLK_WCO_TRIM_XGM_1500NA              (( uint32 ) 0x03u)
 373:.\Generated_Source\PSoC4/CyLib.h ****     #define CY_SYS_CLK_WCO_TRIM_XGM_1870NA              (( uint32 ) 0x04u)
 374:.\Generated_Source\PSoC4/CyLib.h ****     #define CY_SYS_CLK_WCO_TRIM_XGM_1120NA              (( uint32 ) 0x05u)
 375:.\Generated_Source\PSoC4/CyLib.h ****     #define CY_SYS_CLK_WCO_TRIM_XGM_750NA               (( uint32 ) 0x06u)
ARM GAS  C:\Users\CHRIST~1\AppData\Local\Temp\cc8KQrfd.s 			page 8


 376:.\Generated_Source\PSoC4/CyLib.h ****     #define CY_SYS_CLK_WCO_TRIM_XGM_0NA                 (( uint32 ) 0x07u)
 377:.\Generated_Source\PSoC4/CyLib.h **** 
 378:.\Generated_Source\PSoC4/CyLib.h ****     #define CY_SYS_CLK_WCO_TRIM_GM_MASK                 (( uint32 )(( uint32 )0x03u << 4u))
 379:.\Generated_Source\PSoC4/CyLib.h ****     #define CY_SYS_CLK_WCO_TRIM_GM_SHIFT                (( uint32 ) 0x04u)
 380:.\Generated_Source\PSoC4/CyLib.h ****     #define CY_SYS_CLK_WCO_TRIM_GM_HPM                  (( uint32 ) 0x01u)
 381:.\Generated_Source\PSoC4/CyLib.h ****     #define CY_SYS_CLK_WCO_TRIM_GM_LPM                  (( uint32 ) 0x02u)
 382:.\Generated_Source\PSoC4/CyLib.h **** #endif  /* (CY_IP_WCO) */
 383:.\Generated_Source\PSoC4/CyLib.h **** 
 384:.\Generated_Source\PSoC4/CyLib.h **** 
 385:.\Generated_Source\PSoC4/CyLib.h **** /*******************************************************************************
 386:.\Generated_Source\PSoC4/CyLib.h **** * WDT API Constants
 387:.\Generated_Source\PSoC4/CyLib.h **** *******************************************************************************/
 388:.\Generated_Source\PSoC4/CyLib.h **** #if(CY_IP_SRSSV2)
 389:.\Generated_Source\PSoC4/CyLib.h ****     #define CY_SYS_WDT_MODE_NONE                (0u)
 390:.\Generated_Source\PSoC4/CyLib.h ****     #define CY_SYS_WDT_MODE_INT                 (1u)
 391:.\Generated_Source\PSoC4/CyLib.h ****     #define CY_SYS_WDT_MODE_RESET               (2u)
 392:.\Generated_Source\PSoC4/CyLib.h ****     #define CY_SYS_WDT_MODE_INT_RESET           (3u)
 393:.\Generated_Source\PSoC4/CyLib.h **** 
 394:.\Generated_Source\PSoC4/CyLib.h ****     #define CY_SYS_WDT_COUNTER0_MASK            ((uint32)((uint32)0x01u))
 395:.\Generated_Source\PSoC4/CyLib.h ****     #define CY_SYS_WDT_COUNTER1_MASK            ((uint32)((uint32)0x01u << 8u))
 396:.\Generated_Source\PSoC4/CyLib.h ****     #define CY_SYS_WDT_COUNTER2_MASK            ((uint32)((uint32)0x01u << 16u))
 397:.\Generated_Source\PSoC4/CyLib.h **** 
 398:.\Generated_Source\PSoC4/CyLib.h ****     #define CY_SYS_WDT_CASCADE_NONE             ((uint32)0x00u)
 399:.\Generated_Source\PSoC4/CyLib.h ****     #define CY_SYS_WDT_CASCADE_01               ((uint32)0x01u << 3u)
 400:.\Generated_Source\PSoC4/CyLib.h ****     #define CY_SYS_WDT_CASCADE_12               ((uint32)0x01u << 11u)
 401:.\Generated_Source\PSoC4/CyLib.h **** 
 402:.\Generated_Source\PSoC4/CyLib.h ****     #define CY_SYS_WDT_COUNTER0_INT             ((uint32)0x01u << 2u)
 403:.\Generated_Source\PSoC4/CyLib.h ****     #define CY_SYS_WDT_COUNTER1_INT             ((uint32)0x01u << 10u)
 404:.\Generated_Source\PSoC4/CyLib.h ****     #define CY_SYS_WDT_COUNTER2_INT             ((uint32)0x01u << 18u)
 405:.\Generated_Source\PSoC4/CyLib.h **** 
 406:.\Generated_Source\PSoC4/CyLib.h ****     #define CY_SYS_WDT_COUNTER0_RESET           ((uint32)0x01u << 3u)
 407:.\Generated_Source\PSoC4/CyLib.h ****     #define CY_SYS_WDT_COUNTER1_RESET           ((uint32)0x01u << 11u)
 408:.\Generated_Source\PSoC4/CyLib.h ****     #define CY_SYS_WDT_COUNTER2_RESET           ((uint32)0x01u << 19u)
 409:.\Generated_Source\PSoC4/CyLib.h **** 
 410:.\Generated_Source\PSoC4/CyLib.h ****     #define CY_SYS_WDT_COUNTER0                 (0x00u)
 411:.\Generated_Source\PSoC4/CyLib.h ****     #define CY_SYS_WDT_COUNTER1                 (0x01u)
 412:.\Generated_Source\PSoC4/CyLib.h ****     #define CY_SYS_WDT_COUNTER2                 (0x02u)
 413:.\Generated_Source\PSoC4/CyLib.h **** 
 414:.\Generated_Source\PSoC4/CyLib.h ****     #define CY_SYS_WDT_MODE_MASK                (uint32)(0x03u)
 415:.\Generated_Source\PSoC4/CyLib.h **** 
 416:.\Generated_Source\PSoC4/CyLib.h ****     #define CY_SYS_WDT_CLK_LOCK_BITS_MASK       ((uint32)0x03u << 14u)
 417:.\Generated_Source\PSoC4/CyLib.h ****     #define CY_SYS_WDT_CLK_LOCK_BIT0            ((uint32)0x01u << 14u)
 418:.\Generated_Source\PSoC4/CyLib.h ****     #define CY_SYS_WDT_CLK_LOCK_BIT1            ((uint32)0x01u << 15u)
 419:.\Generated_Source\PSoC4/CyLib.h **** 
 420:.\Generated_Source\PSoC4/CyLib.h ****     #define CY_SYS_WDT_CONFIG_BITS2_MASK        (uint32)(0x1Fu)
 421:.\Generated_Source\PSoC4/CyLib.h ****     #define CY_SYS_WDT_CONFIG_BITS2_POS         (uint32)(24u)
 422:.\Generated_Source\PSoC4/CyLib.h ****     #define CY_SYS_WDT_LOWER_16BITS_MASK        (uint32)(0xFFFFu)
 423:.\Generated_Source\PSoC4/CyLib.h ****     #define CY_SYS_WDT_COUNTERS_MAX             (0x03u)
 424:.\Generated_Source\PSoC4/CyLib.h ****     #define CY_SYS_WDT_CNT_SHIFT                (0x08u)
 425:.\Generated_Source\PSoC4/CyLib.h ****     #define CY_SYS_WDT_CNT_MATCH_CLR_SHIFT      (0x02u)
 426:.\Generated_Source\PSoC4/CyLib.h ****     #define CY_SYS_WDT_CNT_STTS_SHIFT           (0x01u)
 427:.\Generated_Source\PSoC4/CyLib.h ****     #define CY_SYS_WDT_CNT_MATCH_SHIFT          (0x10u)
 428:.\Generated_Source\PSoC4/CyLib.h **** 
 429:.\Generated_Source\PSoC4/CyLib.h **** 
 430:.\Generated_Source\PSoC4/CyLib.h ****     #if (CY_PSOC4_4100 || CY_PSOC4_4200)
 431:.\Generated_Source\PSoC4/CyLib.h ****         #define CY_SYS_WDT_1LFCLK_DELAY_US      ((uint16)( 67u))
 432:.\Generated_Source\PSoC4/CyLib.h ****         #define CY_SYS_WDT_3LFCLK_DELAY_US      ((uint16)(201u))
ARM GAS  C:\Users\CHRIST~1\AppData\Local\Temp\cc8KQrfd.s 			page 9


 433:.\Generated_Source\PSoC4/CyLib.h ****     #endif /* (CY_PSOC4_4100 || CY_PSOC4_4200) */
 434:.\Generated_Source\PSoC4/CyLib.h **** 
 435:.\Generated_Source\PSoC4/CyLib.h ****     #if (CY_PSOC4_4000)
 436:.\Generated_Source\PSoC4/CyLib.h ****         #define CY_SYS_WDT_1LFCLK_DELAY_US      ((uint16)( 50u))
 437:.\Generated_Source\PSoC4/CyLib.h ****         #define CY_SYS_WDT_3LFCLK_DELAY_US      ((uint16)(150u))
 438:.\Generated_Source\PSoC4/CyLib.h ****     #endif /* (CY_PSOC4_4000) */
 439:.\Generated_Source\PSoC4/CyLib.h **** 
 440:.\Generated_Source\PSoC4/CyLib.h ****     #if (CY_IP_WCO)
 441:.\Generated_Source\PSoC4/CyLib.h **** 
 442:.\Generated_Source\PSoC4/CyLib.h ****         #define CY_SYS_WDT_1LFCLK_DELAY_US      \
 443:.\Generated_Source\PSoC4/CyLib.h ****             ((CY_SYS_CLK_LFCLK_SRC_ILO == (CY_SYS_WDT_CONFIG_REG & CY_SYS_CLK_LFCLK_SEL_MASK)) ? \
 444:.\Generated_Source\PSoC4/CyLib.h ****                                                 ((uint16)(67u)) : \
 445:.\Generated_Source\PSoC4/CyLib.h ****                                                 ((uint16)(31u)))
 446:.\Generated_Source\PSoC4/CyLib.h **** 
 447:.\Generated_Source\PSoC4/CyLib.h ****         #define CY_SYS_WDT_3LFCLK_DELAY_US      \
 448:.\Generated_Source\PSoC4/CyLib.h ****             ((CY_SYS_CLK_LFCLK_SRC_ILO == (CY_SYS_WDT_CONFIG_REG & CY_SYS_CLK_LFCLK_SEL_MASK)) ? \
 449:.\Generated_Source\PSoC4/CyLib.h ****                                                 ((uint16)(201u)) : \
 450:.\Generated_Source\PSoC4/CyLib.h ****                                                 ((uint16)(93u)))
 451:.\Generated_Source\PSoC4/CyLib.h **** 
 452:.\Generated_Source\PSoC4/CyLib.h ****     #endif /* (CY_IP_WCO) */
 453:.\Generated_Source\PSoC4/CyLib.h **** 
 454:.\Generated_Source\PSoC4/CyLib.h **** #else
 455:.\Generated_Source\PSoC4/CyLib.h ****     #define CY_SYS_WDT_KEY                      ((uint32)(0xACED8865u))
 456:.\Generated_Source\PSoC4/CyLib.h ****     #define CY_SYS_WDT_MATCH_MASK               ((uint32)(0x0000FFFFu))
 457:.\Generated_Source\PSoC4/CyLib.h ****     #define CY_SYS_WDT_IGNORE_BITS_MASK         ((uint32)(0x000F0000u))
 458:.\Generated_Source\PSoC4/CyLib.h ****     #define CY_SYS_WDT_IGNORE_BITS_SHIFT        ((uint32)(16u))
 459:.\Generated_Source\PSoC4/CyLib.h ****     #define CY_SYS_WDT_LOWER_BIT_MASK           ((uint32)(0x00000001u))
 460:.\Generated_Source\PSoC4/CyLib.h **** #endif  /* (CY_IP_SRSSV2) */
 461:.\Generated_Source\PSoC4/CyLib.h **** 
 462:.\Generated_Source\PSoC4/CyLib.h **** 
 463:.\Generated_Source\PSoC4/CyLib.h **** /* CySysXTAL_32KHZ_SetPowerMode() */
 464:.\Generated_Source\PSoC4/CyLib.h **** #define CY_SYS_CLK_WCO_HPM                   (0x0u)
 465:.\Generated_Source\PSoC4/CyLib.h **** #define CY_SYS_CLK_WCO_LPM                   (0x1u)
 466:.\Generated_Source\PSoC4/CyLib.h **** 
 467:.\Generated_Source\PSoC4/CyLib.h **** 
 468:.\Generated_Source\PSoC4/CyLib.h **** /*******************************************************************************
 469:.\Generated_Source\PSoC4/CyLib.h **** * System API Constants
 470:.\Generated_Source\PSoC4/CyLib.h **** *******************************************************************************/
 471:.\Generated_Source\PSoC4/CyLib.h **** 
 472:.\Generated_Source\PSoC4/CyLib.h **** /* CySysGetResetReason() */
 473:.\Generated_Source\PSoC4/CyLib.h **** #define CY_SYS_RESET_WDT_SHIFT          (0u)
 474:.\Generated_Source\PSoC4/CyLib.h **** #define CY_SYS_RESET_PROTFAULT_SHIFT    (3u)
 475:.\Generated_Source\PSoC4/CyLib.h **** #define CY_SYS_RESET_SW_SHIFT           (4u)
 476:.\Generated_Source\PSoC4/CyLib.h **** 
 477:.\Generated_Source\PSoC4/CyLib.h **** #define CY_SYS_RESET_WDT                ((uint32)1u << CY_SYS_RESET_WDT_SHIFT      )
 478:.\Generated_Source\PSoC4/CyLib.h **** #define CY_SYS_RESET_PROTFAULT          ((uint32)1u << CY_SYS_RESET_PROTFAULT_SHIFT)
 479:.\Generated_Source\PSoC4/CyLib.h **** #define CY_SYS_RESET_SW                 ((uint32)1u << CY_SYS_RESET_SW_SHIFT       )
 480:.\Generated_Source\PSoC4/CyLib.h **** 
 481:.\Generated_Source\PSoC4/CyLib.h **** 
 482:.\Generated_Source\PSoC4/CyLib.h **** /* CySoftwareReset() - implementation definitions */
 483:.\Generated_Source\PSoC4/CyLib.h **** 
 484:.\Generated_Source\PSoC4/CyLib.h **** /* Vector Key */
 485:.\Generated_Source\PSoC4/CyLib.h **** #define CY_SYS_CM0_AIRCR_VECTKEY_SHIFT      (16u)
 486:.\Generated_Source\PSoC4/CyLib.h **** #define CY_SYS_CM0_AIRCR_VECTKEY            ((uint32)((uint32)0x05FAu << CY_SYS_CM0_AIRCR_VECTKEY_S
 487:.\Generated_Source\PSoC4/CyLib.h **** #define CY_SYS_CM0_AIRCR_VECTKEY_MASK       ((uint32)((uint32)0xFFFFu << CY_SYS_CM0_AIRCR_VECTKEY_S
 488:.\Generated_Source\PSoC4/CyLib.h **** 
 489:.\Generated_Source\PSoC4/CyLib.h **** /* System Reset Request */
ARM GAS  C:\Users\CHRIST~1\AppData\Local\Temp\cc8KQrfd.s 			page 10


 490:.\Generated_Source\PSoC4/CyLib.h **** #define CY_SYS_CM0_AIRCR_SYSRESETREQ_SHIFT  (2u)
 491:.\Generated_Source\PSoC4/CyLib.h **** #define CY_SYS_CM0_AIRCR_SYSRESETREQ        ((uint32)((uint32)1u << CY_SYS_CM0_AIRCR_SYSRESETREQ_SH
 492:.\Generated_Source\PSoC4/CyLib.h **** 
 493:.\Generated_Source\PSoC4/CyLib.h **** 
 494:.\Generated_Source\PSoC4/CyLib.h **** #if defined(__ARMCC_VERSION)
 495:.\Generated_Source\PSoC4/CyLib.h **** 
 496:.\Generated_Source\PSoC4/CyLib.h ****     #define CyGlobalIntEnable           do                      \
 497:.\Generated_Source\PSoC4/CyLib.h ****                                         {                       \
 498:.\Generated_Source\PSoC4/CyLib.h ****                                             __enable_irq();     \
 499:.\Generated_Source\PSoC4/CyLib.h ****                                         } while ( 0 )
 500:.\Generated_Source\PSoC4/CyLib.h **** 
 501:.\Generated_Source\PSoC4/CyLib.h ****     #define CyGlobalIntDisable          do                      \
 502:.\Generated_Source\PSoC4/CyLib.h ****                                         {                       \
 503:.\Generated_Source\PSoC4/CyLib.h ****                                             __disable_irq();    \
 504:.\Generated_Source\PSoC4/CyLib.h ****                                         } while ( 0 )
 505:.\Generated_Source\PSoC4/CyLib.h **** 
 506:.\Generated_Source\PSoC4/CyLib.h **** #elif defined(__GNUC__) || defined (__ICCARM__)
 507:.\Generated_Source\PSoC4/CyLib.h **** 
 508:.\Generated_Source\PSoC4/CyLib.h ****     #define CyGlobalIntEnable           do                      \
 509:.\Generated_Source\PSoC4/CyLib.h ****                                         {                       \
 510:.\Generated_Source\PSoC4/CyLib.h ****                                             __asm("CPSIE   i"); \
 511:.\Generated_Source\PSoC4/CyLib.h ****                                         } while ( 0 )
 512:.\Generated_Source\PSoC4/CyLib.h **** 
 513:.\Generated_Source\PSoC4/CyLib.h ****     #define CyGlobalIntDisable          do                      \
 514:.\Generated_Source\PSoC4/CyLib.h ****                                         {                       \
 515:.\Generated_Source\PSoC4/CyLib.h ****                                             __asm("CPSID   i"); \
 516:.\Generated_Source\PSoC4/CyLib.h ****                                         } while ( 0 )
 517:.\Generated_Source\PSoC4/CyLib.h **** #else
 518:.\Generated_Source\PSoC4/CyLib.h ****     #error No compiler toolchain defined
 519:.\Generated_Source\PSoC4/CyLib.h ****     #define CyGlobalIntEnable
 520:.\Generated_Source\PSoC4/CyLib.h ****     #define CyGlobalIntDisable
 521:.\Generated_Source\PSoC4/CyLib.h **** #endif  /* (__ARMCC_VERSION) */
 522:.\Generated_Source\PSoC4/CyLib.h **** 
 523:.\Generated_Source\PSoC4/CyLib.h **** /* System tick timer */
 524:.\Generated_Source\PSoC4/CyLib.h **** #define CY_SYS_SYST_CSR_ENABLE               ((uint32) (0x01u))
 525:.\Generated_Source\PSoC4/CyLib.h **** #define CY_SYS_SYST_CSR_ENABLE_INT           ((uint32) (0x02u))
 526:.\Generated_Source\PSoC4/CyLib.h **** #define CY_SYS_SYST_CSR_CLK_SOURCE_SHIFT     (0x02u)
 527:.\Generated_Source\PSoC4/CyLib.h **** #define CY_SYS_SYST_CSR_COUNTFLAG_SHIFT      (16u)
 528:.\Generated_Source\PSoC4/CyLib.h **** #define CY_SYS_SYST_CSR_CLK_SRC_SYSCLK       ((uint32) (1u))
 529:.\Generated_Source\PSoC4/CyLib.h **** #define CY_SYS_SYST_CSR_CLK_SRC_LFCLK        (0u)
 530:.\Generated_Source\PSoC4/CyLib.h **** #define CY_SYS_SYST_RVR_CNT_MASK             (0x00FFFFFFu)
 531:.\Generated_Source\PSoC4/CyLib.h **** #define CY_SYS_SYST_NUM_OF_CALLBACKS         (5u)
 532:.\Generated_Source\PSoC4/CyLib.h **** 
 533:.\Generated_Source\PSoC4/CyLib.h **** 
 534:.\Generated_Source\PSoC4/CyLib.h **** /*******************************************************************************
 535:.\Generated_Source\PSoC4/CyLib.h **** * Macro Name: CyAssert
 536:.\Generated_Source\PSoC4/CyLib.h **** ********************************************************************************
 537:.\Generated_Source\PSoC4/CyLib.h **** * Summary:
 538:.\Generated_Source\PSoC4/CyLib.h **** *  Macro that evaluates the expression and, if it is false (evaluates to 0),
 539:.\Generated_Source\PSoC4/CyLib.h **** *  the processor is halted.
 540:.\Generated_Source\PSoC4/CyLib.h **** *
 541:.\Generated_Source\PSoC4/CyLib.h **** *  This macro is evaluated unless NDEBUG is defined.
 542:.\Generated_Source\PSoC4/CyLib.h **** *  If NDEBUG is defined, then no code is generated for this macro.
 543:.\Generated_Source\PSoC4/CyLib.h **** *  NDEBUG is defined by default for a Release build setting and not defined for
 544:.\Generated_Source\PSoC4/CyLib.h **** *  a Debug build setting.
 545:.\Generated_Source\PSoC4/CyLib.h **** *
 546:.\Generated_Source\PSoC4/CyLib.h **** * Parameters:
ARM GAS  C:\Users\CHRIST~1\AppData\Local\Temp\cc8KQrfd.s 			page 11


 547:.\Generated_Source\PSoC4/CyLib.h **** *  expr: Logical expression.  Asserts if false.
 548:.\Generated_Source\PSoC4/CyLib.h **** *
 549:.\Generated_Source\PSoC4/CyLib.h **** * Return:
 550:.\Generated_Source\PSoC4/CyLib.h **** *  None
 551:.\Generated_Source\PSoC4/CyLib.h **** *
 552:.\Generated_Source\PSoC4/CyLib.h **** *******************************************************************************/
 553:.\Generated_Source\PSoC4/CyLib.h **** #if !defined(NDEBUG)
 554:.\Generated_Source\PSoC4/CyLib.h ****     #define CYASSERT(x)                 do                              \
 555:.\Generated_Source\PSoC4/CyLib.h ****                                         {                               \
 556:.\Generated_Source\PSoC4/CyLib.h ****                                             if(0u == (x))               \
 557:.\Generated_Source\PSoC4/CyLib.h ****                                             {                           \
 558:.\Generated_Source\PSoC4/CyLib.h ****                                                 CyHalt((uint8) 0u);     \
 559:.\Generated_Source\PSoC4/CyLib.h ****                                             }                           \
 560:.\Generated_Source\PSoC4/CyLib.h ****                                         } while ( 0u )
 561:.\Generated_Source\PSoC4/CyLib.h **** #else
 562:.\Generated_Source\PSoC4/CyLib.h ****     #define CYASSERT(x)
 563:.\Generated_Source\PSoC4/CyLib.h **** #endif  /* !defined(NDEBUG) */
 564:.\Generated_Source\PSoC4/CyLib.h **** 
 565:.\Generated_Source\PSoC4/CyLib.h **** 
 566:.\Generated_Source\PSoC4/CyLib.h **** /*******************************************************************************
 567:.\Generated_Source\PSoC4/CyLib.h **** * Interrupt API Constants
 568:.\Generated_Source\PSoC4/CyLib.h **** *******************************************************************************/
 569:.\Generated_Source\PSoC4/CyLib.h **** #define CY_NUM_INTERRUPTS                   (CY_IP_INT_NR)
 570:.\Generated_Source\PSoC4/CyLib.h **** 
 571:.\Generated_Source\PSoC4/CyLib.h **** #define CY_MIN_PRIORITY                     (3u)
 572:.\Generated_Source\PSoC4/CyLib.h **** 
 573:.\Generated_Source\PSoC4/CyLib.h **** #define CY_INT_IRQ_BASE                     (16u)
 574:.\Generated_Source\PSoC4/CyLib.h **** #define CY_INT_CLEAR_DISABLE_ALL            (0xFFFFFFFFu)
 575:.\Generated_Source\PSoC4/CyLib.h **** #define CY_INT_ENABLE_RANGE_MASK            (0x1Fu)
 576:.\Generated_Source\PSoC4/CyLib.h **** 
 577:.\Generated_Source\PSoC4/CyLib.h **** /* Register n contains priorities for interrupts N=4n .. 4n+3 */
 578:.\Generated_Source\PSoC4/CyLib.h **** #define CY_INT_PRIORITY_SHIFT(number)       (( uint32 )6u + (8u * (( uint32 )(number) % 4u)))
 579:.\Generated_Source\PSoC4/CyLib.h **** 
 580:.\Generated_Source\PSoC4/CyLib.h **** /* Mask to get valid range of system priority 0-3 */
 581:.\Generated_Source\PSoC4/CyLib.h **** #define CY_INT_PRIORITY_MASK                (( uint32 ) 0x03u)
 582:.\Generated_Source\PSoC4/CyLib.h **** 
 583:.\Generated_Source\PSoC4/CyLib.h **** /* CyIntSetSysVector()/CyIntGetSysVector() - parameter definitions */
 584:.\Generated_Source\PSoC4/CyLib.h **** #define CY_INT_NMI_IRQN                      ( 2u)      /* Non Maskable Interrupt      */
 585:.\Generated_Source\PSoC4/CyLib.h **** #define CY_INT_HARD_FAULT_IRQN               ( 3u)      /* Hard Fault Interrupt        */
 586:.\Generated_Source\PSoC4/CyLib.h **** #define CY_INT_SVCALL_IRQN                   (11u)      /* SV Call Interrupt           */
 587:.\Generated_Source\PSoC4/CyLib.h **** #define CY_INT_PEND_SV_IRQN                  (14u)      /* Pend SV Interrupt           */
 588:.\Generated_Source\PSoC4/CyLib.h **** #define CY_INT_SYSTICK_IRQN                  (15u)      /* System Tick Interrupt       */
 589:.\Generated_Source\PSoC4/CyLib.h **** 
 590:.\Generated_Source\PSoC4/CyLib.h **** 
 591:.\Generated_Source\PSoC4/CyLib.h **** #if(CY_IP_SRSSV2)
 592:.\Generated_Source\PSoC4/CyLib.h **** 
 593:.\Generated_Source\PSoC4/CyLib.h **** 
 594:.\Generated_Source\PSoC4/CyLib.h ****     /*******************************************************************************
 595:.\Generated_Source\PSoC4/CyLib.h ****     * Low Voltage Detection API Constants
 596:.\Generated_Source\PSoC4/CyLib.h ****     *******************************************************************************/
 597:.\Generated_Source\PSoC4/CyLib.h **** 
 598:.\Generated_Source\PSoC4/CyLib.h ****     /* CySysLvdEnable() - parameter definitions */
 599:.\Generated_Source\PSoC4/CyLib.h ****     #define CY_LVD_THRESHOLD_1_75_V             (( uint32 )  0u)
 600:.\Generated_Source\PSoC4/CyLib.h ****     #define CY_LVD_THRESHOLD_1_80_V             (( uint32 )  1u)
 601:.\Generated_Source\PSoC4/CyLib.h ****     #define CY_LVD_THRESHOLD_1_90_V             (( uint32 )  2u)
 602:.\Generated_Source\PSoC4/CyLib.h ****     #define CY_LVD_THRESHOLD_2_00_V             (( uint32 )  3u)
 603:.\Generated_Source\PSoC4/CyLib.h ****     #define CY_LVD_THRESHOLD_2_10_V             (( uint32 )  4u)
ARM GAS  C:\Users\CHRIST~1\AppData\Local\Temp\cc8KQrfd.s 			page 12


 604:.\Generated_Source\PSoC4/CyLib.h ****     #define CY_LVD_THRESHOLD_2_20_V             (( uint32 )  5u)
 605:.\Generated_Source\PSoC4/CyLib.h ****     #define CY_LVD_THRESHOLD_2_30_V             (( uint32 )  6u)
 606:.\Generated_Source\PSoC4/CyLib.h ****     #define CY_LVD_THRESHOLD_2_40_V             (( uint32 )  7u)
 607:.\Generated_Source\PSoC4/CyLib.h ****     #define CY_LVD_THRESHOLD_2_50_V             (( uint32 )  8u)
 608:.\Generated_Source\PSoC4/CyLib.h ****     #define CY_LVD_THRESHOLD_2_60_V             (( uint32 )  9u)
 609:.\Generated_Source\PSoC4/CyLib.h ****     #define CY_LVD_THRESHOLD_2_70_V             (( uint32 ) 10u)
 610:.\Generated_Source\PSoC4/CyLib.h ****     #define CY_LVD_THRESHOLD_2_80_V             (( uint32 ) 11u)
 611:.\Generated_Source\PSoC4/CyLib.h ****     #define CY_LVD_THRESHOLD_2_90_V             (( uint32 ) 12u)
 612:.\Generated_Source\PSoC4/CyLib.h ****     #define CY_LVD_THRESHOLD_3_00_V             (( uint32 ) 13u)
 613:.\Generated_Source\PSoC4/CyLib.h ****     #define CY_LVD_THRESHOLD_3_20_V             (( uint32 ) 14u)
 614:.\Generated_Source\PSoC4/CyLib.h ****     #define CY_LVD_THRESHOLD_4_50_V             (( uint32 ) 15u)
 615:.\Generated_Source\PSoC4/CyLib.h **** 
 616:.\Generated_Source\PSoC4/CyLib.h ****     /* CySysLvdEnable()  - implementation definitions */
 617:.\Generated_Source\PSoC4/CyLib.h ****     #define CY_LVD_PWR_VMON_CONFIG_LVD_EN           (( uint32 ) 0x01u)
 618:.\Generated_Source\PSoC4/CyLib.h ****     #define CY_LVD_PWR_VMON_CONFIG_LVD_SEL_SHIFT    (1u)
 619:.\Generated_Source\PSoC4/CyLib.h ****     #define CY_LVD_PWR_VMON_CONFIG_LVD_SEL_MASK     (( uint32 ) (0x0F << CY_LVD_PWR_VMON_CONFIG_LVD
 620:.\Generated_Source\PSoC4/CyLib.h ****     #define CY_LVD_PROPAGATE_INT_TO_CPU             (( uint32 ) 0x02u)
 621:.\Generated_Source\PSoC4/CyLib.h **** 
 622:.\Generated_Source\PSoC4/CyLib.h ****     /* CySysLvdGetInterruptSource()/ CySysLvdClearInterrupt()  - parameter definitions  */
 623:.\Generated_Source\PSoC4/CyLib.h ****     #define CY_SYS_LVD_INT                          (( uint32 ) 0x02u)
 624:.\Generated_Source\PSoC4/CyLib.h **** #endif  /* (CY_IP_SRSSV2) */
 625:.\Generated_Source\PSoC4/CyLib.h **** 
 626:.\Generated_Source\PSoC4/CyLib.h **** /* CyDelay()/CyDelayFreq()  - implementation definitions */
 627:.\Generated_Source\PSoC4/CyLib.h **** #define CY_DELAY_MS_OVERFLOW                    (0x8000u)
 628:.\Generated_Source\PSoC4/CyLib.h **** #define CY_DELAY_1M_THRESHOLD                   (1000000u)
 629:.\Generated_Source\PSoC4/CyLib.h **** #define CY_DELAY_1M_MINUS_1_THRESHOLD           (999999u)
 630:.\Generated_Source\PSoC4/CyLib.h **** #define CY_DELAY_1K_THRESHOLD                   (1000u)
 631:.\Generated_Source\PSoC4/CyLib.h **** #define CY_DELAY_1K_MINUS_1_THRESHOLD           (999u)
 632:.\Generated_Source\PSoC4/CyLib.h **** 
 633:.\Generated_Source\PSoC4/CyLib.h **** 
 634:.\Generated_Source\PSoC4/CyLib.h **** /***************************************
 635:.\Generated_Source\PSoC4/CyLib.h **** * Registers
 636:.\Generated_Source\PSoC4/CyLib.h **** ***************************************/
 637:.\Generated_Source\PSoC4/CyLib.h **** 
 638:.\Generated_Source\PSoC4/CyLib.h **** 
 639:.\Generated_Source\PSoC4/CyLib.h **** /*******************************************************************************
 640:.\Generated_Source\PSoC4/CyLib.h **** * Clocks API Registers
 641:.\Generated_Source\PSoC4/CyLib.h **** *******************************************************************************/
 642:.\Generated_Source\PSoC4/CyLib.h **** #define CY_SYS_CLK_IMO_TRIM1_REG            (*(reg32 *) CYREG_CLK_IMO_TRIM1)
 643:.\Generated_Source\PSoC4/CyLib.h **** #define CY_SYS_CLK_IMO_TRIM1_PTR            ( (reg32 *) CYREG_CLK_IMO_TRIM1)
 644:.\Generated_Source\PSoC4/CyLib.h **** 
 645:.\Generated_Source\PSoC4/CyLib.h **** #define CY_SYS_CLK_IMO_TRIM2_REG            (*(reg32 *) CYREG_CLK_IMO_TRIM2)
 646:.\Generated_Source\PSoC4/CyLib.h **** #define CY_SYS_CLK_IMO_TRIM2_PTR            ( (reg32 *) CYREG_CLK_IMO_TRIM2)
 647:.\Generated_Source\PSoC4/CyLib.h **** 
 648:.\Generated_Source\PSoC4/CyLib.h **** #define CY_SYS_CLK_IMO_TRIM3_REG            (*(reg32 *) CYREG_CLK_IMO_TRIM3)
 649:.\Generated_Source\PSoC4/CyLib.h **** #define CY_SYS_CLK_IMO_TRIM3_PTR            ( (reg32 *) CYREG_CLK_IMO_TRIM3)
 650:.\Generated_Source\PSoC4/CyLib.h **** 
 651:.\Generated_Source\PSoC4/CyLib.h **** #define CY_SYS_CLK_IMO_CONFIG_REG           (*(reg32 *) CYREG_CLK_IMO_CONFIG)
 652:.\Generated_Source\PSoC4/CyLib.h **** #define CY_SYS_CLK_IMO_CONFIG_PTR           ( (reg32 *) CYREG_CLK_IMO_CONFIG)
 653:.\Generated_Source\PSoC4/CyLib.h **** 
 654:.\Generated_Source\PSoC4/CyLib.h **** #define CY_SYS_CLK_ILO_CONFIG_REG           (*(reg32 *) CYREG_CLK_ILO_CONFIG)
 655:.\Generated_Source\PSoC4/CyLib.h **** #define CY_SYS_CLK_ILO_CONFIG_PTR           ( (reg32 *) CYREG_CLK_ILO_CONFIG)
 656:.\Generated_Source\PSoC4/CyLib.h **** 
 657:.\Generated_Source\PSoC4/CyLib.h **** #define CY_SYS_CLK_SELECT_REG               (*(reg32 *) CYREG_CLK_SELECT)
 658:.\Generated_Source\PSoC4/CyLib.h **** #define CY_SYS_CLK_SELECT_PTR               ( (reg32 *) CYREG_CLK_SELECT)
 659:.\Generated_Source\PSoC4/CyLib.h **** 
 660:.\Generated_Source\PSoC4/CyLib.h **** #if(CY_IP_SRSSV2)
ARM GAS  C:\Users\CHRIST~1\AppData\Local\Temp\cc8KQrfd.s 			page 13


 661:.\Generated_Source\PSoC4/CyLib.h **** 
 662:.\Generated_Source\PSoC4/CyLib.h ****     #define CY_SYS_CLK_ILO_TRIM_REG             (*(reg32 *) CYREG_CLK_ILO_TRIM)
 663:.\Generated_Source\PSoC4/CyLib.h ****     #define CY_SYS_CLK_ILO_TRIM_PTR             ( (reg32 *) CYREG_CLK_ILO_TRIM)
 664:.\Generated_Source\PSoC4/CyLib.h **** 
 665:.\Generated_Source\PSoC4/CyLib.h ****     #define CY_SFLASH_IMO_TRIM_REG(number)      ( ((reg8 *) CYREG_SFLASH_IMO_TRIM00)[number])
 666:.\Generated_Source\PSoC4/CyLib.h ****     #define CY_SFLASH_IMO_TRIM_PTR(number)      (&((reg8 *) CYREG_SFLASH_IMO_TRIM00)[number])
 667:.\Generated_Source\PSoC4/CyLib.h **** 
 668:.\Generated_Source\PSoC4/CyLib.h ****     #define CY_SFLASH_IMO_MAXF0_REG             (*(reg8 *) CYREG_SFLASH_IMO_MAXF0)
 669:.\Generated_Source\PSoC4/CyLib.h ****     #define CY_SFLASH_IMO_MAXF0_PTR             ( (reg8 *) CYREG_SFLASH_IMO_MAXF0)
 670:.\Generated_Source\PSoC4/CyLib.h **** 
 671:.\Generated_Source\PSoC4/CyLib.h ****     #define CY_SFLASH_IMO_ABS0_REG              (*(reg8 *) CYREG_SFLASH_IMO_ABS0)
 672:.\Generated_Source\PSoC4/CyLib.h ****     #define CY_SFLASH_IMO_ABS0_PTR              ( (reg8 *) CYREG_SFLASH_IMO_ABS0)
 673:.\Generated_Source\PSoC4/CyLib.h **** 
 674:.\Generated_Source\PSoC4/CyLib.h ****     #define CY_SFLASH_IMO_TMPCO0_REG            (*(reg8 *) CYREG_SFLASH_IMO_TMPCO0)
 675:.\Generated_Source\PSoC4/CyLib.h ****     #define CY_SFLASH_IMO_TMPCO0_PTR            ( (reg8 *) CYREG_SFLASH_IMO_TMPCO0)
 676:.\Generated_Source\PSoC4/CyLib.h **** 
 677:.\Generated_Source\PSoC4/CyLib.h ****     #define CY_SFLASH_IMO_MAXF1_REG             (*(reg8 *) CYREG_SFLASH_IMO_MAXF1)
 678:.\Generated_Source\PSoC4/CyLib.h ****     #define CY_SFLASH_IMO_MAXF1_PTR             ( (reg8 *) CYREG_SFLASH_IMO_MAXF1)
 679:.\Generated_Source\PSoC4/CyLib.h **** 
 680:.\Generated_Source\PSoC4/CyLib.h ****     #define CY_SFLASH_IMO_ABS1_REG              (*(reg8 *) CYREG_SFLASH_IMO_ABS1)
 681:.\Generated_Source\PSoC4/CyLib.h ****     #define CY_SFLASH_IMO_ABS1_PTR              ( (reg8 *) CYREG_SFLASH_IMO_ABS1)
 682:.\Generated_Source\PSoC4/CyLib.h **** 
 683:.\Generated_Source\PSoC4/CyLib.h ****     #define CY_SFLASH_IMO_TMPCO1_REG            (*(reg8 *) CYREG_SFLASH_IMO_TMPCO1)
 684:.\Generated_Source\PSoC4/CyLib.h ****     #define CY_SFLASH_IMO_TMPCO1_PTR            ( (reg8 *) CYREG_SFLASH_IMO_TMPCO1)
 685:.\Generated_Source\PSoC4/CyLib.h **** 
 686:.\Generated_Source\PSoC4/CyLib.h ****     #define CY_SFLASH_IMO_MAXF2_REG             (*(reg8 *) CYREG_SFLASH_IMO_MAXF2)
 687:.\Generated_Source\PSoC4/CyLib.h ****     #define CY_SFLASH_IMO_MAXF2_PTR             ( (reg8 *) CYREG_SFLASH_IMO_MAXF2)
 688:.\Generated_Source\PSoC4/CyLib.h **** 
 689:.\Generated_Source\PSoC4/CyLib.h ****     #define CY_SFLASH_IMO_ABS2_REG              (*(reg8 *) CYREG_SFLASH_IMO_ABS2)
 690:.\Generated_Source\PSoC4/CyLib.h ****     #define CY_SFLASH_IMO_ABS2_PTR              ( (reg8 *) CYREG_SFLASH_IMO_ABS2)
 691:.\Generated_Source\PSoC4/CyLib.h **** 
 692:.\Generated_Source\PSoC4/CyLib.h ****     #define CY_SFLASH_IMO_TMPCO2_REG            (*(reg8 *) CYREG_SFLASH_IMO_TMPCO2)
 693:.\Generated_Source\PSoC4/CyLib.h ****     #define CY_SFLASH_IMO_TMPCO2_PTR            ( (reg8 *) CYREG_SFLASH_IMO_TMPCO2)
 694:.\Generated_Source\PSoC4/CyLib.h **** 
 695:.\Generated_Source\PSoC4/CyLib.h ****     #define CY_SFLASH_IMO_MAXF3_REG             (*(reg8 *) CYREG_SFLASH_IMO_MAXF3)
 696:.\Generated_Source\PSoC4/CyLib.h ****     #define CY_SFLASH_IMO_MAXF3_PTR             ( (reg8 *) CYREG_SFLASH_IMO_MAXF3)
 697:.\Generated_Source\PSoC4/CyLib.h **** 
 698:.\Generated_Source\PSoC4/CyLib.h ****     #define CY_SFLASH_IMO_ABS3_REG              (*(reg8 *) CYREG_SFLASH_IMO_ABS3)
 699:.\Generated_Source\PSoC4/CyLib.h ****     #define CY_SFLASH_IMO_ABS3_PTR              ( (reg8 *) CYREG_SFLASH_IMO_ABS3)
 700:.\Generated_Source\PSoC4/CyLib.h **** 
 701:.\Generated_Source\PSoC4/CyLib.h ****     #define CY_SFLASH_IMO_TMPCO3_REG            (*(reg8 *) CYREG_SFLASH_IMO_TMPCO3)
 702:.\Generated_Source\PSoC4/CyLib.h ****     #define CY_SFLASH_IMO_TMPCO3_PTR            ( (reg8 *) CYREG_SFLASH_IMO_TMPCO3)
 703:.\Generated_Source\PSoC4/CyLib.h **** 
 704:.\Generated_Source\PSoC4/CyLib.h ****     #define CY_SFLASH_IMO_ABS4_REG              (*(reg8 *) CYREG_SFLASH_IMO_ABS4)
 705:.\Generated_Source\PSoC4/CyLib.h ****     #define CY_SFLASH_IMO_ABS4_PTR              ( (reg8 *) CYREG_SFLASH_IMO_ABS4)
 706:.\Generated_Source\PSoC4/CyLib.h **** 
 707:.\Generated_Source\PSoC4/CyLib.h ****     #define CY_SFLASH_IMO_TMPCO4_REG            (*(reg8 *) CYREG_SFLASH_IMO_TMPCO4)
 708:.\Generated_Source\PSoC4/CyLib.h ****     #define CY_SFLASH_IMO_TMPCO4_PTR            ( (reg8 *) CYREG_SFLASH_IMO_TMPCO4)
 709:.\Generated_Source\PSoC4/CyLib.h **** 
 710:.\Generated_Source\PSoC4/CyLib.h ****     #define CY_PWR_BG_TRIM4_REG                 (*(reg32 *) CYREG_PWR_BG_TRIM4)
 711:.\Generated_Source\PSoC4/CyLib.h ****     #define CY_PWR_BG_TRIM4_PTR                 ( (reg32 *) CYREG_PWR_BG_TRIM4)
 712:.\Generated_Source\PSoC4/CyLib.h **** 
 713:.\Generated_Source\PSoC4/CyLib.h ****     #define CY_PWR_BG_TRIM5_REG                 (*(reg32 *) CYREG_PWR_BG_TRIM5)
 714:.\Generated_Source\PSoC4/CyLib.h ****     #define CY_PWR_BG_TRIM5_PTR                 ( (reg32 *) CYREG_PWR_BG_TRIM5)
 715:.\Generated_Source\PSoC4/CyLib.h **** 
 716:.\Generated_Source\PSoC4/CyLib.h **** #else
 717:.\Generated_Source\PSoC4/CyLib.h **** 
ARM GAS  C:\Users\CHRIST~1\AppData\Local\Temp\cc8KQrfd.s 			page 14


 718:.\Generated_Source\PSoC4/CyLib.h ****     #define CY_SYS_CLK_IMO_SELECT_REG           (*(reg32 *) CYREG_CLK_IMO_SELECT)
 719:.\Generated_Source\PSoC4/CyLib.h ****     #define CY_SYS_CLK_IMO_SELECT_PTR           ( (reg32 *) CYREG_CLK_IMO_SELECT)
 720:.\Generated_Source\PSoC4/CyLib.h **** 
 721:.\Generated_Source\PSoC4/CyLib.h ****     #define CY_SFLASH_IMO_TCTRIM_REG(number)    ( ((reg8 *) CYREG_SFLASH_IMO_TCTRIM_LT00)[number])
 722:.\Generated_Source\PSoC4/CyLib.h ****     #define CY_SFLASH_IMO_TCTRIM_PTR(number)    (&((reg8 *) CYREG_SFLASH_IMO_TCTRIM_LT00)[number])
 723:.\Generated_Source\PSoC4/CyLib.h **** 
 724:.\Generated_Source\PSoC4/CyLib.h ****     #define CY_SFLASH_IMO_TRIM_REG(number)      ( ((reg8 *) CYREG_SFLASH_IMO_TRIM_LT00)[number])
 725:.\Generated_Source\PSoC4/CyLib.h ****     #define CY_SFLASH_IMO_TRIM_PTR(number)      (&((reg8 *) CYREG_SFLASH_IMO_TRIM_LT00)[number])
 726:.\Generated_Source\PSoC4/CyLib.h **** 
 727:.\Generated_Source\PSoC4/CyLib.h **** #endif  /* (CY_IP_SRSSV2) */
 728:.\Generated_Source\PSoC4/CyLib.h **** 
 729:.\Generated_Source\PSoC4/CyLib.h **** 
 730:.\Generated_Source\PSoC4/CyLib.h **** #if (CY_PSOC4_4100BL || CY_PSOC4_4200BL)
 731:.\Generated_Source\PSoC4/CyLib.h ****     /* Radio configuration register */
 732:.\Generated_Source\PSoC4/CyLib.h ****     #define CY_SYS_XTAL_BLESS_RF_CONFIG_REG         (*(reg32 *) CYREG_BLE_BLESS_RF_CONFIG)
 733:.\Generated_Source\PSoC4/CyLib.h ****     #define CY_SYS_XTAL_BLESS_RF_CONFIG_PTR         ( (reg32 *) CYREG_BLE_BLESS_RF_CONFIG)
 734:.\Generated_Source\PSoC4/CyLib.h **** 
 735:.\Generated_Source\PSoC4/CyLib.h ****     /* RFCTRL mode transition control */
 736:.\Generated_Source\PSoC4/CyLib.h ****     #define CY_SYS_XTAL_BLERD_DBUS_REG              (*(reg32 *) CYREG_BLE_BLERD_DBUS)
 737:.\Generated_Source\PSoC4/CyLib.h ****     #define CY_SYS_XTAL_BLERD_DBUS_PTR              ( (reg32 *) CYREG_BLE_BLERD_DBUS)
 738:.\Generated_Source\PSoC4/CyLib.h **** 
 739:.\Generated_Source\PSoC4/CyLib.h ****     /* RFCTRL state information */
 740:.\Generated_Source\PSoC4/CyLib.h ****     #define CY_SYS_XTAL_BLERD_FSM_REG              (*(reg32 *) CYREG_BLE_BLERD_FSM)
 741:.\Generated_Source\PSoC4/CyLib.h ****     #define CY_SYS_XTAL_BLERD_FSM_PTR              ( (reg32 *) CYREG_BLE_BLERD_FSM)
 742:.\Generated_Source\PSoC4/CyLib.h **** 
 743:.\Generated_Source\PSoC4/CyLib.h ****     /* BB bump configuration 1 */
 744:.\Generated_Source\PSoC4/CyLib.h ****     #define CY_SYS_XTAL_BLERD_BB_XO_REG             (*(reg32 *) CYREG_BLE_BLERD_BB_XO)
 745:.\Generated_Source\PSoC4/CyLib.h ****     #define CY_SYS_XTAL_BLERD_BB_XO_PTR             ( (reg32 *) CYREG_BLE_BLERD_BB_XO)
 746:.\Generated_Source\PSoC4/CyLib.h **** 
 747:.\Generated_Source\PSoC4/CyLib.h ****     /* BB bump configuration 2 */
 748:.\Generated_Source\PSoC4/CyLib.h ****     #define CY_SYS_XTAL_BLERD_BB_XO_CAPTRIM_REG     (*(reg32 *) CYREG_BLE_BLERD_BB_XO_CAPTRIM)
 749:.\Generated_Source\PSoC4/CyLib.h ****     #define CY_SYS_XTAL_BLERD_BB_XO_CAPTRIM_PTR     ( (reg32 *) CYREG_BLE_BLERD_BB_XO_CAPTRIM)
 750:.\Generated_Source\PSoC4/CyLib.h **** 
 751:.\Generated_Source\PSoC4/CyLib.h ****     /* Crystal clock divider configuration register */
 752:.\Generated_Source\PSoC4/CyLib.h ****     #define CY_SYS_CLK_XTAL_CLK_DIV_CONFIG_REG      (*(reg32 *) CYREG_BLE_BLESS_XTAL_CLK_DIV_CONFIG
 753:.\Generated_Source\PSoC4/CyLib.h ****     #define CY_SYS_CLK_XTAL_CLK_DIV_CONFIG_PTR      ( (reg32 *) CYREG_BLE_BLESS_XTAL_CLK_DIV_CONFIG
 754:.\Generated_Source\PSoC4/CyLib.h **** #endif  /* (CY_PSOC4_4100BL || CY_PSOC4_4200BL) */
 755:.\Generated_Source\PSoC4/CyLib.h **** 
 756:.\Generated_Source\PSoC4/CyLib.h **** #if (CY_IP_WCO)
 757:.\Generated_Source\PSoC4/CyLib.h ****     /* WCO Status Register */
 758:.\Generated_Source\PSoC4/CyLib.h ****     #define CY_SYS_CLK_WCO_STATUS_REG               (*(reg32 *) CYREG_BLE_BLESS_WCO_STATUS)
 759:.\Generated_Source\PSoC4/CyLib.h ****     #define CY_SYS_CLK_WCO_STATUS_PTR               ( (reg32 *) CYREG_BLE_BLESS_WCO_STATUS)
 760:.\Generated_Source\PSoC4/CyLib.h **** 
 761:.\Generated_Source\PSoC4/CyLib.h ****     /* WCO Configuration Register */
 762:.\Generated_Source\PSoC4/CyLib.h ****     #define CY_SYS_CLK_WCO_CONFIG_REG               (*(reg32 *) CYREG_BLE_BLESS_WCO_CONFIG)
 763:.\Generated_Source\PSoC4/CyLib.h ****     #define CY_SYS_CLK_WCO_CONFIG_PTR               ( (reg32 *) CYREG_BLE_BLESS_WCO_CONFIG)
 764:.\Generated_Source\PSoC4/CyLib.h **** 
 765:.\Generated_Source\PSoC4/CyLib.h ****     /* WCO Trim Register */
 766:.\Generated_Source\PSoC4/CyLib.h ****     #define CY_SYS_CLK_WCO_TRIM_REG                 (*(reg32 *) CYREG_BLE_BLESS_WCO_TRIM)
 767:.\Generated_Source\PSoC4/CyLib.h ****     #define CY_SYS_CLK_WCO_TRIM_PTR                 ( (reg32 *) CYREG_BLE_BLESS_WCO_TRIM)
 768:.\Generated_Source\PSoC4/CyLib.h **** #endif  /* (CY_IP_WCO) */
 769:.\Generated_Source\PSoC4/CyLib.h **** 
 770:.\Generated_Source\PSoC4/CyLib.h **** 
 771:.\Generated_Source\PSoC4/CyLib.h **** /*******************************************************************************
 772:.\Generated_Source\PSoC4/CyLib.h **** * WDT API Registers
 773:.\Generated_Source\PSoC4/CyLib.h **** *******************************************************************************/
 774:.\Generated_Source\PSoC4/CyLib.h **** #if(CY_IP_SRSSV2)
ARM GAS  C:\Users\CHRIST~1\AppData\Local\Temp\cc8KQrfd.s 			page 15


 775:.\Generated_Source\PSoC4/CyLib.h ****     #define CY_SYS_WDT_CTRLOW_REG               (*(reg32 *) CYREG_WDT_CTRLOW)
 776:.\Generated_Source\PSoC4/CyLib.h ****     #define CY_SYS_WDT_CTRLOW_PTR               ( (reg32 *) CYREG_WDT_CTRLOW)
 777:.\Generated_Source\PSoC4/CyLib.h **** 
 778:.\Generated_Source\PSoC4/CyLib.h ****     #define CY_SYS_WDT_CTRHIGH_REG              (*(reg32 *) CYREG_WDT_CTRHIGH)
 779:.\Generated_Source\PSoC4/CyLib.h ****     #define CY_SYS_WDT_CTRHIGH_PTR              ( (reg32 *) CYREG_WDT_CTRHIGH)
 780:.\Generated_Source\PSoC4/CyLib.h **** 
 781:.\Generated_Source\PSoC4/CyLib.h ****     #define CY_SYS_WDT_MATCH_REG                (*(reg32 *) CYREG_WDT_MATCH)
 782:.\Generated_Source\PSoC4/CyLib.h ****     #define CY_SYS_WDT_MATCH_PTR                ( (reg32 *) CYREG_WDT_MATCH)
 783:.\Generated_Source\PSoC4/CyLib.h **** 
 784:.\Generated_Source\PSoC4/CyLib.h ****     #define CY_SYS_WDT_CONFIG_REG               (*(reg32 *) CYREG_WDT_CONFIG)
 785:.\Generated_Source\PSoC4/CyLib.h ****     #define CY_SYS_WDT_CONFIG_PTR               ( (reg32 *) CYREG_WDT_CONFIG)
 786:.\Generated_Source\PSoC4/CyLib.h **** 
 787:.\Generated_Source\PSoC4/CyLib.h ****     #define CY_SYS_WDT_CONTROL_REG              (*(reg32 *) CYREG_WDT_CONTROL)
 788:.\Generated_Source\PSoC4/CyLib.h ****     #define CY_SYS_WDT_CONTROL_PTR              ( (reg32 *) CYREG_WDT_CONTROL)
 789:.\Generated_Source\PSoC4/CyLib.h **** #else
 790:.\Generated_Source\PSoC4/CyLib.h ****     #define CY_SYS_WDT_DISABLE_KEY_REG          (*(reg32 *) CYREG_WDT_DISABLE_KEY)
 791:.\Generated_Source\PSoC4/CyLib.h ****     #define CY_SYS_WDT_DISABLE_KEY_PTR          ( (reg32 *) CYREG_WDT_DISABLE_KEY)
 792:.\Generated_Source\PSoC4/CyLib.h **** 
 793:.\Generated_Source\PSoC4/CyLib.h ****     #define CY_SYS_WDT_MATCH_REG                (*(reg32 *) CYREG_WDT_MATCH)
 794:.\Generated_Source\PSoC4/CyLib.h ****     #define CY_SYS_WDT_MATCH_PTR                ( (reg32 *) CYREG_WDT_MATCH)
 795:.\Generated_Source\PSoC4/CyLib.h **** 
 796:.\Generated_Source\PSoC4/CyLib.h ****     #define CY_SYS_WDT_COUNTER_REG              (*(reg32 *) CYREG_WDT_COUNTER)
 797:.\Generated_Source\PSoC4/CyLib.h ****     #define CY_SYS_WDT_COUNTER_PTR              ( (reg32 *) CYREG_WDT_COUNTER)
 798:.\Generated_Source\PSoC4/CyLib.h **** 
 799:.\Generated_Source\PSoC4/CyLib.h ****     #define CY_SYS_SRSS_INTR_REG                (*(reg32 *) CYREG_SRSS_INTR)
 800:.\Generated_Source\PSoC4/CyLib.h ****     #define CY_SYS_SRSS_INTR_PTR                ( (reg32 *) CYREG_SRSS_INTR)
 801:.\Generated_Source\PSoC4/CyLib.h **** 
 802:.\Generated_Source\PSoC4/CyLib.h ****     #define CY_SYS_SRSS_INTR_MASK_REG           (*(reg32 *) CYREG_SRSS_INTR_MASK)
 803:.\Generated_Source\PSoC4/CyLib.h ****     #define CY_SYS_SRSS_INTR_MASK_PTR           ( (reg32 *) CYREG_SRSS_INTR_MASK)
 804:.\Generated_Source\PSoC4/CyLib.h **** #endif  /* (CY_IP_SRSSV2) */
 805:.\Generated_Source\PSoC4/CyLib.h **** 
 806:.\Generated_Source\PSoC4/CyLib.h **** 
 807:.\Generated_Source\PSoC4/CyLib.h **** /*******************************************************************************
 808:.\Generated_Source\PSoC4/CyLib.h **** * System API Registers
 809:.\Generated_Source\PSoC4/CyLib.h **** *******************************************************************************/
 810:.\Generated_Source\PSoC4/CyLib.h **** #define CY_SYS_CM0_AIRCR_REG                (*(reg32 *) CYREG_CM0_AIRCR)
 811:.\Generated_Source\PSoC4/CyLib.h **** #define CY_SYS_CM0_AIRCR_PTR                ( (reg32 *) CYREG_CM0_AIRCR)
 812:.\Generated_Source\PSoC4/CyLib.h **** 
 813:.\Generated_Source\PSoC4/CyLib.h **** /* Reset Cause Observation Register */
 814:.\Generated_Source\PSoC4/CyLib.h **** #define CY_SYS_RES_CAUSE_REG                (*(reg32 *) CYREG_RES_CAUSE)
 815:.\Generated_Source\PSoC4/CyLib.h **** #define CY_SYS_RES_CAUSE_PTR                ( (reg32 *) CYREG_RES_CAUSE)
 816:.\Generated_Source\PSoC4/CyLib.h **** 
 817:.\Generated_Source\PSoC4/CyLib.h **** #if(CY_IP_SRSSV2)
 818:.\Generated_Source\PSoC4/CyLib.h **** 
 819:.\Generated_Source\PSoC4/CyLib.h ****     /*******************************************************************************
 820:.\Generated_Source\PSoC4/CyLib.h ****     * Low Voltage Detection
 821:.\Generated_Source\PSoC4/CyLib.h ****     *******************************************************************************/
 822:.\Generated_Source\PSoC4/CyLib.h **** 
 823:.\Generated_Source\PSoC4/CyLib.h ****     /* Voltage Monitoring Trim and Configuration */
 824:.\Generated_Source\PSoC4/CyLib.h ****     #define CY_LVD_PWR_VMON_CONFIG_REG          (*(reg32 *) CYREG_PWR_VMON_CONFIG)
 825:.\Generated_Source\PSoC4/CyLib.h ****     #define CY_LVD_PWR_VMON_CONFIG_PTR          ( (reg32 *) CYREG_PWR_VMON_CONFIG)
 826:.\Generated_Source\PSoC4/CyLib.h **** 
 827:.\Generated_Source\PSoC4/CyLib.h ****     /* Power System Interrupt Mask Register */
 828:.\Generated_Source\PSoC4/CyLib.h ****     #define CY_LVD_PWR_INTR_MASK_REG            (*(reg32 *) CYREG_PWR_INTR_MASK)
 829:.\Generated_Source\PSoC4/CyLib.h ****     #define CY_LVD_PWR_INTR_MASK_PTR            ( (reg32 *) CYREG_PWR_INTR_MASK)
 830:.\Generated_Source\PSoC4/CyLib.h **** 
 831:.\Generated_Source\PSoC4/CyLib.h ****     /* Power System Interrupt Register */
ARM GAS  C:\Users\CHRIST~1\AppData\Local\Temp\cc8KQrfd.s 			page 16


 832:.\Generated_Source\PSoC4/CyLib.h ****     #define CY_LVD_PWR_INTR_REG                 (*(reg32 *) CYREG_PWR_INTR)
 833:.\Generated_Source\PSoC4/CyLib.h ****     #define CY_LVD_PWR_INTR_PTR                 ( (reg32 *) CYREG_PWR_INTR)
 834:.\Generated_Source\PSoC4/CyLib.h **** 
 835:.\Generated_Source\PSoC4/CyLib.h **** #endif  /* (CY_IP_SRSSV2) */
 836:.\Generated_Source\PSoC4/CyLib.h **** 
 837:.\Generated_Source\PSoC4/CyLib.h **** 
 838:.\Generated_Source\PSoC4/CyLib.h **** /*******************************************************************************
 839:.\Generated_Source\PSoC4/CyLib.h **** * Interrupt API Registers
 840:.\Generated_Source\PSoC4/CyLib.h **** *******************************************************************************/
 841:.\Generated_Source\PSoC4/CyLib.h **** #define CY_INT_VECT_TABLE                   ( (cyisraddress **) CYDEV_SRAM_BASE)
 842:.\Generated_Source\PSoC4/CyLib.h **** 
 843:.\Generated_Source\PSoC4/CyLib.h **** #define CY_INT_PRIORITY_REG(number)         ( ((reg32 *) CYREG_CM0_IPR0)[(number)/4u])
 844:.\Generated_Source\PSoC4/CyLib.h **** #define CY_INT_PRIORITY_PTR(number)         (&((reg32 *) CYREG_CM0_IPR0)[(number)/4u])
 845:.\Generated_Source\PSoC4/CyLib.h **** 
 846:.\Generated_Source\PSoC4/CyLib.h **** #define CY_INT_ENABLE_REG                   (*(reg32 *) CYREG_CM0_ISER)
 847:.\Generated_Source\PSoC4/CyLib.h **** #define CY_INT_ENABLE_PTR                   ( (reg32 *) CYREG_CM0_ISER)
 848:.\Generated_Source\PSoC4/CyLib.h **** 
 849:.\Generated_Source\PSoC4/CyLib.h **** #define CY_INT_CLEAR_REG                    (*(reg32 *) CYREG_CM0_ICER)
 850:.\Generated_Source\PSoC4/CyLib.h **** #define CY_INT_CLEAR_PTR                    ( (reg32 *) CYREG_CM0_ICER)
 851:.\Generated_Source\PSoC4/CyLib.h **** 
 852:.\Generated_Source\PSoC4/CyLib.h **** #define CY_INT_SET_PEND_REG                 (*(reg32 *) CYREG_CM0_ISPR)
 853:.\Generated_Source\PSoC4/CyLib.h **** #define CY_INT_SET_PEND_PTR                 ( (reg32 *) CYREG_CM0_ISPR)
 854:.\Generated_Source\PSoC4/CyLib.h **** 
 855:.\Generated_Source\PSoC4/CyLib.h **** #define CY_INT_CLR_PEND_REG                 (*(reg32 *) CYREG_CM0_ICPR)
 856:.\Generated_Source\PSoC4/CyLib.h **** #define CY_INT_CLR_PEND_PTR                 ( (reg32 *) CYREG_CM0_ICPR)
 857:.\Generated_Source\PSoC4/CyLib.h **** 
 858:.\Generated_Source\PSoC4/CyLib.h **** 
 859:.\Generated_Source\PSoC4/CyLib.h **** /*******************************************************************************
 860:.\Generated_Source\PSoC4/CyLib.h **** * System tick API Registers
 861:.\Generated_Source\PSoC4/CyLib.h **** *******************************************************************************/
 862:.\Generated_Source\PSoC4/CyLib.h **** #define CY_SYS_SYST_CSR_REG                 (*(reg32 *) CYREG_CM0_SYST_CSR)
 863:.\Generated_Source\PSoC4/CyLib.h **** #define CY_SYS_SYST_CSR_PTR                 ( (reg32 *) CYREG_CM0_SYST_CSR)
 864:.\Generated_Source\PSoC4/CyLib.h **** 
 865:.\Generated_Source\PSoC4/CyLib.h **** #define CY_SYS_SYST_RVR_REG                 (*(reg32 *) CYREG_CM0_SYST_RVR)
 866:.\Generated_Source\PSoC4/CyLib.h **** #define CY_SYS_SYST_RVR_PTR                 ( (reg32 *) CYREG_CM0_SYST_RVR)
 867:.\Generated_Source\PSoC4/CyLib.h **** 
 868:.\Generated_Source\PSoC4/CyLib.h **** #define CY_SYS_SYST_CVR_REG                 (*(reg32 *) CYREG_CM0_SYST_CVR)
 869:.\Generated_Source\PSoC4/CyLib.h **** #define CY_SYS_SYST_CVR_PTR                 ( (reg32 *) CYREG_CM0_SYST_CVR)
 870:.\Generated_Source\PSoC4/CyLib.h **** 
 871:.\Generated_Source\PSoC4/CyLib.h **** #define CY_SYS_SYST_CALIB_REG               (*(reg32 *) CYREG_CM0_SYST_CALIB)
 872:.\Generated_Source\PSoC4/CyLib.h **** #define CY_SYS_SYST_CALIB_PTR               ( (reg32 *) CYREG_CM0_SYST_CALIB)
 873:.\Generated_Source\PSoC4/CyLib.h **** 
 874:.\Generated_Source\PSoC4/CyLib.h **** 
 875:.\Generated_Source\PSoC4/CyLib.h **** #if (CY_IP_WCO)
 876:.\Generated_Source\PSoC4/CyLib.h **** 
 877:.\Generated_Source\PSoC4/CyLib.h ****     /*******************************************************************************
 878:.\Generated_Source\PSoC4/CyLib.h ****     * Function Name: CySysClkWcoSetHighPowerMode
 879:.\Generated_Source\PSoC4/CyLib.h ****     ********************************************************************************
 880:.\Generated_Source\PSoC4/CyLib.h ****     *
 881:.\Generated_Source\PSoC4/CyLib.h ****     * Summary:
 882:.\Generated_Source\PSoC4/CyLib.h ****     *  Sets the high power mode for the 32 KHz WCO.
 883:.\Generated_Source\PSoC4/CyLib.h ****     *
 884:.\Generated_Source\PSoC4/CyLib.h ****     * Parameters:
 885:.\Generated_Source\PSoC4/CyLib.h ****     *  None
 886:.\Generated_Source\PSoC4/CyLib.h ****     *
 887:.\Generated_Source\PSoC4/CyLib.h ****     * Return:
 888:.\Generated_Source\PSoC4/CyLib.h ****     *  None
ARM GAS  C:\Users\CHRIST~1\AppData\Local\Temp\cc8KQrfd.s 			page 17


 889:.\Generated_Source\PSoC4/CyLib.h ****     *
 890:.\Generated_Source\PSoC4/CyLib.h ****     * Side Effects:
 891:.\Generated_Source\PSoC4/CyLib.h ****     *  None
 892:.\Generated_Source\PSoC4/CyLib.h ****     *
 893:.\Generated_Source\PSoC4/CyLib.h ****     *******************************************************************************/
 894:.\Generated_Source\PSoC4/CyLib.h ****     static CY_INLINE void CySysClkWcoSetHighPowerMode(void)
 895:.\Generated_Source\PSoC4/CyLib.h ****     {
  25              		.loc 1 895 0
  26              		.cfi_startproc
  27 0000 80B5     		push	{r7, lr}
  28              		.cfi_def_cfa_offset 8
  29              		.cfi_offset 7, -8
  30              		.cfi_offset 14, -4
  31 0002 00AF     		add	r7, sp, #0
  32              		.cfi_def_cfa_register 7
 896:.\Generated_Source\PSoC4/CyLib.h ****         /* Switch off low power mode for WCO */
 897:.\Generated_Source\PSoC4/CyLib.h ****         CY_SYS_CLK_WCO_CONFIG_REG &= (uint32) ~CY_SYS_CLK_WCO_CONFIG_LPM_EN;
  33              		.loc 1 897 0
  34 0004 0B4B     		ldr	r3, .L2
  35 0006 0B4A     		ldr	r2, .L2
  36 0008 1268     		ldr	r2, [r2]
  37 000a 0121     		mov	r1, #1
  38 000c 8A43     		bic	r2, r1
  39 000e 1A60     		str	r2, [r3]
 898:.\Generated_Source\PSoC4/CyLib.h **** 
 899:.\Generated_Source\PSoC4/CyLib.h ****         /* Restore WCO trim register HPM settings */
 900:.\Generated_Source\PSoC4/CyLib.h ****         CY_SYS_CLK_WCO_TRIM_REG = (CY_SYS_CLK_WCO_TRIM_REG & (uint32)(~CY_SYS_CLK_WCO_TRIM_GM_MASK)
  40              		.loc 1 900 0
  41 0010 094B     		ldr	r3, .L2+4
  42 0012 094A     		ldr	r2, .L2+4
  43 0014 1268     		ldr	r2, [r2]
  44 0016 3021     		mov	r1, #48
  45 0018 8A43     		bic	r2, r1
 901:.\Generated_Source\PSoC4/CyLib.h ****                     | (uint32)(CY_SYS_CLK_WCO_TRIM_GM_HPM << CY_SYS_CLK_WCO_TRIM_GM_SHIFT);
  46              		.loc 1 901 0
  47 001a 1021     		mov	r1, #16
  48 001c 0A43     		orr	r2, r1
 900:.\Generated_Source\PSoC4/CyLib.h ****                     | (uint32)(CY_SYS_CLK_WCO_TRIM_GM_HPM << CY_SYS_CLK_WCO_TRIM_GM_SHIFT);
  49              		.loc 1 900 0
  50 001e 1A60     		str	r2, [r3]
 902:.\Generated_Source\PSoC4/CyLib.h ****         CY_SYS_CLK_WCO_TRIM_REG = (CY_SYS_CLK_WCO_TRIM_REG & (uint32)(~CY_SYS_CLK_WCO_TRIM_XGM_MASK
  51              		.loc 1 902 0
  52 0020 054B     		ldr	r3, .L2+4
  53 0022 054A     		ldr	r2, .L2+4
  54 0024 1268     		ldr	r2, [r2]
  55 0026 0721     		mov	r1, #7
  56 0028 8A43     		bic	r2, r1
 903:.\Generated_Source\PSoC4/CyLib.h ****                     | (uint32)(CY_SYS_CLK_WCO_TRIM_XGM_2620NA << CY_SYS_CLK_WCO_TRIM_XGM_SHIFT);
  57              		.loc 1 903 0
  58 002a 0121     		mov	r1, #1
  59 002c 0A43     		orr	r2, r1
 902:.\Generated_Source\PSoC4/CyLib.h ****         CY_SYS_CLK_WCO_TRIM_REG = (CY_SYS_CLK_WCO_TRIM_REG & (uint32)(~CY_SYS_CLK_WCO_TRIM_XGM_MASK
  60              		.loc 1 902 0
  61 002e 1A60     		str	r2, [r3]
 904:.\Generated_Source\PSoC4/CyLib.h ****     }
  62              		.loc 1 904 0
  63 0030 BD46     		mov	sp, r7
ARM GAS  C:\Users\CHRIST~1\AppData\Local\Temp\cc8KQrfd.s 			page 18


  64              		@ sp needed
  65 0032 80BD     		pop	{r7, pc}
  66              	.L3:
  67              		.align	2
  68              	.L2:
  69 0034 00F02E40 		.word	1076817920
  70 0038 00FF2E40 		.word	1076821760
  71              		.cfi_endproc
  72              	.LFE0:
  73              		.size	CySysClkWcoSetHighPowerMode, .-CySysClkWcoSetHighPowerMode
  74              		.section	.text.CySysClkWcoSetLowPowerMode,"ax",%progbits
  75              		.align	2
  76              		.code	16
  77              		.thumb_func
  78              		.type	CySysClkWcoSetLowPowerMode, %function
  79              	CySysClkWcoSetLowPowerMode:
  80              	.LFB1:
 905:.\Generated_Source\PSoC4/CyLib.h **** 
 906:.\Generated_Source\PSoC4/CyLib.h **** 
 907:.\Generated_Source\PSoC4/CyLib.h ****     /*******************************************************************************
 908:.\Generated_Source\PSoC4/CyLib.h ****     * Function Name: CySysClkWcoSetLowPowerMode
 909:.\Generated_Source\PSoC4/CyLib.h ****     ********************************************************************************
 910:.\Generated_Source\PSoC4/CyLib.h ****     *
 911:.\Generated_Source\PSoC4/CyLib.h ****     * Summary:
 912:.\Generated_Source\PSoC4/CyLib.h ****     *  Sets the low power mode for the 32 KHz WCO.
 913:.\Generated_Source\PSoC4/CyLib.h ****     *
 914:.\Generated_Source\PSoC4/CyLib.h ****     * Parameters:
 915:.\Generated_Source\PSoC4/CyLib.h ****     *  None
 916:.\Generated_Source\PSoC4/CyLib.h ****     *
 917:.\Generated_Source\PSoC4/CyLib.h ****     * Return:
 918:.\Generated_Source\PSoC4/CyLib.h ****     *  None
 919:.\Generated_Source\PSoC4/CyLib.h ****     *
 920:.\Generated_Source\PSoC4/CyLib.h ****     * Side Effects:
 921:.\Generated_Source\PSoC4/CyLib.h ****     *  None
 922:.\Generated_Source\PSoC4/CyLib.h ****     *
 923:.\Generated_Source\PSoC4/CyLib.h ****     *******************************************************************************/
 924:.\Generated_Source\PSoC4/CyLib.h ****     static CY_INLINE void CySysClkWcoSetLowPowerMode(void)
 925:.\Generated_Source\PSoC4/CyLib.h ****     {
  81              		.loc 1 925 0
  82              		.cfi_startproc
  83 0000 80B5     		push	{r7, lr}
  84              		.cfi_def_cfa_offset 8
  85              		.cfi_offset 7, -8
  86              		.cfi_offset 14, -4
  87 0002 00AF     		add	r7, sp, #0
  88              		.cfi_def_cfa_register 7
 926:.\Generated_Source\PSoC4/CyLib.h ****         /* Switch off auto low power mode in WCO */
 927:.\Generated_Source\PSoC4/CyLib.h ****         CY_SYS_CLK_WCO_CONFIG_REG &= ((uint32)~CY_SYS_CLK_WCO_CONFIG_LPM_AUTO);
  89              		.loc 1 927 0
  90 0004 0E4B     		ldr	r3, .L5
  91 0006 0E4A     		ldr	r2, .L5
  92 0008 1268     		ldr	r2, [r2]
  93 000a 0221     		mov	r1, #2
  94 000c 8A43     		bic	r2, r1
  95 000e 1A60     		str	r2, [r3]
 928:.\Generated_Source\PSoC4/CyLib.h **** 
 929:.\Generated_Source\PSoC4/CyLib.h ****         /* Change WCO trim register settings to LPM */
ARM GAS  C:\Users\CHRIST~1\AppData\Local\Temp\cc8KQrfd.s 			page 19


 930:.\Generated_Source\PSoC4/CyLib.h ****         CY_SYS_CLK_WCO_TRIM_REG = (CY_SYS_CLK_WCO_TRIM_REG & (uint32)(~CY_SYS_CLK_WCO_TRIM_XGM_MASK
  96              		.loc 1 930 0
  97 0010 0C4B     		ldr	r3, .L5+4
  98 0012 0C4A     		ldr	r2, .L5+4
  99 0014 1268     		ldr	r2, [r2]
 100 0016 0721     		mov	r1, #7
 101 0018 8A43     		bic	r2, r1
 931:.\Generated_Source\PSoC4/CyLib.h ****                     | (uint32)(CY_SYS_CLK_WCO_TRIM_XGM_2250NA << CY_SYS_CLK_WCO_TRIM_XGM_SHIFT);
 102              		.loc 1 931 0
 103 001a 0221     		mov	r1, #2
 104 001c 0A43     		orr	r2, r1
 930:.\Generated_Source\PSoC4/CyLib.h ****                     | (uint32)(CY_SYS_CLK_WCO_TRIM_XGM_2250NA << CY_SYS_CLK_WCO_TRIM_XGM_SHIFT);
 105              		.loc 1 930 0
 106 001e 1A60     		str	r2, [r3]
 932:.\Generated_Source\PSoC4/CyLib.h ****         CY_SYS_CLK_WCO_TRIM_REG = (CY_SYS_CLK_WCO_TRIM_REG & (uint32)(~CY_SYS_CLK_WCO_TRIM_GM_MASK)
 107              		.loc 1 932 0
 108 0020 084B     		ldr	r3, .L5+4
 109 0022 084A     		ldr	r2, .L5+4
 110 0024 1268     		ldr	r2, [r2]
 111 0026 3021     		mov	r1, #48
 112 0028 8A43     		bic	r2, r1
 933:.\Generated_Source\PSoC4/CyLib.h ****                     | (uint32)(CY_SYS_CLK_WCO_TRIM_GM_LPM << CY_SYS_CLK_WCO_TRIM_GM_SHIFT);
 113              		.loc 1 933 0
 114 002a 2021     		mov	r1, #32
 115 002c 0A43     		orr	r2, r1
 932:.\Generated_Source\PSoC4/CyLib.h ****         CY_SYS_CLK_WCO_TRIM_REG = (CY_SYS_CLK_WCO_TRIM_REG & (uint32)(~CY_SYS_CLK_WCO_TRIM_GM_MASK)
 116              		.loc 1 932 0
 117 002e 1A60     		str	r2, [r3]
 934:.\Generated_Source\PSoC4/CyLib.h **** 
 935:.\Generated_Source\PSoC4/CyLib.h ****         /* Switch on low power mode for WCO */
 936:.\Generated_Source\PSoC4/CyLib.h ****         CY_SYS_CLK_WCO_CONFIG_REG |= CY_SYS_CLK_WCO_CONFIG_LPM_EN;
 118              		.loc 1 936 0
 119 0030 034B     		ldr	r3, .L5
 120 0032 034A     		ldr	r2, .L5
 121 0034 1268     		ldr	r2, [r2]
 122 0036 0121     		mov	r1, #1
 123 0038 0A43     		orr	r2, r1
 124 003a 1A60     		str	r2, [r3]
 937:.\Generated_Source\PSoC4/CyLib.h ****     }
 125              		.loc 1 937 0
 126 003c BD46     		mov	sp, r7
 127              		@ sp needed
 128 003e 80BD     		pop	{r7, pc}
 129              	.L6:
 130              		.align	2
 131              	.L5:
 132 0040 00F02E40 		.word	1076817920
 133 0044 00FF2E40 		.word	1076821760
 134              		.cfi_endproc
 135              	.LFE1:
 136              		.size	CySysClkWcoSetLowPowerMode, .-CySysClkWcoSetLowPowerMode
 137              		.global	cydelayFreqHz
 138              		.data
 139              		.align	2
 140              		.type	cydelayFreqHz, %object
 141              		.size	cydelayFreqHz, 4
 142              	cydelayFreqHz:
ARM GAS  C:\Users\CHRIST~1\AppData\Local\Temp\cc8KQrfd.s 			page 20


 143 0000 00366E01 		.word	24000000
 144              		.global	cydelayFreqKhz
 145              		.align	2
 146              		.type	cydelayFreqKhz, %object
 147              		.size	cydelayFreqKhz, 4
 148              	cydelayFreqKhz:
 149 0004 C05D0000 		.word	24000
 150              		.global	cydelayFreqMhz
 151              		.type	cydelayFreqMhz, %object
 152              		.size	cydelayFreqMhz, 1
 153              	cydelayFreqMhz:
 154 0008 18       		.byte	24
 155              		.global	cydelay32kMs
 156 0009 000000   		.align	2
 157              		.type	cydelay32kMs, %object
 158              		.size	cydelay32kMs, 4
 159              	cydelay32kMs:
 160 000c 0000E02E 		.word	786432000
 161              		.global	lfclkPosedgeWdtCounter0Enabled
 162              		.bss
 163              		.align	2
 164              		.type	lfclkPosedgeWdtCounter0Enabled, %object
 165              		.size	lfclkPosedgeWdtCounter0Enabled, 4
 166              	lfclkPosedgeWdtCounter0Enabled:
 167 0000 00000000 		.space	4
 168              		.global	lfclkPosedgeEnabledWdtCounter
 169              		.align	2
 170              		.type	lfclkPosedgeEnabledWdtCounter, %object
 171              		.size	lfclkPosedgeEnabledWdtCounter, 4
 172              	lfclkPosedgeEnabledWdtCounter:
 173 0004 00000000 		.space	4
 174              		.global	lfclkPosedgeWdtCounter0Mode
 175              		.align	2
 176              		.type	lfclkPosedgeWdtCounter0Mode, %object
 177              		.size	lfclkPosedgeWdtCounter0Mode, 4
 178              	lfclkPosedgeWdtCounter0Mode:
 179 0008 00000000 		.space	4
 180              		.align	2
 181              	CySysTickCallbacks:
 182 000c 00000000 		.space	20
 182      00000000 
 182      00000000 
 182      00000000 
 182      00000000 
 183              		.global	CySysTickInitVar
 184              		.align	2
 185              		.type	CySysTickInitVar, %object
 186              		.size	CySysTickInitVar, 4
 187              	CySysTickInitVar:
 188 0020 00000000 		.space	4
 189              		.global	cyImoFreqMhz2Reg
 190              		.section	.rodata
 191              		.align	2
 192              		.type	cyImoFreqMhz2Reg, %object
 193              		.size	cyImoFreqMhz2Reg, 46
 194              	cyImoFreqMhz2Reg:
 195 0000 03       		.byte	3
ARM GAS  C:\Users\CHRIST~1\AppData\Local\Temp\cc8KQrfd.s 			page 21


 196 0001 04       		.byte	4
 197 0002 05       		.byte	5
 198 0003 06       		.byte	6
 199 0004 07       		.byte	7
 200 0005 08       		.byte	8
 201 0006 09       		.byte	9
 202 0007 0A       		.byte	10
 203 0008 0B       		.byte	11
 204 0009 0C       		.byte	12
 205 000a 0E       		.byte	14
 206 000b 0F       		.byte	15
 207 000c 10       		.byte	16
 208 000d 11       		.byte	17
 209 000e 12       		.byte	18
 210 000f 13       		.byte	19
 211 0010 14       		.byte	20
 212 0011 15       		.byte	21
 213 0012 16       		.byte	22
 214 0013 17       		.byte	23
 215 0014 18       		.byte	24
 216 0015 19       		.byte	25
 217 0016 1B       		.byte	27
 218 0017 1C       		.byte	28
 219 0018 1D       		.byte	29
 220 0019 1E       		.byte	30
 221 001a 1F       		.byte	31
 222 001b 20       		.byte	32
 223 001c 21       		.byte	33
 224 001d 22       		.byte	34
 225 001e 23       		.byte	35
 226 001f 25       		.byte	37
 227 0020 26       		.byte	38
 228 0021 27       		.byte	39
 229 0022 28       		.byte	40
 230 0023 29       		.byte	41
 231 0024 2A       		.byte	42
 232 0025 2B       		.byte	43
 233 0026 2E       		.byte	46
 234 0027 2F       		.byte	47
 235 0028 30       		.byte	48
 236 0029 31       		.byte	49
 237 002a 32       		.byte	50
 238 002b 33       		.byte	51
 239 002c 34       		.byte	52
 240 002d 35       		.byte	53
 241 002e 0000     		.section	.text.CySysClkImoStart,"ax",%progbits
 242              		.align	2
 243              		.global	CySysClkImoStart
 244              		.code	16
 245              		.thumb_func
 246              		.type	CySysClkImoStart, %function
 247              	CySysClkImoStart:
 248              	.LFB2:
 249              		.file 2 ".\\Generated_Source\\PSoC4\\CyLib.c"
   1:.\Generated_Source\PSoC4/CyLib.c **** /*******************************************************************************
   2:.\Generated_Source\PSoC4/CyLib.c **** * File Name: CyLib.c
   3:.\Generated_Source\PSoC4/CyLib.c **** * Version 4.20
ARM GAS  C:\Users\CHRIST~1\AppData\Local\Temp\cc8KQrfd.s 			page 22


   4:.\Generated_Source\PSoC4/CyLib.c **** *
   5:.\Generated_Source\PSoC4/CyLib.c **** *  Description:
   6:.\Generated_Source\PSoC4/CyLib.c **** *   Provides a system API for the clocking, interrupts, and watchdog timer.
   7:.\Generated_Source\PSoC4/CyLib.c **** *
   8:.\Generated_Source\PSoC4/CyLib.c **** *  Note:
   9:.\Generated_Source\PSoC4/CyLib.c **** *   Documentation of the API's in this file is located in the
  10:.\Generated_Source\PSoC4/CyLib.c **** *   System Reference Guide provided with PSoC Creator.
  11:.\Generated_Source\PSoC4/CyLib.c **** *
  12:.\Generated_Source\PSoC4/CyLib.c **** ********************************************************************************
  13:.\Generated_Source\PSoC4/CyLib.c **** * Copyright 2010-2014, Cypress Semiconductor Corporation.  All rights reserved.
  14:.\Generated_Source\PSoC4/CyLib.c **** * You may use this file only in accordance with the license, terms, conditions,
  15:.\Generated_Source\PSoC4/CyLib.c **** * disclaimers, and limitations in the end user license agreement accompanying
  16:.\Generated_Source\PSoC4/CyLib.c **** * the software package with which this file was provided.
  17:.\Generated_Source\PSoC4/CyLib.c **** *******************************************************************************/
  18:.\Generated_Source\PSoC4/CyLib.c **** 
  19:.\Generated_Source\PSoC4/CyLib.c **** #include "CyLib.h"
  20:.\Generated_Source\PSoC4/CyLib.c **** 
  21:.\Generated_Source\PSoC4/CyLib.c **** 
  22:.\Generated_Source\PSoC4/CyLib.c **** /* Do not use these definitions directly in your application */
  23:.\Generated_Source\PSoC4/CyLib.c **** uint32 cydelayFreqHz  = CYDEV_BCLK__SYSCLK__HZ;
  24:.\Generated_Source\PSoC4/CyLib.c **** uint32 cydelayFreqKhz = (CYDEV_BCLK__SYSCLK__HZ + CY_DELAY_1K_MINUS_1_THRESHOLD) / CY_DELAY_1K_THRE
  25:.\Generated_Source\PSoC4/CyLib.c **** uint8  cydelayFreqMhz = (uint8)((CYDEV_BCLK__SYSCLK__HZ + CY_DELAY_1M_MINUS_1_THRESHOLD) / CY_DELAY
  26:.\Generated_Source\PSoC4/CyLib.c **** uint32 cydelay32kMs   = CY_DELAY_MS_OVERFLOW * ((CYDEV_BCLK__SYSCLK__HZ + CY_DELAY_1K_MINUS_1_THRES
  27:.\Generated_Source\PSoC4/CyLib.c ****                         CY_DELAY_1K_THRESHOLD);
  28:.\Generated_Source\PSoC4/CyLib.c **** 
  29:.\Generated_Source\PSoC4/CyLib.c **** #if (CY_IP_WCO)
  30:.\Generated_Source\PSoC4/CyLib.c ****     static uint32 CySysClkGetLfclkSource(void);
  31:.\Generated_Source\PSoC4/CyLib.c **** #endif /* (CY_IP_WCO) */
  32:.\Generated_Source\PSoC4/CyLib.c **** 
  33:.\Generated_Source\PSoC4/CyLib.c **** #if(CY_IP_SRSSV2)
  34:.\Generated_Source\PSoC4/CyLib.c ****     /* CySysClkLfclkPosedgeCatch() / CySysClkLfclkPosedgeRestore() */
  35:.\Generated_Source\PSoC4/CyLib.c ****     uint32 lfclkPosedgeWdtCounter0Enabled = 0u;
  36:.\Generated_Source\PSoC4/CyLib.c ****     uint32 lfclkPosedgeEnabledWdtCounter  = 0u;
  37:.\Generated_Source\PSoC4/CyLib.c ****     uint32 lfclkPosedgeWdtCounter0Mode    = CY_SYS_WDT_MODE_NONE;
  38:.\Generated_Source\PSoC4/CyLib.c **** 
  39:.\Generated_Source\PSoC4/CyLib.c ****     static void CySysClkLfclkPosedgeCatch(void);
  40:.\Generated_Source\PSoC4/CyLib.c ****     static void CySysClkLfclkPosedgeRestore(void);
  41:.\Generated_Source\PSoC4/CyLib.c **** 
  42:.\Generated_Source\PSoC4/CyLib.c ****     static uint32 CySysWdtLocked(void);
  43:.\Generated_Source\PSoC4/CyLib.c ****     static uint32 CySysClkIloEnabled(void);
  44:.\Generated_Source\PSoC4/CyLib.c ****     #if (CY_IP_WCO)
  45:.\Generated_Source\PSoC4/CyLib.c ****         static uint32 CySysClkWcoEnabled(void);
  46:.\Generated_Source\PSoC4/CyLib.c ****     #endif /* (CY_IP_WCO) */
  47:.\Generated_Source\PSoC4/CyLib.c **** #endif /* (CY_IP_SRSSV2) */
  48:.\Generated_Source\PSoC4/CyLib.c **** 
  49:.\Generated_Source\PSoC4/CyLib.c **** 
  50:.\Generated_Source\PSoC4/CyLib.c **** static cySysTickCallback CySysTickCallbacks[CY_SYS_SYST_NUM_OF_CALLBACKS];
  51:.\Generated_Source\PSoC4/CyLib.c **** static void CySysTickServiceCallbacks(void);
  52:.\Generated_Source\PSoC4/CyLib.c **** uint32 CySysTickInitVar = 0u;
  53:.\Generated_Source\PSoC4/CyLib.c **** 
  54:.\Generated_Source\PSoC4/CyLib.c **** 
  55:.\Generated_Source\PSoC4/CyLib.c **** #if(CY_IP_SRSSV2)
  56:.\Generated_Source\PSoC4/CyLib.c ****         /* Conversion between CySysClkWriteImoFreq() parameter and register's value */
  57:.\Generated_Source\PSoC4/CyLib.c ****         const uint8 cyImoFreqMhz2Reg[CY_SYS_CLK_IMO_FREQ_TABLE_SIZE] = {
  58:.\Generated_Source\PSoC4/CyLib.c ****             /*  3 MHz */ 0x03u,  /*  4 MHz */ 0x04u,  /*  5 MHz */ 0x05u,  /*  6 MHz */ 0x06u,
  59:.\Generated_Source\PSoC4/CyLib.c ****             /*  7 MHz */ 0x07u,  /*  8 MHz */ 0x08u,  /*  9 MHz */ 0x09u,  /* 10 MHz */ 0x0Au,
  60:.\Generated_Source\PSoC4/CyLib.c ****             /* 11 MHz */ 0x0Bu,  /* 12 MHz */ 0x0Cu,  /* 13 MHz */ 0x0Eu,  /* 14 MHz */ 0x0Fu,
ARM GAS  C:\Users\CHRIST~1\AppData\Local\Temp\cc8KQrfd.s 			page 23


  61:.\Generated_Source\PSoC4/CyLib.c ****             /* 15 MHz */ 0x10u,  /* 16 MHz */ 0x11u,  /* 17 MHz */ 0x12u,  /* 18 MHz */ 0x13u,
  62:.\Generated_Source\PSoC4/CyLib.c ****             /* 19 MHz */ 0x14u,  /* 20 MHz */ 0x15u,  /* 21 MHz */ 0x16u,  /* 22 MHz */ 0x17u,
  63:.\Generated_Source\PSoC4/CyLib.c ****             /* 23 MHz */ 0x18u,  /* 24 MHz */ 0x19u,  /* 25 MHz */ 0x1Bu,  /* 26 MHz */ 0x1Cu,
  64:.\Generated_Source\PSoC4/CyLib.c ****             /* 27 MHz */ 0x1Du,  /* 28 MHz */ 0x1Eu,  /* 29 MHz */ 0x1Fu,  /* 30 MHz */ 0x20u,
  65:.\Generated_Source\PSoC4/CyLib.c ****             /* 31 MHz */ 0x21u,  /* 32 MHz */ 0x22u,  /* 33 MHz */ 0x23u,  /* 34 MHz */ 0x25u,
  66:.\Generated_Source\PSoC4/CyLib.c ****             /* 35 MHz */ 0x26u,  /* 36 MHz */ 0x27u,  /* 37 MHz */ 0x28u,  /* 38 MHz */ 0x29u,
  67:.\Generated_Source\PSoC4/CyLib.c ****             /* 39 MHz */ 0x2Au,  /* 40 MHz */ 0x2Bu,  /* 41 MHz */ 0x2Eu,  /* 42 MHz */ 0x2Fu,
  68:.\Generated_Source\PSoC4/CyLib.c ****             /* 43 MHz */ 0x30u,  /* 44 MHz */ 0x31u,  /* 45 MHz */ 0x32u,  /* 46 MHz */ 0x33u,
  69:.\Generated_Source\PSoC4/CyLib.c ****             /* 47 MHz */ 0x34u,  /* 48 MHz */ 0x35u };
  70:.\Generated_Source\PSoC4/CyLib.c **** #endif /* (CY_IP_SRSSV2) */
  71:.\Generated_Source\PSoC4/CyLib.c **** 
  72:.\Generated_Source\PSoC4/CyLib.c **** 
  73:.\Generated_Source\PSoC4/CyLib.c **** /*******************************************************************************
  74:.\Generated_Source\PSoC4/CyLib.c **** * Function Name: CySysClkImoStart
  75:.\Generated_Source\PSoC4/CyLib.c **** ********************************************************************************
  76:.\Generated_Source\PSoC4/CyLib.c **** *
  77:.\Generated_Source\PSoC4/CyLib.c **** * Summary:
  78:.\Generated_Source\PSoC4/CyLib.c **** *  Enables the IMO.
  79:.\Generated_Source\PSoC4/CyLib.c **** *
  80:.\Generated_Source\PSoC4/CyLib.c **** * Parameters:
  81:.\Generated_Source\PSoC4/CyLib.c **** *  None
  82:.\Generated_Source\PSoC4/CyLib.c **** *
  83:.\Generated_Source\PSoC4/CyLib.c **** * Return:
  84:.\Generated_Source\PSoC4/CyLib.c **** *  None
  85:.\Generated_Source\PSoC4/CyLib.c **** *
  86:.\Generated_Source\PSoC4/CyLib.c **** *******************************************************************************/
  87:.\Generated_Source\PSoC4/CyLib.c **** void CySysClkImoStart(void)
  88:.\Generated_Source\PSoC4/CyLib.c **** {
 250              		.loc 2 88 0
 251              		.cfi_startproc
 252 0000 80B5     		push	{r7, lr}
 253              		.cfi_def_cfa_offset 8
 254              		.cfi_offset 7, -8
 255              		.cfi_offset 14, -4
 256 0002 00AF     		add	r7, sp, #0
 257              		.cfi_def_cfa_register 7
  89:.\Generated_Source\PSoC4/CyLib.c ****     CY_SYS_CLK_IMO_CONFIG_REG |= CY_SYS_CLK_IMO_CONFIG_ENABLE;
 258              		.loc 2 89 0
 259 0004 044B     		ldr	r3, .L8
 260 0006 044A     		ldr	r2, .L8
 261 0008 1268     		ldr	r2, [r2]
 262 000a 8021     		mov	r1, #128
 263 000c 0906     		lsl	r1, r1, #24
 264 000e 0A43     		orr	r2, r1
 265 0010 1A60     		str	r2, [r3]
  90:.\Generated_Source\PSoC4/CyLib.c **** }
 266              		.loc 2 90 0
 267 0012 BD46     		mov	sp, r7
 268              		@ sp needed
 269 0014 80BD     		pop	{r7, pc}
 270              	.L9:
 271 0016 C046     		.align	2
 272              	.L8:
 273 0018 08010B40 		.word	1074462984
 274              		.cfi_endproc
 275              	.LFE2:
 276              		.size	CySysClkImoStart, .-CySysClkImoStart
ARM GAS  C:\Users\CHRIST~1\AppData\Local\Temp\cc8KQrfd.s 			page 24


 277              		.section	.text.CySysClkImoStop,"ax",%progbits
 278              		.align	2
 279              		.global	CySysClkImoStop
 280              		.code	16
 281              		.thumb_func
 282              		.type	CySysClkImoStop, %function
 283              	CySysClkImoStop:
 284              	.LFB3:
  91:.\Generated_Source\PSoC4/CyLib.c **** 
  92:.\Generated_Source\PSoC4/CyLib.c **** 
  93:.\Generated_Source\PSoC4/CyLib.c **** /*******************************************************************************
  94:.\Generated_Source\PSoC4/CyLib.c **** * Function Name: CySysClkImoStop
  95:.\Generated_Source\PSoC4/CyLib.c **** ********************************************************************************
  96:.\Generated_Source\PSoC4/CyLib.c **** *
  97:.\Generated_Source\PSoC4/CyLib.c **** * Summary:
  98:.\Generated_Source\PSoC4/CyLib.c **** *  Disables the IMO.
  99:.\Generated_Source\PSoC4/CyLib.c **** *
 100:.\Generated_Source\PSoC4/CyLib.c **** * Parameters:
 101:.\Generated_Source\PSoC4/CyLib.c **** *  None
 102:.\Generated_Source\PSoC4/CyLib.c **** *
 103:.\Generated_Source\PSoC4/CyLib.c **** * Return:
 104:.\Generated_Source\PSoC4/CyLib.c **** *  None
 105:.\Generated_Source\PSoC4/CyLib.c **** *
 106:.\Generated_Source\PSoC4/CyLib.c **** *******************************************************************************/
 107:.\Generated_Source\PSoC4/CyLib.c **** void CySysClkImoStop(void)
 108:.\Generated_Source\PSoC4/CyLib.c **** {
 285              		.loc 2 108 0
 286              		.cfi_startproc
 287 0000 80B5     		push	{r7, lr}
 288              		.cfi_def_cfa_offset 8
 289              		.cfi_offset 7, -8
 290              		.cfi_offset 14, -4
 291 0002 00AF     		add	r7, sp, #0
 292              		.cfi_def_cfa_register 7
 109:.\Generated_Source\PSoC4/CyLib.c ****     CY_SYS_CLK_IMO_CONFIG_REG &= ( uint32 ) ( ~( uint32 )CY_SYS_CLK_IMO_CONFIG_ENABLE);
 293              		.loc 2 109 0
 294 0004 034B     		ldr	r3, .L11
 295 0006 034A     		ldr	r2, .L11
 296 0008 1268     		ldr	r2, [r2]
 297 000a 5200     		lsl	r2, r2, #1
 298 000c 5208     		lsr	r2, r2, #1
 299 000e 1A60     		str	r2, [r3]
 110:.\Generated_Source\PSoC4/CyLib.c **** }
 300              		.loc 2 110 0
 301 0010 BD46     		mov	sp, r7
 302              		@ sp needed
 303 0012 80BD     		pop	{r7, pc}
 304              	.L12:
 305              		.align	2
 306              	.L11:
 307 0014 08010B40 		.word	1074462984
 308              		.cfi_endproc
 309              	.LFE3:
 310              		.size	CySysClkImoStop, .-CySysClkImoStop
 311              		.section	.text.CySysClkIloStart,"ax",%progbits
 312              		.align	2
 313              		.global	CySysClkIloStart
ARM GAS  C:\Users\CHRIST~1\AppData\Local\Temp\cc8KQrfd.s 			page 25


 314              		.code	16
 315              		.thumb_func
 316              		.type	CySysClkIloStart, %function
 317              	CySysClkIloStart:
 318              	.LFB4:
 111:.\Generated_Source\PSoC4/CyLib.c **** 
 112:.\Generated_Source\PSoC4/CyLib.c **** 
 113:.\Generated_Source\PSoC4/CyLib.c **** /*******************************************************************************
 114:.\Generated_Source\PSoC4/CyLib.c **** * Function Name: CySysClkIloStart
 115:.\Generated_Source\PSoC4/CyLib.c **** ********************************************************************************
 116:.\Generated_Source\PSoC4/CyLib.c **** *
 117:.\Generated_Source\PSoC4/CyLib.c **** * Summary:
 118:.\Generated_Source\PSoC4/CyLib.c **** *  Enables the ILO. Refer to the device datasheet for the ILO startup time.
 119:.\Generated_Source\PSoC4/CyLib.c **** *
 120:.\Generated_Source\PSoC4/CyLib.c **** * Parameters:
 121:.\Generated_Source\PSoC4/CyLib.c **** *  None
 122:.\Generated_Source\PSoC4/CyLib.c **** *
 123:.\Generated_Source\PSoC4/CyLib.c **** * Return:
 124:.\Generated_Source\PSoC4/CyLib.c **** *  None
 125:.\Generated_Source\PSoC4/CyLib.c **** *
 126:.\Generated_Source\PSoC4/CyLib.c **** *******************************************************************************/
 127:.\Generated_Source\PSoC4/CyLib.c **** void CySysClkIloStart(void)
 128:.\Generated_Source\PSoC4/CyLib.c **** {
 319              		.loc 2 128 0
 320              		.cfi_startproc
 321 0000 80B5     		push	{r7, lr}
 322              		.cfi_def_cfa_offset 8
 323              		.cfi_offset 7, -8
 324              		.cfi_offset 14, -4
 325 0002 00AF     		add	r7, sp, #0
 326              		.cfi_def_cfa_register 7
 129:.\Generated_Source\PSoC4/CyLib.c ****     CY_SYS_CLK_ILO_CONFIG_REG |= CY_SYS_CLK_ILO_CONFIG_ENABLE;
 327              		.loc 2 129 0
 328 0004 044B     		ldr	r3, .L14
 329 0006 044A     		ldr	r2, .L14
 330 0008 1268     		ldr	r2, [r2]
 331 000a 8021     		mov	r1, #128
 332 000c 0906     		lsl	r1, r1, #24
 333 000e 0A43     		orr	r2, r1
 334 0010 1A60     		str	r2, [r3]
 130:.\Generated_Source\PSoC4/CyLib.c **** }
 335              		.loc 2 130 0
 336 0012 BD46     		mov	sp, r7
 337              		@ sp needed
 338 0014 80BD     		pop	{r7, pc}
 339              	.L15:
 340 0016 C046     		.align	2
 341              	.L14:
 342 0018 04010B40 		.word	1074462980
 343              		.cfi_endproc
 344              	.LFE4:
 345              		.size	CySysClkIloStart, .-CySysClkIloStart
 346              		.section	.text.CySysClkIloStop,"ax",%progbits
 347              		.align	2
 348              		.global	CySysClkIloStop
 349              		.code	16
 350              		.thumb_func
ARM GAS  C:\Users\CHRIST~1\AppData\Local\Temp\cc8KQrfd.s 			page 26


 351              		.type	CySysClkIloStop, %function
 352              	CySysClkIloStop:
 353              	.LFB5:
 131:.\Generated_Source\PSoC4/CyLib.c **** 
 132:.\Generated_Source\PSoC4/CyLib.c **** 
 133:.\Generated_Source\PSoC4/CyLib.c **** /*******************************************************************************
 134:.\Generated_Source\PSoC4/CyLib.c **** * Function Name: CySysClkIloStop
 135:.\Generated_Source\PSoC4/CyLib.c **** ********************************************************************************
 136:.\Generated_Source\PSoC4/CyLib.c **** *
 137:.\Generated_Source\PSoC4/CyLib.c **** * Summary:
 138:.\Generated_Source\PSoC4/CyLib.c **** *  Disables the ILO.
 139:.\Generated_Source\PSoC4/CyLib.c **** *
 140:.\Generated_Source\PSoC4/CyLib.c **** * Parameters:
 141:.\Generated_Source\PSoC4/CyLib.c **** *  None
 142:.\Generated_Source\PSoC4/CyLib.c **** *
 143:.\Generated_Source\PSoC4/CyLib.c **** * Return:
 144:.\Generated_Source\PSoC4/CyLib.c **** *  None
 145:.\Generated_Source\PSoC4/CyLib.c **** *
 146:.\Generated_Source\PSoC4/CyLib.c **** * Side Effects:
 147:.\Generated_Source\PSoC4/CyLib.c **** *  This function will have no effect if the WDT is locked (CySysWdtLock() is
 148:.\Generated_Source\PSoC4/CyLib.c **** *  called). Call CySysWdtUnlock() to unlock the WDT and be able to stop ILO.
 149:.\Generated_Source\PSoC4/CyLib.c **** *
 150:.\Generated_Source\PSoC4/CyLib.c **** *  PSoC 4100 / PSoC 4200: Note that ILO is required for WDT's operation.
 151:.\Generated_Source\PSoC4/CyLib.c **** *  The ILO is required for the WDT operation.
 152:.\Generated_Source\PSoC4/CyLib.c **** *
 153:.\Generated_Source\PSoC4/CyLib.c **** *  PSoC 4100-BL / PSoC 4200-BL:
 154:.\Generated_Source\PSoC4/CyLib.c **** *  Stopping the ILO will affect the peripheral clocked by the LFCLK, if the
 155:.\Generated_Source\PSoC4/CyLib.c **** *  LFCLK is configured to be sourced by the ILO.
 156:.\Generated_Source\PSoC4/CyLib.c **** *
 157:.\Generated_Source\PSoC4/CyLib.c **** *******************************************************************************/
 158:.\Generated_Source\PSoC4/CyLib.c **** void CySysClkIloStop(void)
 159:.\Generated_Source\PSoC4/CyLib.c **** {
 354              		.loc 2 159 0
 355              		.cfi_startproc
 356 0000 90B5     		push	{r4, r7, lr}
 357              		.cfi_def_cfa_offset 12
 358              		.cfi_offset 4, -12
 359              		.cfi_offset 7, -8
 360              		.cfi_offset 14, -4
 361 0002 83B0     		sub	sp, sp, #12
 362              		.cfi_def_cfa_offset 24
 363 0004 00AF     		add	r7, sp, #0
 364              		.cfi_def_cfa_register 7
 160:.\Generated_Source\PSoC4/CyLib.c ****     #if(CY_IP_SRSSV2)
 161:.\Generated_Source\PSoC4/CyLib.c ****         uint8  interruptState;
 162:.\Generated_Source\PSoC4/CyLib.c **** 
 163:.\Generated_Source\PSoC4/CyLib.c ****         /* Do nothing if WDT is locked or ILO is disabled */
 164:.\Generated_Source\PSoC4/CyLib.c ****         if (0u == CySysWdtLocked())
 365              		.loc 2 164 0
 366 0006 FFF7FEFF 		bl	CySysWdtLocked
 367 000a 031E     		sub	r3, r0, #0
 368 000c 22D1     		bne	.L16
 165:.\Generated_Source\PSoC4/CyLib.c ****         {
 166:.\Generated_Source\PSoC4/CyLib.c ****             if (0u != CySysClkIloEnabled())
 369              		.loc 2 166 0
 370 000e FFF7FEFF 		bl	CySysClkIloEnabled
 371 0012 031E     		sub	r3, r0, #0
ARM GAS  C:\Users\CHRIST~1\AppData\Local\Temp\cc8KQrfd.s 			page 27


 372 0014 1ED0     		beq	.L16
 167:.\Generated_Source\PSoC4/CyLib.c ****             {
 168:.\Generated_Source\PSoC4/CyLib.c **** 
 169:.\Generated_Source\PSoC4/CyLib.c ****             #if (CY_IP_WCO)
 170:.\Generated_Source\PSoC4/CyLib.c ****                 if (CY_SYS_CLK_LFCLK_SRC_ILO == CySysClkGetLfclkSource())
 373              		.loc 2 170 0
 374 0016 FFF7FEFF 		bl	CySysClkGetLfclkSource
 375 001a 031E     		sub	r3, r0, #0
 376 001c 14D1     		bne	.L18
 171:.\Generated_Source\PSoC4/CyLib.c ****                 {
 172:.\Generated_Source\PSoC4/CyLib.c ****             #endif /* (CY_IP_WCO) */
 173:.\Generated_Source\PSoC4/CyLib.c **** 
 174:.\Generated_Source\PSoC4/CyLib.c ****                 interruptState = CyEnterCriticalSection();
 377              		.loc 2 174 0
 378 001e FC1D     		add	r4, r7, #7
 379 0020 FFF7FEFF 		bl	CyEnterCriticalSection
 380 0024 031C     		mov	r3, r0
 381 0026 2370     		strb	r3, [r4]
 175:.\Generated_Source\PSoC4/CyLib.c ****                 CySysClkLfclkPosedgeCatch();
 382              		.loc 2 175 0
 383 0028 FFF7FEFF 		bl	CySysClkLfclkPosedgeCatch
 176:.\Generated_Source\PSoC4/CyLib.c ****                 CY_SYS_CLK_ILO_CONFIG_REG &= ( uint32 ) ( ~( uint32 )CY_SYS_CLK_ILO_CONFIG_ENABLE);
 384              		.loc 2 176 0
 385 002c 0B4B     		ldr	r3, .L19
 386 002e 0B4A     		ldr	r2, .L19
 387 0030 1268     		ldr	r2, [r2]
 388 0032 5200     		lsl	r2, r2, #1
 389 0034 5208     		lsr	r2, r2, #1
 390 0036 1A60     		str	r2, [r3]
 177:.\Generated_Source\PSoC4/CyLib.c ****                 CySysClkLfclkPosedgeRestore();
 391              		.loc 2 177 0
 392 0038 FFF7FEFF 		bl	CySysClkLfclkPosedgeRestore
 178:.\Generated_Source\PSoC4/CyLib.c ****                 CyExitCriticalSection(interruptState);
 393              		.loc 2 178 0
 394 003c FB1D     		add	r3, r7, #7
 395 003e 1B78     		ldrb	r3, [r3]
 396 0040 181C     		mov	r0, r3
 397 0042 FFF7FEFF 		bl	CyExitCriticalSection
 398 0046 05E0     		b	.L16
 399              	.L18:
 179:.\Generated_Source\PSoC4/CyLib.c **** 
 180:.\Generated_Source\PSoC4/CyLib.c ****             #if (CY_IP_WCO)
 181:.\Generated_Source\PSoC4/CyLib.c ****                 }
 182:.\Generated_Source\PSoC4/CyLib.c ****                 else /* Safe to disable - shortened pulse does not impact peripheral */
 183:.\Generated_Source\PSoC4/CyLib.c ****                 {
 184:.\Generated_Source\PSoC4/CyLib.c ****                     CY_SYS_CLK_ILO_CONFIG_REG &= ( uint32 ) ( ~( uint32 )CY_SYS_CLK_ILO_CONFIG_ENAB
 400              		.loc 2 184 0
 401 0048 044B     		ldr	r3, .L19
 402 004a 044A     		ldr	r2, .L19
 403 004c 1268     		ldr	r2, [r2]
 404 004e 5200     		lsl	r2, r2, #1
 405 0050 5208     		lsr	r2, r2, #1
 406 0052 1A60     		str	r2, [r3]
 407              	.L16:
 185:.\Generated_Source\PSoC4/CyLib.c ****                 }
 186:.\Generated_Source\PSoC4/CyLib.c ****             #endif /* (CY_IP_WCO) */
 187:.\Generated_Source\PSoC4/CyLib.c **** 
ARM GAS  C:\Users\CHRIST~1\AppData\Local\Temp\cc8KQrfd.s 			page 28


 188:.\Generated_Source\PSoC4/CyLib.c ****             }
 189:.\Generated_Source\PSoC4/CyLib.c ****         }
 190:.\Generated_Source\PSoC4/CyLib.c ****     #else
 191:.\Generated_Source\PSoC4/CyLib.c ****         CY_SYS_CLK_ILO_CONFIG_REG &= ( uint32 ) ( ~( uint32 )CY_SYS_CLK_ILO_CONFIG_ENABLE);
 192:.\Generated_Source\PSoC4/CyLib.c ****     #endif /* (CY_IP_SRSSV2) */
 193:.\Generated_Source\PSoC4/CyLib.c **** }
 408              		.loc 2 193 0
 409 0054 BD46     		mov	sp, r7
 410 0056 03B0     		add	sp, sp, #12
 411              		@ sp needed
 412 0058 90BD     		pop	{r4, r7, pc}
 413              	.L20:
 414 005a C046     		.align	2
 415              	.L19:
 416 005c 04010B40 		.word	1074462980
 417              		.cfi_endproc
 418              	.LFE5:
 419              		.size	CySysClkIloStop, .-CySysClkIloStop
 420              		.section	.text.CySysClkIloEnabled,"ax",%progbits
 421              		.align	2
 422              		.code	16
 423              		.thumb_func
 424              		.type	CySysClkIloEnabled, %function
 425              	CySysClkIloEnabled:
 426              	.LFB6:
 194:.\Generated_Source\PSoC4/CyLib.c **** 
 195:.\Generated_Source\PSoC4/CyLib.c **** #if(CY_IP_SRSSV2)
 196:.\Generated_Source\PSoC4/CyLib.c ****     /*******************************************************************************
 197:.\Generated_Source\PSoC4/CyLib.c ****     * Function Name: CySysClkIloEnabled
 198:.\Generated_Source\PSoC4/CyLib.c ****     ********************************************************************************
 199:.\Generated_Source\PSoC4/CyLib.c ****     *
 200:.\Generated_Source\PSoC4/CyLib.c ****     * Summary:
 201:.\Generated_Source\PSoC4/CyLib.c ****     *  Reports ILO enable state.
 202:.\Generated_Source\PSoC4/CyLib.c ****     *
 203:.\Generated_Source\PSoC4/CyLib.c ****     * Parameters:
 204:.\Generated_Source\PSoC4/CyLib.c ****     *  None
 205:.\Generated_Source\PSoC4/CyLib.c ****     *
 206:.\Generated_Source\PSoC4/CyLib.c ****     * Return:
 207:.\Generated_Source\PSoC4/CyLib.c ****     *  1 if ILO is enabled, and 0 if ILO is disabled.
 208:.\Generated_Source\PSoC4/CyLib.c ****     *
 209:.\Generated_Source\PSoC4/CyLib.c ****     *******************************************************************************/
 210:.\Generated_Source\PSoC4/CyLib.c ****     static uint32 CySysClkIloEnabled(void)
 211:.\Generated_Source\PSoC4/CyLib.c ****     {
 427              		.loc 2 211 0
 428              		.cfi_startproc
 429 0000 80B5     		push	{r7, lr}
 430              		.cfi_def_cfa_offset 8
 431              		.cfi_offset 7, -8
 432              		.cfi_offset 14, -4
 433 0002 00AF     		add	r7, sp, #0
 434              		.cfi_def_cfa_register 7
 212:.\Generated_Source\PSoC4/CyLib.c ****         /* Prohibits writing to WDT registers and ILO/WCO registers when not equal 0 */
 213:.\Generated_Source\PSoC4/CyLib.c ****         return ((0u != (CY_SYS_CLK_ILO_CONFIG_REG & (uint32)(CY_SYS_CLK_ILO_CONFIG_ENABLE))) ?
 435              		.loc 2 213 0
 436 0004 044B     		ldr	r3, .L25
 437 0006 1B68     		ldr	r3, [r3]
 214:.\Generated_Source\PSoC4/CyLib.c ****             (uint32) 1u :
ARM GAS  C:\Users\CHRIST~1\AppData\Local\Temp\cc8KQrfd.s 			page 29


 438              		.loc 2 214 0
 439 0008 002B     		cmp	r3, #0
 440 000a 01DA     		bge	.L22
 441              		.loc 2 214 0 is_stmt 0 discriminator 1
 442 000c 0123     		mov	r3, #1
 443 000e 00E0     		b	.L23
 444              	.L22:
 445              		.loc 2 214 0 discriminator 2
 446 0010 0023     		mov	r3, #0
 447              	.L23:
 215:.\Generated_Source\PSoC4/CyLib.c ****             (uint32) 0u);
 216:.\Generated_Source\PSoC4/CyLib.c ****     }
 448              		.loc 2 216 0 is_stmt 1
 449 0012 181C     		mov	r0, r3
 450 0014 BD46     		mov	sp, r7
 451              		@ sp needed
 452 0016 80BD     		pop	{r7, pc}
 453              	.L26:
 454              		.align	2
 455              	.L25:
 456 0018 04010B40 		.word	1074462980
 457              		.cfi_endproc
 458              	.LFE6:
 459              		.size	CySysClkIloEnabled, .-CySysClkIloEnabled
 460              		.section	.text.CySysClkGetLfclkSource,"ax",%progbits
 461              		.align	2
 462              		.code	16
 463              		.thumb_func
 464              		.type	CySysClkGetLfclkSource, %function
 465              	CySysClkGetLfclkSource:
 466              	.LFB7:
 217:.\Generated_Source\PSoC4/CyLib.c **** #endif /* (CY_IP_SRSSV2) */
 218:.\Generated_Source\PSoC4/CyLib.c **** 
 219:.\Generated_Source\PSoC4/CyLib.c **** 
 220:.\Generated_Source\PSoC4/CyLib.c **** /*******************************************************************************
 221:.\Generated_Source\PSoC4/CyLib.c **** * Function Name: CySysClkGetLfclkSource
 222:.\Generated_Source\PSoC4/CyLib.c **** ********************************************************************************
 223:.\Generated_Source\PSoC4/CyLib.c **** *
 224:.\Generated_Source\PSoC4/CyLib.c **** * Summary:
 225:.\Generated_Source\PSoC4/CyLib.c **** *  Gets the clock source for the LFCLK clock.
 226:.\Generated_Source\PSoC4/CyLib.c **** *  The function is applicable only for the PSoC 4100-BL and PSoC 4200-BL.
 227:.\Generated_Source\PSoC4/CyLib.c **** *
 228:.\Generated_Source\PSoC4/CyLib.c **** * Parameters:
 229:.\Generated_Source\PSoC4/CyLib.c **** *  None
 230:.\Generated_Source\PSoC4/CyLib.c **** *
 231:.\Generated_Source\PSoC4/CyLib.c **** * Return:
 232:.\Generated_Source\PSoC4/CyLib.c **** *  The LFCLK source:
 233:.\Generated_Source\PSoC4/CyLib.c **** *   CY_SYS_CLK_LFCLK_SRC_ILO    Internal Low Frequency (32 kHz) Oscillator (ILO)
 234:.\Generated_Source\PSoC4/CyLib.c **** *   CY_SYS_CLK_LFCLK_SRC_WCO    Low Frequency Watch Crystal Oscillator (WCO)
 235:.\Generated_Source\PSoC4/CyLib.c **** *
 236:.\Generated_Source\PSoC4/CyLib.c **** *******************************************************************************/
 237:.\Generated_Source\PSoC4/CyLib.c **** #if (CY_IP_WCO)
 238:.\Generated_Source\PSoC4/CyLib.c ****     static uint32 CySysClkGetLfclkSource(void)
 239:.\Generated_Source\PSoC4/CyLib.c ****     {
 467              		.loc 2 239 0
 468              		.cfi_startproc
 469 0000 80B5     		push	{r7, lr}
ARM GAS  C:\Users\CHRIST~1\AppData\Local\Temp\cc8KQrfd.s 			page 30


 470              		.cfi_def_cfa_offset 8
 471              		.cfi_offset 7, -8
 472              		.cfi_offset 14, -4
 473 0002 82B0     		sub	sp, sp, #8
 474              		.cfi_def_cfa_offset 16
 475 0004 00AF     		add	r7, sp, #0
 476              		.cfi_def_cfa_register 7
 240:.\Generated_Source\PSoC4/CyLib.c ****         uint32 lfclkSource;
 241:.\Generated_Source\PSoC4/CyLib.c ****         lfclkSource = CY_SYS_WDT_CONFIG_REG & CY_SYS_CLK_LFCLK_SEL_MASK;
 477              		.loc 2 241 0
 478 0006 054B     		ldr	r3, .L29
 479 0008 1B68     		ldr	r3, [r3]
 480 000a 9B0F     		lsr	r3, r3, #30
 481 000c 9B07     		lsl	r3, r3, #30
 482 000e 7B60     		str	r3, [r7, #4]
 242:.\Generated_Source\PSoC4/CyLib.c ****         return (lfclkSource);
 483              		.loc 2 242 0
 484 0010 7B68     		ldr	r3, [r7, #4]
 243:.\Generated_Source\PSoC4/CyLib.c ****     }
 485              		.loc 2 243 0
 486 0012 181C     		mov	r0, r3
 487 0014 BD46     		mov	sp, r7
 488 0016 02B0     		add	sp, sp, #8
 489              		@ sp needed
 490 0018 80BD     		pop	{r7, pc}
 491              	.L30:
 492 001a C046     		.align	2
 493              	.L29:
 494 001c 0C020B40 		.word	1074463244
 495              		.cfi_endproc
 496              	.LFE7:
 497              		.size	CySysClkGetLfclkSource, .-CySysClkGetLfclkSource
 498              		.section	.text.CySysClkSetLfclkSource,"ax",%progbits
 499              		.align	2
 500              		.global	CySysClkSetLfclkSource
 501              		.code	16
 502              		.thumb_func
 503              		.type	CySysClkSetLfclkSource, %function
 504              	CySysClkSetLfclkSource:
 505              	.LFB8:
 244:.\Generated_Source\PSoC4/CyLib.c **** #endif /* (CY_IP_WCO) */
 245:.\Generated_Source\PSoC4/CyLib.c **** 
 246:.\Generated_Source\PSoC4/CyLib.c **** 
 247:.\Generated_Source\PSoC4/CyLib.c **** /*******************************************************************************
 248:.\Generated_Source\PSoC4/CyLib.c **** * Function Name: CySysClkSetLfclkSource
 249:.\Generated_Source\PSoC4/CyLib.c **** ********************************************************************************
 250:.\Generated_Source\PSoC4/CyLib.c **** *
 251:.\Generated_Source\PSoC4/CyLib.c **** * Summary:
 252:.\Generated_Source\PSoC4/CyLib.c **** *  Sets the clock source for the LFCLK clock.
 253:.\Generated_Source\PSoC4/CyLib.c **** *
 254:.\Generated_Source\PSoC4/CyLib.c **** *  The switch between LFCLK sources must be done between positive edges of
 255:.\Generated_Source\PSoC4/CyLib.c **** *  the LFCLK, because the glitch risk is around LFCLK positive edge. To ensure
 256:.\Generated_Source\PSoC4/CyLib.c **** *  that the switch can be done safely, the WDT counter value is read until it
 257:.\Generated_Source\PSoC4/CyLib.c **** *  changes.
 258:.\Generated_Source\PSoC4/CyLib.c **** *
 259:.\Generated_Source\PSoC4/CyLib.c **** *  That means that the positive edge just finished and the switch is performed.
 260:.\Generated_Source\PSoC4/CyLib.c **** *  The enabled WDT counter is used for that purpose. If no counters are enabled,
ARM GAS  C:\Users\CHRIST~1\AppData\Local\Temp\cc8KQrfd.s 			page 31


 261:.\Generated_Source\PSoC4/CyLib.c **** *  the counter 0 is enabled. And after LFCLK source is switched, the counter 0
 262:.\Generated_Source\PSoC4/CyLib.c **** *  configuration is restored back.
 263:.\Generated_Source\PSoC4/CyLib.c **** *
 264:.\Generated_Source\PSoC4/CyLib.c **** *  The function is applicable only for the PSoC 4100-BL and PSoC 4200-BL.
 265:.\Generated_Source\PSoC4/CyLib.c **** *
 266:.\Generated_Source\PSoC4/CyLib.c **** * Parameters:
 267:.\Generated_Source\PSoC4/CyLib.c **** *  source: One of the available LFCLK sources.
 268:.\Generated_Source\PSoC4/CyLib.c **** *   CY_SYS_CLK_LFCLK_SRC_ILO    Internal Low Frequency (32 kHz) Oscillator (ILO)
 269:.\Generated_Source\PSoC4/CyLib.c **** *   CY_SYS_CLK_LFCLK_SRC_WCO    Low Frequency Watch Crystal Oscillator (WCO)
 270:.\Generated_Source\PSoC4/CyLib.c **** *
 271:.\Generated_Source\PSoC4/CyLib.c **** * Return:
 272:.\Generated_Source\PSoC4/CyLib.c **** *  None
 273:.\Generated_Source\PSoC4/CyLib.c **** *
 274:.\Generated_Source\PSoC4/CyLib.c **** * Side Effects:
 275:.\Generated_Source\PSoC4/CyLib.c **** *  This function will have no effect if the WDT is locked (CySysWdtLock() is
 276:.\Generated_Source\PSoC4/CyLib.c **** *  called). Call CySysWdtUnlock() to unlock the WDT.
 277:.\Generated_Source\PSoC4/CyLib.c **** *
 278:.\Generated_Source\PSoC4/CyLib.c **** *  The current source and the new source must both be running and stable before
 279:.\Generated_Source\PSoC4/CyLib.c **** *  calling this function.
 280:.\Generated_Source\PSoC4/CyLib.c **** *
 281:.\Generated_Source\PSoC4/CyLib.c **** *  Changing the LFCLK clock source may change the LFCLK clock frequency and
 282:.\Generated_Source\PSoC4/CyLib.c **** *  affect the functionality that uses this clock. For example, watchdog timer
 283:.\Generated_Source\PSoC4/CyLib.c **** *  (WDT) is clocked by LFCLK.
 284:.\Generated_Source\PSoC4/CyLib.c **** *
 285:.\Generated_Source\PSoC4/CyLib.c **** *******************************************************************************/
 286:.\Generated_Source\PSoC4/CyLib.c **** #if (CY_IP_WCO)
 287:.\Generated_Source\PSoC4/CyLib.c ****     void CySysClkSetLfclkSource(uint32 source)
 288:.\Generated_Source\PSoC4/CyLib.c ****     {
 506              		.loc 2 288 0
 507              		.cfi_startproc
 508 0000 90B5     		push	{r4, r7, lr}
 509              		.cfi_def_cfa_offset 12
 510              		.cfi_offset 4, -12
 511              		.cfi_offset 7, -8
 512              		.cfi_offset 14, -4
 513 0002 85B0     		sub	sp, sp, #20
 514              		.cfi_def_cfa_offset 32
 515 0004 00AF     		add	r7, sp, #0
 516              		.cfi_def_cfa_register 7
 517 0006 7860     		str	r0, [r7, #4]
 289:.\Generated_Source\PSoC4/CyLib.c ****         uint8  interruptState;
 290:.\Generated_Source\PSoC4/CyLib.c **** 
 291:.\Generated_Source\PSoC4/CyLib.c ****         if (CySysClkGetLfclkSource() != source)
 518              		.loc 2 291 0
 519 0008 FFF7FEFF 		bl	CySysClkGetLfclkSource
 520 000c 021E     		sub	r2, r0, #0
 521 000e 7B68     		ldr	r3, [r7, #4]
 522 0010 9A42     		cmp	r2, r3
 523 0012 19D0     		beq	.L31
 292:.\Generated_Source\PSoC4/CyLib.c ****         {
 293:.\Generated_Source\PSoC4/CyLib.c ****             interruptState = CyEnterCriticalSection();
 524              		.loc 2 293 0
 525 0014 0F23     		mov	r3, #15
 526 0016 FC18     		add	r4, r7, r3
 527 0018 FFF7FEFF 		bl	CyEnterCriticalSection
 528 001c 031C     		mov	r3, r0
 529 001e 2370     		strb	r3, [r4]
ARM GAS  C:\Users\CHRIST~1\AppData\Local\Temp\cc8KQrfd.s 			page 32


 294:.\Generated_Source\PSoC4/CyLib.c **** 
 295:.\Generated_Source\PSoC4/CyLib.c ****             CySysClkLfclkPosedgeCatch();
 530              		.loc 2 295 0
 531 0020 FFF7FEFF 		bl	CySysClkLfclkPosedgeCatch
 296:.\Generated_Source\PSoC4/CyLib.c **** 
 297:.\Generated_Source\PSoC4/CyLib.c ****             CY_SYS_WDT_CONFIG_REG = (CY_SYS_WDT_CONFIG_REG & (uint32)(~CY_SYS_CLK_LFCLK_SEL_MASK)) 
 532              		.loc 2 297 0
 533 0024 0A4B     		ldr	r3, .L33
 534 0026 0A4A     		ldr	r2, .L33
 535 0028 1268     		ldr	r2, [r2]
 536 002a 9200     		lsl	r2, r2, #2
 537 002c 9108     		lsr	r1, r2, #2
 298:.\Generated_Source\PSoC4/CyLib.c ****                                     (source & CY_SYS_CLK_LFCLK_SEL_MASK);
 538              		.loc 2 298 0
 539 002e 7A68     		ldr	r2, [r7, #4]
 540 0030 920F     		lsr	r2, r2, #30
 541 0032 9207     		lsl	r2, r2, #30
 297:.\Generated_Source\PSoC4/CyLib.c ****                                     (source & CY_SYS_CLK_LFCLK_SEL_MASK);
 542              		.loc 2 297 0
 543 0034 0A43     		orr	r2, r1
 544 0036 1A60     		str	r2, [r3]
 299:.\Generated_Source\PSoC4/CyLib.c **** 
 300:.\Generated_Source\PSoC4/CyLib.c ****             CySysClkLfclkPosedgeRestore();
 545              		.loc 2 300 0
 546 0038 FFF7FEFF 		bl	CySysClkLfclkPosedgeRestore
 301:.\Generated_Source\PSoC4/CyLib.c **** 
 302:.\Generated_Source\PSoC4/CyLib.c ****             CyExitCriticalSection(interruptState);
 547              		.loc 2 302 0
 548 003c 0F23     		mov	r3, #15
 549 003e FB18     		add	r3, r7, r3
 550 0040 1B78     		ldrb	r3, [r3]
 551 0042 181C     		mov	r0, r3
 552 0044 FFF7FEFF 		bl	CyExitCriticalSection
 553              	.L31:
 303:.\Generated_Source\PSoC4/CyLib.c ****         }
 304:.\Generated_Source\PSoC4/CyLib.c ****     }
 554              		.loc 2 304 0
 555 0048 BD46     		mov	sp, r7
 556 004a 05B0     		add	sp, sp, #20
 557              		@ sp needed
 558 004c 90BD     		pop	{r4, r7, pc}
 559              	.L34:
 560 004e C046     		.align	2
 561              	.L33:
 562 0050 0C020B40 		.word	1074463244
 563              		.cfi_endproc
 564              	.LFE8:
 565              		.size	CySysClkSetLfclkSource, .-CySysClkSetLfclkSource
 566              		.section	.text.CySysClkWriteHfclkDirect,"ax",%progbits
 567              		.align	2
 568              		.global	CySysClkWriteHfclkDirect
 569              		.code	16
 570              		.thumb_func
 571              		.type	CySysClkWriteHfclkDirect, %function
 572              	CySysClkWriteHfclkDirect:
 573              	.LFB9:
 305:.\Generated_Source\PSoC4/CyLib.c **** #endif /* (CY_IP_WCO) */
ARM GAS  C:\Users\CHRIST~1\AppData\Local\Temp\cc8KQrfd.s 			page 33


 306:.\Generated_Source\PSoC4/CyLib.c **** 
 307:.\Generated_Source\PSoC4/CyLib.c **** 
 308:.\Generated_Source\PSoC4/CyLib.c **** /*******************************************************************************
 309:.\Generated_Source\PSoC4/CyLib.c **** * Function Name: CySysClkWriteHfclkDirect
 310:.\Generated_Source\PSoC4/CyLib.c **** ********************************************************************************
 311:.\Generated_Source\PSoC4/CyLib.c **** *
 312:.\Generated_Source\PSoC4/CyLib.c **** * Summary:
 313:.\Generated_Source\PSoC4/CyLib.c **** *  Selects the direct source for the HFCLK.
 314:.\Generated_Source\PSoC4/CyLib.c **** *
 315:.\Generated_Source\PSoC4/CyLib.c **** * Parameters:
 316:.\Generated_Source\PSoC4/CyLib.c **** *  clkSelect: One of the available HFCLK direct sources:
 317:.\Generated_Source\PSoC4/CyLib.c **** *   Define                    Source
 318:.\Generated_Source\PSoC4/CyLib.c **** *    CY_SYS_CLK_HFCLK_IMO      IMO
 319:.\Generated_Source\PSoC4/CyLib.c **** *    CY_SYS_CLK_HFCLK_EXTCLK   External clock pin
 320:.\Generated_Source\PSoC4/CyLib.c **** *    CY_SYS_CLK_HFCLK_ECO      External crystal oscillator
 321:.\Generated_Source\PSoC4/CyLib.c **** *                                           (applicable only for PSoC 4200-BL)
 322:.\Generated_Source\PSoC4/CyLib.c **** *
 323:.\Generated_Source\PSoC4/CyLib.c **** * Return:
 324:.\Generated_Source\PSoC4/CyLib.c **** *  None
 325:.\Generated_Source\PSoC4/CyLib.c **** *
 326:.\Generated_Source\PSoC4/CyLib.c **** * Side Effects:
 327:.\Generated_Source\PSoC4/CyLib.c **** *  The new source must be running and stable before calling this function.
 328:.\Generated_Source\PSoC4/CyLib.c **** *
 329:.\Generated_Source\PSoC4/CyLib.c **** *  PSoC 4000:
 330:.\Generated_Source\PSoC4/CyLib.c **** *  The SYSCLK has a maximum speed of 16 MHz, so HFCLK and SYSCLK dividers should
 331:.\Generated_Source\PSoC4/CyLib.c **** *  be selected in a way to not to exceed 16 MHz for the System clock.
 332:.\Generated_Source\PSoC4/CyLib.c **** *
 333:.\Generated_Source\PSoC4/CyLib.c **** *  If the SYSCLK clock frequency increases during device operation, call
 334:.\Generated_Source\PSoC4/CyLib.c **** *  CySysFlashSetWaitCycles() with the appropriate parameter to adjust the number
 335:.\Generated_Source\PSoC4/CyLib.c **** *  of clock cycles the cache will wait before sampling data comes back from Flash.
 336:.\Generated_Source\PSoC4/CyLib.c **** *  If the SYSCLK clock frequency decreases, you can call
 337:.\Generated_Source\PSoC4/CyLib.c **** *  CySysFlashSetWaitCycles() to improve the CPU performance. See
 338:.\Generated_Source\PSoC4/CyLib.c **** *  CySysFlashSetWaitCycles() description for more information.
 339:.\Generated_Source\PSoC4/CyLib.c **** *
 340:.\Generated_Source\PSoC4/CyLib.c **** *******************************************************************************/
 341:.\Generated_Source\PSoC4/CyLib.c **** void CySysClkWriteHfclkDirect(uint32 clkSelect)
 342:.\Generated_Source\PSoC4/CyLib.c **** {
 574              		.loc 2 342 0
 575              		.cfi_startproc
 576 0000 90B5     		push	{r4, r7, lr}
 577              		.cfi_def_cfa_offset 12
 578              		.cfi_offset 4, -12
 579              		.cfi_offset 7, -8
 580              		.cfi_offset 14, -4
 581 0002 85B0     		sub	sp, sp, #20
 582              		.cfi_def_cfa_offset 32
 583 0004 00AF     		add	r7, sp, #0
 584              		.cfi_def_cfa_register 7
 585 0006 7860     		str	r0, [r7, #4]
 343:.\Generated_Source\PSoC4/CyLib.c ****     uint8  interruptState;
 344:.\Generated_Source\PSoC4/CyLib.c **** 
 345:.\Generated_Source\PSoC4/CyLib.c ****     interruptState = CyEnterCriticalSection();
 586              		.loc 2 345 0
 587 0008 0F23     		mov	r3, #15
 588 000a FC18     		add	r4, r7, r3
 589 000c FFF7FEFF 		bl	CyEnterCriticalSection
 590 0010 031C     		mov	r3, r0
ARM GAS  C:\Users\CHRIST~1\AppData\Local\Temp\cc8KQrfd.s 			page 34


 591 0012 2370     		strb	r3, [r4]
 346:.\Generated_Source\PSoC4/CyLib.c **** 
 347:.\Generated_Source\PSoC4/CyLib.c ****     CY_SYS_CLK_SELECT_REG = ((CY_SYS_CLK_SELECT_REG & (( uint32 ) ~(( uint32 )CY_SYS_CLK_SELECT_DIR
 592              		.loc 2 347 0
 593 0014 094B     		ldr	r3, .L36
 594 0016 094A     		ldr	r2, .L36
 595 0018 1268     		ldr	r2, [r2]
 596 001a 0721     		mov	r1, #7
 597 001c 8A43     		bic	r2, r1
 598 001e 111C     		mov	r1, r2
 348:.\Generated_Source\PSoC4/CyLib.c ****                         (( uint32 ) (clkSelect & ( uint32 )CY_SYS_CLK_SELECT_DIRECT_SEL_PARAM_MASK)
 599              		.loc 2 348 0
 600 0020 7A68     		ldr	r2, [r7, #4]
 601 0022 0320     		mov	r0, #3
 602 0024 0240     		and	r2, r0
 347:.\Generated_Source\PSoC4/CyLib.c ****                         (( uint32 ) (clkSelect & ( uint32 )CY_SYS_CLK_SELECT_DIRECT_SEL_PARAM_MASK)
 603              		.loc 2 347 0
 604 0026 0A43     		orr	r2, r1
 605 0028 1A60     		str	r2, [r3]
 349:.\Generated_Source\PSoC4/CyLib.c **** 
 350:.\Generated_Source\PSoC4/CyLib.c ****     CyExitCriticalSection(interruptState);
 606              		.loc 2 350 0
 607 002a 0F23     		mov	r3, #15
 608 002c FB18     		add	r3, r7, r3
 609 002e 1B78     		ldrb	r3, [r3]
 610 0030 181C     		mov	r0, r3
 611 0032 FFF7FEFF 		bl	CyExitCriticalSection
 351:.\Generated_Source\PSoC4/CyLib.c **** }
 612              		.loc 2 351 0
 613 0036 BD46     		mov	sp, r7
 614 0038 05B0     		add	sp, sp, #20
 615              		@ sp needed
 616 003a 90BD     		pop	{r4, r7, pc}
 617              	.L37:
 618              		.align	2
 619              	.L36:
 620 003c 00010B40 		.word	1074462976
 621              		.cfi_endproc
 622              	.LFE9:
 623              		.size	CySysClkWriteHfclkDirect, .-CySysClkWriteHfclkDirect
 624              		.section	.text.CySysClkWriteSysclkDiv,"ax",%progbits
 625              		.align	2
 626              		.global	CySysClkWriteSysclkDiv
 627              		.code	16
 628              		.thumb_func
 629              		.type	CySysClkWriteSysclkDiv, %function
 630              	CySysClkWriteSysclkDiv:
 631              	.LFB10:
 352:.\Generated_Source\PSoC4/CyLib.c **** 
 353:.\Generated_Source\PSoC4/CyLib.c **** 
 354:.\Generated_Source\PSoC4/CyLib.c **** /*******************************************************************************
 355:.\Generated_Source\PSoC4/CyLib.c **** * Function Name: CySysClkWriteSysclkDiv
 356:.\Generated_Source\PSoC4/CyLib.c **** ********************************************************************************
 357:.\Generated_Source\PSoC4/CyLib.c **** *
 358:.\Generated_Source\PSoC4/CyLib.c **** * Summary:
 359:.\Generated_Source\PSoC4/CyLib.c **** *  Selects the prescaler divide amount for SYSCLK from HFCLK.
 360:.\Generated_Source\PSoC4/CyLib.c **** *
ARM GAS  C:\Users\CHRIST~1\AppData\Local\Temp\cc8KQrfd.s 			page 35


 361:.\Generated_Source\PSoC4/CyLib.c **** * Parameters:
 362:.\Generated_Source\PSoC4/CyLib.c **** *  divider: Power of 2 prescaler selection
 363:.\Generated_Source\PSoC4/CyLib.c **** *
 364:.\Generated_Source\PSoC4/CyLib.c **** *   Define                        Description
 365:.\Generated_Source\PSoC4/CyLib.c **** *   CY_SYS_CLK_SYSCLK_DIV1        SYSCLK = HFCLK / 1
 366:.\Generated_Source\PSoC4/CyLib.c **** *   CY_SYS_CLK_SYSCLK_DIV2        SYSCLK = HFCLK / 2
 367:.\Generated_Source\PSoC4/CyLib.c **** *   CY_SYS_CLK_SYSCLK_DIV4        SYSCLK = HFCLK / 4
 368:.\Generated_Source\PSoC4/CyLib.c **** *   CY_SYS_CLK_SYSCLK_DIV8        SYSCLK = HFCLK / 8
 369:.\Generated_Source\PSoC4/CyLib.c **** *   CY_SYS_CLK_SYSCLK_DIV16       SYSCLK = HFCLK / 16  (N/A for 4000 Family)
 370:.\Generated_Source\PSoC4/CyLib.c **** *   CY_SYS_CLK_SYSCLK_DIV32       SYSCLK = HFCLK / 32  (N/A for 4000 Family)
 371:.\Generated_Source\PSoC4/CyLib.c **** *   CY_SYS_CLK_SYSCLK_DIV64       SYSCLK = HFCLK / 64  (N/A for 4000 Family)
 372:.\Generated_Source\PSoC4/CyLib.c **** *   CY_SYS_CLK_SYSCLK_DIV128      SYSCLK = HFCLK / 128 (N/A for 4000 Family)
 373:.\Generated_Source\PSoC4/CyLib.c **** *
 374:.\Generated_Source\PSoC4/CyLib.c **** * Return:
 375:.\Generated_Source\PSoC4/CyLib.c **** *  None
 376:.\Generated_Source\PSoC4/CyLib.c **** *
 377:.\Generated_Source\PSoC4/CyLib.c **** * Side Effects:
 378:.\Generated_Source\PSoC4/CyLib.c **** *  4000 Family:
 379:.\Generated_Source\PSoC4/CyLib.c **** *  The SYS_CLK has the speed of 16 MHz, so dividers HF_CLK and SYS_CLK
 380:.\Generated_Source\PSoC4/CyLib.c **** *  dividers should be selected in a way, not to exceed 16 MHz for SYS_CLK.
 381:.\Generated_Source\PSoC4/CyLib.c **** *
 382:.\Generated_Source\PSoC4/CyLib.c **** *  If the SYSCLK clock frequency increases during the device operation, call
 383:.\Generated_Source\PSoC4/CyLib.c **** *  CySysFlashSetWaitCycles() with the appropriate parameter to adjust the number
 384:.\Generated_Source\PSoC4/CyLib.c **** *  of clock cycles the cache will wait before sampling data comes back from Flash.
 385:.\Generated_Source\PSoC4/CyLib.c **** *  If the SYSCLK clock frequency decreases, you can call
 386:.\Generated_Source\PSoC4/CyLib.c **** *  CySysFlashSetWaitCycles() to improve the CPU performance. See
 387:.\Generated_Source\PSoC4/CyLib.c **** *  CySysFlashSetWaitCycles() description for more information.
 388:.\Generated_Source\PSoC4/CyLib.c **** *
 389:.\Generated_Source\PSoC4/CyLib.c **** *******************************************************************************/
 390:.\Generated_Source\PSoC4/CyLib.c **** void CySysClkWriteSysclkDiv(uint32 divider)
 391:.\Generated_Source\PSoC4/CyLib.c **** {
 632              		.loc 2 391 0
 633              		.cfi_startproc
 634 0000 90B5     		push	{r4, r7, lr}
 635              		.cfi_def_cfa_offset 12
 636              		.cfi_offset 4, -12
 637              		.cfi_offset 7, -8
 638              		.cfi_offset 14, -4
 639 0002 85B0     		sub	sp, sp, #20
 640              		.cfi_def_cfa_offset 32
 641 0004 00AF     		add	r7, sp, #0
 642              		.cfi_def_cfa_register 7
 643 0006 7860     		str	r0, [r7, #4]
 392:.\Generated_Source\PSoC4/CyLib.c ****     uint8  interruptState;
 393:.\Generated_Source\PSoC4/CyLib.c **** 
 394:.\Generated_Source\PSoC4/CyLib.c ****     interruptState = CyEnterCriticalSection();
 644              		.loc 2 394 0
 645 0008 0F23     		mov	r3, #15
 646 000a FC18     		add	r4, r7, r3
 647 000c FFF7FEFF 		bl	CyEnterCriticalSection
 648 0010 031C     		mov	r3, r0
 649 0012 2370     		strb	r3, [r4]
 395:.\Generated_Source\PSoC4/CyLib.c **** 
 396:.\Generated_Source\PSoC4/CyLib.c ****     CY_SYS_CLK_SELECT_REG = ((uint32)(((uint32)divider & CY_SYS_CLK_SELECT_SYSCLK_DIV_MASK) <<
 650              		.loc 2 396 0
 651 0014 094B     		ldr	r3, .L39
 652 0016 7A68     		ldr	r2, [r7, #4]
ARM GAS  C:\Users\CHRIST~1\AppData\Local\Temp\cc8KQrfd.s 			page 36


 653 0018 0721     		mov	r1, #7
 654 001a 0A40     		and	r2, r1
 655 001c D104     		lsl	r1, r2, #19
 397:.\Generated_Source\PSoC4/CyLib.c ****                                     CY_SYS_CLK_SELECT_SYSCLK_DIV_SHIFT)) |
 398:.\Generated_Source\PSoC4/CyLib.c ****                             (CY_SYS_CLK_SELECT_REG & ((uint32)(~(uint32)(CY_SYS_CLK_SELECT_SYSCLK_D
 656              		.loc 2 398 0
 657 001e 074A     		ldr	r2, .L39
 658 0020 1268     		ldr	r2, [r2]
 659 0022 0748     		ldr	r0, .L39+4
 660 0024 0240     		and	r2, r0
 397:.\Generated_Source\PSoC4/CyLib.c ****                                     CY_SYS_CLK_SELECT_SYSCLK_DIV_SHIFT)) |
 661              		.loc 2 397 0
 662 0026 0A43     		orr	r2, r1
 396:.\Generated_Source\PSoC4/CyLib.c ****                                     CY_SYS_CLK_SELECT_SYSCLK_DIV_SHIFT)) |
 663              		.loc 2 396 0
 664 0028 1A60     		str	r2, [r3]
 399:.\Generated_Source\PSoC4/CyLib.c ****                                     CY_SYS_CLK_SELECT_SYSCLK_DIV_SHIFT))));
 400:.\Generated_Source\PSoC4/CyLib.c **** 
 401:.\Generated_Source\PSoC4/CyLib.c ****     CyExitCriticalSection(interruptState);
 665              		.loc 2 401 0
 666 002a 0F23     		mov	r3, #15
 667 002c FB18     		add	r3, r7, r3
 668 002e 1B78     		ldrb	r3, [r3]
 669 0030 181C     		mov	r0, r3
 670 0032 FFF7FEFF 		bl	CyExitCriticalSection
 402:.\Generated_Source\PSoC4/CyLib.c **** }
 671              		.loc 2 402 0
 672 0036 BD46     		mov	sp, r7
 673 0038 05B0     		add	sp, sp, #20
 674              		@ sp needed
 675 003a 90BD     		pop	{r4, r7, pc}
 676              	.L40:
 677              		.align	2
 678              	.L39:
 679 003c 00010B40 		.word	1074462976
 680 0040 FFFFC7FF 		.word	-3670017
 681              		.cfi_endproc
 682              	.LFE10:
 683              		.size	CySysClkWriteSysclkDiv, .-CySysClkWriteSysclkDiv
 684              		.section	.text.CySysClkWriteImoFreq,"ax",%progbits
 685              		.align	2
 686              		.global	CySysClkWriteImoFreq
 687              		.code	16
 688              		.thumb_func
 689              		.type	CySysClkWriteImoFreq, %function
 690              	CySysClkWriteImoFreq:
 691              	.LFB11:
 403:.\Generated_Source\PSoC4/CyLib.c **** 
 404:.\Generated_Source\PSoC4/CyLib.c **** 
 405:.\Generated_Source\PSoC4/CyLib.c **** #if(CY_IP_SRSSV2)
 406:.\Generated_Source\PSoC4/CyLib.c **** 
 407:.\Generated_Source\PSoC4/CyLib.c ****     /*******************************************************************************
 408:.\Generated_Source\PSoC4/CyLib.c ****     * Function Name: CySysClkWriteImoFreq
 409:.\Generated_Source\PSoC4/CyLib.c ****     ********************************************************************************
 410:.\Generated_Source\PSoC4/CyLib.c ****     *
 411:.\Generated_Source\PSoC4/CyLib.c ****     * Summary:
 412:.\Generated_Source\PSoC4/CyLib.c ****     *  Sets the frequency of the IMO.
ARM GAS  C:\Users\CHRIST~1\AppData\Local\Temp\cc8KQrfd.s 			page 37


 413:.\Generated_Source\PSoC4/CyLib.c ****     *
 414:.\Generated_Source\PSoC4/CyLib.c ****     * Parameters:
 415:.\Generated_Source\PSoC4/CyLib.c ****     *  freq: Valid range [3-48].  Frequency for operation of the IMO.
 416:.\Generated_Source\PSoC4/CyLib.c ****     *  Note: Invalid frequency will be ignored.
 417:.\Generated_Source\PSoC4/CyLib.c ****     *
 418:.\Generated_Source\PSoC4/CyLib.c ****     * Return:
 419:.\Generated_Source\PSoC4/CyLib.c ****     *  None
 420:.\Generated_Source\PSoC4/CyLib.c ****     *
 421:.\Generated_Source\PSoC4/CyLib.c ****     * Side Effects:
 422:.\Generated_Source\PSoC4/CyLib.c ****     *  If the SYSCLK clock frequency increases during the device operation, call
 423:.\Generated_Source\PSoC4/CyLib.c ****     *  CySysFlashSetWaitCycles() with the appropriate parameter to adjust the number
 424:.\Generated_Source\PSoC4/CyLib.c ****     *  of clock cycles the cache will wait before sampling data comes back from Flash.
 425:.\Generated_Source\PSoC4/CyLib.c ****     *  If the SYSCLK clock frequency decreases, you can call
 426:.\Generated_Source\PSoC4/CyLib.c ****     *  CySysFlashSetWaitCycles() to improve the CPU performance.
 427:.\Generated_Source\PSoC4/CyLib.c ****     *  See CySysFlashSetWaitCycles() description for more information.
 428:.\Generated_Source\PSoC4/CyLib.c ****     *
 429:.\Generated_Source\PSoC4/CyLib.c ****     *******************************************************************************/
 430:.\Generated_Source\PSoC4/CyLib.c ****     void CySysClkWriteImoFreq(uint32 freq)
 431:.\Generated_Source\PSoC4/CyLib.c ****     {
 692              		.loc 2 431 0
 693              		.cfi_startproc
 694 0000 90B5     		push	{r4, r7, lr}
 695              		.cfi_def_cfa_offset 12
 696              		.cfi_offset 4, -12
 697              		.cfi_offset 7, -8
 698              		.cfi_offset 14, -4
 699 0002 85B0     		sub	sp, sp, #20
 700              		.cfi_def_cfa_offset 32
 701 0004 00AF     		add	r7, sp, #0
 702              		.cfi_def_cfa_register 7
 703 0006 7860     		str	r0, [r7, #4]
 432:.\Generated_Source\PSoC4/CyLib.c ****         uint8  bgTrim4;
 433:.\Generated_Source\PSoC4/CyLib.c ****         uint8  bgTrim5;
 434:.\Generated_Source\PSoC4/CyLib.c ****         uint8  interruptState;
 435:.\Generated_Source\PSoC4/CyLib.c ****         uint8  newImoTrim2Value;
 436:.\Generated_Source\PSoC4/CyLib.c ****         uint8  currentImoTrim2Value;
 437:.\Generated_Source\PSoC4/CyLib.c **** 
 438:.\Generated_Source\PSoC4/CyLib.c **** 
 439:.\Generated_Source\PSoC4/CyLib.c ****         if ((freq >= CY_SYS_CLK_IMO_MIN_FREQ_MHZ) && (freq <= CY_SYS_CLK_IMO_MAX_FREQ_MHZ))
 704              		.loc 2 439 0
 705 0008 7B68     		ldr	r3, [r7, #4]
 706 000a 022B     		cmp	r3, #2
 707 000c 00D8     		bhi	.LCB513
 708 000e BBE0     		b	.L42	@long jump
 709              	.LCB513:
 710              		.loc 2 439 0 is_stmt 0 discriminator 1
 711 0010 7B68     		ldr	r3, [r7, #4]
 712 0012 302B     		cmp	r3, #48
 713 0014 00D9     		bls	.LCB516
 714 0016 B7E0     		b	.L42	@long jump
 715              	.LCB516:
 440:.\Generated_Source\PSoC4/CyLib.c ****         {
 441:.\Generated_Source\PSoC4/CyLib.c ****             if(freq <= CY_SFLASH_IMO_MAXF0_REG)
 716              		.loc 2 441 0 is_stmt 1
 717 0018 5E4B     		ldr	r3, .L53
 718 001a 1B78     		ldrb	r3, [r3]
 719 001c DBB2     		uxtb	r3, r3
ARM GAS  C:\Users\CHRIST~1\AppData\Local\Temp\cc8KQrfd.s 			page 38


 720 001e 1A1E     		sub	r2, r3, #0
 721 0020 7B68     		ldr	r3, [r7, #4]
 722 0022 9A42     		cmp	r2, r3
 723 0024 0AD3     		bcc	.L43
 442:.\Generated_Source\PSoC4/CyLib.c ****             {
 443:.\Generated_Source\PSoC4/CyLib.c ****                 bgTrim4 = CY_SFLASH_IMO_ABS0_REG;
 724              		.loc 2 443 0
 725 0026 5C4A     		ldr	r2, .L53+4
 726 0028 0F23     		mov	r3, #15
 727 002a FB18     		add	r3, r7, r3
 728 002c 1278     		ldrb	r2, [r2]
 729 002e 1A70     		strb	r2, [r3]
 444:.\Generated_Source\PSoC4/CyLib.c ****                 bgTrim5 = CY_SFLASH_IMO_TMPCO0_REG;
 730              		.loc 2 444 0
 731 0030 5A4A     		ldr	r2, .L53+8
 732 0032 0E23     		mov	r3, #14
 733 0034 FB18     		add	r3, r7, r3
 734 0036 1278     		ldrb	r2, [r2]
 735 0038 1A70     		strb	r2, [r3]
 736 003a 3FE0     		b	.L44
 737              	.L43:
 445:.\Generated_Source\PSoC4/CyLib.c ****             }
 446:.\Generated_Source\PSoC4/CyLib.c ****             else if(freq <= CY_SFLASH_IMO_MAXF1_REG)
 738              		.loc 2 446 0
 739 003c 584B     		ldr	r3, .L53+12
 740 003e 1B78     		ldrb	r3, [r3]
 741 0040 DBB2     		uxtb	r3, r3
 742 0042 1A1E     		sub	r2, r3, #0
 743 0044 7B68     		ldr	r3, [r7, #4]
 744 0046 9A42     		cmp	r2, r3
 745 0048 0AD3     		bcc	.L45
 447:.\Generated_Source\PSoC4/CyLib.c ****             {
 448:.\Generated_Source\PSoC4/CyLib.c ****                 bgTrim4 = CY_SFLASH_IMO_ABS1_REG;
 746              		.loc 2 448 0
 747 004a 564A     		ldr	r2, .L53+16
 748 004c 0F23     		mov	r3, #15
 749 004e FB18     		add	r3, r7, r3
 750 0050 1278     		ldrb	r2, [r2]
 751 0052 1A70     		strb	r2, [r3]
 449:.\Generated_Source\PSoC4/CyLib.c ****                 bgTrim5 = CY_SFLASH_IMO_TMPCO1_REG;
 752              		.loc 2 449 0
 753 0054 544A     		ldr	r2, .L53+20
 754 0056 0E23     		mov	r3, #14
 755 0058 FB18     		add	r3, r7, r3
 756 005a 1278     		ldrb	r2, [r2]
 757 005c 1A70     		strb	r2, [r3]
 758 005e 2DE0     		b	.L44
 759              	.L45:
 450:.\Generated_Source\PSoC4/CyLib.c ****             }
 451:.\Generated_Source\PSoC4/CyLib.c ****             else if(freq <= CY_SFLASH_IMO_MAXF2_REG)
 760              		.loc 2 451 0
 761 0060 524B     		ldr	r3, .L53+24
 762 0062 1B78     		ldrb	r3, [r3]
 763 0064 DBB2     		uxtb	r3, r3
 764 0066 1A1E     		sub	r2, r3, #0
 765 0068 7B68     		ldr	r3, [r7, #4]
 766 006a 9A42     		cmp	r2, r3
ARM GAS  C:\Users\CHRIST~1\AppData\Local\Temp\cc8KQrfd.s 			page 39


 767 006c 0AD3     		bcc	.L46
 452:.\Generated_Source\PSoC4/CyLib.c ****             {
 453:.\Generated_Source\PSoC4/CyLib.c ****                 bgTrim4 = CY_SFLASH_IMO_ABS2_REG;
 768              		.loc 2 453 0
 769 006e 504A     		ldr	r2, .L53+28
 770 0070 0F23     		mov	r3, #15
 771 0072 FB18     		add	r3, r7, r3
 772 0074 1278     		ldrb	r2, [r2]
 773 0076 1A70     		strb	r2, [r3]
 454:.\Generated_Source\PSoC4/CyLib.c ****                 bgTrim5 = CY_SFLASH_IMO_TMPCO2_REG;
 774              		.loc 2 454 0
 775 0078 4E4A     		ldr	r2, .L53+32
 776 007a 0E23     		mov	r3, #14
 777 007c FB18     		add	r3, r7, r3
 778 007e 1278     		ldrb	r2, [r2]
 779 0080 1A70     		strb	r2, [r3]
 780 0082 1BE0     		b	.L44
 781              	.L46:
 455:.\Generated_Source\PSoC4/CyLib.c ****             }
 456:.\Generated_Source\PSoC4/CyLib.c ****             else if(freq <= CY_SFLASH_IMO_MAXF3_REG)
 782              		.loc 2 456 0
 783 0084 4C4B     		ldr	r3, .L53+36
 784 0086 1B78     		ldrb	r3, [r3]
 785 0088 DBB2     		uxtb	r3, r3
 786 008a 1A1E     		sub	r2, r3, #0
 787 008c 7B68     		ldr	r3, [r7, #4]
 788 008e 9A42     		cmp	r2, r3
 789 0090 0AD3     		bcc	.L47
 457:.\Generated_Source\PSoC4/CyLib.c ****             {
 458:.\Generated_Source\PSoC4/CyLib.c ****                 bgTrim4 = CY_SFLASH_IMO_ABS3_REG;
 790              		.loc 2 458 0
 791 0092 4A4A     		ldr	r2, .L53+40
 792 0094 0F23     		mov	r3, #15
 793 0096 FB18     		add	r3, r7, r3
 794 0098 1278     		ldrb	r2, [r2]
 795 009a 1A70     		strb	r2, [r3]
 459:.\Generated_Source\PSoC4/CyLib.c ****                 bgTrim5 = CY_SFLASH_IMO_TMPCO3_REG;
 796              		.loc 2 459 0
 797 009c 484A     		ldr	r2, .L53+44
 798 009e 0E23     		mov	r3, #14
 799 00a0 FB18     		add	r3, r7, r3
 800 00a2 1278     		ldrb	r2, [r2]
 801 00a4 1A70     		strb	r2, [r3]
 802 00a6 09E0     		b	.L44
 803              	.L47:
 460:.\Generated_Source\PSoC4/CyLib.c ****             }
 461:.\Generated_Source\PSoC4/CyLib.c ****             else
 462:.\Generated_Source\PSoC4/CyLib.c ****             {
 463:.\Generated_Source\PSoC4/CyLib.c ****                 bgTrim4 = CY_SFLASH_IMO_ABS4_REG;
 804              		.loc 2 463 0
 805 00a8 464A     		ldr	r2, .L53+48
 806 00aa 0F23     		mov	r3, #15
 807 00ac FB18     		add	r3, r7, r3
 808 00ae 1278     		ldrb	r2, [r2]
 809 00b0 1A70     		strb	r2, [r3]
 464:.\Generated_Source\PSoC4/CyLib.c ****                 bgTrim5 = CY_SFLASH_IMO_TMPCO4_REG;
 810              		.loc 2 464 0
ARM GAS  C:\Users\CHRIST~1\AppData\Local\Temp\cc8KQrfd.s 			page 40


 811 00b2 454A     		ldr	r2, .L53+52
 812 00b4 0E23     		mov	r3, #14
 813 00b6 FB18     		add	r3, r7, r3
 814 00b8 1278     		ldrb	r2, [r2]
 815 00ba 1A70     		strb	r2, [r3]
 816              	.L44:
 465:.\Generated_Source\PSoC4/CyLib.c ****             }
 466:.\Generated_Source\PSoC4/CyLib.c **** 
 467:.\Generated_Source\PSoC4/CyLib.c ****             /* Get IMO_TRIM2 value for the new frequency */
 468:.\Generated_Source\PSoC4/CyLib.c ****             newImoTrim2Value = cyImoFreqMhz2Reg[freq - CY_SYS_CLK_IMO_FREQ_TABLE_OFFSET];
 817              		.loc 2 468 0
 818 00bc 7B68     		ldr	r3, [r7, #4]
 819 00be DA1E     		sub	r2, r3, #3
 820 00c0 0C23     		mov	r3, #12
 821 00c2 FB18     		add	r3, r7, r3
 822 00c4 4149     		ldr	r1, .L53+56
 823 00c6 8A5C     		ldrb	r2, [r1, r2]
 824 00c8 1A70     		strb	r2, [r3]
 469:.\Generated_Source\PSoC4/CyLib.c **** 
 470:.\Generated_Source\PSoC4/CyLib.c **** 
 471:.\Generated_Source\PSoC4/CyLib.c ****             interruptState = CyEnterCriticalSection();
 825              		.loc 2 471 0
 826 00ca 0B23     		mov	r3, #11
 827 00cc FC18     		add	r4, r7, r3
 828 00ce FFF7FEFF 		bl	CyEnterCriticalSection
 829 00d2 031C     		mov	r3, r0
 830 00d4 2370     		strb	r3, [r4]
 472:.\Generated_Source\PSoC4/CyLib.c **** 
 473:.\Generated_Source\PSoC4/CyLib.c ****             /***************************************************************************
 474:.\Generated_Source\PSoC4/CyLib.c ****             * The IMO can have a different trim per frequency. To avoid possible corner
 475:.\Generated_Source\PSoC4/CyLib.c ****             * cases where a trim change can exceed the maximum frequency, the trim must
 476:.\Generated_Source\PSoC4/CyLib.c ****             * be applied at a frequency that is low enough.
 477:.\Generated_Source\PSoC4/CyLib.c ****             *
 478:.\Generated_Source\PSoC4/CyLib.c ****             * Comparing IMO_TRIM2 values for the current and new frequencies, since
 479:.\Generated_Source\PSoC4/CyLib.c ****             * IMO_TRIM2 value as a function of IMO frequency is a strictly increasing
 480:.\Generated_Source\PSoC4/CyLib.c ****             * function and is time-invariant.
 481:.\Generated_Source\PSoC4/CyLib.c ****             ***************************************************************************/
 482:.\Generated_Source\PSoC4/CyLib.c ****             if ((newImoTrim2Value >= CY_SYS_CLK_IMO_BOUNDARY_FREQ_TRIM2) && (freq >= CY_SYS_CLK_IMO
 831              		.loc 2 482 0
 832 00d6 0C23     		mov	r3, #12
 833 00d8 FB18     		add	r3, r7, r3
 834 00da 1B78     		ldrb	r3, [r3]
 835 00dc 2F2B     		cmp	r3, #47
 836 00de 0DD9     		bls	.L48
 837              		.loc 2 482 0 is_stmt 0 discriminator 1
 838 00e0 7B68     		ldr	r3, [r7, #4]
 839 00e2 2A2B     		cmp	r3, #42
 840 00e4 0AD9     		bls	.L48
 483:.\Generated_Source\PSoC4/CyLib.c ****             {
 484:.\Generated_Source\PSoC4/CyLib.c ****                 /* Set boundary IMO frequency: safe for IMO above 48 MHZ trimming */
 485:.\Generated_Source\PSoC4/CyLib.c ****                 CY_SYS_CLK_IMO_TRIM2_REG = (uint32) cyImoFreqMhz2Reg[CY_SYS_CLK_IMO_TEMP_FREQ_MHZ -
 841              		.loc 2 485 0 is_stmt 1
 842 00e6 3A4B     		ldr	r3, .L53+60
 843 00e8 1922     		mov	r2, #25
 844 00ea 1A60     		str	r2, [r3]
 486:.\Generated_Source\PSoC4/CyLib.c ****                                                                      CY_SYS_CLK_IMO_FREQ_TABLE_OFFS
 487:.\Generated_Source\PSoC4/CyLib.c **** 
ARM GAS  C:\Users\CHRIST~1\AppData\Local\Temp\cc8KQrfd.s 			page 41


 488:.\Generated_Source\PSoC4/CyLib.c ****                 CyDelayCycles(CY_SYS_CLK_IMO_FREQ_TIMEOUT_CYCLES);
 845              		.loc 2 488 0
 846 00ec 0520     		mov	r0, #5
 847 00ee FFF7FEFF 		bl	CyDelayCycles
 489:.\Generated_Source\PSoC4/CyLib.c **** 
 490:.\Generated_Source\PSoC4/CyLib.c ****                 currentImoTrim2Value = CY_SYS_CLK_IMO_TEMP_FREQ_TRIM2;
 848              		.loc 2 490 0
 849 00f2 0D23     		mov	r3, #13
 850 00f4 FB18     		add	r3, r7, r3
 851 00f6 1922     		mov	r2, #25
 852 00f8 1A70     		strb	r2, [r3]
 853 00fa 07E0     		b	.L49
 854              	.L48:
 491:.\Generated_Source\PSoC4/CyLib.c ****             }
 492:.\Generated_Source\PSoC4/CyLib.c ****             else
 493:.\Generated_Source\PSoC4/CyLib.c ****             {
 494:.\Generated_Source\PSoC4/CyLib.c ****                 currentImoTrim2Value = (uint8) (CY_SYS_CLK_IMO_TRIM2_REG & CY_SYS_CLK_IMO_FREQ_BITS
 855              		.loc 2 494 0
 856 00fc 344B     		ldr	r3, .L53+60
 857 00fe 1B68     		ldr	r3, [r3]
 858 0100 DAB2     		uxtb	r2, r3
 859 0102 0D23     		mov	r3, #13
 860 0104 FB18     		add	r3, r7, r3
 861 0106 3F21     		mov	r1, #63
 862 0108 0A40     		and	r2, r1
 863 010a 1A70     		strb	r2, [r3]
 864              	.L49:
 495:.\Generated_Source\PSoC4/CyLib.c ****             }
 496:.\Generated_Source\PSoC4/CyLib.c **** 
 497:.\Generated_Source\PSoC4/CyLib.c **** 
 498:.\Generated_Source\PSoC4/CyLib.c ****             /***************************************************************************
 499:.\Generated_Source\PSoC4/CyLib.c ****             * A trim change needs to be allowed to settle (within 5us) before the Freq
 500:.\Generated_Source\PSoC4/CyLib.c ****             * can be changed to a new frequency.
 501:.\Generated_Source\PSoC4/CyLib.c ****             *
 502:.\Generated_Source\PSoC4/CyLib.c ****             * Comparing IMO_TRIM2 values for the current and new frequencies, since
 503:.\Generated_Source\PSoC4/CyLib.c ****             * IMO_TRIM2 value as a function of IMO frequency is a strictly increasing
 504:.\Generated_Source\PSoC4/CyLib.c ****             * function and is time-invariant.
 505:.\Generated_Source\PSoC4/CyLib.c ****             ***************************************************************************/
 506:.\Generated_Source\PSoC4/CyLib.c ****             if (newImoTrim2Value < currentImoTrim2Value)
 865              		.loc 2 506 0
 866 010c 0C23     		mov	r3, #12
 867 010e FA18     		add	r2, r7, r3
 868 0110 0D23     		mov	r3, #13
 869 0112 FB18     		add	r3, r7, r3
 870 0114 1278     		ldrb	r2, [r2]
 871 0116 1B78     		ldrb	r3, [r3]
 872 0118 9A42     		cmp	r2, r3
 873 011a 08D2     		bcs	.L50
 507:.\Generated_Source\PSoC4/CyLib.c ****             {
 508:.\Generated_Source\PSoC4/CyLib.c ****                 /* Set new IMO frequency */
 509:.\Generated_Source\PSoC4/CyLib.c ****                 CY_SYS_CLK_IMO_TRIM2_REG = cyImoFreqMhz2Reg[freq - CY_SYS_CLK_IMO_FREQ_TABLE_OFFSET
 874              		.loc 2 509 0
 875 011c 2C4B     		ldr	r3, .L53+60
 876 011e 7A68     		ldr	r2, [r7, #4]
 877 0120 033A     		sub	r2, r2, #3
 878 0122 2A49     		ldr	r1, .L53+56
 879 0124 8A5C     		ldrb	r2, [r1, r2]
ARM GAS  C:\Users\CHRIST~1\AppData\Local\Temp\cc8KQrfd.s 			page 42


 880 0126 1A60     		str	r2, [r3]
 510:.\Generated_Source\PSoC4/CyLib.c ****                 CyDelayCycles(CY_SYS_CLK_IMO_FREQ_TIMEOUT_CYCLES);
 881              		.loc 2 510 0
 882 0128 0520     		mov	r0, #5
 883 012a FFF7FEFF 		bl	CyDelayCycles
 884              	.L50:
 511:.\Generated_Source\PSoC4/CyLib.c ****             }
 512:.\Generated_Source\PSoC4/CyLib.c **** 
 513:.\Generated_Source\PSoC4/CyLib.c ****             /* Set trims for the new IMO frequency */
 514:.\Generated_Source\PSoC4/CyLib.c ****             CY_SYS_CLK_IMO_TRIM1_REG = (uint32) CY_SFLASH_IMO_TRIM_REG(freq - CY_SYS_CLK_IMO_FREQ_T
 885              		.loc 2 514 0
 886 012e 294B     		ldr	r3, .L53+64
 887 0130 7A68     		ldr	r2, [r7, #4]
 888 0132 2549     		ldr	r1, .L53+52
 889 0134 8C46     		mov	ip, r1
 890 0136 6244     		add	r2, r2, ip
 891 0138 1278     		ldrb	r2, [r2]
 892 013a D2B2     		uxtb	r2, r2
 893 013c 1A60     		str	r2, [r3]
 515:.\Generated_Source\PSoC4/CyLib.c ****             CY_PWR_BG_TRIM4_REG  = bgTrim4;
 894              		.loc 2 515 0
 895 013e 264B     		ldr	r3, .L53+68
 896 0140 0F22     		mov	r2, #15
 897 0142 BA18     		add	r2, r7, r2
 898 0144 1278     		ldrb	r2, [r2]
 899 0146 1A60     		str	r2, [r3]
 516:.\Generated_Source\PSoC4/CyLib.c ****             CY_PWR_BG_TRIM5_REG  = bgTrim5;
 900              		.loc 2 516 0
 901 0148 244B     		ldr	r3, .L53+72
 902 014a 0E22     		mov	r2, #14
 903 014c BA18     		add	r2, r7, r2
 904 014e 1278     		ldrb	r2, [r2]
 905 0150 1A60     		str	r2, [r3]
 517:.\Generated_Source\PSoC4/CyLib.c ****             CyDelayUs(CY_SYS_CLK_IMO_TRIM_TIMEOUT_US);
 906              		.loc 2 517 0
 907 0152 0520     		mov	r0, #5
 908 0154 FFF7FEFF 		bl	CyDelayUs
 518:.\Generated_Source\PSoC4/CyLib.c **** 
 519:.\Generated_Source\PSoC4/CyLib.c ****             if (newImoTrim2Value > currentImoTrim2Value)
 909              		.loc 2 519 0
 910 0158 0C23     		mov	r3, #12
 911 015a FA18     		add	r2, r7, r3
 912 015c 0D23     		mov	r3, #13
 913 015e FB18     		add	r3, r7, r3
 914 0160 1278     		ldrb	r2, [r2]
 915 0162 1B78     		ldrb	r3, [r3]
 916 0164 9A42     		cmp	r2, r3
 917 0166 08D9     		bls	.L51
 520:.\Generated_Source\PSoC4/CyLib.c ****             {
 521:.\Generated_Source\PSoC4/CyLib.c ****                 /* Set new IMO frequency */
 522:.\Generated_Source\PSoC4/CyLib.c ****                 CY_SYS_CLK_IMO_TRIM2_REG = cyImoFreqMhz2Reg[freq - CY_SYS_CLK_IMO_FREQ_TABLE_OFFSET
 918              		.loc 2 522 0
 919 0168 194B     		ldr	r3, .L53+60
 920 016a 7A68     		ldr	r2, [r7, #4]
 921 016c 033A     		sub	r2, r2, #3
 922 016e 1749     		ldr	r1, .L53+56
 923 0170 8A5C     		ldrb	r2, [r1, r2]
ARM GAS  C:\Users\CHRIST~1\AppData\Local\Temp\cc8KQrfd.s 			page 43


 924 0172 1A60     		str	r2, [r3]
 523:.\Generated_Source\PSoC4/CyLib.c ****                 CyDelayCycles(CY_SYS_CLK_IMO_FREQ_TIMEOUT_CYCLES);
 925              		.loc 2 523 0
 926 0174 0520     		mov	r0, #5
 927 0176 FFF7FEFF 		bl	CyDelayCycles
 928              	.L51:
 524:.\Generated_Source\PSoC4/CyLib.c ****             }
 525:.\Generated_Source\PSoC4/CyLib.c **** 
 526:.\Generated_Source\PSoC4/CyLib.c ****             CyExitCriticalSection(interruptState);
 929              		.loc 2 526 0
 930 017a 0B23     		mov	r3, #11
 931 017c FB18     		add	r3, r7, r3
 932 017e 1B78     		ldrb	r3, [r3]
 933 0180 181C     		mov	r0, r3
 934 0182 FFF7FEFF 		bl	CyExitCriticalSection
 935 0186 02E0     		b	.L41
 936              	.L42:
 527:.\Generated_Source\PSoC4/CyLib.c ****         }
 528:.\Generated_Source\PSoC4/CyLib.c ****         else
 529:.\Generated_Source\PSoC4/CyLib.c ****         {
 530:.\Generated_Source\PSoC4/CyLib.c ****             /* Halt CPU in debug mode if new frequency is invalid */
 531:.\Generated_Source\PSoC4/CyLib.c ****             CYASSERT(0u != 0u);
 937              		.loc 2 531 0 discriminator 1
 938 0188 0020     		mov	r0, #0
 939 018a FFF7FEFF 		bl	CyHalt
 940              	.L41:
 532:.\Generated_Source\PSoC4/CyLib.c ****         }
 533:.\Generated_Source\PSoC4/CyLib.c ****     }
 941              		.loc 2 533 0
 942 018e BD46     		mov	sp, r7
 943 0190 05B0     		add	sp, sp, #20
 944              		@ sp needed
 945 0192 90BD     		pop	{r4, r7, pc}
 946              	.L54:
 947              		.align	2
 948              	.L53:
 949 0194 C0F1FF0F 		.word	268431808
 950 0198 C1F1FF0F 		.word	268431809
 951 019c C2F1FF0F 		.word	268431810
 952 01a0 C3F1FF0F 		.word	268431811
 953 01a4 C4F1FF0F 		.word	268431812
 954 01a8 C5F1FF0F 		.word	268431813
 955 01ac C6F1FF0F 		.word	268431814
 956 01b0 C7F1FF0F 		.word	268431815
 957 01b4 C8F1FF0F 		.word	268431816
 958 01b8 C9F1FF0F 		.word	268431817
 959 01bc CAF1FF0F 		.word	268431818
 960 01c0 CBF1FF0F 		.word	268431819
 961 01c4 CCF1FF0F 		.word	268431820
 962 01c8 CDF1FF0F 		.word	268431821
 963 01cc 00000000 		.word	cyImoFreqMhz2Reg
 964 01d0 2CFF0B40 		.word	1074528044
 965 01d4 28FF0B40 		.word	1074528040
 966 01d8 1CFF0B40 		.word	1074528028
 967 01dc 20FF0B40 		.word	1074528032
 968              		.cfi_endproc
 969              	.LFE11:
ARM GAS  C:\Users\CHRIST~1\AppData\Local\Temp\cc8KQrfd.s 			page 44


 970              		.size	CySysClkWriteImoFreq, .-CySysClkWriteImoFreq
 971              		.section	.text.CySysClkEcoStart,"ax",%progbits
 972              		.align	2
 973              		.global	CySysClkEcoStart
 974              		.code	16
 975              		.thumb_func
 976              		.type	CySysClkEcoStart, %function
 977              	CySysClkEcoStart:
 978              	.LFB12:
 534:.\Generated_Source\PSoC4/CyLib.c **** 
 535:.\Generated_Source\PSoC4/CyLib.c **** 
 536:.\Generated_Source\PSoC4/CyLib.c **** #else
 537:.\Generated_Source\PSoC4/CyLib.c **** 
 538:.\Generated_Source\PSoC4/CyLib.c **** 
 539:.\Generated_Source\PSoC4/CyLib.c ****     /*******************************************************************************
 540:.\Generated_Source\PSoC4/CyLib.c ****     * Function Name: CySysClkWriteHfclkDiv
 541:.\Generated_Source\PSoC4/CyLib.c ****     ********************************************************************************
 542:.\Generated_Source\PSoC4/CyLib.c ****     *
 543:.\Generated_Source\PSoC4/CyLib.c ****     * Summary:
 544:.\Generated_Source\PSoC4/CyLib.c ****     *  Selects HF clk predivider value.
 545:.\Generated_Source\PSoC4/CyLib.c ****     *
 546:.\Generated_Source\PSoC4/CyLib.c ****     * Parameters:
 547:.\Generated_Source\PSoC4/CyLib.c ****     *  divider: HF clock divider value
 548:.\Generated_Source\PSoC4/CyLib.c ****     *   Define                        Description
 549:.\Generated_Source\PSoC4/CyLib.c ****     *   CY_SYS_CLK_HFCLK_DIV_NODIV    Transparent mode (w/o dividing)
 550:.\Generated_Source\PSoC4/CyLib.c ****     *   CY_SYS_CLK_HFCLK_DIV_2        Divide selected clock source by 2
 551:.\Generated_Source\PSoC4/CyLib.c ****     *   CY_SYS_CLK_HFCLK_DIV_4        Divide selected clock source by 4
 552:.\Generated_Source\PSoC4/CyLib.c ****     *   CY_SYS_CLK_HFCLK_DIV_8        Divide selected clock source by 8
 553:.\Generated_Source\PSoC4/CyLib.c ****     *
 554:.\Generated_Source\PSoC4/CyLib.c ****     * Return:
 555:.\Generated_Source\PSoC4/CyLib.c ****     *  None
 556:.\Generated_Source\PSoC4/CyLib.c ****     *
 557:.\Generated_Source\PSoC4/CyLib.c ****     * Side Effects:
 558:.\Generated_Source\PSoC4/CyLib.c ****     *  If the SYSCLK clock frequency increases during the device operation, call
 559:.\Generated_Source\PSoC4/CyLib.c ****     *  CySysFlashSetWaitCycles() with the appropriate parameter to adjust the number
 560:.\Generated_Source\PSoC4/CyLib.c ****     *  of clock cycles the cache will wait before sampling data comes back from Flash.
 561:.\Generated_Source\PSoC4/CyLib.c ****     *  If the SYSCLK clock frequency decreases, you can call
 562:.\Generated_Source\PSoC4/CyLib.c ****     *  CySysFlashSetWaitCycles() to improve the CPU performance. See
 563:.\Generated_Source\PSoC4/CyLib.c ****     *  CySysFlashSetWaitCycles() description for more information.
 564:.\Generated_Source\PSoC4/CyLib.c ****     *
 565:.\Generated_Source\PSoC4/CyLib.c **** 
 566:.\Generated_Source\PSoC4/CyLib.c ****     *
 567:.\Generated_Source\PSoC4/CyLib.c ****     *******************************************************************************/
 568:.\Generated_Source\PSoC4/CyLib.c ****     void CySysClkWriteHfclkDiv(uint32 divider)
 569:.\Generated_Source\PSoC4/CyLib.c ****     {
 570:.\Generated_Source\PSoC4/CyLib.c ****         uint8  interruptState;
 571:.\Generated_Source\PSoC4/CyLib.c **** 
 572:.\Generated_Source\PSoC4/CyLib.c ****         interruptState = CyEnterCriticalSection();
 573:.\Generated_Source\PSoC4/CyLib.c **** 
 574:.\Generated_Source\PSoC4/CyLib.c ****         CY_SYS_CLK_SELECT_REG = ((CY_SYS_CLK_SELECT_REG & ((uint32) (~(CY_SYS_CLK_SELECT_HFCLK_DIV_
 575:.\Generated_Source\PSoC4/CyLib.c ****                                         CY_SYS_CLK_SELECT_HFCLK_DIV_SHIFT)))) |
 576:.\Generated_Source\PSoC4/CyLib.c ****                     ((uint32)((divider & CY_SYS_CLK_SELECT_HFCLK_DIV_MASK) << CY_SYS_CLK_SELECT_HFC
 577:.\Generated_Source\PSoC4/CyLib.c **** 
 578:.\Generated_Source\PSoC4/CyLib.c ****         CyExitCriticalSection(interruptState);
 579:.\Generated_Source\PSoC4/CyLib.c ****     }
 580:.\Generated_Source\PSoC4/CyLib.c **** 
 581:.\Generated_Source\PSoC4/CyLib.c **** 
ARM GAS  C:\Users\CHRIST~1\AppData\Local\Temp\cc8KQrfd.s 			page 45


 582:.\Generated_Source\PSoC4/CyLib.c ****     /*******************************************************************************
 583:.\Generated_Source\PSoC4/CyLib.c ****     * Function Name: CySysClkWriteImoFreq
 584:.\Generated_Source\PSoC4/CyLib.c ****     ********************************************************************************
 585:.\Generated_Source\PSoC4/CyLib.c ****     *
 586:.\Generated_Source\PSoC4/CyLib.c ****     * Summary:
 587:.\Generated_Source\PSoC4/CyLib.c ****     *  Sets the frequency of the IMO.
 588:.\Generated_Source\PSoC4/CyLib.c ****     *
 589:.\Generated_Source\PSoC4/CyLib.c ****     * Parameters:
 590:.\Generated_Source\PSoC4/CyLib.c ****     *  freq: Valid values are 24, 32 and 48 MHz.
 591:.\Generated_Source\PSoC4/CyLib.c ****     *
 592:.\Generated_Source\PSoC4/CyLib.c ****     *  Note: The CPU is halted if new frequency is invalid and project is
 593:.\Generated_Source\PSoC4/CyLib.c ****     *  compiled in debug mode.
 594:.\Generated_Source\PSoC4/CyLib.c ****     *
 595:.\Generated_Source\PSoC4/CyLib.c ****     * Return:
 596:.\Generated_Source\PSoC4/CyLib.c ****     *  None
 597:.\Generated_Source\PSoC4/CyLib.c ****     *
 598:.\Generated_Source\PSoC4/CyLib.c ****     * Side Effects:
 599:.\Generated_Source\PSoC4/CyLib.c ****     *  If the SYSCLK clock frequency increases during the device operation, call
 600:.\Generated_Source\PSoC4/CyLib.c ****     *  CySysFlashSetWaitCycles() with the appropriate parameter to adjust the number
 601:.\Generated_Source\PSoC4/CyLib.c ****     *  of clock cycles the cache will wait before sampling data comes back from Flash.
 602:.\Generated_Source\PSoC4/CyLib.c ****     *  If the SYSCLK clock frequency decreases, you can call
 603:.\Generated_Source\PSoC4/CyLib.c ****     *  CySysFlashSetWaitCycles() to improve the CPU performance. See
 604:.\Generated_Source\PSoC4/CyLib.c ****     *  CySysFlashSetWaitCycles() description for more information.
 605:.\Generated_Source\PSoC4/CyLib.c ****     *
 606:.\Generated_Source\PSoC4/CyLib.c ****     *  The System Clock (SYSCLK) has maximum speed of 16 MHz, so HFCLK and SYSCLK
 607:.\Generated_Source\PSoC4/CyLib.c ****     *  dividers should be selected in a way, to not to exceed 16 MHz for the System
 608:.\Generated_Source\PSoC4/CyLib.c ****     *  clock.
 609:.\Generated_Source\PSoC4/CyLib.c ****     *
 610:.\Generated_Source\PSoC4/CyLib.c ****     *******************************************************************************/
 611:.\Generated_Source\PSoC4/CyLib.c ****     void CySysClkWriteImoFreq(uint32 freq)
 612:.\Generated_Source\PSoC4/CyLib.c ****     {
 613:.\Generated_Source\PSoC4/CyLib.c ****         uint8  interruptState;
 614:.\Generated_Source\PSoC4/CyLib.c **** 
 615:.\Generated_Source\PSoC4/CyLib.c ****         if ((freq == 24u) || (freq == 32u) || (freq == 48u))
 616:.\Generated_Source\PSoC4/CyLib.c ****         {
 617:.\Generated_Source\PSoC4/CyLib.c ****             interruptState = CyEnterCriticalSection();
 618:.\Generated_Source\PSoC4/CyLib.c **** 
 619:.\Generated_Source\PSoC4/CyLib.c ****             /* Set IMO to 24 MHz - CLK_IMO_SELECT.FREQ = 0 */
 620:.\Generated_Source\PSoC4/CyLib.c ****             CY_SYS_CLK_IMO_SELECT_REG &= ((uint32) ~CY_SYS_CLK_IMO_SELECT_FREQ_MASK);
 621:.\Generated_Source\PSoC4/CyLib.c **** 
 622:.\Generated_Source\PSoC4/CyLib.c ****             /* Apply coarse trim */
 623:.\Generated_Source\PSoC4/CyLib.c ****             CY_SYS_CLK_IMO_TRIM1_REG = (CY_SYS_CLK_IMO_TRIM1_REG & ((uint32) ~CY_SYS_CLK_IMO_TRIM1_
 624:.\Generated_Source\PSoC4/CyLib.c ****                 (CY_SFLASH_IMO_TRIM_REG(freq - CY_SYS_CLK_IMO_MIN_FREQ_MHZ) & CY_SYS_CLK_IMO_TRIM1_
 625:.\Generated_Source\PSoC4/CyLib.c **** 
 626:.\Generated_Source\PSoC4/CyLib.c ****             /* Zero out fine trim */
 627:.\Generated_Source\PSoC4/CyLib.c ****             CY_SYS_CLK_IMO_TRIM2_REG = CY_SYS_CLK_IMO_TRIM2_REG & ((uint32) ~CY_SYS_CLK_IMO_TRIM2_F
 628:.\Generated_Source\PSoC4/CyLib.c **** 
 629:.\Generated_Source\PSoC4/CyLib.c ****             /* Apply TC trim */
 630:.\Generated_Source\PSoC4/CyLib.c ****             CY_SYS_CLK_IMO_TRIM3_REG = (CY_SYS_CLK_IMO_TRIM3_REG & ((uint32) ~CY_SYS_CLK_IMO_TRIM3_
 631:.\Generated_Source\PSoC4/CyLib.c ****                 (CY_SFLASH_IMO_TCTRIM_REG(freq - CY_SYS_CLK_IMO_MIN_FREQ_MHZ) & CY_SYS_CLK_IMO_TRIM
 632:.\Generated_Source\PSoC4/CyLib.c **** 
 633:.\Generated_Source\PSoC4/CyLib.c ****             CyDelayCycles(CY_SYS_CLK_IMO_TRIM_DELAY_US);
 634:.\Generated_Source\PSoC4/CyLib.c **** 
 635:.\Generated_Source\PSoC4/CyLib.c ****             if (freq > CY_SYS_CLK_IMO_MIN_FREQ_MHZ)
 636:.\Generated_Source\PSoC4/CyLib.c ****             {
 637:.\Generated_Source\PSoC4/CyLib.c ****                 /* Select nearby intermediate frequency */
 638:.\Generated_Source\PSoC4/CyLib.c ****                 CY_SYS_CLK_IMO_SELECT_REG = (CY_SYS_CLK_IMO_SELECT_REG & ((uint32) ~CY_SYS_CLK_IMO_
ARM GAS  C:\Users\CHRIST~1\AppData\Local\Temp\cc8KQrfd.s 			page 46


 639:.\Generated_Source\PSoC4/CyLib.c ****                     (((freq - 4u - CY_SYS_CLK_IMO_MIN_FREQ_MHZ) >> 2u) & CY_SYS_CLK_IMO_SELECT_FREQ
 640:.\Generated_Source\PSoC4/CyLib.c **** 
 641:.\Generated_Source\PSoC4/CyLib.c ****                 CyDelayCycles(CY_SYS_CLK_IMO_TRIM_DELAY_US);
 642:.\Generated_Source\PSoC4/CyLib.c **** 
 643:.\Generated_Source\PSoC4/CyLib.c ****                 /* Make small step to final frequency */
 644:.\Generated_Source\PSoC4/CyLib.c ****                 /* Select nearby intermediate frequency */
 645:.\Generated_Source\PSoC4/CyLib.c ****                 CY_SYS_CLK_IMO_SELECT_REG = (CY_SYS_CLK_IMO_SELECT_REG & ((uint32) ~CY_SYS_CLK_IMO_
 646:.\Generated_Source\PSoC4/CyLib.c ****                     (((freq - CY_SYS_CLK_IMO_MIN_FREQ_MHZ) >> 2u) & CY_SYS_CLK_IMO_SELECT_FREQ_MASK
 647:.\Generated_Source\PSoC4/CyLib.c ****             }
 648:.\Generated_Source\PSoC4/CyLib.c **** 
 649:.\Generated_Source\PSoC4/CyLib.c ****             CyExitCriticalSection(interruptState);
 650:.\Generated_Source\PSoC4/CyLib.c ****         }
 651:.\Generated_Source\PSoC4/CyLib.c ****         else
 652:.\Generated_Source\PSoC4/CyLib.c ****         {
 653:.\Generated_Source\PSoC4/CyLib.c ****             /* Halt CPU in debug mode if new frequency is invalid */
 654:.\Generated_Source\PSoC4/CyLib.c ****             CYASSERT(0u != 0u);
 655:.\Generated_Source\PSoC4/CyLib.c ****         }
 656:.\Generated_Source\PSoC4/CyLib.c ****     }
 657:.\Generated_Source\PSoC4/CyLib.c **** 
 658:.\Generated_Source\PSoC4/CyLib.c **** #endif /* (CY_IP_SRSSV2) */
 659:.\Generated_Source\PSoC4/CyLib.c **** 
 660:.\Generated_Source\PSoC4/CyLib.c **** 
 661:.\Generated_Source\PSoC4/CyLib.c **** #if (CY_PSOC4_4100BL || CY_PSOC4_4200BL)
 662:.\Generated_Source\PSoC4/CyLib.c **** 
 663:.\Generated_Source\PSoC4/CyLib.c ****     /*******************************************************************************
 664:.\Generated_Source\PSoC4/CyLib.c ****     * Function Name: CySysClkEcoStart
 665:.\Generated_Source\PSoC4/CyLib.c ****     ********************************************************************************
 666:.\Generated_Source\PSoC4/CyLib.c ****     *
 667:.\Generated_Source\PSoC4/CyLib.c ****     * Summary:
 668:.\Generated_Source\PSoC4/CyLib.c ****     *  Starts the External Crystal Oscillator (ECO). Refer to the device datasheet
 669:.\Generated_Source\PSoC4/CyLib.c ****     *  for the ECO startup time.
 670:.\Generated_Source\PSoC4/CyLib.c ****     *
 671:.\Generated_Source\PSoC4/CyLib.c ****     *  The timeout interval is measured based on the system frequency defined by
 672:.\Generated_Source\PSoC4/CyLib.c ****     *  PSoC Creator at build time. If System clock frequency is changed in
 673:.\Generated_Source\PSoC4/CyLib.c ****     *  runtime, the CyDelayFreq() with the appropriate parameter should be called.
 674:.\Generated_Source\PSoC4/CyLib.c ****     *
 675:.\Generated_Source\PSoC4/CyLib.c ****     * Parameters:
 676:.\Generated_Source\PSoC4/CyLib.c ****     *  timeoutUs: Timeout in microseconds. If zero is specified, the function
 677:.\Generated_Source\PSoC4/CyLib.c ****     *             starts the crystal and returns CYRET_SUCCESS. If non-zero
 678:.\Generated_Source\PSoC4/CyLib.c ****     *             value is passed, the CYRET_SUCCESS is returned once crystal
 679:.\Generated_Source\PSoC4/CyLib.c ****     *             is oscillating and amplitude reached 60% and it does not mean
 680:.\Generated_Source\PSoC4/CyLib.c ****     *             24 MHz crystal is within 50 ppm. If it is not oscillating or
 681:.\Generated_Source\PSoC4/CyLib.c ****     *             amplitude didn't reach 60% after specified amount of time, the
 682:.\Generated_Source\PSoC4/CyLib.c ****     *             CYRET_TIMEOUT is returned.
 683:.\Generated_Source\PSoC4/CyLib.c ****     *
 684:.\Generated_Source\PSoC4/CyLib.c ****     * Return:
 685:.\Generated_Source\PSoC4/CyLib.c ****     *   CYRET_SUCCESS - Completed successfully. The ECO is oscillating and amplitude
 686:.\Generated_Source\PSoC4/CyLib.c ****     *                   reached 60% and it does not mean 24 MHz crystal is within
 687:.\Generated_Source\PSoC4/CyLib.c ****     *                   50 ppm.
 688:.\Generated_Source\PSoC4/CyLib.c ****     *   CYRET_TIMEOUT - Timeout occurred.
 689:.\Generated_Source\PSoC4/CyLib.c ****     *
 690:.\Generated_Source\PSoC4/CyLib.c ****     *******************************************************************************/
 691:.\Generated_Source\PSoC4/CyLib.c ****     cystatus CySysClkEcoStart(uint32 timeoutUs)
 692:.\Generated_Source\PSoC4/CyLib.c ****     {
 979              		.loc 2 692 0
 980              		.cfi_startproc
 981 0000 80B5     		push	{r7, lr}
ARM GAS  C:\Users\CHRIST~1\AppData\Local\Temp\cc8KQrfd.s 			page 47


 982              		.cfi_def_cfa_offset 8
 983              		.cfi_offset 7, -8
 984              		.cfi_offset 14, -4
 985 0002 84B0     		sub	sp, sp, #16
 986              		.cfi_def_cfa_offset 24
 987 0004 00AF     		add	r7, sp, #0
 988              		.cfi_def_cfa_register 7
 989 0006 7860     		str	r0, [r7, #4]
 693:.\Generated_Source\PSoC4/CyLib.c ****         cystatus status = CYRET_SUCCESS;
 990              		.loc 2 693 0
 991 0008 0023     		mov	r3, #0
 992 000a FB60     		str	r3, [r7, #12]
 694:.\Generated_Source\PSoC4/CyLib.c **** 
 695:.\Generated_Source\PSoC4/CyLib.c ****         /* Enable the RF oscillator band gap */
 696:.\Generated_Source\PSoC4/CyLib.c ****         CY_SYS_XTAL_BLESS_RF_CONFIG_REG |= CY_SYS_XTAL_BLESS_RF_CONFIG_RF_ENABLE;
 993              		.loc 2 696 0
 994 000c 154B     		ldr	r3, .L61
 995 000e 154A     		ldr	r2, .L61
 996 0010 1268     		ldr	r2, [r2]
 997 0012 0121     		mov	r1, #1
 998 0014 0A43     		orr	r2, r1
 999 0016 1A60     		str	r2, [r3]
 697:.\Generated_Source\PSoC4/CyLib.c **** 
 698:.\Generated_Source\PSoC4/CyLib.c ****         /* Update trimming register */
 699:.\Generated_Source\PSoC4/CyLib.c ****         CY_SYS_XTAL_BLERD_BB_XO_REG = CY_SYS_XTAL_BLERD_BB_XO_TRIM;
 1000              		.loc 2 699 0
 1001 0018 134B     		ldr	r3, .L61+4
 1002 001a 144A     		ldr	r2, .L61+8
 1003 001c 1A60     		str	r2, [r3]
 700:.\Generated_Source\PSoC4/CyLib.c **** 
 701:.\Generated_Source\PSoC4/CyLib.c ****         /* Enable the Crystal */
 702:.\Generated_Source\PSoC4/CyLib.c ****         CY_SYS_XTAL_BLERD_DBUS_REG |= CY_SYS_XTAL_BLERD_DBUS_XTAL_ENABLE;
 1004              		.loc 2 702 0
 1005 001e 144B     		ldr	r3, .L61+12
 1006 0020 134A     		ldr	r2, .L61+12
 1007 0022 1268     		ldr	r2, [r2]
 1008 0024 8021     		mov	r1, #128
 1009 0026 0902     		lsl	r1, r1, #8
 1010 0028 0A43     		orr	r2, r1
 1011 002a 1A60     		str	r2, [r3]
 703:.\Generated_Source\PSoC4/CyLib.c **** 
 704:.\Generated_Source\PSoC4/CyLib.c ****         if(timeoutUs > 0u)
 1012              		.loc 2 704 0
 1013 002c 7B68     		ldr	r3, [r7, #4]
 1014 002e 002B     		cmp	r3, #0
 1015 0030 12D0     		beq	.L56
 705:.\Generated_Source\PSoC4/CyLib.c ****         {
 706:.\Generated_Source\PSoC4/CyLib.c ****             status = CYRET_TIMEOUT;
 1016              		.loc 2 706 0
 1017 0032 1023     		mov	r3, #16
 1018 0034 FB60     		str	r3, [r7, #12]
 707:.\Generated_Source\PSoC4/CyLib.c **** 
 708:.\Generated_Source\PSoC4/CyLib.c ****             for( ; timeoutUs > 0u; timeoutUs--)
 1019              		.loc 2 708 0
 1020 0036 0CE0     		b	.L57
 1021              	.L59:
 709:.\Generated_Source\PSoC4/CyLib.c ****             {
ARM GAS  C:\Users\CHRIST~1\AppData\Local\Temp\cc8KQrfd.s 			page 48


 710:.\Generated_Source\PSoC4/CyLib.c ****                 CyDelayUs(1u);
 1022              		.loc 2 710 0
 1023 0038 0120     		mov	r0, #1
 1024 003a FFF7FEFF 		bl	CyDelayUs
 711:.\Generated_Source\PSoC4/CyLib.c **** 
 712:.\Generated_Source\PSoC4/CyLib.c ****                 if(0u != CySysClkEcoReadStatus())
 1025              		.loc 2 712 0
 1026 003e FFF7FEFF 		bl	CySysClkEcoReadStatus
 1027 0042 031E     		sub	r3, r0, #0
 1028 0044 02D0     		beq	.L58
 713:.\Generated_Source\PSoC4/CyLib.c ****                 {
 714:.\Generated_Source\PSoC4/CyLib.c ****                     status = CYRET_SUCCESS;
 1029              		.loc 2 714 0
 1030 0046 0023     		mov	r3, #0
 1031 0048 FB60     		str	r3, [r7, #12]
 715:.\Generated_Source\PSoC4/CyLib.c ****                     break;
 1032              		.loc 2 715 0
 1033 004a 05E0     		b	.L56
 1034              	.L58:
 708:.\Generated_Source\PSoC4/CyLib.c ****             {
 1035              		.loc 2 708 0
 1036 004c 7B68     		ldr	r3, [r7, #4]
 1037 004e 013B     		sub	r3, r3, #1
 1038 0050 7B60     		str	r3, [r7, #4]
 1039              	.L57:
 708:.\Generated_Source\PSoC4/CyLib.c ****             {
 1040              		.loc 2 708 0 is_stmt 0 discriminator 1
 1041 0052 7B68     		ldr	r3, [r7, #4]
 1042 0054 002B     		cmp	r3, #0
 1043 0056 EFD1     		bne	.L59
 1044              	.L56:
 716:.\Generated_Source\PSoC4/CyLib.c ****                 }
 717:.\Generated_Source\PSoC4/CyLib.c ****             }
 718:.\Generated_Source\PSoC4/CyLib.c **** 
 719:.\Generated_Source\PSoC4/CyLib.c ****         }
 720:.\Generated_Source\PSoC4/CyLib.c **** 
 721:.\Generated_Source\PSoC4/CyLib.c ****         return(status);
 1045              		.loc 2 721 0 is_stmt 1
 1046 0058 FB68     		ldr	r3, [r7, #12]
 722:.\Generated_Source\PSoC4/CyLib.c ****     }
 1047              		.loc 2 722 0
 1048 005a 181C     		mov	r0, r3
 1049 005c BD46     		mov	sp, r7
 1050 005e 04B0     		add	sp, sp, #16
 1051              		@ sp needed
 1052 0060 80BD     		pop	{r7, pc}
 1053              	.L62:
 1054 0062 C046     		.align	2
 1055              	.L61:
 1056 0064 60F02E40 		.word	1076818016
 1057 0068 78002E40 		.word	1076756600
 1058 006c 02200000 		.word	8194
 1059 0070 10002E40 		.word	1076756496
 1060              		.cfi_endproc
 1061              	.LFE12:
 1062              		.size	CySysClkEcoStart, .-CySysClkEcoStart
 1063              		.section	.text.CySysClkEcoStop,"ax",%progbits
ARM GAS  C:\Users\CHRIST~1\AppData\Local\Temp\cc8KQrfd.s 			page 49


 1064              		.align	2
 1065              		.global	CySysClkEcoStop
 1066              		.code	16
 1067              		.thumb_func
 1068              		.type	CySysClkEcoStop, %function
 1069              	CySysClkEcoStop:
 1070              	.LFB13:
 723:.\Generated_Source\PSoC4/CyLib.c **** 
 724:.\Generated_Source\PSoC4/CyLib.c **** 
 725:.\Generated_Source\PSoC4/CyLib.c ****     /*******************************************************************************
 726:.\Generated_Source\PSoC4/CyLib.c ****     * Function Name: CySysClkEcoStop
 727:.\Generated_Source\PSoC4/CyLib.c ****     ********************************************************************************
 728:.\Generated_Source\PSoC4/CyLib.c ****     *
 729:.\Generated_Source\PSoC4/CyLib.c ****     * Summary:
 730:.\Generated_Source\PSoC4/CyLib.c ****     *  Stops the megahertz crystal.
 731:.\Generated_Source\PSoC4/CyLib.c ****     *
 732:.\Generated_Source\PSoC4/CyLib.c ****     * Parameters:
 733:.\Generated_Source\PSoC4/CyLib.c ****     *  None
 734:.\Generated_Source\PSoC4/CyLib.c ****     *
 735:.\Generated_Source\PSoC4/CyLib.c ****     * Return:
 736:.\Generated_Source\PSoC4/CyLib.c ****     *  None
 737:.\Generated_Source\PSoC4/CyLib.c ****     *
 738:.\Generated_Source\PSoC4/CyLib.c ****     *******************************************************************************/
 739:.\Generated_Source\PSoC4/CyLib.c ****     void CySysClkEcoStop(void)
 740:.\Generated_Source\PSoC4/CyLib.c ****     {
 1071              		.loc 2 740 0
 1072              		.cfi_startproc
 1073 0000 80B5     		push	{r7, lr}
 1074              		.cfi_def_cfa_offset 8
 1075              		.cfi_offset 7, -8
 1076              		.cfi_offset 14, -4
 1077 0002 00AF     		add	r7, sp, #0
 1078              		.cfi_def_cfa_register 7
 741:.\Generated_Source\PSoC4/CyLib.c ****         /* Disable the RF oscillator band gap */
 742:.\Generated_Source\PSoC4/CyLib.c ****         CY_SYS_XTAL_BLESS_RF_CONFIG_REG &= (uint32) ~CY_SYS_XTAL_BLESS_RF_CONFIG_RF_ENABLE;
 1079              		.loc 2 742 0
 1080 0004 064B     		ldr	r3, .L64
 1081 0006 064A     		ldr	r2, .L64
 1082 0008 1268     		ldr	r2, [r2]
 1083 000a 0121     		mov	r1, #1
 1084 000c 8A43     		bic	r2, r1
 1085 000e 1A60     		str	r2, [r3]
 743:.\Generated_Source\PSoC4/CyLib.c **** 
 744:.\Generated_Source\PSoC4/CyLib.c ****         /* Disable the Crystal */
 745:.\Generated_Source\PSoC4/CyLib.c ****         CY_SYS_XTAL_BLERD_DBUS_REG &= (uint32) ~CY_SYS_XTAL_BLERD_DBUS_XTAL_ENABLE;
 1086              		.loc 2 745 0
 1087 0010 044B     		ldr	r3, .L64+4
 1088 0012 044A     		ldr	r2, .L64+4
 1089 0014 1268     		ldr	r2, [r2]
 1090 0016 0449     		ldr	r1, .L64+8
 1091 0018 0A40     		and	r2, r1
 1092 001a 1A60     		str	r2, [r3]
 746:.\Generated_Source\PSoC4/CyLib.c ****     }
 1093              		.loc 2 746 0
 1094 001c BD46     		mov	sp, r7
 1095              		@ sp needed
 1096 001e 80BD     		pop	{r7, pc}
ARM GAS  C:\Users\CHRIST~1\AppData\Local\Temp\cc8KQrfd.s 			page 50


 1097              	.L65:
 1098              		.align	2
 1099              	.L64:
 1100 0020 60F02E40 		.word	1076818016
 1101 0024 10002E40 		.word	1076756496
 1102 0028 FF7FFFFF 		.word	-32769
 1103              		.cfi_endproc
 1104              	.LFE13:
 1105              		.size	CySysClkEcoStop, .-CySysClkEcoStop
 1106              		.section	.text.CySysClkEcoReadStatus,"ax",%progbits
 1107              		.align	2
 1108              		.global	CySysClkEcoReadStatus
 1109              		.code	16
 1110              		.thumb_func
 1111              		.type	CySysClkEcoReadStatus, %function
 1112              	CySysClkEcoReadStatus:
 1113              	.LFB14:
 747:.\Generated_Source\PSoC4/CyLib.c **** 
 748:.\Generated_Source\PSoC4/CyLib.c **** 
 749:.\Generated_Source\PSoC4/CyLib.c ****     /*******************************************************************************
 750:.\Generated_Source\PSoC4/CyLib.c ****     * Function Name: CySysClkEcoReadStatus
 751:.\Generated_Source\PSoC4/CyLib.c ****     ********************************************************************************
 752:.\Generated_Source\PSoC4/CyLib.c ****     *
 753:.\Generated_Source\PSoC4/CyLib.c ****     * Summary:
 754:.\Generated_Source\PSoC4/CyLib.c ****     *  Read status bit (50 ppm reached) for the megahertz crystal.
 755:.\Generated_Source\PSoC4/CyLib.c ****     *
 756:.\Generated_Source\PSoC4/CyLib.c ****     * Parameters:
 757:.\Generated_Source\PSoC4/CyLib.c ****     *  None
 758:.\Generated_Source\PSoC4/CyLib.c ****     *
 759:.\Generated_Source\PSoC4/CyLib.c ****     * Return:
 760:.\Generated_Source\PSoC4/CyLib.c ****     *  Non-zero indicates that XTAL output reached 50 ppm.
 761:.\Generated_Source\PSoC4/CyLib.c ****     *
 762:.\Generated_Source\PSoC4/CyLib.c ****     *******************************************************************************/
 763:.\Generated_Source\PSoC4/CyLib.c ****     uint32 CySysClkEcoReadStatus(void)
 764:.\Generated_Source\PSoC4/CyLib.c ****     {
 1114              		.loc 2 764 0
 1115              		.cfi_startproc
 1116 0000 80B5     		push	{r7, lr}
 1117              		.cfi_def_cfa_offset 8
 1118              		.cfi_offset 7, -8
 1119              		.cfi_offset 14, -4
 1120 0002 00AF     		add	r7, sp, #0
 1121              		.cfi_def_cfa_register 7
 765:.\Generated_Source\PSoC4/CyLib.c ****         return (CY_SYS_XTAL_BLERD_FSM_REG & CY_SYS_XTAL_BLERD_FSM_XO_AMP_DETECT);
 1122              		.loc 2 765 0
 1123 0004 034B     		ldr	r3, .L68
 1124 0006 1B68     		ldr	r3, [r3]
 1125 0008 0122     		mov	r2, #1
 1126 000a 1340     		and	r3, r2
 766:.\Generated_Source\PSoC4/CyLib.c ****     }
 1127              		.loc 2 766 0
 1128 000c 181C     		mov	r0, r3
 1129 000e BD46     		mov	sp, r7
 1130              		@ sp needed
 1131 0010 80BD     		pop	{r7, pc}
 1132              	.L69:
 1133 0012 C046     		.align	2
ARM GAS  C:\Users\CHRIST~1\AppData\Local\Temp\cc8KQrfd.s 			page 51


 1134              	.L68:
 1135 0014 0C002E40 		.word	1076756492
 1136              		.cfi_endproc
 1137              	.LFE14:
 1138              		.size	CySysClkEcoReadStatus, .-CySysClkEcoReadStatus
 1139              		.section	.text.CySysClkWriteEcoDiv,"ax",%progbits
 1140              		.align	2
 1141              		.global	CySysClkWriteEcoDiv
 1142              		.code	16
 1143              		.thumb_func
 1144              		.type	CySysClkWriteEcoDiv, %function
 1145              	CySysClkWriteEcoDiv:
 1146              	.LFB15:
 767:.\Generated_Source\PSoC4/CyLib.c **** 
 768:.\Generated_Source\PSoC4/CyLib.c **** 
 769:.\Generated_Source\PSoC4/CyLib.c ****     /*******************************************************************************
 770:.\Generated_Source\PSoC4/CyLib.c ****     * Function Name: CySysClkWriteEcoDiv
 771:.\Generated_Source\PSoC4/CyLib.c ****     ********************************************************************************
 772:.\Generated_Source\PSoC4/CyLib.c ****     *
 773:.\Generated_Source\PSoC4/CyLib.c ****     * Summary:
 774:.\Generated_Source\PSoC4/CyLib.c ****     *  Selects value for the ECO divider.
 775:.\Generated_Source\PSoC4/CyLib.c ****     *
 776:.\Generated_Source\PSoC4/CyLib.c ****     * Parameters:
 777:.\Generated_Source\PSoC4/CyLib.c ****     *  divider: Power of 2 divider selection.
 778:.\Generated_Source\PSoC4/CyLib.c ****     *
 779:.\Generated_Source\PSoC4/CyLib.c ****     *   Define                        Description
 780:.\Generated_Source\PSoC4/CyLib.c ****     *   CY_SYS_CLK_ECO_DIV1             HFCLK = ECO / 1
 781:.\Generated_Source\PSoC4/CyLib.c ****     *   CY_SYS_CLK_ECO_DIV2             HFCLK = ECO / 2
 782:.\Generated_Source\PSoC4/CyLib.c ****     *   CY_SYS_CLK_ECO_DIV4             HFCLK = ECO / 4
 783:.\Generated_Source\PSoC4/CyLib.c ****     *   CY_SYS_CLK_ECO_DIV8             HFCLK = ECO / 8
 784:.\Generated_Source\PSoC4/CyLib.c ****     *
 785:.\Generated_Source\PSoC4/CyLib.c ****     * Return:
 786:.\Generated_Source\PSoC4/CyLib.c ****     *  None
 787:.\Generated_Source\PSoC4/CyLib.c ****     *
 788:.\Generated_Source\PSoC4/CyLib.c ****     * Side Effects:
 789:.\Generated_Source\PSoC4/CyLib.c ****     *  If the SYSCLK clock frequency increases during the device operation, call
 790:.\Generated_Source\PSoC4/CyLib.c ****     *  CySysFlashSetWaitCycles() with the appropriate parameter to adjust the number
 791:.\Generated_Source\PSoC4/CyLib.c ****     *  of clock cycles the cache will wait before sampling data comes back from Flash.
 792:.\Generated_Source\PSoC4/CyLib.c ****     *  If the SYSCLK clock frequency decreases, you can call
 793:.\Generated_Source\PSoC4/CyLib.c ****     *  CySysFlashSetWaitCycles() to improve the CPU performance. See
 794:.\Generated_Source\PSoC4/CyLib.c ****     *  CySysFlashSetWaitCycles() description for more information.
 795:.\Generated_Source\PSoC4/CyLib.c ****     *
 796:.\Generated_Source\PSoC4/CyLib.c ****     *******************************************************************************/
 797:.\Generated_Source\PSoC4/CyLib.c ****     void CySysClkWriteEcoDiv(uint32 divider)
 798:.\Generated_Source\PSoC4/CyLib.c ****     {
 1147              		.loc 2 798 0
 1148              		.cfi_startproc
 1149 0000 90B5     		push	{r4, r7, lr}
 1150              		.cfi_def_cfa_offset 12
 1151              		.cfi_offset 4, -12
 1152              		.cfi_offset 7, -8
 1153              		.cfi_offset 14, -4
 1154 0002 85B0     		sub	sp, sp, #20
 1155              		.cfi_def_cfa_offset 32
 1156 0004 00AF     		add	r7, sp, #0
 1157              		.cfi_def_cfa_register 7
 1158 0006 7860     		str	r0, [r7, #4]
ARM GAS  C:\Users\CHRIST~1\AppData\Local\Temp\cc8KQrfd.s 			page 52


 799:.\Generated_Source\PSoC4/CyLib.c ****         uint8  interruptState;
 800:.\Generated_Source\PSoC4/CyLib.c **** 
 801:.\Generated_Source\PSoC4/CyLib.c ****         interruptState = CyEnterCriticalSection();
 1159              		.loc 2 801 0
 1160 0008 0F23     		mov	r3, #15
 1161 000a FC18     		add	r4, r7, r3
 1162 000c FFF7FEFF 		bl	CyEnterCriticalSection
 1163 0010 031C     		mov	r3, r0
 1164 0012 2370     		strb	r3, [r4]
 802:.\Generated_Source\PSoC4/CyLib.c **** 
 803:.\Generated_Source\PSoC4/CyLib.c ****         CY_SYS_CLK_XTAL_CLK_DIV_CONFIG_REG =  (divider & CY_SYS_CLK_XTAL_CLK_DIV_MASK) |
 1165              		.loc 2 803 0
 1166 0014 094B     		ldr	r3, .L71
 1167 0016 7A68     		ldr	r2, [r7, #4]
 1168 0018 0321     		mov	r1, #3
 1169 001a 1140     		and	r1, r2
 804:.\Generated_Source\PSoC4/CyLib.c ****                                               (CY_SYS_CLK_XTAL_CLK_DIV_CONFIG_REG & ((uint32) ~CY_S
 1170              		.loc 2 804 0
 1171 001c 074A     		ldr	r2, .L71
 1172 001e 1268     		ldr	r2, [r2]
 1173 0020 0320     		mov	r0, #3
 1174 0022 8243     		bic	r2, r0
 803:.\Generated_Source\PSoC4/CyLib.c ****                                               (CY_SYS_CLK_XTAL_CLK_DIV_CONFIG_REG & ((uint32) ~CY_S
 1175              		.loc 2 803 0
 1176 0024 0A43     		orr	r2, r1
 1177 0026 1A60     		str	r2, [r3]
 805:.\Generated_Source\PSoC4/CyLib.c **** 
 806:.\Generated_Source\PSoC4/CyLib.c ****         CyExitCriticalSection(interruptState);
 1178              		.loc 2 806 0
 1179 0028 0F23     		mov	r3, #15
 1180 002a FB18     		add	r3, r7, r3
 1181 002c 1B78     		ldrb	r3, [r3]
 1182 002e 181C     		mov	r0, r3
 1183 0030 FFF7FEFF 		bl	CyExitCriticalSection
 807:.\Generated_Source\PSoC4/CyLib.c ****     }
 1184              		.loc 2 807 0
 1185 0034 BD46     		mov	sp, r7
 1186 0036 05B0     		add	sp, sp, #20
 1187              		@ sp needed
 1188 0038 90BD     		pop	{r4, r7, pc}
 1189              	.L72:
 1190 003a C046     		.align	2
 1191              	.L71:
 1192 003c 64F02E40 		.word	1076818020
 1193              		.cfi_endproc
 1194              	.LFE15:
 1195              		.size	CySysClkWriteEcoDiv, .-CySysClkWriteEcoDiv
 1196              		.section	.text.CySysClkWcoStart,"ax",%progbits
 1197              		.align	2
 1198              		.global	CySysClkWcoStart
 1199              		.code	16
 1200              		.thumb_func
 1201              		.type	CySysClkWcoStart, %function
 1202              	CySysClkWcoStart:
 1203              	.LFB16:
 808:.\Generated_Source\PSoC4/CyLib.c **** #endif /* (CY_PSOC4_4100BL || CY_PSOC4_4200BL) */
 809:.\Generated_Source\PSoC4/CyLib.c **** 
ARM GAS  C:\Users\CHRIST~1\AppData\Local\Temp\cc8KQrfd.s 			page 53


 810:.\Generated_Source\PSoC4/CyLib.c **** 
 811:.\Generated_Source\PSoC4/CyLib.c **** #if (CY_IP_WCO)
 812:.\Generated_Source\PSoC4/CyLib.c ****     /*******************************************************************************
 813:.\Generated_Source\PSoC4/CyLib.c ****     * Function Name: CySysClkWcoStart
 814:.\Generated_Source\PSoC4/CyLib.c ****     ********************************************************************************
 815:.\Generated_Source\PSoC4/CyLib.c ****     *
 816:.\Generated_Source\PSoC4/CyLib.c ****     * Summary:
 817:.\Generated_Source\PSoC4/CyLib.c ****     *  Enables the Watch Crystal Oscillator (WCO). The WCO is used as a source for
 818:.\Generated_Source\PSoC4/CyLib.c ****     *  LFCLK.  Similar to ILO, WCO is also available in all modes except Hibernate
 819:.\Generated_Source\PSoC4/CyLib.c ****     *  and Stop modes.
 820:.\Generated_Source\PSoC4/CyLib.c ****     *
 821:.\Generated_Source\PSoC4/CyLib.c ****     *  The WCO is always enabled in High Power Mode (HPM). Refer to the device
 822:.\Generated_Source\PSoC4/CyLib.c ****     *  datasheet for the  WCO startup time. Once WCO becomes stable it can be
 823:.\Generated_Source\PSoC4/CyLib.c ****     *  switched to the Low Power Mode (LPM). Note that oscillator can be unstable
 824:.\Generated_Source\PSoC4/CyLib.c ****     *  during switch and hence its output should not be used at the moment.
 825:.\Generated_Source\PSoC4/CyLib.c ****     *
 826:.\Generated_Source\PSoC4/CyLib.c ****     *  The CySysClkWcoSetPowerMode() function configures WCO power mode.
 827:.\Generated_Source\PSoC4/CyLib.c ****     *
 828:.\Generated_Source\PSoC4/CyLib.c ****     * Parameters:
 829:.\Generated_Source\PSoC4/CyLib.c ****     *  None
 830:.\Generated_Source\PSoC4/CyLib.c ****     *
 831:.\Generated_Source\PSoC4/CyLib.c ****     * Return:
 832:.\Generated_Source\PSoC4/CyLib.c ****     *  None
 833:.\Generated_Source\PSoC4/CyLib.c ****     *
 834:.\Generated_Source\PSoC4/CyLib.c ****     *******************************************************************************/
 835:.\Generated_Source\PSoC4/CyLib.c ****     void CySysClkWcoStart(void)
 836:.\Generated_Source\PSoC4/CyLib.c ****     {
 1204              		.loc 2 836 0
 1205              		.cfi_startproc
 1206 0000 80B5     		push	{r7, lr}
 1207              		.cfi_def_cfa_offset 8
 1208              		.cfi_offset 7, -8
 1209              		.cfi_offset 14, -4
 1210 0002 00AF     		add	r7, sp, #0
 1211              		.cfi_def_cfa_register 7
 837:.\Generated_Source\PSoC4/CyLib.c ****         CySysClkWcoSetHighPowerMode();
 1212              		.loc 2 837 0
 1213 0004 FFF7FEFF 		bl	CySysClkWcoSetHighPowerMode
 838:.\Generated_Source\PSoC4/CyLib.c ****         CY_SYS_CLK_WCO_CONFIG_REG |= CY_SYS_CLK_WCO_CONFIG_LPM_ENABLE;
 1214              		.loc 2 838 0
 1215 0008 044B     		ldr	r3, .L74
 1216 000a 044A     		ldr	r2, .L74
 1217 000c 1268     		ldr	r2, [r2]
 1218 000e 8021     		mov	r1, #128
 1219 0010 0906     		lsl	r1, r1, #24
 1220 0012 0A43     		orr	r2, r1
 1221 0014 1A60     		str	r2, [r3]
 839:.\Generated_Source\PSoC4/CyLib.c ****     }
 1222              		.loc 2 839 0
 1223 0016 BD46     		mov	sp, r7
 1224              		@ sp needed
 1225 0018 80BD     		pop	{r7, pc}
 1226              	.L75:
 1227 001a C046     		.align	2
 1228              	.L74:
 1229 001c 00F02E40 		.word	1076817920
 1230              		.cfi_endproc
ARM GAS  C:\Users\CHRIST~1\AppData\Local\Temp\cc8KQrfd.s 			page 54


 1231              	.LFE16:
 1232              		.size	CySysClkWcoStart, .-CySysClkWcoStart
 1233              		.section	.text.CySysClkWcoStop,"ax",%progbits
 1234              		.align	2
 1235              		.global	CySysClkWcoStop
 1236              		.code	16
 1237              		.thumb_func
 1238              		.type	CySysClkWcoStop, %function
 1239              	CySysClkWcoStop:
 1240              	.LFB17:
 840:.\Generated_Source\PSoC4/CyLib.c **** 
 841:.\Generated_Source\PSoC4/CyLib.c **** 
 842:.\Generated_Source\PSoC4/CyLib.c ****     /*******************************************************************************
 843:.\Generated_Source\PSoC4/CyLib.c ****     * Function Name: CySysClkWcoStop
 844:.\Generated_Source\PSoC4/CyLib.c ****     ********************************************************************************
 845:.\Generated_Source\PSoC4/CyLib.c ****     *
 846:.\Generated_Source\PSoC4/CyLib.c ****     * Summary:
 847:.\Generated_Source\PSoC4/CyLib.c ****     *  Disables the 32KHz Crystal Oscillator.
 848:.\Generated_Source\PSoC4/CyLib.c ****     *
 849:.\Generated_Source\PSoC4/CyLib.c ****     * Parameters:
 850:.\Generated_Source\PSoC4/CyLib.c ****     *  None
 851:.\Generated_Source\PSoC4/CyLib.c ****     *
 852:.\Generated_Source\PSoC4/CyLib.c ****     * Return:
 853:.\Generated_Source\PSoC4/CyLib.c ****     *  None
 854:.\Generated_Source\PSoC4/CyLib.c ****     *
 855:.\Generated_Source\PSoC4/CyLib.c ****     *******************************************************************************/
 856:.\Generated_Source\PSoC4/CyLib.c ****     void  CySysClkWcoStop(void)
 857:.\Generated_Source\PSoC4/CyLib.c ****     {
 1241              		.loc 2 857 0
 1242              		.cfi_startproc
 1243 0000 90B5     		push	{r4, r7, lr}
 1244              		.cfi_def_cfa_offset 12
 1245              		.cfi_offset 4, -12
 1246              		.cfi_offset 7, -8
 1247              		.cfi_offset 14, -4
 1248 0002 83B0     		sub	sp, sp, #12
 1249              		.cfi_def_cfa_offset 24
 1250 0004 00AF     		add	r7, sp, #0
 1251              		.cfi_def_cfa_register 7
 858:.\Generated_Source\PSoC4/CyLib.c ****         uint8  interruptState;
 859:.\Generated_Source\PSoC4/CyLib.c **** 
 860:.\Generated_Source\PSoC4/CyLib.c ****         if (0u != CySysClkWcoEnabled())
 1252              		.loc 2 860 0
 1253 0006 FFF7FEFF 		bl	CySysClkWcoEnabled
 1254 000a 031E     		sub	r3, r0, #0
 1255 000c 21D0     		beq	.L76
 861:.\Generated_Source\PSoC4/CyLib.c ****         {
 862:.\Generated_Source\PSoC4/CyLib.c **** 
 863:.\Generated_Source\PSoC4/CyLib.c ****             if (CY_SYS_CLK_LFCLK_SRC_WCO == CySysClkGetLfclkSource())
 1256              		.loc 2 863 0
 1257 000e FFF7FEFF 		bl	CySysClkGetLfclkSource
 1258 0012 021C     		mov	r2, r0
 1259 0014 8023     		mov	r3, #128
 1260 0016 DB05     		lsl	r3, r3, #23
 1261 0018 9A42     		cmp	r2, r3
 1262 001a 14D1     		bne	.L78
 864:.\Generated_Source\PSoC4/CyLib.c ****             {
ARM GAS  C:\Users\CHRIST~1\AppData\Local\Temp\cc8KQrfd.s 			page 55


 865:.\Generated_Source\PSoC4/CyLib.c ****                 interruptState = CyEnterCriticalSection();
 1263              		.loc 2 865 0
 1264 001c FC1D     		add	r4, r7, #7
 1265 001e FFF7FEFF 		bl	CyEnterCriticalSection
 1266 0022 031C     		mov	r3, r0
 1267 0024 2370     		strb	r3, [r4]
 866:.\Generated_Source\PSoC4/CyLib.c ****                 CySysClkLfclkPosedgeCatch();
 1268              		.loc 2 866 0
 1269 0026 FFF7FEFF 		bl	CySysClkLfclkPosedgeCatch
 867:.\Generated_Source\PSoC4/CyLib.c ****                 CY_SYS_CLK_WCO_CONFIG_REG &= (uint32) ~CY_SYS_CLK_WCO_CONFIG_LPM_ENABLE;
 1270              		.loc 2 867 0
 1271 002a 0B4B     		ldr	r3, .L79
 1272 002c 0A4A     		ldr	r2, .L79
 1273 002e 1268     		ldr	r2, [r2]
 1274 0030 5200     		lsl	r2, r2, #1
 1275 0032 5208     		lsr	r2, r2, #1
 1276 0034 1A60     		str	r2, [r3]
 868:.\Generated_Source\PSoC4/CyLib.c ****                 CySysClkLfclkPosedgeRestore();
 1277              		.loc 2 868 0
 1278 0036 FFF7FEFF 		bl	CySysClkLfclkPosedgeRestore
 869:.\Generated_Source\PSoC4/CyLib.c ****                 CyExitCriticalSection(interruptState);
 1279              		.loc 2 869 0
 1280 003a FB1D     		add	r3, r7, #7
 1281 003c 1B78     		ldrb	r3, [r3]
 1282 003e 181C     		mov	r0, r3
 1283 0040 FFF7FEFF 		bl	CyExitCriticalSection
 1284 0044 05E0     		b	.L76
 1285              	.L78:
 870:.\Generated_Source\PSoC4/CyLib.c ****             }
 871:.\Generated_Source\PSoC4/CyLib.c ****             else /* Safe to disable - shortened pulse does not impact peripheral */
 872:.\Generated_Source\PSoC4/CyLib.c ****             {
 873:.\Generated_Source\PSoC4/CyLib.c ****                 CY_SYS_CLK_WCO_CONFIG_REG &= (uint32) ~CY_SYS_CLK_WCO_CONFIG_LPM_ENABLE;
 1286              		.loc 2 873 0
 1287 0046 044B     		ldr	r3, .L79
 1288 0048 034A     		ldr	r2, .L79
 1289 004a 1268     		ldr	r2, [r2]
 1290 004c 5200     		lsl	r2, r2, #1
 1291 004e 5208     		lsr	r2, r2, #1
 1292 0050 1A60     		str	r2, [r3]
 1293              	.L76:
 874:.\Generated_Source\PSoC4/CyLib.c ****             }
 875:.\Generated_Source\PSoC4/CyLib.c ****         } /* Otherwise do nothing. WCO configuration cannot be changed. */
 876:.\Generated_Source\PSoC4/CyLib.c ****     }
 1294              		.loc 2 876 0
 1295 0052 BD46     		mov	sp, r7
 1296 0054 03B0     		add	sp, sp, #12
 1297              		@ sp needed
 1298 0056 90BD     		pop	{r4, r7, pc}
 1299              	.L80:
 1300              		.align	2
 1301              	.L79:
 1302 0058 00F02E40 		.word	1076817920
 1303              		.cfi_endproc
 1304              	.LFE17:
 1305              		.size	CySysClkWcoStop, .-CySysClkWcoStop
 1306              		.section	.text.CySysClkWcoEnabled,"ax",%progbits
 1307              		.align	2
ARM GAS  C:\Users\CHRIST~1\AppData\Local\Temp\cc8KQrfd.s 			page 56


 1308              		.code	16
 1309              		.thumb_func
 1310              		.type	CySysClkWcoEnabled, %function
 1311              	CySysClkWcoEnabled:
 1312              	.LFB18:
 877:.\Generated_Source\PSoC4/CyLib.c **** 
 878:.\Generated_Source\PSoC4/CyLib.c **** 
 879:.\Generated_Source\PSoC4/CyLib.c ****     /*******************************************************************************
 880:.\Generated_Source\PSoC4/CyLib.c ****     * Function Name: CySysClkWcoEnabled
 881:.\Generated_Source\PSoC4/CyLib.c ****     ********************************************************************************
 882:.\Generated_Source\PSoC4/CyLib.c ****     *
 883:.\Generated_Source\PSoC4/CyLib.c ****     * Summary:
 884:.\Generated_Source\PSoC4/CyLib.c ****     *  Reports WCO enable state.
 885:.\Generated_Source\PSoC4/CyLib.c ****     *
 886:.\Generated_Source\PSoC4/CyLib.c ****     * Parameters:
 887:.\Generated_Source\PSoC4/CyLib.c ****     *  None
 888:.\Generated_Source\PSoC4/CyLib.c ****     *
 889:.\Generated_Source\PSoC4/CyLib.c ****     * Return:
 890:.\Generated_Source\PSoC4/CyLib.c ****     *  1 if WCO is enabled, and 0 if WCO is disabled.
 891:.\Generated_Source\PSoC4/CyLib.c ****     *
 892:.\Generated_Source\PSoC4/CyLib.c ****     *******************************************************************************/
 893:.\Generated_Source\PSoC4/CyLib.c ****     static uint32 CySysClkWcoEnabled(void)
 894:.\Generated_Source\PSoC4/CyLib.c ****     {
 1313              		.loc 2 894 0
 1314              		.cfi_startproc
 1315 0000 80B5     		push	{r7, lr}
 1316              		.cfi_def_cfa_offset 8
 1317              		.cfi_offset 7, -8
 1318              		.cfi_offset 14, -4
 1319 0002 00AF     		add	r7, sp, #0
 1320              		.cfi_def_cfa_register 7
 895:.\Generated_Source\PSoC4/CyLib.c ****         return ((0u != (CY_SYS_CLK_WCO_CONFIG_REG & (uint32)(CY_SYS_CLK_WCO_CONFIG_LPM_ENABLE))) ?
 1321              		.loc 2 895 0
 1322 0004 044B     		ldr	r3, .L85
 1323 0006 1B68     		ldr	r3, [r3]
 896:.\Generated_Source\PSoC4/CyLib.c ****                 (uint32) 1u :
 1324              		.loc 2 896 0
 1325 0008 002B     		cmp	r3, #0
 1326 000a 01DA     		bge	.L82
 1327              		.loc 2 896 0 is_stmt 0 discriminator 1
 1328 000c 0123     		mov	r3, #1
 1329 000e 00E0     		b	.L83
 1330              	.L82:
 1331              		.loc 2 896 0 discriminator 2
 1332 0010 0023     		mov	r3, #0
 1333              	.L83:
 897:.\Generated_Source\PSoC4/CyLib.c ****                 (uint32) 0u);
 898:.\Generated_Source\PSoC4/CyLib.c ****     }
 1334              		.loc 2 898 0 is_stmt 1
 1335 0012 181C     		mov	r0, r3
 1336 0014 BD46     		mov	sp, r7
 1337              		@ sp needed
 1338 0016 80BD     		pop	{r7, pc}
 1339              	.L86:
 1340              		.align	2
 1341              	.L85:
 1342 0018 00F02E40 		.word	1076817920
ARM GAS  C:\Users\CHRIST~1\AppData\Local\Temp\cc8KQrfd.s 			page 57


 1343              		.cfi_endproc
 1344              	.LFE18:
 1345              		.size	CySysClkWcoEnabled, .-CySysClkWcoEnabled
 1346              		.section	.text.CySysClkWcoSetPowerMode,"ax",%progbits
 1347              		.align	2
 1348              		.global	CySysClkWcoSetPowerMode
 1349              		.code	16
 1350              		.thumb_func
 1351              		.type	CySysClkWcoSetPowerMode, %function
 1352              	CySysClkWcoSetPowerMode:
 1353              	.LFB19:
 899:.\Generated_Source\PSoC4/CyLib.c **** 
 900:.\Generated_Source\PSoC4/CyLib.c **** 
 901:.\Generated_Source\PSoC4/CyLib.c ****     /*******************************************************************************
 902:.\Generated_Source\PSoC4/CyLib.c ****     * Function Name: CySysClkWcoSetPowerMode
 903:.\Generated_Source\PSoC4/CyLib.c ****     ********************************************************************************
 904:.\Generated_Source\PSoC4/CyLib.c ****     *
 905:.\Generated_Source\PSoC4/CyLib.c ****     * Summary:
 906:.\Generated_Source\PSoC4/CyLib.c ****     *  Sets the power mode for the 32 KHz WCO.
 907:.\Generated_Source\PSoC4/CyLib.c ****     *
 908:.\Generated_Source\PSoC4/CyLib.c ****     * Parameters:
 909:.\Generated_Source\PSoC4/CyLib.c ****     *  uint32 mode:
 910:.\Generated_Source\PSoC4/CyLib.c ****     *   CY_SYS_CLK_WCO_HPM  - High power mode
 911:.\Generated_Source\PSoC4/CyLib.c ****     *   CY_SYS_CLK_WCO_LPM  - Low power mode
 912:.\Generated_Source\PSoC4/CyLib.c ****     *
 913:.\Generated_Source\PSoC4/CyLib.c ****     * Return:
 914:.\Generated_Source\PSoC4/CyLib.c ****     *  Previous power mode. The same as parameters.
 915:.\Generated_Source\PSoC4/CyLib.c ****     *
 916:.\Generated_Source\PSoC4/CyLib.c ****     *******************************************************************************/
 917:.\Generated_Source\PSoC4/CyLib.c ****     uint32 CySysClkWcoSetPowerMode(uint32 mode)
 918:.\Generated_Source\PSoC4/CyLib.c ****     {
 1354              		.loc 2 918 0
 1355              		.cfi_startproc
 1356 0000 80B5     		push	{r7, lr}
 1357              		.cfi_def_cfa_offset 8
 1358              		.cfi_offset 7, -8
 1359              		.cfi_offset 14, -4
 1360 0002 84B0     		sub	sp, sp, #16
 1361              		.cfi_def_cfa_offset 24
 1362 0004 00AF     		add	r7, sp, #0
 1363              		.cfi_def_cfa_register 7
 1364 0006 7860     		str	r0, [r7, #4]
 919:.\Generated_Source\PSoC4/CyLib.c ****         uint32 status;
 920:.\Generated_Source\PSoC4/CyLib.c **** 
 921:.\Generated_Source\PSoC4/CyLib.c ****         status = CY_SYS_CLK_WCO_CONFIG_REG & CY_SYS_CLK_WCO_LPM;
 1365              		.loc 2 921 0
 1366 0008 0C4B     		ldr	r3, .L94
 1367 000a 1B68     		ldr	r3, [r3]
 1368 000c 0122     		mov	r2, #1
 1369 000e 1340     		and	r3, r2
 1370 0010 FB60     		str	r3, [r7, #12]
 922:.\Generated_Source\PSoC4/CyLib.c **** 
 923:.\Generated_Source\PSoC4/CyLib.c ****         switch(mode)
 1371              		.loc 2 923 0
 1372 0012 7B68     		ldr	r3, [r7, #4]
 1373 0014 002B     		cmp	r3, #0
 1374 0016 02D0     		beq	.L89
ARM GAS  C:\Users\CHRIST~1\AppData\Local\Temp\cc8KQrfd.s 			page 58


 1375 0018 012B     		cmp	r3, #1
 1376 001a 03D0     		beq	.L90
 1377 001c 05E0     		b	.L93
 1378              	.L89:
 924:.\Generated_Source\PSoC4/CyLib.c ****         {
 925:.\Generated_Source\PSoC4/CyLib.c ****         case CY_SYS_CLK_WCO_HPM:
 926:.\Generated_Source\PSoC4/CyLib.c ****                 CySysClkWcoSetHighPowerMode();
 1379              		.loc 2 926 0
 1380 001e FFF7FEFF 		bl	CySysClkWcoSetHighPowerMode
 927:.\Generated_Source\PSoC4/CyLib.c ****             break;
 1381              		.loc 2 927 0
 1382 0022 06E0     		b	.L91
 1383              	.L90:
 928:.\Generated_Source\PSoC4/CyLib.c **** 
 929:.\Generated_Source\PSoC4/CyLib.c ****         case CY_SYS_CLK_WCO_LPM:
 930:.\Generated_Source\PSoC4/CyLib.c ****                 CySysClkWcoSetLowPowerMode();
 1384              		.loc 2 930 0
 1385 0024 FFF7FEFF 		bl	CySysClkWcoSetLowPowerMode
 931:.\Generated_Source\PSoC4/CyLib.c ****             break;
 1386              		.loc 2 931 0
 1387 0028 03E0     		b	.L91
 1388              	.L93:
 932:.\Generated_Source\PSoC4/CyLib.c **** 
 933:.\Generated_Source\PSoC4/CyLib.c ****         default:
 934:.\Generated_Source\PSoC4/CyLib.c ****             CYASSERT(0u != 0u);
 1389              		.loc 2 934 0
 1390 002a 0020     		mov	r0, #0
 1391 002c FFF7FEFF 		bl	CyHalt
 935:.\Generated_Source\PSoC4/CyLib.c ****             break;
 1392              		.loc 2 935 0
 1393 0030 C046     		mov	r8, r8
 1394              	.L91:
 936:.\Generated_Source\PSoC4/CyLib.c ****         }
 937:.\Generated_Source\PSoC4/CyLib.c **** 
 938:.\Generated_Source\PSoC4/CyLib.c ****         return (status);
 1395              		.loc 2 938 0
 1396 0032 FB68     		ldr	r3, [r7, #12]
 939:.\Generated_Source\PSoC4/CyLib.c ****     }
 1397              		.loc 2 939 0
 1398 0034 181C     		mov	r0, r3
 1399 0036 BD46     		mov	sp, r7
 1400 0038 04B0     		add	sp, sp, #16
 1401              		@ sp needed
 1402 003a 80BD     		pop	{r7, pc}
 1403              	.L95:
 1404              		.align	2
 1405              	.L94:
 1406 003c 00F02E40 		.word	1076817920
 1407              		.cfi_endproc
 1408              	.LFE19:
 1409              		.size	CySysClkWcoSetPowerMode, .-CySysClkWcoSetPowerMode
 1410              		.section	.text.CySysWdtLock,"ax",%progbits
 1411              		.align	2
 1412              		.global	CySysWdtLock
 1413              		.code	16
 1414              		.thumb_func
 1415              		.type	CySysWdtLock, %function
ARM GAS  C:\Users\CHRIST~1\AppData\Local\Temp\cc8KQrfd.s 			page 59


 1416              	CySysWdtLock:
 1417              	.LFB20:
 940:.\Generated_Source\PSoC4/CyLib.c **** 
 941:.\Generated_Source\PSoC4/CyLib.c **** #endif  /* (CY_IP_WCO) */
 942:.\Generated_Source\PSoC4/CyLib.c **** 
 943:.\Generated_Source\PSoC4/CyLib.c **** 
 944:.\Generated_Source\PSoC4/CyLib.c **** #if(CY_IP_SRSSV2)
 945:.\Generated_Source\PSoC4/CyLib.c **** 
 946:.\Generated_Source\PSoC4/CyLib.c **** 
 947:.\Generated_Source\PSoC4/CyLib.c ****     /*******************************************************************************
 948:.\Generated_Source\PSoC4/CyLib.c ****     * Function Name: CySysWdtLock
 949:.\Generated_Source\PSoC4/CyLib.c ****     ********************************************************************************
 950:.\Generated_Source\PSoC4/CyLib.c ****     *
 951:.\Generated_Source\PSoC4/CyLib.c ****     * Summary:
 952:.\Generated_Source\PSoC4/CyLib.c ****     *  Locks out configuration changes to the Watchdog timer registers and ILO
 953:.\Generated_Source\PSoC4/CyLib.c ****     *  configuration register.
 954:.\Generated_Source\PSoC4/CyLib.c ****     *
 955:.\Generated_Source\PSoC4/CyLib.c ****     * Parameters:
 956:.\Generated_Source\PSoC4/CyLib.c ****     *  None
 957:.\Generated_Source\PSoC4/CyLib.c ****     *
 958:.\Generated_Source\PSoC4/CyLib.c ****     * Return:
 959:.\Generated_Source\PSoC4/CyLib.c ****     *  None
 960:.\Generated_Source\PSoC4/CyLib.c ****     *
 961:.\Generated_Source\PSoC4/CyLib.c ****     * Side effects:
 962:.\Generated_Source\PSoC4/CyLib.c ****     *  After this function was called, ILO clock can't be disabled until
 963:.\Generated_Source\PSoC4/CyLib.c ****     *  CySysWdtUnlock() is called.
 964:.\Generated_Source\PSoC4/CyLib.c ****     *
 965:.\Generated_Source\PSoC4/CyLib.c ****     *******************************************************************************/
 966:.\Generated_Source\PSoC4/CyLib.c ****     void CySysWdtLock(void)
 967:.\Generated_Source\PSoC4/CyLib.c ****     {
 1418              		.loc 2 967 0
 1419              		.cfi_startproc
 1420 0000 90B5     		push	{r4, r7, lr}
 1421              		.cfi_def_cfa_offset 12
 1422              		.cfi_offset 4, -12
 1423              		.cfi_offset 7, -8
 1424              		.cfi_offset 14, -4
 1425 0002 83B0     		sub	sp, sp, #12
 1426              		.cfi_def_cfa_offset 24
 1427 0004 00AF     		add	r7, sp, #0
 1428              		.cfi_def_cfa_register 7
 968:.\Generated_Source\PSoC4/CyLib.c ****         uint8 interruptState;
 969:.\Generated_Source\PSoC4/CyLib.c ****         interruptState = CyEnterCriticalSection();
 1429              		.loc 2 969 0
 1430 0006 FC1D     		add	r4, r7, #7
 1431 0008 FFF7FEFF 		bl	CyEnterCriticalSection
 1432 000c 031C     		mov	r3, r0
 1433 000e 2370     		strb	r3, [r4]
 970:.\Generated_Source\PSoC4/CyLib.c **** 
 971:.\Generated_Source\PSoC4/CyLib.c ****         CY_SYS_CLK_SELECT_REG = (CY_SYS_CLK_SELECT_REG & (uint32)(~CY_SYS_WDT_CLK_LOCK_BITS_MASK)) 
 1434              		.loc 2 971 0
 1435 0010 074B     		ldr	r3, .L97
 1436 0012 074A     		ldr	r2, .L97
 1437 0014 1268     		ldr	r2, [r2]
 1438 0016 C021     		mov	r1, #192
 1439 0018 0902     		lsl	r1, r1, #8
 1440 001a 0A43     		orr	r2, r1
ARM GAS  C:\Users\CHRIST~1\AppData\Local\Temp\cc8KQrfd.s 			page 60


 1441 001c 1A60     		str	r2, [r3]
 972:.\Generated_Source\PSoC4/CyLib.c ****                  CY_SYS_WDT_CLK_LOCK_BITS_MASK;
 973:.\Generated_Source\PSoC4/CyLib.c **** 
 974:.\Generated_Source\PSoC4/CyLib.c ****         CyExitCriticalSection(interruptState);
 1442              		.loc 2 974 0
 1443 001e FB1D     		add	r3, r7, #7
 1444 0020 1B78     		ldrb	r3, [r3]
 1445 0022 181C     		mov	r0, r3
 1446 0024 FFF7FEFF 		bl	CyExitCriticalSection
 975:.\Generated_Source\PSoC4/CyLib.c ****     }
 1447              		.loc 2 975 0
 1448 0028 BD46     		mov	sp, r7
 1449 002a 03B0     		add	sp, sp, #12
 1450              		@ sp needed
 1451 002c 90BD     		pop	{r4, r7, pc}
 1452              	.L98:
 1453 002e C046     		.align	2
 1454              	.L97:
 1455 0030 00010B40 		.word	1074462976
 1456              		.cfi_endproc
 1457              	.LFE20:
 1458              		.size	CySysWdtLock, .-CySysWdtLock
 1459              		.section	.text.CySysWdtLocked,"ax",%progbits
 1460              		.align	2
 1461              		.code	16
 1462              		.thumb_func
 1463              		.type	CySysWdtLocked, %function
 1464              	CySysWdtLocked:
 1465              	.LFB21:
 976:.\Generated_Source\PSoC4/CyLib.c **** 
 977:.\Generated_Source\PSoC4/CyLib.c **** 
 978:.\Generated_Source\PSoC4/CyLib.c ****     /*******************************************************************************
 979:.\Generated_Source\PSoC4/CyLib.c ****     * Function Name: CySysWdtLocked
 980:.\Generated_Source\PSoC4/CyLib.c ****     ********************************************************************************
 981:.\Generated_Source\PSoC4/CyLib.c ****     *
 982:.\Generated_Source\PSoC4/CyLib.c ****     * Summary:
 983:.\Generated_Source\PSoC4/CyLib.c ****     *  Reports WDT lock state.
 984:.\Generated_Source\PSoC4/CyLib.c ****     *
 985:.\Generated_Source\PSoC4/CyLib.c ****     * Parameters:
 986:.\Generated_Source\PSoC4/CyLib.c ****     *  None
 987:.\Generated_Source\PSoC4/CyLib.c ****     *
 988:.\Generated_Source\PSoC4/CyLib.c ****     * Return:
 989:.\Generated_Source\PSoC4/CyLib.c ****     *  1 - WDT is locked, and 0 - WDT is unlocked.
 990:.\Generated_Source\PSoC4/CyLib.c ****     *
 991:.\Generated_Source\PSoC4/CyLib.c ****     *******************************************************************************/
 992:.\Generated_Source\PSoC4/CyLib.c ****     static uint32 CySysWdtLocked(void)
 993:.\Generated_Source\PSoC4/CyLib.c ****     {
 1466              		.loc 2 993 0
 1467              		.cfi_startproc
 1468 0000 80B5     		push	{r7, lr}
 1469              		.cfi_def_cfa_offset 8
 1470              		.cfi_offset 7, -8
 1471              		.cfi_offset 14, -4
 1472 0002 00AF     		add	r7, sp, #0
 1473              		.cfi_def_cfa_register 7
 994:.\Generated_Source\PSoC4/CyLib.c ****         /* Prohibits writing to WDT registers and ILO/WCO registers when not equal 0 */
 995:.\Generated_Source\PSoC4/CyLib.c ****         return ((0u != (CY_SYS_CLK_SELECT_REG & (uint32)(CY_SYS_WDT_CLK_LOCK_BITS_MASK))) ? (uint32
ARM GAS  C:\Users\CHRIST~1\AppData\Local\Temp\cc8KQrfd.s 			page 61


 1474              		.loc 2 995 0
 1475 0004 054B     		ldr	r3, .L103
 1476 0006 1A68     		ldr	r2, [r3]
 1477 0008 C023     		mov	r3, #192
 1478 000a 1B02     		lsl	r3, r3, #8
 1479 000c 1340     		and	r3, r2
 1480 000e 01D0     		beq	.L100
 1481              		.loc 2 995 0 is_stmt 0 discriminator 1
 1482 0010 0123     		mov	r3, #1
 1483 0012 00E0     		b	.L101
 1484              	.L100:
 1485              		.loc 2 995 0 discriminator 2
 1486 0014 0023     		mov	r3, #0
 1487              	.L101:
 996:.\Generated_Source\PSoC4/CyLib.c ****     }
 1488              		.loc 2 996 0 is_stmt 1 discriminator 4
 1489 0016 181C     		mov	r0, r3
 1490 0018 BD46     		mov	sp, r7
 1491              		@ sp needed
 1492 001a 80BD     		pop	{r7, pc}
 1493              	.L104:
 1494              		.align	2
 1495              	.L103:
 1496 001c 00010B40 		.word	1074462976
 1497              		.cfi_endproc
 1498              	.LFE21:
 1499              		.size	CySysWdtLocked, .-CySysWdtLocked
 1500              		.section	.text.CySysWdtUnlock,"ax",%progbits
 1501              		.align	2
 1502              		.global	CySysWdtUnlock
 1503              		.code	16
 1504              		.thumb_func
 1505              		.type	CySysWdtUnlock, %function
 1506              	CySysWdtUnlock:
 1507              	.LFB22:
 997:.\Generated_Source\PSoC4/CyLib.c **** 
 998:.\Generated_Source\PSoC4/CyLib.c **** 
 999:.\Generated_Source\PSoC4/CyLib.c ****     /*******************************************************************************
1000:.\Generated_Source\PSoC4/CyLib.c ****     * Function Name: CySysWdtUnlock
1001:.\Generated_Source\PSoC4/CyLib.c ****     ********************************************************************************
1002:.\Generated_Source\PSoC4/CyLib.c ****     *
1003:.\Generated_Source\PSoC4/CyLib.c ****     * Summary:
1004:.\Generated_Source\PSoC4/CyLib.c ****     *  Unlocks the Watchdog Timer configuration register.
1005:.\Generated_Source\PSoC4/CyLib.c ****     *
1006:.\Generated_Source\PSoC4/CyLib.c ****     * Parameters:
1007:.\Generated_Source\PSoC4/CyLib.c ****     *  None
1008:.\Generated_Source\PSoC4/CyLib.c ****     *
1009:.\Generated_Source\PSoC4/CyLib.c ****     * Return:
1010:.\Generated_Source\PSoC4/CyLib.c ****     *  None
1011:.\Generated_Source\PSoC4/CyLib.c ****     *
1012:.\Generated_Source\PSoC4/CyLib.c ****     *******************************************************************************/
1013:.\Generated_Source\PSoC4/CyLib.c ****     void CySysWdtUnlock(void)
1014:.\Generated_Source\PSoC4/CyLib.c ****     {
 1508              		.loc 2 1014 0
 1509              		.cfi_startproc
 1510 0000 90B5     		push	{r4, r7, lr}
 1511              		.cfi_def_cfa_offset 12
ARM GAS  C:\Users\CHRIST~1\AppData\Local\Temp\cc8KQrfd.s 			page 62


 1512              		.cfi_offset 4, -12
 1513              		.cfi_offset 7, -8
 1514              		.cfi_offset 14, -4
 1515 0002 83B0     		sub	sp, sp, #12
 1516              		.cfi_def_cfa_offset 24
 1517 0004 00AF     		add	r7, sp, #0
 1518              		.cfi_def_cfa_register 7
1015:.\Generated_Source\PSoC4/CyLib.c ****         uint8 interruptState;
1016:.\Generated_Source\PSoC4/CyLib.c ****         interruptState = CyEnterCriticalSection();
 1519              		.loc 2 1016 0
 1520 0006 FC1D     		add	r4, r7, #7
 1521 0008 FFF7FEFF 		bl	CyEnterCriticalSection
 1522 000c 031C     		mov	r3, r0
 1523 000e 2370     		strb	r3, [r4]
1017:.\Generated_Source\PSoC4/CyLib.c **** 
1018:.\Generated_Source\PSoC4/CyLib.c ****         /* Removing WDT lock requires two writes */
1019:.\Generated_Source\PSoC4/CyLib.c ****         CY_SYS_CLK_SELECT_REG = ((CY_SYS_CLK_SELECT_REG & (uint32)(~CY_SYS_WDT_CLK_LOCK_BITS_MASK))
 1524              		.loc 2 1019 0
 1525 0010 0C4B     		ldr	r3, .L106
 1526 0012 0C4A     		ldr	r2, .L106
 1527 0014 1268     		ldr	r2, [r2]
 1528 0016 0C49     		ldr	r1, .L106+4
 1529 0018 0A40     		and	r2, r1
 1530 001a 8021     		mov	r1, #128
 1531 001c C901     		lsl	r1, r1, #7
 1532 001e 0A43     		orr	r2, r1
 1533 0020 1A60     		str	r2, [r3]
1020:.\Generated_Source\PSoC4/CyLib.c ****                 CY_SYS_WDT_CLK_LOCK_BIT0);
1021:.\Generated_Source\PSoC4/CyLib.c **** 
1022:.\Generated_Source\PSoC4/CyLib.c ****         CY_SYS_CLK_SELECT_REG = ((CY_SYS_CLK_SELECT_REG & (uint32)(~CY_SYS_WDT_CLK_LOCK_BITS_MASK))
 1534              		.loc 2 1022 0
 1535 0022 084B     		ldr	r3, .L106
 1536 0024 074A     		ldr	r2, .L106
 1537 0026 1268     		ldr	r2, [r2]
 1538 0028 0749     		ldr	r1, .L106+4
 1539 002a 0A40     		and	r2, r1
 1540 002c 8021     		mov	r1, #128
 1541 002e 0902     		lsl	r1, r1, #8
 1542 0030 0A43     		orr	r2, r1
 1543 0032 1A60     		str	r2, [r3]
1023:.\Generated_Source\PSoC4/CyLib.c ****                 CY_SYS_WDT_CLK_LOCK_BIT1);
1024:.\Generated_Source\PSoC4/CyLib.c **** 
1025:.\Generated_Source\PSoC4/CyLib.c ****         CyExitCriticalSection(interruptState);
 1544              		.loc 2 1025 0
 1545 0034 FB1D     		add	r3, r7, #7
 1546 0036 1B78     		ldrb	r3, [r3]
 1547 0038 181C     		mov	r0, r3
 1548 003a FFF7FEFF 		bl	CyExitCriticalSection
1026:.\Generated_Source\PSoC4/CyLib.c ****     }
 1549              		.loc 2 1026 0
 1550 003e BD46     		mov	sp, r7
 1551 0040 03B0     		add	sp, sp, #12
 1552              		@ sp needed
 1553 0042 90BD     		pop	{r4, r7, pc}
 1554              	.L107:
 1555              		.align	2
 1556              	.L106:
ARM GAS  C:\Users\CHRIST~1\AppData\Local\Temp\cc8KQrfd.s 			page 63


 1557 0044 00010B40 		.word	1074462976
 1558 0048 FF3FFFFF 		.word	-49153
 1559              		.cfi_endproc
 1560              	.LFE22:
 1561              		.size	CySysWdtUnlock, .-CySysWdtUnlock
 1562              		.section	.text.CySysWdtReadEnabledStatus,"ax",%progbits
 1563              		.align	2
 1564              		.global	CySysWdtReadEnabledStatus
 1565              		.code	16
 1566              		.thumb_func
 1567              		.type	CySysWdtReadEnabledStatus, %function
 1568              	CySysWdtReadEnabledStatus:
 1569              	.LFB23:
1027:.\Generated_Source\PSoC4/CyLib.c **** 
1028:.\Generated_Source\PSoC4/CyLib.c **** 
1029:.\Generated_Source\PSoC4/CyLib.c ****     /*******************************************************************************
1030:.\Generated_Source\PSoC4/CyLib.c ****     * Function Name: CySysWdtReadEnabledStatus
1031:.\Generated_Source\PSoC4/CyLib.c ****     ********************************************************************************
1032:.\Generated_Source\PSoC4/CyLib.c ****     *
1033:.\Generated_Source\PSoC4/CyLib.c ****     * Summary:
1034:.\Generated_Source\PSoC4/CyLib.c ****     *  Reads the enabled status of one of the three WDT counters.
1035:.\Generated_Source\PSoC4/CyLib.c ****     *
1036:.\Generated_Source\PSoC4/CyLib.c ****     * Parameters:
1037:.\Generated_Source\PSoC4/CyLib.c ****     *  counterNum: Valid range [0-2].  Number of the WDT counter.
1038:.\Generated_Source\PSoC4/CyLib.c ****     *
1039:.\Generated_Source\PSoC4/CyLib.c ****     * Return:
1040:.\Generated_Source\PSoC4/CyLib.c ****     *  Status of WDT counter:
1041:.\Generated_Source\PSoC4/CyLib.c ****     *   0 - counter is disabled
1042:.\Generated_Source\PSoC4/CyLib.c ****     *   1 - counter is enabled
1043:.\Generated_Source\PSoC4/CyLib.c ****     *
1044:.\Generated_Source\PSoC4/CyLib.c ****     * Side Effects:
1045:.\Generated_Source\PSoC4/CyLib.c ****     *  This function returns actual WDT counter status from status register. It may
1046:.\Generated_Source\PSoC4/CyLib.c ****     *  take up to 3 LFCLK cycles since WDT counter was enabled for WDT status
1047:.\Generated_Source\PSoC4/CyLib.c ****     *  register to contain actual data.
1048:.\Generated_Source\PSoC4/CyLib.c ****     *
1049:.\Generated_Source\PSoC4/CyLib.c ****     *******************************************************************************/
1050:.\Generated_Source\PSoC4/CyLib.c ****     uint32 CySysWdtReadEnabledStatus(uint32 counterNum)
1051:.\Generated_Source\PSoC4/CyLib.c ****     {
 1570              		.loc 2 1051 0
 1571              		.cfi_startproc
 1572 0000 80B5     		push	{r7, lr}
 1573              		.cfi_def_cfa_offset 8
 1574              		.cfi_offset 7, -8
 1575              		.cfi_offset 14, -4
 1576 0002 82B0     		sub	sp, sp, #8
 1577              		.cfi_def_cfa_offset 16
 1578 0004 00AF     		add	r7, sp, #0
 1579              		.cfi_def_cfa_register 7
 1580 0006 7860     		str	r0, [r7, #4]
1052:.\Generated_Source\PSoC4/CyLib.c ****         CYASSERT(counterNum < CY_SYS_WDT_COUNTERS_MAX);
 1581              		.loc 2 1052 0
 1582 0008 7B68     		ldr	r3, [r7, #4]
 1583 000a 022B     		cmp	r3, #2
 1584 000c 02D9     		bls	.L109
 1585              		.loc 2 1052 0 is_stmt 0 discriminator 1
 1586 000e 0020     		mov	r0, #0
 1587 0010 FFF7FEFF 		bl	CyHalt
ARM GAS  C:\Users\CHRIST~1\AppData\Local\Temp\cc8KQrfd.s 			page 64


 1588              	.L109:
1053:.\Generated_Source\PSoC4/CyLib.c ****         return ((CY_SYS_WDT_CONTROL_REG >> ((CY_SYS_WDT_CNT_SHIFT * counterNum) + CY_SYS_WDT_CNT_ST
 1589              		.loc 2 1053 0 is_stmt 1
 1590 0014 054B     		ldr	r3, .L111
 1591 0016 1B68     		ldr	r3, [r3]
 1592 0018 7A68     		ldr	r2, [r7, #4]
 1593 001a D200     		lsl	r2, r2, #3
 1594 001c 0132     		add	r2, r2, #1
 1595 001e D340     		lsr	r3, r3, r2
 1596 0020 0122     		mov	r2, #1
 1597 0022 1340     		and	r3, r2
1054:.\Generated_Source\PSoC4/CyLib.c ****     }
 1598              		.loc 2 1054 0
 1599 0024 181C     		mov	r0, r3
 1600 0026 BD46     		mov	sp, r7
 1601 0028 02B0     		add	sp, sp, #8
 1602              		@ sp needed
 1603 002a 80BD     		pop	{r7, pc}
 1604              	.L112:
 1605              		.align	2
 1606              	.L111:
 1607 002c 10020B40 		.word	1074463248
 1608              		.cfi_endproc
 1609              	.LFE23:
 1610              		.size	CySysWdtReadEnabledStatus, .-CySysWdtReadEnabledStatus
 1611              		.section	.text.CySysWdtWriteMode,"ax",%progbits
 1612              		.align	2
 1613              		.global	CySysWdtWriteMode
 1614              		.code	16
 1615              		.thumb_func
 1616              		.type	CySysWdtWriteMode, %function
 1617              	CySysWdtWriteMode:
 1618              	.LFB24:
1055:.\Generated_Source\PSoC4/CyLib.c **** 
1056:.\Generated_Source\PSoC4/CyLib.c **** 
1057:.\Generated_Source\PSoC4/CyLib.c ****     /*******************************************************************************
1058:.\Generated_Source\PSoC4/CyLib.c ****     * Function Name: CySysWdtWriteMode
1059:.\Generated_Source\PSoC4/CyLib.c ****     ********************************************************************************
1060:.\Generated_Source\PSoC4/CyLib.c ****     *
1061:.\Generated_Source\PSoC4/CyLib.c ****     * Summary:
1062:.\Generated_Source\PSoC4/CyLib.c ****     *   Writes the mode of one of the three WDT counters.
1063:.\Generated_Source\PSoC4/CyLib.c ****     *
1064:.\Generated_Source\PSoC4/CyLib.c ****     * Parameters:
1065:.\Generated_Source\PSoC4/CyLib.c ****     *   counterNum: Valid range [0-2].  Number of the WDT counter.
1066:.\Generated_Source\PSoC4/CyLib.c ****     *   mode:       Mode of operation for the counter
1067:.\Generated_Source\PSoC4/CyLib.c ****     *       Define                   Mode
1068:.\Generated_Source\PSoC4/CyLib.c ****     *    CY_SYS_WDT_MODE_NONE       Free running
1069:.\Generated_Source\PSoC4/CyLib.c ****     *    CY_SYS_WDT_MODE_INT        Interrupt generated on match for counter 0
1070:.\Generated_Source\PSoC4/CyLib.c ****     *                               and 1, and on bit toggle for counter 2.
1071:.\Generated_Source\PSoC4/CyLib.c ****     *    CY_SYS_WDT_MODE_RESET      Reset on match (valid for counter 0 and 1
1072:.\Generated_Source\PSoC4/CyLib.c ****     *                               only)
1073:.\Generated_Source\PSoC4/CyLib.c ****     *    CY_SYS_WDT_MODE_INT_RESET  Generate an interrupt.  Generate a reset on
1074:.\Generated_Source\PSoC4/CyLib.c ****     *                                    the 3rd unhandled interrupt.
1075:.\Generated_Source\PSoC4/CyLib.c ****     *                                    (valid for counter 0 and 1 only)
1076:.\Generated_Source\PSoC4/CyLib.c ****     * Return:
1077:.\Generated_Source\PSoC4/CyLib.c ****     *   None
1078:.\Generated_Source\PSoC4/CyLib.c ****     *
ARM GAS  C:\Users\CHRIST~1\AppData\Local\Temp\cc8KQrfd.s 			page 65


1079:.\Generated_Source\PSoC4/CyLib.c ****     * Side Effects:
1080:.\Generated_Source\PSoC4/CyLib.c ****     *   WDT counter counterNum should be disabled to set mode. Otherwise this
1081:.\Generated_Source\PSoC4/CyLib.c ****     *   function call will have no effect. If the specified counter is enabled,
1082:.\Generated_Source\PSoC4/CyLib.c ****     *   call CySysWdtDisable() function with the corresponding parameter to
1083:.\Generated_Source\PSoC4/CyLib.c ****     *   disable specified counter and wait for it to stop.
1084:.\Generated_Source\PSoC4/CyLib.c ****     *
1085:.\Generated_Source\PSoC4/CyLib.c ****     *******************************************************************************/
1086:.\Generated_Source\PSoC4/CyLib.c ****     void CySysWdtWriteMode(uint32 counterNum, uint32 mode)
1087:.\Generated_Source\PSoC4/CyLib.c ****     {
 1619              		.loc 2 1087 0
 1620              		.cfi_startproc
 1621 0000 80B5     		push	{r7, lr}
 1622              		.cfi_def_cfa_offset 8
 1623              		.cfi_offset 7, -8
 1624              		.cfi_offset 14, -4
 1625 0002 84B0     		sub	sp, sp, #16
 1626              		.cfi_def_cfa_offset 24
 1627 0004 00AF     		add	r7, sp, #0
 1628              		.cfi_def_cfa_register 7
 1629 0006 7860     		str	r0, [r7, #4]
 1630 0008 3960     		str	r1, [r7]
1088:.\Generated_Source\PSoC4/CyLib.c ****         uint32 configRegValue;
1089:.\Generated_Source\PSoC4/CyLib.c **** 
1090:.\Generated_Source\PSoC4/CyLib.c ****         CYASSERT(counterNum < CY_SYS_WDT_COUNTERS_MAX);
 1631              		.loc 2 1090 0
 1632 000a 7B68     		ldr	r3, [r7, #4]
 1633 000c 022B     		cmp	r3, #2
 1634 000e 02D9     		bls	.L114
 1635              		.loc 2 1090 0 is_stmt 0 discriminator 1
 1636 0010 0020     		mov	r0, #0
 1637 0012 FFF7FEFF 		bl	CyHalt
 1638              	.L114:
1091:.\Generated_Source\PSoC4/CyLib.c **** 
1092:.\Generated_Source\PSoC4/CyLib.c ****         if(0u == CySysWdtReadEnabledStatus(counterNum))
 1639              		.loc 2 1092 0 is_stmt 1
 1640 0016 7B68     		ldr	r3, [r7, #4]
 1641 0018 181C     		mov	r0, r3
 1642 001a FFF7FEFF 		bl	CySysWdtReadEnabledStatus
 1643 001e 031E     		sub	r3, r0, #0
 1644 0020 15D1     		bne	.L113
1093:.\Generated_Source\PSoC4/CyLib.c ****         {
1094:.\Generated_Source\PSoC4/CyLib.c ****             configRegValue = CY_SYS_WDT_CONFIG_REG &
 1645              		.loc 2 1094 0
 1646 0022 0C4B     		ldr	r3, .L116
 1647 0024 1B68     		ldr	r3, [r3]
1095:.\Generated_Source\PSoC4/CyLib.c ****                                 (uint32)~((uint32)(CY_SYS_WDT_MODE_MASK << (counterNum * CY_SYS_WDT
 1648              		.loc 2 1095 0
 1649 0026 7A68     		ldr	r2, [r7, #4]
 1650 0028 D200     		lsl	r2, r2, #3
 1651 002a 111C     		mov	r1, r2
 1652 002c 0322     		mov	r2, #3
 1653 002e 8A40     		lsl	r2, r2, r1
 1654 0030 D243     		mvn	r2, r2
1094:.\Generated_Source\PSoC4/CyLib.c ****                                 (uint32)~((uint32)(CY_SYS_WDT_MODE_MASK << (counterNum * CY_SYS_WDT
 1655              		.loc 2 1094 0
 1656 0032 1340     		and	r3, r2
 1657 0034 FB60     		str	r3, [r7, #12]
ARM GAS  C:\Users\CHRIST~1\AppData\Local\Temp\cc8KQrfd.s 			page 66


1096:.\Generated_Source\PSoC4/CyLib.c ****             configRegValue |= (uint32)((mode & CY_SYS_WDT_MODE_MASK) << (counterNum * CY_SYS_WDT_CN
 1658              		.loc 2 1096 0
 1659 0036 3B68     		ldr	r3, [r7]
 1660 0038 0322     		mov	r2, #3
 1661 003a 1340     		and	r3, r2
 1662 003c 7A68     		ldr	r2, [r7, #4]
 1663 003e D200     		lsl	r2, r2, #3
 1664 0040 9340     		lsl	r3, r3, r2
 1665 0042 FA68     		ldr	r2, [r7, #12]
 1666 0044 1343     		orr	r3, r2
 1667 0046 FB60     		str	r3, [r7, #12]
1097:.\Generated_Source\PSoC4/CyLib.c ****             CY_SYS_WDT_CONFIG_REG = configRegValue;
 1668              		.loc 2 1097 0
 1669 0048 024B     		ldr	r3, .L116
 1670 004a FA68     		ldr	r2, [r7, #12]
 1671 004c 1A60     		str	r2, [r3]
 1672              	.L113:
1098:.\Generated_Source\PSoC4/CyLib.c ****         }
1099:.\Generated_Source\PSoC4/CyLib.c ****     }
 1673              		.loc 2 1099 0
 1674 004e BD46     		mov	sp, r7
 1675 0050 04B0     		add	sp, sp, #16
 1676              		@ sp needed
 1677 0052 80BD     		pop	{r7, pc}
 1678              	.L117:
 1679              		.align	2
 1680              	.L116:
 1681 0054 0C020B40 		.word	1074463244
 1682              		.cfi_endproc
 1683              	.LFE24:
 1684              		.size	CySysWdtWriteMode, .-CySysWdtWriteMode
 1685              		.section	.text.CySysWdtReadMode,"ax",%progbits
 1686              		.align	2
 1687              		.global	CySysWdtReadMode
 1688              		.code	16
 1689              		.thumb_func
 1690              		.type	CySysWdtReadMode, %function
 1691              	CySysWdtReadMode:
 1692              	.LFB25:
1100:.\Generated_Source\PSoC4/CyLib.c **** 
1101:.\Generated_Source\PSoC4/CyLib.c **** 
1102:.\Generated_Source\PSoC4/CyLib.c ****     /*******************************************************************************
1103:.\Generated_Source\PSoC4/CyLib.c ****     * Function Name: CySysWdtReadMode
1104:.\Generated_Source\PSoC4/CyLib.c ****     ********************************************************************************
1105:.\Generated_Source\PSoC4/CyLib.c ****     *
1106:.\Generated_Source\PSoC4/CyLib.c ****     * Summary:
1107:.\Generated_Source\PSoC4/CyLib.c ****     *  Reads the mode of one of the three WDT counters.
1108:.\Generated_Source\PSoC4/CyLib.c ****     *
1109:.\Generated_Source\PSoC4/CyLib.c ****     * Parameters:
1110:.\Generated_Source\PSoC4/CyLib.c ****     *  counterNum: Valid range [0-2].  Number of the WDT counter.
1111:.\Generated_Source\PSoC4/CyLib.c ****     *
1112:.\Generated_Source\PSoC4/CyLib.c ****     * Return:
1113:.\Generated_Source\PSoC4/CyLib.c ****     *  Mode of the counter.  Same enumerated values as mode parameter used in
1114:.\Generated_Source\PSoC4/CyLib.c ****     *  CySysWdtWriteMode().
1115:.\Generated_Source\PSoC4/CyLib.c ****     *
1116:.\Generated_Source\PSoC4/CyLib.c ****     *******************************************************************************/
1117:.\Generated_Source\PSoC4/CyLib.c ****     uint32 CySysWdtReadMode(uint32 counterNum)
ARM GAS  C:\Users\CHRIST~1\AppData\Local\Temp\cc8KQrfd.s 			page 67


1118:.\Generated_Source\PSoC4/CyLib.c ****     {
 1693              		.loc 2 1118 0
 1694              		.cfi_startproc
 1695 0000 80B5     		push	{r7, lr}
 1696              		.cfi_def_cfa_offset 8
 1697              		.cfi_offset 7, -8
 1698              		.cfi_offset 14, -4
 1699 0002 82B0     		sub	sp, sp, #8
 1700              		.cfi_def_cfa_offset 16
 1701 0004 00AF     		add	r7, sp, #0
 1702              		.cfi_def_cfa_register 7
 1703 0006 7860     		str	r0, [r7, #4]
1119:.\Generated_Source\PSoC4/CyLib.c ****         return ((CY_SYS_WDT_CONFIG_REG >> (counterNum * CY_SYS_WDT_CNT_SHIFT)) & CY_SYS_WDT_MODE_MA
 1704              		.loc 2 1119 0
 1705 0008 054B     		ldr	r3, .L120
 1706 000a 1B68     		ldr	r3, [r3]
 1707 000c 7A68     		ldr	r2, [r7, #4]
 1708 000e D200     		lsl	r2, r2, #3
 1709 0010 D340     		lsr	r3, r3, r2
 1710 0012 0322     		mov	r2, #3
 1711 0014 1340     		and	r3, r2
1120:.\Generated_Source\PSoC4/CyLib.c ****     }
 1712              		.loc 2 1120 0
 1713 0016 181C     		mov	r0, r3
 1714 0018 BD46     		mov	sp, r7
 1715 001a 02B0     		add	sp, sp, #8
 1716              		@ sp needed
 1717 001c 80BD     		pop	{r7, pc}
 1718              	.L121:
 1719 001e C046     		.align	2
 1720              	.L120:
 1721 0020 0C020B40 		.word	1074463244
 1722              		.cfi_endproc
 1723              	.LFE25:
 1724              		.size	CySysWdtReadMode, .-CySysWdtReadMode
 1725              		.section	.text.CySysWdtWriteClearOnMatch,"ax",%progbits
 1726              		.align	2
 1727              		.global	CySysWdtWriteClearOnMatch
 1728              		.code	16
 1729              		.thumb_func
 1730              		.type	CySysWdtWriteClearOnMatch, %function
 1731              	CySysWdtWriteClearOnMatch:
 1732              	.LFB26:
1121:.\Generated_Source\PSoC4/CyLib.c **** 
1122:.\Generated_Source\PSoC4/CyLib.c **** 
1123:.\Generated_Source\PSoC4/CyLib.c ****     /*******************************************************************************
1124:.\Generated_Source\PSoC4/CyLib.c ****     * Function Name: CySysWdtWriteClearOnMatch
1125:.\Generated_Source\PSoC4/CyLib.c ****     ********************************************************************************
1126:.\Generated_Source\PSoC4/CyLib.c ****     *
1127:.\Generated_Source\PSoC4/CyLib.c ****     * Summary:
1128:.\Generated_Source\PSoC4/CyLib.c ****     *  Configures the WDT counter clear on a match setting.  If configured to clear
1129:.\Generated_Source\PSoC4/CyLib.c ****     *  on match, the counter will count from 0 to the MatchValue giving it a
1130:.\Generated_Source\PSoC4/CyLib.c ****     *  period of (MatchValue + 1).
1131:.\Generated_Source\PSoC4/CyLib.c ****     *
1132:.\Generated_Source\PSoC4/CyLib.c ****     * Parameters:
1133:.\Generated_Source\PSoC4/CyLib.c ****     *  counterNum:
1134:.\Generated_Source\PSoC4/CyLib.c ****     *   Valid range [0-1].  Number of the WDT counter.  Match values are not
ARM GAS  C:\Users\CHRIST~1\AppData\Local\Temp\cc8KQrfd.s 			page 68


1135:.\Generated_Source\PSoC4/CyLib.c ****     *   supported by counter 2.
1136:.\Generated_Source\PSoC4/CyLib.c ****     *
1137:.\Generated_Source\PSoC4/CyLib.c ****     * enable:
1138:.\Generated_Source\PSoC4/CyLib.c ****     *   0 to disable, 1 to enable
1139:.\Generated_Source\PSoC4/CyLib.c ****     *
1140:.\Generated_Source\PSoC4/CyLib.c ****     * Return:
1141:.\Generated_Source\PSoC4/CyLib.c ****     *   None
1142:.\Generated_Source\PSoC4/CyLib.c ****     *
1143:.\Generated_Source\PSoC4/CyLib.c ****     * Side Effects:
1144:.\Generated_Source\PSoC4/CyLib.c ****     *   WDT counter counterNum should be disabled. Otherwise this function call will
1145:.\Generated_Source\PSoC4/CyLib.c ****     *   have no effect. If the specified counter is enabled, call CySysWdtDisable()
1146:.\Generated_Source\PSoC4/CyLib.c ****     *   function with the corresponding parameter to disable specified counter and
1147:.\Generated_Source\PSoC4/CyLib.c ****     *   wait for it to stop. This may take up to three LFCLK cycles.
1148:.\Generated_Source\PSoC4/CyLib.c ****     *
1149:.\Generated_Source\PSoC4/CyLib.c ****     *******************************************************************************/
1150:.\Generated_Source\PSoC4/CyLib.c ****     void CySysWdtWriteClearOnMatch(uint32 counterNum, uint32 enable)
1151:.\Generated_Source\PSoC4/CyLib.c ****     {
 1733              		.loc 2 1151 0
 1734              		.cfi_startproc
 1735 0000 80B5     		push	{r7, lr}
 1736              		.cfi_def_cfa_offset 8
 1737              		.cfi_offset 7, -8
 1738              		.cfi_offset 14, -4
 1739 0002 84B0     		sub	sp, sp, #16
 1740              		.cfi_def_cfa_offset 24
 1741 0004 00AF     		add	r7, sp, #0
 1742              		.cfi_def_cfa_register 7
 1743 0006 7860     		str	r0, [r7, #4]
 1744 0008 3960     		str	r1, [r7]
1152:.\Generated_Source\PSoC4/CyLib.c ****         uint32 configRegValue;
1153:.\Generated_Source\PSoC4/CyLib.c **** 
1154:.\Generated_Source\PSoC4/CyLib.c ****         CYASSERT((counterNum == CY_SYS_WDT_COUNTER0) ||
 1745              		.loc 2 1154 0
 1746 000a 7B68     		ldr	r3, [r7, #4]
 1747 000c 002B     		cmp	r3, #0
 1748 000e 02D0     		beq	.L123
 1749              		.loc 2 1154 0 is_stmt 0 discriminator 2
 1750 0010 7B68     		ldr	r3, [r7, #4]
 1751 0012 012B     		cmp	r3, #1
 1752 0014 01D1     		bne	.L124
 1753              	.L123:
 1754              		.loc 2 1154 0 discriminator 3
 1755 0016 0123     		mov	r3, #1
 1756 0018 00E0     		b	.L125
 1757              	.L124:
 1758              		.loc 2 1154 0 discriminator 4
 1759 001a 0023     		mov	r3, #0
 1760              	.L125:
 1761              		.loc 2 1154 0 discriminator 6
 1762 001c 002B     		cmp	r3, #0
 1763 001e 02D1     		bne	.L126
 1764              		.loc 2 1154 0 discriminator 7
 1765 0020 0020     		mov	r0, #0
 1766 0022 FFF7FEFF 		bl	CyHalt
 1767              	.L126:
1155:.\Generated_Source\PSoC4/CyLib.c ****                  (counterNum == CY_SYS_WDT_COUNTER1));
1156:.\Generated_Source\PSoC4/CyLib.c **** 
ARM GAS  C:\Users\CHRIST~1\AppData\Local\Temp\cc8KQrfd.s 			page 69


1157:.\Generated_Source\PSoC4/CyLib.c ****         if(0u == CySysWdtReadEnabledStatus(counterNum))
 1768              		.loc 2 1157 0 is_stmt 1
 1769 0026 7B68     		ldr	r3, [r7, #4]
 1770 0028 181C     		mov	r0, r3
 1771 002a FFF7FEFF 		bl	CySysWdtReadEnabledStatus
 1772 002e 031E     		sub	r3, r0, #0
 1773 0030 16D1     		bne	.L122
1158:.\Generated_Source\PSoC4/CyLib.c ****         {
1159:.\Generated_Source\PSoC4/CyLib.c ****             configRegValue = CY_SYS_WDT_CONFIG_REG &
 1774              		.loc 2 1159 0
 1775 0032 0D4B     		ldr	r3, .L128
 1776 0034 1B68     		ldr	r3, [r3]
1160:.\Generated_Source\PSoC4/CyLib.c ****                 (uint32)~((uint32)((uint32)1u << ((counterNum * CY_SYS_WDT_CNT_SHIFT) + CY_SYS_WDT_
 1777              		.loc 2 1160 0
 1778 0036 7A68     		ldr	r2, [r7, #4]
 1779 0038 D200     		lsl	r2, r2, #3
 1780 003a 0232     		add	r2, r2, #2
 1781 003c 111C     		mov	r1, r2
 1782 003e 0122     		mov	r2, #1
 1783 0040 8A40     		lsl	r2, r2, r1
 1784 0042 D243     		mvn	r2, r2
1159:.\Generated_Source\PSoC4/CyLib.c ****                 (uint32)~((uint32)((uint32)1u << ((counterNum * CY_SYS_WDT_CNT_SHIFT) + CY_SYS_WDT_
 1785              		.loc 2 1159 0
 1786 0044 1340     		and	r3, r2
 1787 0046 FB60     		str	r3, [r7, #12]
1161:.\Generated_Source\PSoC4/CyLib.c **** 
1162:.\Generated_Source\PSoC4/CyLib.c ****             configRegValue
1163:.\Generated_Source\PSoC4/CyLib.c ****                 |= (uint32)(enable << ((counterNum * CY_SYS_WDT_CNT_SHIFT) + CY_SYS_WDT_CNT_MATCH_C
 1788              		.loc 2 1163 0
 1789 0048 7B68     		ldr	r3, [r7, #4]
 1790 004a DB00     		lsl	r3, r3, #3
 1791 004c 0233     		add	r3, r3, #2
 1792 004e 1A1C     		mov	r2, r3
 1793 0050 3B68     		ldr	r3, [r7]
 1794 0052 9340     		lsl	r3, r3, r2
 1795 0054 FA68     		ldr	r2, [r7, #12]
 1796 0056 1343     		orr	r3, r2
 1797 0058 FB60     		str	r3, [r7, #12]
1164:.\Generated_Source\PSoC4/CyLib.c **** 
1165:.\Generated_Source\PSoC4/CyLib.c ****             CY_SYS_WDT_CONFIG_REG = configRegValue;
 1798              		.loc 2 1165 0
 1799 005a 034B     		ldr	r3, .L128
 1800 005c FA68     		ldr	r2, [r7, #12]
 1801 005e 1A60     		str	r2, [r3]
 1802              	.L122:
1166:.\Generated_Source\PSoC4/CyLib.c ****         }
1167:.\Generated_Source\PSoC4/CyLib.c ****     }
 1803              		.loc 2 1167 0
 1804 0060 BD46     		mov	sp, r7
 1805 0062 04B0     		add	sp, sp, #16
 1806              		@ sp needed
 1807 0064 80BD     		pop	{r7, pc}
 1808              	.L129:
 1809 0066 C046     		.align	2
 1810              	.L128:
 1811 0068 0C020B40 		.word	1074463244
 1812              		.cfi_endproc
ARM GAS  C:\Users\CHRIST~1\AppData\Local\Temp\cc8KQrfd.s 			page 70


 1813              	.LFE26:
 1814              		.size	CySysWdtWriteClearOnMatch, .-CySysWdtWriteClearOnMatch
 1815              		.section	.text.CySysWdtReadClearOnMatch,"ax",%progbits
 1816              		.align	2
 1817              		.global	CySysWdtReadClearOnMatch
 1818              		.code	16
 1819              		.thumb_func
 1820              		.type	CySysWdtReadClearOnMatch, %function
 1821              	CySysWdtReadClearOnMatch:
 1822              	.LFB27:
1168:.\Generated_Source\PSoC4/CyLib.c **** 
1169:.\Generated_Source\PSoC4/CyLib.c **** 
1170:.\Generated_Source\PSoC4/CyLib.c ****     /*******************************************************************************
1171:.\Generated_Source\PSoC4/CyLib.c ****     * Function Name: CySysWdtReadClearOnMatch
1172:.\Generated_Source\PSoC4/CyLib.c ****     ********************************************************************************
1173:.\Generated_Source\PSoC4/CyLib.c ****     *
1174:.\Generated_Source\PSoC4/CyLib.c ****     * Summary:
1175:.\Generated_Source\PSoC4/CyLib.c ****     *  Reads the clear on match setting for the specified counter.
1176:.\Generated_Source\PSoC4/CyLib.c ****     *
1177:.\Generated_Source\PSoC4/CyLib.c ****     * Parameters:
1178:.\Generated_Source\PSoC4/CyLib.c ****     *   counterNum: Valid range [0-1].  Number of the WDT counter.  Match values are
1179:.\Generated_Source\PSoC4/CyLib.c ****     *               not supported by counter 2.
1180:.\Generated_Source\PSoC4/CyLib.c ****     *
1181:.\Generated_Source\PSoC4/CyLib.c ****     * Return:
1182:.\Generated_Source\PSoC4/CyLib.c ****     *   Clear on Match status: 1 if enabled, 0 if disabled
1183:.\Generated_Source\PSoC4/CyLib.c ****     *
1184:.\Generated_Source\PSoC4/CyLib.c ****     *******************************************************************************/
1185:.\Generated_Source\PSoC4/CyLib.c ****     uint32 CySysWdtReadClearOnMatch(uint32 counterNum)
1186:.\Generated_Source\PSoC4/CyLib.c ****     {
 1823              		.loc 2 1186 0
 1824              		.cfi_startproc
 1825 0000 80B5     		push	{r7, lr}
 1826              		.cfi_def_cfa_offset 8
 1827              		.cfi_offset 7, -8
 1828              		.cfi_offset 14, -4
 1829 0002 82B0     		sub	sp, sp, #8
 1830              		.cfi_def_cfa_offset 16
 1831 0004 00AF     		add	r7, sp, #0
 1832              		.cfi_def_cfa_register 7
 1833 0006 7860     		str	r0, [r7, #4]
1187:.\Generated_Source\PSoC4/CyLib.c ****         CYASSERT((counterNum == CY_SYS_WDT_COUNTER0) ||
 1834              		.loc 2 1187 0
 1835 0008 7B68     		ldr	r3, [r7, #4]
 1836 000a 002B     		cmp	r3, #0
 1837 000c 02D0     		beq	.L131
 1838              		.loc 2 1187 0 is_stmt 0 discriminator 2
 1839 000e 7B68     		ldr	r3, [r7, #4]
 1840 0010 012B     		cmp	r3, #1
 1841 0012 01D1     		bne	.L132
 1842              	.L131:
 1843              		.loc 2 1187 0 discriminator 3
 1844 0014 0123     		mov	r3, #1
 1845 0016 00E0     		b	.L133
 1846              	.L132:
 1847              		.loc 2 1187 0 discriminator 4
 1848 0018 0023     		mov	r3, #0
 1849              	.L133:
ARM GAS  C:\Users\CHRIST~1\AppData\Local\Temp\cc8KQrfd.s 			page 71


 1850              		.loc 2 1187 0 discriminator 6
 1851 001a 002B     		cmp	r3, #0
 1852 001c 02D1     		bne	.L134
 1853              		.loc 2 1187 0 discriminator 7
 1854 001e 0020     		mov	r0, #0
 1855 0020 FFF7FEFF 		bl	CyHalt
 1856              	.L134:
1188:.\Generated_Source\PSoC4/CyLib.c ****                  (counterNum == CY_SYS_WDT_COUNTER1));
1189:.\Generated_Source\PSoC4/CyLib.c **** 
1190:.\Generated_Source\PSoC4/CyLib.c ****         return (uint32)((CY_SYS_WDT_CONFIG_REG >>
 1857              		.loc 2 1190 0 is_stmt 1
 1858 0024 054B     		ldr	r3, .L136
 1859 0026 1B68     		ldr	r3, [r3]
1191:.\Generated_Source\PSoC4/CyLib.c ****                         ((counterNum * CY_SYS_WDT_CNT_SHIFT) + CY_SYS_WDT_CNT_MATCH_CLR_SHIFT)) & 0
 1860              		.loc 2 1191 0
 1861 0028 7A68     		ldr	r2, [r7, #4]
 1862 002a D200     		lsl	r2, r2, #3
 1863 002c 0232     		add	r2, r2, #2
1190:.\Generated_Source\PSoC4/CyLib.c ****                         ((counterNum * CY_SYS_WDT_CNT_SHIFT) + CY_SYS_WDT_CNT_MATCH_CLR_SHIFT)) & 0
 1864              		.loc 2 1190 0
 1865 002e D340     		lsr	r3, r3, r2
 1866 0030 0122     		mov	r2, #1
 1867 0032 1340     		and	r3, r2
1192:.\Generated_Source\PSoC4/CyLib.c ****     }
 1868              		.loc 2 1192 0
 1869 0034 181C     		mov	r0, r3
 1870 0036 BD46     		mov	sp, r7
 1871 0038 02B0     		add	sp, sp, #8
 1872              		@ sp needed
 1873 003a 80BD     		pop	{r7, pc}
 1874              	.L137:
 1875              		.align	2
 1876              	.L136:
 1877 003c 0C020B40 		.word	1074463244
 1878              		.cfi_endproc
 1879              	.LFE27:
 1880              		.size	CySysWdtReadClearOnMatch, .-CySysWdtReadClearOnMatch
 1881              		.section	.text.CySysWdtEnable,"ax",%progbits
 1882              		.align	2
 1883              		.global	CySysWdtEnable
 1884              		.code	16
 1885              		.thumb_func
 1886              		.type	CySysWdtEnable, %function
 1887              	CySysWdtEnable:
 1888              	.LFB28:
1193:.\Generated_Source\PSoC4/CyLib.c **** 
1194:.\Generated_Source\PSoC4/CyLib.c **** 
1195:.\Generated_Source\PSoC4/CyLib.c ****     /*******************************************************************************
1196:.\Generated_Source\PSoC4/CyLib.c ****     * Function Name: CySysWdtEnable
1197:.\Generated_Source\PSoC4/CyLib.c ****     ********************************************************************************
1198:.\Generated_Source\PSoC4/CyLib.c ****     *
1199:.\Generated_Source\PSoC4/CyLib.c ****     * Summary:
1200:.\Generated_Source\PSoC4/CyLib.c ****     *  Enables the specified WDT counters.  All the counters specified in the mask are
1201:.\Generated_Source\PSoC4/CyLib.c ****     *  enabled.
1202:.\Generated_Source\PSoC4/CyLib.c ****     *
1203:.\Generated_Source\PSoC4/CyLib.c ****     * Parameters:
1204:.\Generated_Source\PSoC4/CyLib.c ****     *  counterMask: Mask of all counters to enable
ARM GAS  C:\Users\CHRIST~1\AppData\Local\Temp\cc8KQrfd.s 			page 72


1205:.\Generated_Source\PSoC4/CyLib.c ****     *       Define                       Counter
1206:.\Generated_Source\PSoC4/CyLib.c ****     *      CY_SYS_WDT_COUNTER0_MASK      0
1207:.\Generated_Source\PSoC4/CyLib.c ****     *      CY_SYS_WDT_COUNTER1_MASK      1
1208:.\Generated_Source\PSoC4/CyLib.c ****     *      CY_SYS_WDT_COUNTER2_MASK      2
1209:.\Generated_Source\PSoC4/CyLib.c ****     *
1210:.\Generated_Source\PSoC4/CyLib.c ****     * Return:
1211:.\Generated_Source\PSoC4/CyLib.c ****     *  None
1212:.\Generated_Source\PSoC4/CyLib.c ****     *
1213:.\Generated_Source\PSoC4/CyLib.c ****     * Side Effects:
1214:.\Generated_Source\PSoC4/CyLib.c ****     *  Enabling or disabling a WDT requires 3 LFCLK cycles to come into effect.
1215:.\Generated_Source\PSoC4/CyLib.c ****     *  Therefore, the WDT enable state must not be changed more than once in
1216:.\Generated_Source\PSoC4/CyLib.c ****     *  that period.
1217:.\Generated_Source\PSoC4/CyLib.c ****     *
1218:.\Generated_Source\PSoC4/CyLib.c ****     *  After WDT is enabled, it is illegal to write WDT configuration (WDT_CONFIG)
1219:.\Generated_Source\PSoC4/CyLib.c ****     *  and control (WDT_CONTROL) registers. That means that all WDT functions that
1220:.\Generated_Source\PSoC4/CyLib.c ****     *  contain 'write' in the name (with the exception of CySysWdtWriteMatch()
1221:.\Generated_Source\PSoC4/CyLib.c ****     *  function) are illegal to call once WDT enabled.
1222:.\Generated_Source\PSoC4/CyLib.c ****     *
1223:.\Generated_Source\PSoC4/CyLib.c ****     *  PSoC 4100 / PSoC 4200:
1224:.\Generated_Source\PSoC4/CyLib.c ****     *  This function enables the ILO.
1225:.\Generated_Source\PSoC4/CyLib.c ****     *
1226:.\Generated_Source\PSoC4/CyLib.c ****     *  PSoC 4100-BL / PSoC 4200-BL:
1227:.\Generated_Source\PSoC4/CyLib.c ****     *  The LFLCK should be configured before calling this function. The desired
1228:.\Generated_Source\PSoC4/CyLib.c ****     *  source should be enabled and configured to be the source for the LFCLK.
1229:.\Generated_Source\PSoC4/CyLib.c ****     *
1230:.\Generated_Source\PSoC4/CyLib.c ****     *******************************************************************************/
1231:.\Generated_Source\PSoC4/CyLib.c ****     void CySysWdtEnable(uint32 counterMask)
1232:.\Generated_Source\PSoC4/CyLib.c ****     {
 1889              		.loc 2 1232 0
 1890              		.cfi_startproc
 1891 0000 80B5     		push	{r7, lr}
 1892              		.cfi_def_cfa_offset 8
 1893              		.cfi_offset 7, -8
 1894              		.cfi_offset 14, -4
 1895 0002 82B0     		sub	sp, sp, #8
 1896              		.cfi_def_cfa_offset 16
 1897 0004 00AF     		add	r7, sp, #0
 1898              		.cfi_def_cfa_register 7
 1899 0006 7860     		str	r0, [r7, #4]
1233:.\Generated_Source\PSoC4/CyLib.c ****         #if (!CY_IP_WCO)
1234:.\Generated_Source\PSoC4/CyLib.c ****             CySysClkIloStart();
1235:.\Generated_Source\PSoC4/CyLib.c ****         #endif /* (!CY_IP_WCO) */
1236:.\Generated_Source\PSoC4/CyLib.c **** 
1237:.\Generated_Source\PSoC4/CyLib.c ****         CY_SYS_WDT_CONTROL_REG |= counterMask;
 1900              		.loc 2 1237 0
 1901 0008 144B     		ldr	r3, .L145
 1902 000a 144A     		ldr	r2, .L145
 1903 000c 1168     		ldr	r1, [r2]
 1904 000e 7A68     		ldr	r2, [r7, #4]
 1905 0010 0A43     		orr	r2, r1
 1906 0012 1A60     		str	r2, [r3]
1238:.\Generated_Source\PSoC4/CyLib.c **** 
1239:.\Generated_Source\PSoC4/CyLib.c ****         if(0u != (counterMask & CY_SYS_WDT_COUNTER0_MASK))
 1907              		.loc 2 1239 0
 1908 0014 7B68     		ldr	r3, [r7, #4]
 1909 0016 0122     		mov	r2, #1
 1910 0018 1340     		and	r3, r2
ARM GAS  C:\Users\CHRIST~1\AppData\Local\Temp\cc8KQrfd.s 			page 73


 1911 001a 05D0     		beq	.L139
1240:.\Generated_Source\PSoC4/CyLib.c ****         {
1241:.\Generated_Source\PSoC4/CyLib.c ****             while (0u == CySysWdtReadEnabledStatus(CY_SYS_WDT_COUNTER0))
 1912              		.loc 2 1241 0
 1913 001c C046     		mov	r8, r8
 1914              	.L140:
 1915              		.loc 2 1241 0 is_stmt 0 discriminator 1
 1916 001e 0020     		mov	r0, #0
 1917 0020 FFF7FEFF 		bl	CySysWdtReadEnabledStatus
 1918 0024 031E     		sub	r3, r0, #0
 1919 0026 FAD0     		beq	.L140
 1920              	.L139:
1242:.\Generated_Source\PSoC4/CyLib.c ****             {
1243:.\Generated_Source\PSoC4/CyLib.c ****                 /* Wait for the changes to come into effect */
1244:.\Generated_Source\PSoC4/CyLib.c ****             }
1245:.\Generated_Source\PSoC4/CyLib.c ****         }
1246:.\Generated_Source\PSoC4/CyLib.c **** 
1247:.\Generated_Source\PSoC4/CyLib.c ****         if(0u != (counterMask & CY_SYS_WDT_COUNTER1_MASK))
 1921              		.loc 2 1247 0 is_stmt 1
 1922 0028 7A68     		ldr	r2, [r7, #4]
 1923 002a 8023     		mov	r3, #128
 1924 002c 5B00     		lsl	r3, r3, #1
 1925 002e 1340     		and	r3, r2
 1926 0030 05D0     		beq	.L141
1248:.\Generated_Source\PSoC4/CyLib.c ****         {
1249:.\Generated_Source\PSoC4/CyLib.c ****             while (0u == CySysWdtReadEnabledStatus(CY_SYS_WDT_COUNTER1))
 1927              		.loc 2 1249 0
 1928 0032 C046     		mov	r8, r8
 1929              	.L142:
 1930              		.loc 2 1249 0 is_stmt 0 discriminator 1
 1931 0034 0120     		mov	r0, #1
 1932 0036 FFF7FEFF 		bl	CySysWdtReadEnabledStatus
 1933 003a 031E     		sub	r3, r0, #0
 1934 003c FAD0     		beq	.L142
 1935              	.L141:
1250:.\Generated_Source\PSoC4/CyLib.c ****             {
1251:.\Generated_Source\PSoC4/CyLib.c ****                 /* Wait for the changes to come into effect */
1252:.\Generated_Source\PSoC4/CyLib.c ****             }
1253:.\Generated_Source\PSoC4/CyLib.c ****         }
1254:.\Generated_Source\PSoC4/CyLib.c **** 
1255:.\Generated_Source\PSoC4/CyLib.c ****         if(0u != (counterMask & CY_SYS_WDT_COUNTER2_MASK))
 1936              		.loc 2 1255 0 is_stmt 1
 1937 003e 7A68     		ldr	r2, [r7, #4]
 1938 0040 8023     		mov	r3, #128
 1939 0042 5B02     		lsl	r3, r3, #9
 1940 0044 1340     		and	r3, r2
 1941 0046 05D0     		beq	.L138
1256:.\Generated_Source\PSoC4/CyLib.c ****         {
1257:.\Generated_Source\PSoC4/CyLib.c ****             while (0u == CySysWdtReadEnabledStatus(CY_SYS_WDT_COUNTER2))
 1942              		.loc 2 1257 0
 1943 0048 C046     		mov	r8, r8
 1944              	.L144:
 1945              		.loc 2 1257 0 is_stmt 0 discriminator 1
 1946 004a 0220     		mov	r0, #2
 1947 004c FFF7FEFF 		bl	CySysWdtReadEnabledStatus
 1948 0050 031E     		sub	r3, r0, #0
 1949 0052 FAD0     		beq	.L144
ARM GAS  C:\Users\CHRIST~1\AppData\Local\Temp\cc8KQrfd.s 			page 74


 1950              	.L138:
1258:.\Generated_Source\PSoC4/CyLib.c ****             {
1259:.\Generated_Source\PSoC4/CyLib.c ****                 /* Wait for the changes to come into effect */
1260:.\Generated_Source\PSoC4/CyLib.c ****             }
1261:.\Generated_Source\PSoC4/CyLib.c ****         }
1262:.\Generated_Source\PSoC4/CyLib.c ****     }
 1951              		.loc 2 1262 0 is_stmt 1
 1952 0054 BD46     		mov	sp, r7
 1953 0056 02B0     		add	sp, sp, #8
 1954              		@ sp needed
 1955 0058 80BD     		pop	{r7, pc}
 1956              	.L146:
 1957 005a C046     		.align	2
 1958              	.L145:
 1959 005c 10020B40 		.word	1074463248
 1960              		.cfi_endproc
 1961              	.LFE28:
 1962              		.size	CySysWdtEnable, .-CySysWdtEnable
 1963              		.section	.text.CySysWdtDisable,"ax",%progbits
 1964              		.align	2
 1965              		.global	CySysWdtDisable
 1966              		.code	16
 1967              		.thumb_func
 1968              		.type	CySysWdtDisable, %function
 1969              	CySysWdtDisable:
 1970              	.LFB29:
1263:.\Generated_Source\PSoC4/CyLib.c **** 
1264:.\Generated_Source\PSoC4/CyLib.c **** 
1265:.\Generated_Source\PSoC4/CyLib.c ****     /*******************************************************************************
1266:.\Generated_Source\PSoC4/CyLib.c ****     * Function Name: CySysWdtDisable
1267:.\Generated_Source\PSoC4/CyLib.c ****     ********************************************************************************
1268:.\Generated_Source\PSoC4/CyLib.c ****     *
1269:.\Generated_Source\PSoC4/CyLib.c ****     * Summary:
1270:.\Generated_Source\PSoC4/CyLib.c ****     *  Disables the specified WDT counters. All the counters specified in the mask
1271:.\Generated_Source\PSoC4/CyLib.c ****     *  are disabled. The function waits for the changes to come into effect.
1272:.\Generated_Source\PSoC4/CyLib.c ****     *
1273:.\Generated_Source\PSoC4/CyLib.c ****     * Parameters:
1274:.\Generated_Source\PSoC4/CyLib.c ****     *  uint32 counterMask: Mask of all counters to disable
1275:.\Generated_Source\PSoC4/CyLib.c ****     *    Define                       Counter
1276:.\Generated_Source\PSoC4/CyLib.c ****     *   CY_SYS_WDT_COUNTER0_MASK      0
1277:.\Generated_Source\PSoC4/CyLib.c ****     *   CY_SYS_WDT_COUNTER1_MASK      1
1278:.\Generated_Source\PSoC4/CyLib.c ****     *   CY_SYS_WDT_COUNTER2_MASK      2
1279:.\Generated_Source\PSoC4/CyLib.c ****     *
1280:.\Generated_Source\PSoC4/CyLib.c ****     * Return:
1281:.\Generated_Source\PSoC4/CyLib.c ****     *   None
1282:.\Generated_Source\PSoC4/CyLib.c ****     *
1283:.\Generated_Source\PSoC4/CyLib.c ****     *******************************************************************************/
1284:.\Generated_Source\PSoC4/CyLib.c ****     void CySysWdtDisable(uint32 counterMask)
1285:.\Generated_Source\PSoC4/CyLib.c ****     {
 1971              		.loc 2 1285 0
 1972              		.cfi_startproc
 1973 0000 80B5     		push	{r7, lr}
 1974              		.cfi_def_cfa_offset 8
 1975              		.cfi_offset 7, -8
 1976              		.cfi_offset 14, -4
 1977 0002 82B0     		sub	sp, sp, #8
 1978              		.cfi_def_cfa_offset 16
ARM GAS  C:\Users\CHRIST~1\AppData\Local\Temp\cc8KQrfd.s 			page 75


 1979 0004 00AF     		add	r7, sp, #0
 1980              		.cfi_def_cfa_register 7
 1981 0006 7860     		str	r0, [r7, #4]
1286:.\Generated_Source\PSoC4/CyLib.c ****         CY_SYS_WDT_CONTROL_REG &= ~counterMask;
 1982              		.loc 2 1286 0
 1983 0008 144B     		ldr	r3, .L154
 1984 000a 144A     		ldr	r2, .L154
 1985 000c 1268     		ldr	r2, [r2]
 1986 000e 7968     		ldr	r1, [r7, #4]
 1987 0010 C943     		mvn	r1, r1
 1988 0012 0A40     		and	r2, r1
 1989 0014 1A60     		str	r2, [r3]
1287:.\Generated_Source\PSoC4/CyLib.c **** 
1288:.\Generated_Source\PSoC4/CyLib.c ****         if(0u != (counterMask & CY_SYS_WDT_COUNTER0_MASK))
 1990              		.loc 2 1288 0
 1991 0016 7B68     		ldr	r3, [r7, #4]
 1992 0018 0122     		mov	r2, #1
 1993 001a 1340     		and	r3, r2
 1994 001c 05D0     		beq	.L148
1289:.\Generated_Source\PSoC4/CyLib.c ****         {
1290:.\Generated_Source\PSoC4/CyLib.c ****             while (0u != CySysWdtReadEnabledStatus(CY_SYS_WDT_COUNTER0))
 1995              		.loc 2 1290 0
 1996 001e C046     		mov	r8, r8
 1997              	.L149:
 1998              		.loc 2 1290 0 is_stmt 0 discriminator 1
 1999 0020 0020     		mov	r0, #0
 2000 0022 FFF7FEFF 		bl	CySysWdtReadEnabledStatus
 2001 0026 031E     		sub	r3, r0, #0
 2002 0028 FAD1     		bne	.L149
 2003              	.L148:
1291:.\Generated_Source\PSoC4/CyLib.c ****             {
1292:.\Generated_Source\PSoC4/CyLib.c ****                 /* Wait for the changes to come into effect */
1293:.\Generated_Source\PSoC4/CyLib.c ****             }
1294:.\Generated_Source\PSoC4/CyLib.c ****         }
1295:.\Generated_Source\PSoC4/CyLib.c **** 
1296:.\Generated_Source\PSoC4/CyLib.c ****         if(0u != (counterMask & CY_SYS_WDT_COUNTER1_MASK))
 2004              		.loc 2 1296 0 is_stmt 1
 2005 002a 7A68     		ldr	r2, [r7, #4]
 2006 002c 8023     		mov	r3, #128
 2007 002e 5B00     		lsl	r3, r3, #1
 2008 0030 1340     		and	r3, r2
 2009 0032 05D0     		beq	.L150
1297:.\Generated_Source\PSoC4/CyLib.c ****         {
1298:.\Generated_Source\PSoC4/CyLib.c ****             while (0u != CySysWdtReadEnabledStatus(CY_SYS_WDT_COUNTER1))
 2010              		.loc 2 1298 0
 2011 0034 C046     		mov	r8, r8
 2012              	.L151:
 2013              		.loc 2 1298 0 is_stmt 0 discriminator 1
 2014 0036 0120     		mov	r0, #1
 2015 0038 FFF7FEFF 		bl	CySysWdtReadEnabledStatus
 2016 003c 031E     		sub	r3, r0, #0
 2017 003e FAD1     		bne	.L151
 2018              	.L150:
1299:.\Generated_Source\PSoC4/CyLib.c ****             {
1300:.\Generated_Source\PSoC4/CyLib.c ****                 /* Wait for the changes to come into effect */
1301:.\Generated_Source\PSoC4/CyLib.c ****             }
1302:.\Generated_Source\PSoC4/CyLib.c ****         }
ARM GAS  C:\Users\CHRIST~1\AppData\Local\Temp\cc8KQrfd.s 			page 76


1303:.\Generated_Source\PSoC4/CyLib.c **** 
1304:.\Generated_Source\PSoC4/CyLib.c ****         if(0u != (counterMask & CY_SYS_WDT_COUNTER2_MASK))
 2019              		.loc 2 1304 0 is_stmt 1
 2020 0040 7A68     		ldr	r2, [r7, #4]
 2021 0042 8023     		mov	r3, #128
 2022 0044 5B02     		lsl	r3, r3, #9
 2023 0046 1340     		and	r3, r2
 2024 0048 05D0     		beq	.L147
1305:.\Generated_Source\PSoC4/CyLib.c ****         {
1306:.\Generated_Source\PSoC4/CyLib.c ****             while (0u != CySysWdtReadEnabledStatus(CY_SYS_WDT_COUNTER2))
 2025              		.loc 2 1306 0
 2026 004a C046     		mov	r8, r8
 2027              	.L153:
 2028              		.loc 2 1306 0 is_stmt 0 discriminator 1
 2029 004c 0220     		mov	r0, #2
 2030 004e FFF7FEFF 		bl	CySysWdtReadEnabledStatus
 2031 0052 031E     		sub	r3, r0, #0
 2032 0054 FAD1     		bne	.L153
 2033              	.L147:
1307:.\Generated_Source\PSoC4/CyLib.c ****             {
1308:.\Generated_Source\PSoC4/CyLib.c ****                 /* Wait for the changes to come into effect */
1309:.\Generated_Source\PSoC4/CyLib.c ****             }
1310:.\Generated_Source\PSoC4/CyLib.c ****         }
1311:.\Generated_Source\PSoC4/CyLib.c ****     }
 2034              		.loc 2 1311 0 is_stmt 1
 2035 0056 BD46     		mov	sp, r7
 2036 0058 02B0     		add	sp, sp, #8
 2037              		@ sp needed
 2038 005a 80BD     		pop	{r7, pc}
 2039              	.L155:
 2040              		.align	2
 2041              	.L154:
 2042 005c 10020B40 		.word	1074463248
 2043              		.cfi_endproc
 2044              	.LFE29:
 2045              		.size	CySysWdtDisable, .-CySysWdtDisable
 2046              		.section	.text.CySysWdtWriteCascade,"ax",%progbits
 2047              		.align	2
 2048              		.global	CySysWdtWriteCascade
 2049              		.code	16
 2050              		.thumb_func
 2051              		.type	CySysWdtWriteCascade, %function
 2052              	CySysWdtWriteCascade:
 2053              	.LFB30:
1312:.\Generated_Source\PSoC4/CyLib.c **** 
1313:.\Generated_Source\PSoC4/CyLib.c **** 
1314:.\Generated_Source\PSoC4/CyLib.c ****     /*******************************************************************************
1315:.\Generated_Source\PSoC4/CyLib.c ****     * Function Name: CySysWdtWriteCascade
1316:.\Generated_Source\PSoC4/CyLib.c ****     ********************************************************************************
1317:.\Generated_Source\PSoC4/CyLib.c ****     *
1318:.\Generated_Source\PSoC4/CyLib.c ****     * Summary:
1319:.\Generated_Source\PSoC4/CyLib.c ****     *   Writes the two WDT cascade values based on the combination of mask values
1320:.\Generated_Source\PSoC4/CyLib.c ****     *   specified.
1321:.\Generated_Source\PSoC4/CyLib.c ****     *
1322:.\Generated_Source\PSoC4/CyLib.c ****     * Parameters:
1323:.\Generated_Source\PSoC4/CyLib.c ****     *   cascadeMask: Mask value used to set or clear the cascade values.
1324:.\Generated_Source\PSoC4/CyLib.c ****     *   Define                     Cascade
ARM GAS  C:\Users\CHRIST~1\AppData\Local\Temp\cc8KQrfd.s 			page 77


1325:.\Generated_Source\PSoC4/CyLib.c ****     *   CY_SYS_WDT_CASCADE_NONE    Neither
1326:.\Generated_Source\PSoC4/CyLib.c ****     *   CY_SYS_WDT_CASCADE_01      Cascade 01
1327:.\Generated_Source\PSoC4/CyLib.c ****     *   CY_SYS_WDT_CASCADE_12      Cascade 12
1328:.\Generated_Source\PSoC4/CyLib.c ****     *
1329:.\Generated_Source\PSoC4/CyLib.c ****     *   To set both cascade modes, two defines should be ORed:
1330:.\Generated_Source\PSoC4/CyLib.c ****     *   (CY_SYS_WDT_CASCADE_01 | CY_SYS_WDT_CASCADE_12)
1331:.\Generated_Source\PSoC4/CyLib.c ****     *
1332:.\Generated_Source\PSoC4/CyLib.c ****     * Return:
1333:.\Generated_Source\PSoC4/CyLib.c ****     *   None
1334:.\Generated_Source\PSoC4/CyLib.c ****     *
1335:.\Generated_Source\PSoC4/CyLib.c ****     * Side effects:
1336:.\Generated_Source\PSoC4/CyLib.c ****     *   If only one cascade mask is specified, the second cascade is disabled.
1337:.\Generated_Source\PSoC4/CyLib.c ****     *   To set both cascade modes two defines should be ORed:
1338:.\Generated_Source\PSoC4/CyLib.c ****     *    (CY_SYS_WDT_CASCADE_01 | CY_SYS_WDT_CASCADE_12).
1339:.\Generated_Source\PSoC4/CyLib.c ****     *
1340:.\Generated_Source\PSoC4/CyLib.c ****     *   WDT counters that are part of the specified cascade, should be disabled.
1341:.\Generated_Source\PSoC4/CyLib.c ****     *   Otherwise this function call will have no effect. If the specified
1342:.\Generated_Source\PSoC4/CyLib.c ****     *   counter is enabled, call CySysWdtDisable() function with the corresponding
1343:.\Generated_Source\PSoC4/CyLib.c ****     *   parameter to disable specified counter and wait for it to stop. This may
1344:.\Generated_Source\PSoC4/CyLib.c ****     *   take up to 3 LFCLK cycles.
1345:.\Generated_Source\PSoC4/CyLib.c ****     *
1346:.\Generated_Source\PSoC4/CyLib.c ****     *******************************************************************************/
1347:.\Generated_Source\PSoC4/CyLib.c ****     void CySysWdtWriteCascade(uint32 cascadeMask)
1348:.\Generated_Source\PSoC4/CyLib.c ****     {
 2054              		.loc 2 1348 0
 2055              		.cfi_startproc
 2056 0000 90B5     		push	{r4, r7, lr}
 2057              		.cfi_def_cfa_offset 12
 2058              		.cfi_offset 4, -12
 2059              		.cfi_offset 7, -8
 2060              		.cfi_offset 14, -4
 2061 0002 85B0     		sub	sp, sp, #20
 2062              		.cfi_def_cfa_offset 32
 2063 0004 00AF     		add	r7, sp, #0
 2064              		.cfi_def_cfa_register 7
 2065 0006 7860     		str	r0, [r7, #4]
1349:.\Generated_Source\PSoC4/CyLib.c ****         uint32 configRegValue;
1350:.\Generated_Source\PSoC4/CyLib.c ****         uint32 countersEnableStatus;
1351:.\Generated_Source\PSoC4/CyLib.c **** 
1352:.\Generated_Source\PSoC4/CyLib.c ****         countersEnableStatus = CySysWdtReadEnabledStatus(CY_SYS_WDT_COUNTER0) |
 2066              		.loc 2 1352 0
 2067 0008 0020     		mov	r0, #0
 2068 000a FFF7FEFF 		bl	CySysWdtReadEnabledStatus
 2069 000e 041C     		mov	r4, r0
1353:.\Generated_Source\PSoC4/CyLib.c ****                             CySysWdtReadEnabledStatus(CY_SYS_WDT_COUNTER1) |
 2070              		.loc 2 1353 0
 2071 0010 0120     		mov	r0, #1
 2072 0012 FFF7FEFF 		bl	CySysWdtReadEnabledStatus
 2073 0016 031C     		mov	r3, r0
1352:.\Generated_Source\PSoC4/CyLib.c ****                             CySysWdtReadEnabledStatus(CY_SYS_WDT_COUNTER1) |
 2074              		.loc 2 1352 0
 2075 0018 1C43     		orr	r4, r3
1354:.\Generated_Source\PSoC4/CyLib.c ****                             CySysWdtReadEnabledStatus(CY_SYS_WDT_COUNTER2);
 2076              		.loc 2 1354 0
 2077 001a 0220     		mov	r0, #2
 2078 001c FFF7FEFF 		bl	CySysWdtReadEnabledStatus
 2079 0020 031C     		mov	r3, r0
ARM GAS  C:\Users\CHRIST~1\AppData\Local\Temp\cc8KQrfd.s 			page 78


1352:.\Generated_Source\PSoC4/CyLib.c ****                             CySysWdtReadEnabledStatus(CY_SYS_WDT_COUNTER1) |
 2080              		.loc 2 1352 0
 2081 0022 2343     		orr	r3, r4
 2082 0024 FB60     		str	r3, [r7, #12]
1355:.\Generated_Source\PSoC4/CyLib.c **** 
1356:.\Generated_Source\PSoC4/CyLib.c ****         if (0u == countersEnableStatus)
 2083              		.loc 2 1356 0
 2084 0026 FB68     		ldr	r3, [r7, #12]
 2085 0028 002B     		cmp	r3, #0
 2086 002a 0DD1     		bne	.L156
1357:.\Generated_Source\PSoC4/CyLib.c ****         {
1358:.\Generated_Source\PSoC4/CyLib.c ****             configRegValue = CY_SYS_WDT_CONFIG_REG;
 2087              		.loc 2 1358 0
 2088 002c 084B     		ldr	r3, .L158
 2089 002e 1B68     		ldr	r3, [r3]
 2090 0030 BB60     		str	r3, [r7, #8]
1359:.\Generated_Source\PSoC4/CyLib.c ****             configRegValue &= ((uint32)(~(CY_SYS_WDT_CASCADE_01|CY_SYS_WDT_CASCADE_12)));
 2091              		.loc 2 1359 0
 2092 0032 BB68     		ldr	r3, [r7, #8]
 2093 0034 074A     		ldr	r2, .L158+4
 2094 0036 1340     		and	r3, r2
 2095 0038 BB60     		str	r3, [r7, #8]
1360:.\Generated_Source\PSoC4/CyLib.c ****             configRegValue |= cascadeMask;
 2096              		.loc 2 1360 0
 2097 003a BA68     		ldr	r2, [r7, #8]
 2098 003c 7B68     		ldr	r3, [r7, #4]
 2099 003e 1343     		orr	r3, r2
 2100 0040 BB60     		str	r3, [r7, #8]
1361:.\Generated_Source\PSoC4/CyLib.c ****             CY_SYS_WDT_CONFIG_REG = configRegValue;
 2101              		.loc 2 1361 0
 2102 0042 034B     		ldr	r3, .L158
 2103 0044 BA68     		ldr	r2, [r7, #8]
 2104 0046 1A60     		str	r2, [r3]
 2105              	.L156:
1362:.\Generated_Source\PSoC4/CyLib.c ****         }
1363:.\Generated_Source\PSoC4/CyLib.c ****     }
 2106              		.loc 2 1363 0
 2107 0048 BD46     		mov	sp, r7
 2108 004a 05B0     		add	sp, sp, #20
 2109              		@ sp needed
 2110 004c 90BD     		pop	{r4, r7, pc}
 2111              	.L159:
 2112 004e C046     		.align	2
 2113              	.L158:
 2114 0050 0C020B40 		.word	1074463244
 2115 0054 F7F7FFFF 		.word	-2057
 2116              		.cfi_endproc
 2117              	.LFE30:
 2118              		.size	CySysWdtWriteCascade, .-CySysWdtWriteCascade
 2119              		.section	.text.CySysWdtReadCascade,"ax",%progbits
 2120              		.align	2
 2121              		.global	CySysWdtReadCascade
 2122              		.code	16
 2123              		.thumb_func
 2124              		.type	CySysWdtReadCascade, %function
 2125              	CySysWdtReadCascade:
 2126              	.LFB31:
ARM GAS  C:\Users\CHRIST~1\AppData\Local\Temp\cc8KQrfd.s 			page 79


1364:.\Generated_Source\PSoC4/CyLib.c **** 
1365:.\Generated_Source\PSoC4/CyLib.c **** 
1366:.\Generated_Source\PSoC4/CyLib.c ****     /*******************************************************************************
1367:.\Generated_Source\PSoC4/CyLib.c ****     * Function Name: CySysWdtReadCascade
1368:.\Generated_Source\PSoC4/CyLib.c ****     ********************************************************************************
1369:.\Generated_Source\PSoC4/CyLib.c ****     *
1370:.\Generated_Source\PSoC4/CyLib.c ****     * Summary:
1371:.\Generated_Source\PSoC4/CyLib.c ****     *   Reads the two WDT cascade values returning a mask of the bits set.
1372:.\Generated_Source\PSoC4/CyLib.c ****     *
1373:.\Generated_Source\PSoC4/CyLib.c ****     * Parameters:
1374:.\Generated_Source\PSoC4/CyLib.c ****     *   None
1375:.\Generated_Source\PSoC4/CyLib.c ****     *
1376:.\Generated_Source\PSoC4/CyLib.c ****     * Return:
1377:.\Generated_Source\PSoC4/CyLib.c ****     *   Mask of cascade values set.
1378:.\Generated_Source\PSoC4/CyLib.c ****     *   Define                     Cascade
1379:.\Generated_Source\PSoC4/CyLib.c ****     *   CY_SYS_WDT_CASCADE_NONE    Neither
1380:.\Generated_Source\PSoC4/CyLib.c ****     *   CY_SYS_WDT_CASCADE_01      Cascade 01
1381:.\Generated_Source\PSoC4/CyLib.c ****     *   CY_SYS_WDT_CASCADE_12      Cascade 12
1382:.\Generated_Source\PSoC4/CyLib.c ****     *
1383:.\Generated_Source\PSoC4/CyLib.c ****     *******************************************************************************/
1384:.\Generated_Source\PSoC4/CyLib.c ****     uint32 CySysWdtReadCascade(void)
1385:.\Generated_Source\PSoC4/CyLib.c ****     {
 2127              		.loc 2 1385 0
 2128              		.cfi_startproc
 2129 0000 80B5     		push	{r7, lr}
 2130              		.cfi_def_cfa_offset 8
 2131              		.cfi_offset 7, -8
 2132              		.cfi_offset 14, -4
 2133 0002 00AF     		add	r7, sp, #0
 2134              		.cfi_def_cfa_register 7
1386:.\Generated_Source\PSoC4/CyLib.c ****         return (CY_SYS_WDT_CONFIG_REG & (CY_SYS_WDT_CASCADE_01 | CY_SYS_WDT_CASCADE_12));
 2135              		.loc 2 1386 0
 2136 0004 034B     		ldr	r3, .L162
 2137 0006 1B68     		ldr	r3, [r3]
 2138 0008 034A     		ldr	r2, .L162+4
 2139 000a 1340     		and	r3, r2
1387:.\Generated_Source\PSoC4/CyLib.c ****     }
 2140              		.loc 2 1387 0
 2141 000c 181C     		mov	r0, r3
 2142 000e BD46     		mov	sp, r7
 2143              		@ sp needed
 2144 0010 80BD     		pop	{r7, pc}
 2145              	.L163:
 2146 0012 C046     		.align	2
 2147              	.L162:
 2148 0014 0C020B40 		.word	1074463244
 2149 0018 08080000 		.word	2056
 2150              		.cfi_endproc
 2151              	.LFE31:
 2152              		.size	CySysWdtReadCascade, .-CySysWdtReadCascade
 2153              		.section	.text.CySysWdtWriteMatch,"ax",%progbits
 2154              		.align	2
 2155              		.global	CySysWdtWriteMatch
 2156              		.code	16
 2157              		.thumb_func
 2158              		.type	CySysWdtWriteMatch, %function
 2159              	CySysWdtWriteMatch:
ARM GAS  C:\Users\CHRIST~1\AppData\Local\Temp\cc8KQrfd.s 			page 80


 2160              	.LFB32:
1388:.\Generated_Source\PSoC4/CyLib.c **** 
1389:.\Generated_Source\PSoC4/CyLib.c **** 
1390:.\Generated_Source\PSoC4/CyLib.c ****     /*******************************************************************************
1391:.\Generated_Source\PSoC4/CyLib.c ****     * Function Name: CySysWdtWriteMatch
1392:.\Generated_Source\PSoC4/CyLib.c ****     ********************************************************************************
1393:.\Generated_Source\PSoC4/CyLib.c ****     *
1394:.\Generated_Source\PSoC4/CyLib.c ****     * Summary:
1395:.\Generated_Source\PSoC4/CyLib.c ****     *  Configures the WDT counter match comparison value.
1396:.\Generated_Source\PSoC4/CyLib.c ****     *
1397:.\Generated_Source\PSoC4/CyLib.c ****     * Parameters:
1398:.\Generated_Source\PSoC4/CyLib.c ****     *  counterNum:
1399:.\Generated_Source\PSoC4/CyLib.c ****     *   Valid range [0-1]. Number of the WDT counter. Match values are not
1400:.\Generated_Source\PSoC4/CyLib.c ****     *   supported by counter 2.
1401:.\Generated_Source\PSoC4/CyLib.c ****     *
1402:.\Generated_Source\PSoC4/CyLib.c ****     *  match:
1403:.\Generated_Source\PSoC4/CyLib.c ****     *   Valid range [0-65535]. Value to be used to match against the counter.
1404:.\Generated_Source\PSoC4/CyLib.c ****     *
1405:.\Generated_Source\PSoC4/CyLib.c ****     * Return:
1406:.\Generated_Source\PSoC4/CyLib.c ****     *   None
1407:.\Generated_Source\PSoC4/CyLib.c ****     *
1408:.\Generated_Source\PSoC4/CyLib.c ****     *******************************************************************************/
1409:.\Generated_Source\PSoC4/CyLib.c ****     void CySysWdtWriteMatch(uint32 counterNum, uint32 match)
1410:.\Generated_Source\PSoC4/CyLib.c ****     {
 2161              		.loc 2 1410 0
 2162              		.cfi_startproc
 2163 0000 80B5     		push	{r7, lr}
 2164              		.cfi_def_cfa_offset 8
 2165              		.cfi_offset 7, -8
 2166              		.cfi_offset 14, -4
 2167 0002 84B0     		sub	sp, sp, #16
 2168              		.cfi_def_cfa_offset 24
 2169 0004 00AF     		add	r7, sp, #0
 2170              		.cfi_def_cfa_register 7
 2171 0006 7860     		str	r0, [r7, #4]
 2172 0008 3960     		str	r1, [r7]
1411:.\Generated_Source\PSoC4/CyLib.c ****         uint32 regValue;
1412:.\Generated_Source\PSoC4/CyLib.c **** 
1413:.\Generated_Source\PSoC4/CyLib.c ****         CYASSERT((counterNum == CY_SYS_WDT_COUNTER0) ||
 2173              		.loc 2 1413 0
 2174 000a 7B68     		ldr	r3, [r7, #4]
 2175 000c 002B     		cmp	r3, #0
 2176 000e 02D0     		beq	.L165
 2177              		.loc 2 1413 0 is_stmt 0 discriminator 2
 2178 0010 7B68     		ldr	r3, [r7, #4]
 2179 0012 012B     		cmp	r3, #1
 2180 0014 01D1     		bne	.L166
 2181              	.L165:
 2182              		.loc 2 1413 0 discriminator 3
 2183 0016 0123     		mov	r3, #1
 2184 0018 00E0     		b	.L167
 2185              	.L166:
 2186              		.loc 2 1413 0 discriminator 4
 2187 001a 0023     		mov	r3, #0
 2188              	.L167:
 2189              		.loc 2 1413 0 discriminator 6
 2190 001c 002B     		cmp	r3, #0
ARM GAS  C:\Users\CHRIST~1\AppData\Local\Temp\cc8KQrfd.s 			page 81


 2191 001e 02D1     		bne	.L168
 2192              		.loc 2 1413 0 discriminator 7
 2193 0020 0020     		mov	r0, #0
 2194 0022 FFF7FEFF 		bl	CyHalt
 2195              	.L168:
1414:.\Generated_Source\PSoC4/CyLib.c ****                  (counterNum == CY_SYS_WDT_COUNTER1));
1415:.\Generated_Source\PSoC4/CyLib.c **** 
1416:.\Generated_Source\PSoC4/CyLib.c ****         /* Wait for the previous changes to come into effect */
1417:.\Generated_Source\PSoC4/CyLib.c ****         CyDelayUs(CY_SYS_WDT_3LFCLK_DELAY_US);
 2196              		.loc 2 1417 0 is_stmt 1
 2197 0026 174B     		ldr	r3, .L173
 2198 0028 1B68     		ldr	r3, [r3]
 2199 002a 9B0F     		lsr	r3, r3, #30
 2200 002c 9B07     		lsl	r3, r3, #30
 2201 002e 01D1     		bne	.L169
 2202              		.loc 2 1417 0 is_stmt 0 discriminator 1
 2203 0030 C923     		mov	r3, #201
 2204 0032 00E0     		b	.L170
 2205              	.L169:
 2206              		.loc 2 1417 0 discriminator 2
 2207 0034 5D23     		mov	r3, #93
 2208              	.L170:
 2209              		.loc 2 1417 0 discriminator 4
 2210 0036 181C     		mov	r0, r3
 2211 0038 FFF7FEFF 		bl	CyDelayUs
1418:.\Generated_Source\PSoC4/CyLib.c **** 
1419:.\Generated_Source\PSoC4/CyLib.c ****         regValue = CY_SYS_WDT_MATCH_REG;
 2212              		.loc 2 1419 0 is_stmt 1 discriminator 4
 2213 003c 124B     		ldr	r3, .L173+4
 2214 003e 1B68     		ldr	r3, [r3]
 2215 0040 FB60     		str	r3, [r7, #12]
1420:.\Generated_Source\PSoC4/CyLib.c ****         regValue &= (uint32)~((uint32)(CY_SYS_WDT_LOWER_16BITS_MASK << (counterNum * CY_SYS_WDT_CNT
 2216              		.loc 2 1420 0 discriminator 4
 2217 0042 7B68     		ldr	r3, [r7, #4]
 2218 0044 1B01     		lsl	r3, r3, #4
 2219 0046 1A1C     		mov	r2, r3
 2220 0048 104B     		ldr	r3, .L173+8
 2221 004a 9340     		lsl	r3, r3, r2
 2222 004c DA43     		mvn	r2, r3
 2223 004e FB68     		ldr	r3, [r7, #12]
 2224 0050 1340     		and	r3, r2
 2225 0052 FB60     		str	r3, [r7, #12]
1421:.\Generated_Source\PSoC4/CyLib.c ****         CY_SYS_WDT_MATCH_REG = (regValue | (match << (counterNum * CY_SYS_WDT_CNT_MATCH_SHIFT)));
 2226              		.loc 2 1421 0 discriminator 4
 2227 0054 0C4B     		ldr	r3, .L173+4
 2228 0056 7A68     		ldr	r2, [r7, #4]
 2229 0058 1201     		lsl	r2, r2, #4
 2230 005a 111C     		mov	r1, r2
 2231 005c 3A68     		ldr	r2, [r7]
 2232 005e 8A40     		lsl	r2, r2, r1
 2233 0060 111C     		mov	r1, r2
 2234 0062 FA68     		ldr	r2, [r7, #12]
 2235 0064 0A43     		orr	r2, r1
 2236 0066 1A60     		str	r2, [r3]
1422:.\Generated_Source\PSoC4/CyLib.c **** 
1423:.\Generated_Source\PSoC4/CyLib.c ****         /* Make sure the match synchronization started */
1424:.\Generated_Source\PSoC4/CyLib.c ****         CyDelayUs(CY_SYS_WDT_1LFCLK_DELAY_US);
ARM GAS  C:\Users\CHRIST~1\AppData\Local\Temp\cc8KQrfd.s 			page 82


 2237              		.loc 2 1424 0 discriminator 4
 2238 0068 064B     		ldr	r3, .L173
 2239 006a 1B68     		ldr	r3, [r3]
 2240 006c 9B0F     		lsr	r3, r3, #30
 2241 006e 9B07     		lsl	r3, r3, #30
 2242 0070 01D1     		bne	.L171
 2243              		.loc 2 1424 0 is_stmt 0 discriminator 1
 2244 0072 4323     		mov	r3, #67
 2245 0074 00E0     		b	.L172
 2246              	.L171:
 2247              		.loc 2 1424 0 discriminator 2
 2248 0076 1F23     		mov	r3, #31
 2249              	.L172:
 2250              		.loc 2 1424 0 discriminator 4
 2251 0078 181C     		mov	r0, r3
 2252 007a FFF7FEFF 		bl	CyDelayUs
1425:.\Generated_Source\PSoC4/CyLib.c ****     }
 2253              		.loc 2 1425 0 is_stmt 1 discriminator 4
 2254 007e BD46     		mov	sp, r7
 2255 0080 04B0     		add	sp, sp, #16
 2256              		@ sp needed
 2257 0082 80BD     		pop	{r7, pc}
 2258              	.L174:
 2259              		.align	2
 2260              	.L173:
 2261 0084 0C020B40 		.word	1074463244
 2262 0088 08020B40 		.word	1074463240
 2263 008c FFFF0000 		.word	65535
 2264              		.cfi_endproc
 2265              	.LFE32:
 2266              		.size	CySysWdtWriteMatch, .-CySysWdtWriteMatch
 2267              		.section	.text.CySysWdtWriteToggleBit,"ax",%progbits
 2268              		.align	2
 2269              		.global	CySysWdtWriteToggleBit
 2270              		.code	16
 2271              		.thumb_func
 2272              		.type	CySysWdtWriteToggleBit, %function
 2273              	CySysWdtWriteToggleBit:
 2274              	.LFB33:
1426:.\Generated_Source\PSoC4/CyLib.c **** 
1427:.\Generated_Source\PSoC4/CyLib.c **** 
1428:.\Generated_Source\PSoC4/CyLib.c ****     /*******************************************************************************
1429:.\Generated_Source\PSoC4/CyLib.c ****     * Function Name: CySysWdtWriteToggleBit
1430:.\Generated_Source\PSoC4/CyLib.c ****     ********************************************************************************
1431:.\Generated_Source\PSoC4/CyLib.c ****     *
1432:.\Generated_Source\PSoC4/CyLib.c ****     * Summary:
1433:.\Generated_Source\PSoC4/CyLib.c ****     *  Configures which bit in the WDT counter 2 to monitor for a toggle. When that
1434:.\Generated_Source\PSoC4/CyLib.c ****     *  bit toggles, an interrupt is generated if the mode for counter 2 has
1435:.\Generated_Source\PSoC4/CyLib.c ****     *  interrupts enabled.
1436:.\Generated_Source\PSoC4/CyLib.c ****     *
1437:.\Generated_Source\PSoC4/CyLib.c ****     * Parameters:
1438:.\Generated_Source\PSoC4/CyLib.c ****     *  bit:
1439:.\Generated_Source\PSoC4/CyLib.c ****     *   Valid range [0-31].  Counter 2 bit to monitor for a toggle.
1440:.\Generated_Source\PSoC4/CyLib.c ****     *
1441:.\Generated_Source\PSoC4/CyLib.c ****     * Return:
1442:.\Generated_Source\PSoC4/CyLib.c ****     *   None
1443:.\Generated_Source\PSoC4/CyLib.c ****     *
ARM GAS  C:\Users\CHRIST~1\AppData\Local\Temp\cc8KQrfd.s 			page 83


1444:.\Generated_Source\PSoC4/CyLib.c ****     * Side effects:
1445:.\Generated_Source\PSoC4/CyLib.c ****     *   WDT Counter 2 should be disabled. Otherwise this function call will have no
1446:.\Generated_Source\PSoC4/CyLib.c ****     *   effect.
1447:.\Generated_Source\PSoC4/CyLib.c ****     *
1448:.\Generated_Source\PSoC4/CyLib.c ****     *   If the specified counter is enabled, call CySysWdtDisable() function with
1449:.\Generated_Source\PSoC4/CyLib.c ****     *   the corresponding parameter to disable specified counter and wait for it to
1450:.\Generated_Source\PSoC4/CyLib.c ****     *   stop. This may take up to 3 LFCLK cycles.
1451:.\Generated_Source\PSoC4/CyLib.c ****     *
1452:.\Generated_Source\PSoC4/CyLib.c ****     *******************************************************************************/
1453:.\Generated_Source\PSoC4/CyLib.c ****     void CySysWdtWriteToggleBit(uint32 bits)
1454:.\Generated_Source\PSoC4/CyLib.c ****     {
 2275              		.loc 2 1454 0
 2276              		.cfi_startproc
 2277 0000 80B5     		push	{r7, lr}
 2278              		.cfi_def_cfa_offset 8
 2279              		.cfi_offset 7, -8
 2280              		.cfi_offset 14, -4
 2281 0002 84B0     		sub	sp, sp, #16
 2282              		.cfi_def_cfa_offset 24
 2283 0004 00AF     		add	r7, sp, #0
 2284              		.cfi_def_cfa_register 7
 2285 0006 7860     		str	r0, [r7, #4]
1455:.\Generated_Source\PSoC4/CyLib.c ****         uint32 configRegValue;
1456:.\Generated_Source\PSoC4/CyLib.c **** 
1457:.\Generated_Source\PSoC4/CyLib.c ****         if (0u == CySysWdtReadEnabledStatus(CY_SYS_WDT_COUNTER2))
 2286              		.loc 2 1457 0
 2287 0008 0220     		mov	r0, #2
 2288 000a FFF7FEFF 		bl	CySysWdtReadEnabledStatus
 2289 000e 031E     		sub	r3, r0, #0
 2290 0010 10D1     		bne	.L175
1458:.\Generated_Source\PSoC4/CyLib.c ****         {
1459:.\Generated_Source\PSoC4/CyLib.c ****             configRegValue = CY_SYS_WDT_CONFIG_REG;
 2291              		.loc 2 1459 0
 2292 0012 0A4B     		ldr	r3, .L177
 2293 0014 1B68     		ldr	r3, [r3]
 2294 0016 FB60     		str	r3, [r7, #12]
1460:.\Generated_Source\PSoC4/CyLib.c ****             configRegValue &= (uint32)(~((uint32)(CY_SYS_WDT_CONFIG_BITS2_MASK << CY_SYS_WDT_CONFIG
 2295              		.loc 2 1460 0
 2296 0018 FB68     		ldr	r3, [r7, #12]
 2297 001a 094A     		ldr	r2, .L177+4
 2298 001c 1340     		and	r3, r2
 2299 001e FB60     		str	r3, [r7, #12]
1461:.\Generated_Source\PSoC4/CyLib.c ****             configRegValue |= ((bits & CY_SYS_WDT_CONFIG_BITS2_MASK) << CY_SYS_WDT_CONFIG_BITS2_POS
 2300              		.loc 2 1461 0
 2301 0020 7B68     		ldr	r3, [r7, #4]
 2302 0022 1F22     		mov	r2, #31
 2303 0024 1340     		and	r3, r2
 2304 0026 1B06     		lsl	r3, r3, #24
 2305 0028 FA68     		ldr	r2, [r7, #12]
 2306 002a 1343     		orr	r3, r2
 2307 002c FB60     		str	r3, [r7, #12]
1462:.\Generated_Source\PSoC4/CyLib.c ****             CY_SYS_WDT_CONFIG_REG = configRegValue;
 2308              		.loc 2 1462 0
 2309 002e 034B     		ldr	r3, .L177
 2310 0030 FA68     		ldr	r2, [r7, #12]
 2311 0032 1A60     		str	r2, [r3]
 2312              	.L175:
ARM GAS  C:\Users\CHRIST~1\AppData\Local\Temp\cc8KQrfd.s 			page 84


1463:.\Generated_Source\PSoC4/CyLib.c ****         }
1464:.\Generated_Source\PSoC4/CyLib.c ****     }
 2313              		.loc 2 1464 0
 2314 0034 BD46     		mov	sp, r7
 2315 0036 04B0     		add	sp, sp, #16
 2316              		@ sp needed
 2317 0038 80BD     		pop	{r7, pc}
 2318              	.L178:
 2319 003a C046     		.align	2
 2320              	.L177:
 2321 003c 0C020B40 		.word	1074463244
 2322 0040 FFFFFFE0 		.word	-520093697
 2323              		.cfi_endproc
 2324              	.LFE33:
 2325              		.size	CySysWdtWriteToggleBit, .-CySysWdtWriteToggleBit
 2326              		.section	.text.CySysWdtReadToggleBit,"ax",%progbits
 2327              		.align	2
 2328              		.global	CySysWdtReadToggleBit
 2329              		.code	16
 2330              		.thumb_func
 2331              		.type	CySysWdtReadToggleBit, %function
 2332              	CySysWdtReadToggleBit:
 2333              	.LFB34:
1465:.\Generated_Source\PSoC4/CyLib.c **** 
1466:.\Generated_Source\PSoC4/CyLib.c **** 
1467:.\Generated_Source\PSoC4/CyLib.c ****     /*******************************************************************************
1468:.\Generated_Source\PSoC4/CyLib.c ****     * Function Name: CySysWdtReadToggleBit
1469:.\Generated_Source\PSoC4/CyLib.c ****     ********************************************************************************
1470:.\Generated_Source\PSoC4/CyLib.c ****     *
1471:.\Generated_Source\PSoC4/CyLib.c ****     * Summary:
1472:.\Generated_Source\PSoC4/CyLib.c ****     *  Reads which bit in the WDT counter 2 is monitored for a toggle.
1473:.\Generated_Source\PSoC4/CyLib.c ****     *
1474:.\Generated_Source\PSoC4/CyLib.c ****     * Parameters:
1475:.\Generated_Source\PSoC4/CyLib.c ****     *  None
1476:.\Generated_Source\PSoC4/CyLib.c ****     *
1477:.\Generated_Source\PSoC4/CyLib.c ****     * Return:
1478:.\Generated_Source\PSoC4/CyLib.c ****     *  The bit that is monitored (range of 0 to 31)
1479:.\Generated_Source\PSoC4/CyLib.c ****     *
1480:.\Generated_Source\PSoC4/CyLib.c ****     *******************************************************************************/
1481:.\Generated_Source\PSoC4/CyLib.c ****     uint32 CySysWdtReadToggleBit(void)
1482:.\Generated_Source\PSoC4/CyLib.c ****     {
 2334              		.loc 2 1482 0
 2335              		.cfi_startproc
 2336 0000 80B5     		push	{r7, lr}
 2337              		.cfi_def_cfa_offset 8
 2338              		.cfi_offset 7, -8
 2339              		.cfi_offset 14, -4
 2340 0002 00AF     		add	r7, sp, #0
 2341              		.cfi_def_cfa_register 7
1483:.\Generated_Source\PSoC4/CyLib.c ****         return ((CY_SYS_WDT_CONFIG_REG >> CY_SYS_WDT_CONFIG_BITS2_POS) & CY_SYS_WDT_CONFIG_BITS2_MA
 2342              		.loc 2 1483 0
 2343 0004 034B     		ldr	r3, .L181
 2344 0006 1B68     		ldr	r3, [r3]
 2345 0008 1B0E     		lsr	r3, r3, #24
 2346 000a 1F22     		mov	r2, #31
 2347 000c 1340     		and	r3, r2
1484:.\Generated_Source\PSoC4/CyLib.c ****     }
ARM GAS  C:\Users\CHRIST~1\AppData\Local\Temp\cc8KQrfd.s 			page 85


 2348              		.loc 2 1484 0
 2349 000e 181C     		mov	r0, r3
 2350 0010 BD46     		mov	sp, r7
 2351              		@ sp needed
 2352 0012 80BD     		pop	{r7, pc}
 2353              	.L182:
 2354              		.align	2
 2355              	.L181:
 2356 0014 0C020B40 		.word	1074463244
 2357              		.cfi_endproc
 2358              	.LFE34:
 2359              		.size	CySysWdtReadToggleBit, .-CySysWdtReadToggleBit
 2360              		.section	.text.CySysWdtReadMatch,"ax",%progbits
 2361              		.align	2
 2362              		.global	CySysWdtReadMatch
 2363              		.code	16
 2364              		.thumb_func
 2365              		.type	CySysWdtReadMatch, %function
 2366              	CySysWdtReadMatch:
 2367              	.LFB35:
1485:.\Generated_Source\PSoC4/CyLib.c **** 
1486:.\Generated_Source\PSoC4/CyLib.c **** 
1487:.\Generated_Source\PSoC4/CyLib.c ****     /*******************************************************************************
1488:.\Generated_Source\PSoC4/CyLib.c ****     * Function Name: CySysWdtReadMatch
1489:.\Generated_Source\PSoC4/CyLib.c ****     ********************************************************************************
1490:.\Generated_Source\PSoC4/CyLib.c ****     *
1491:.\Generated_Source\PSoC4/CyLib.c ****     * Summary:
1492:.\Generated_Source\PSoC4/CyLib.c ****     *  Reads the WDT counter match comparison value.
1493:.\Generated_Source\PSoC4/CyLib.c ****     *
1494:.\Generated_Source\PSoC4/CyLib.c ****     * Parameters:
1495:.\Generated_Source\PSoC4/CyLib.c ****     *  counterNum: Valid range [0-1].  Number of the WDT counter.  Match values
1496:.\Generated_Source\PSoC4/CyLib.c ****     *               are not supported by counter 2.
1497:.\Generated_Source\PSoC4/CyLib.c ****     *
1498:.\Generated_Source\PSoC4/CyLib.c ****     * Return:
1499:.\Generated_Source\PSoC4/CyLib.c ****     *  16-bit match value.
1500:.\Generated_Source\PSoC4/CyLib.c ****     *
1501:.\Generated_Source\PSoC4/CyLib.c ****     *******************************************************************************/
1502:.\Generated_Source\PSoC4/CyLib.c ****     uint32 CySysWdtReadMatch(uint32 counterNum)
1503:.\Generated_Source\PSoC4/CyLib.c ****     {
 2368              		.loc 2 1503 0
 2369              		.cfi_startproc
 2370 0000 80B5     		push	{r7, lr}
 2371              		.cfi_def_cfa_offset 8
 2372              		.cfi_offset 7, -8
 2373              		.cfi_offset 14, -4
 2374 0002 82B0     		sub	sp, sp, #8
 2375              		.cfi_def_cfa_offset 16
 2376 0004 00AF     		add	r7, sp, #0
 2377              		.cfi_def_cfa_register 7
 2378 0006 7860     		str	r0, [r7, #4]
1504:.\Generated_Source\PSoC4/CyLib.c ****         CYASSERT((counterNum == CY_SYS_WDT_COUNTER0) ||
 2379              		.loc 2 1504 0
 2380 0008 7B68     		ldr	r3, [r7, #4]
 2381 000a 002B     		cmp	r3, #0
 2382 000c 02D0     		beq	.L184
 2383              		.loc 2 1504 0 is_stmt 0 discriminator 2
 2384 000e 7B68     		ldr	r3, [r7, #4]
ARM GAS  C:\Users\CHRIST~1\AppData\Local\Temp\cc8KQrfd.s 			page 86


 2385 0010 012B     		cmp	r3, #1
 2386 0012 01D1     		bne	.L185
 2387              	.L184:
 2388              		.loc 2 1504 0 discriminator 3
 2389 0014 0123     		mov	r3, #1
 2390 0016 00E0     		b	.L186
 2391              	.L185:
 2392              		.loc 2 1504 0 discriminator 4
 2393 0018 0023     		mov	r3, #0
 2394              	.L186:
 2395              		.loc 2 1504 0 discriminator 6
 2396 001a 002B     		cmp	r3, #0
 2397 001c 02D1     		bne	.L187
 2398              		.loc 2 1504 0 discriminator 7
 2399 001e 0020     		mov	r0, #0
 2400 0020 FFF7FEFF 		bl	CyHalt
 2401              	.L187:
1505:.\Generated_Source\PSoC4/CyLib.c ****                  (counterNum == CY_SYS_WDT_COUNTER1));
1506:.\Generated_Source\PSoC4/CyLib.c **** 
1507:.\Generated_Source\PSoC4/CyLib.c ****         return ((uint32)(CY_SYS_WDT_MATCH_REG >> (counterNum * CY_SYS_WDT_CNT_MATCH_SHIFT)) & CY_SY
 2402              		.loc 2 1507 0 is_stmt 1
 2403 0024 054B     		ldr	r3, .L189
 2404 0026 1B68     		ldr	r3, [r3]
 2405 0028 7A68     		ldr	r2, [r7, #4]
 2406 002a 1201     		lsl	r2, r2, #4
 2407 002c D340     		lsr	r3, r3, r2
 2408 002e 1B04     		lsl	r3, r3, #16
 2409 0030 1B0C     		lsr	r3, r3, #16
1508:.\Generated_Source\PSoC4/CyLib.c ****     }
 2410              		.loc 2 1508 0
 2411 0032 181C     		mov	r0, r3
 2412 0034 BD46     		mov	sp, r7
 2413 0036 02B0     		add	sp, sp, #8
 2414              		@ sp needed
 2415 0038 80BD     		pop	{r7, pc}
 2416              	.L190:
 2417 003a C046     		.align	2
 2418              	.L189:
 2419 003c 08020B40 		.word	1074463240
 2420              		.cfi_endproc
 2421              	.LFE35:
 2422              		.size	CySysWdtReadMatch, .-CySysWdtReadMatch
 2423              		.section	.text.CySysWdtReadCount,"ax",%progbits
 2424              		.align	2
 2425              		.global	CySysWdtReadCount
 2426              		.code	16
 2427              		.thumb_func
 2428              		.type	CySysWdtReadCount, %function
 2429              	CySysWdtReadCount:
 2430              	.LFB36:
1509:.\Generated_Source\PSoC4/CyLib.c **** 
1510:.\Generated_Source\PSoC4/CyLib.c **** 
1511:.\Generated_Source\PSoC4/CyLib.c ****     /*******************************************************************************
1512:.\Generated_Source\PSoC4/CyLib.c ****     * Function Name: CySysWdtReadCount
1513:.\Generated_Source\PSoC4/CyLib.c ****     ********************************************************************************
1514:.\Generated_Source\PSoC4/CyLib.c ****     *
1515:.\Generated_Source\PSoC4/CyLib.c ****     * Summary:
ARM GAS  C:\Users\CHRIST~1\AppData\Local\Temp\cc8KQrfd.s 			page 87


1516:.\Generated_Source\PSoC4/CyLib.c ****     *  Reads the current WDT counter value.
1517:.\Generated_Source\PSoC4/CyLib.c ****     *
1518:.\Generated_Source\PSoC4/CyLib.c ****     * Parameters:
1519:.\Generated_Source\PSoC4/CyLib.c ****     *  counterNum: Valid range [0-2].  Number of the WDT counter.
1520:.\Generated_Source\PSoC4/CyLib.c ****     *
1521:.\Generated_Source\PSoC4/CyLib.c ****     * Return:
1522:.\Generated_Source\PSoC4/CyLib.c ****     *  Live counter value.  Counter 0 and 1 are 16 bit counters and counter
1523:.\Generated_Source\PSoC4/CyLib.c ****     *  2 is a 32 bit counter.
1524:.\Generated_Source\PSoC4/CyLib.c ****     *
1525:.\Generated_Source\PSoC4/CyLib.c ****     *******************************************************************************/
1526:.\Generated_Source\PSoC4/CyLib.c ****     uint32 CySysWdtReadCount(uint32 counterNum)
1527:.\Generated_Source\PSoC4/CyLib.c ****     {
 2431              		.loc 2 1527 0
 2432              		.cfi_startproc
 2433 0000 80B5     		push	{r7, lr}
 2434              		.cfi_def_cfa_offset 8
 2435              		.cfi_offset 7, -8
 2436              		.cfi_offset 14, -4
 2437 0002 84B0     		sub	sp, sp, #16
 2438              		.cfi_def_cfa_offset 24
 2439 0004 00AF     		add	r7, sp, #0
 2440              		.cfi_def_cfa_register 7
 2441 0006 7860     		str	r0, [r7, #4]
1528:.\Generated_Source\PSoC4/CyLib.c ****         uint32 regValue = 0u;
 2442              		.loc 2 1528 0
 2443 0008 0023     		mov	r3, #0
 2444 000a FB60     		str	r3, [r7, #12]
1529:.\Generated_Source\PSoC4/CyLib.c **** 
1530:.\Generated_Source\PSoC4/CyLib.c ****         switch(counterNum)
 2445              		.loc 2 1530 0
 2446 000c 7B68     		ldr	r3, [r7, #4]
 2447 000e 012B     		cmp	r3, #1
 2448 0010 09D0     		beq	.L193
 2449 0012 02D3     		bcc	.L194
 2450 0014 022B     		cmp	r3, #2
 2451 0016 0BD0     		beq	.L195
 2452 0018 0EE0     		b	.L198
 2453              	.L194:
1531:.\Generated_Source\PSoC4/CyLib.c ****         {
1532:.\Generated_Source\PSoC4/CyLib.c ****             /* WDT Counter 0 */
1533:.\Generated_Source\PSoC4/CyLib.c ****             case 0u:
1534:.\Generated_Source\PSoC4/CyLib.c ****                 regValue = CY_SYS_WDT_CTRLOW_REG & CY_SYS_WDT_LOWER_16BITS_MASK;
 2454              		.loc 2 1534 0
 2455 001a 0C4B     		ldr	r3, .L199
 2456 001c 1B68     		ldr	r3, [r3]
 2457 001e 1B04     		lsl	r3, r3, #16
 2458 0020 1B0C     		lsr	r3, r3, #16
 2459 0022 FB60     		str	r3, [r7, #12]
1535:.\Generated_Source\PSoC4/CyLib.c ****             break;
 2460              		.loc 2 1535 0
 2461 0024 0CE0     		b	.L196
 2462              	.L193:
1536:.\Generated_Source\PSoC4/CyLib.c **** 
1537:.\Generated_Source\PSoC4/CyLib.c ****             /* WDT Counter 1 */
1538:.\Generated_Source\PSoC4/CyLib.c ****             case 1u:
1539:.\Generated_Source\PSoC4/CyLib.c ****                 regValue = (CY_SYS_WDT_CTRLOW_REG >> CY_SYS_WDT_CNT_MATCH_SHIFT) & CY_SYS_WDT_LOWER
 2463              		.loc 2 1539 0
ARM GAS  C:\Users\CHRIST~1\AppData\Local\Temp\cc8KQrfd.s 			page 88


 2464 0026 094B     		ldr	r3, .L199
 2465 0028 1B68     		ldr	r3, [r3]
 2466 002a 1B0C     		lsr	r3, r3, #16
 2467 002c FB60     		str	r3, [r7, #12]
1540:.\Generated_Source\PSoC4/CyLib.c ****             break;
 2468              		.loc 2 1540 0
 2469 002e 07E0     		b	.L196
 2470              	.L195:
1541:.\Generated_Source\PSoC4/CyLib.c **** 
1542:.\Generated_Source\PSoC4/CyLib.c ****             /* WDT Counter 2 */
1543:.\Generated_Source\PSoC4/CyLib.c ****             case 2u:
1544:.\Generated_Source\PSoC4/CyLib.c ****                 regValue = CY_SYS_WDT_CTRHIGH_REG;
 2471              		.loc 2 1544 0
 2472 0030 074B     		ldr	r3, .L199+4
 2473 0032 1B68     		ldr	r3, [r3]
 2474 0034 FB60     		str	r3, [r7, #12]
1545:.\Generated_Source\PSoC4/CyLib.c ****             break;
 2475              		.loc 2 1545 0
 2476 0036 03E0     		b	.L196
 2477              	.L198:
1546:.\Generated_Source\PSoC4/CyLib.c **** 
1547:.\Generated_Source\PSoC4/CyLib.c ****             default:
1548:.\Generated_Source\PSoC4/CyLib.c ****                 CYASSERT(0u != 0u);
 2478              		.loc 2 1548 0
 2479 0038 0020     		mov	r0, #0
 2480 003a FFF7FEFF 		bl	CyHalt
1549:.\Generated_Source\PSoC4/CyLib.c ****             break;
 2481              		.loc 2 1549 0
 2482 003e C046     		mov	r8, r8
 2483              	.L196:
1550:.\Generated_Source\PSoC4/CyLib.c ****         }
1551:.\Generated_Source\PSoC4/CyLib.c **** 
1552:.\Generated_Source\PSoC4/CyLib.c ****         return (regValue);
 2484              		.loc 2 1552 0
 2485 0040 FB68     		ldr	r3, [r7, #12]
1553:.\Generated_Source\PSoC4/CyLib.c ****     }
 2486              		.loc 2 1553 0
 2487 0042 181C     		mov	r0, r3
 2488 0044 BD46     		mov	sp, r7
 2489 0046 04B0     		add	sp, sp, #16
 2490              		@ sp needed
 2491 0048 80BD     		pop	{r7, pc}
 2492              	.L200:
 2493 004a C046     		.align	2
 2494              	.L199:
 2495 004c 00020B40 		.word	1074463232
 2496 0050 04020B40 		.word	1074463236
 2497              		.cfi_endproc
 2498              	.LFE36:
 2499              		.size	CySysWdtReadCount, .-CySysWdtReadCount
 2500              		.section	.text.CySysWdtGetInterruptSource,"ax",%progbits
 2501              		.align	2
 2502              		.global	CySysWdtGetInterruptSource
 2503              		.code	16
 2504              		.thumb_func
 2505              		.type	CySysWdtGetInterruptSource, %function
 2506              	CySysWdtGetInterruptSource:
ARM GAS  C:\Users\CHRIST~1\AppData\Local\Temp\cc8KQrfd.s 			page 89


 2507              	.LFB37:
1554:.\Generated_Source\PSoC4/CyLib.c **** 
1555:.\Generated_Source\PSoC4/CyLib.c **** 
1556:.\Generated_Source\PSoC4/CyLib.c ****     /*******************************************************************************
1557:.\Generated_Source\PSoC4/CyLib.c ****     * Function Name: CySysWdtGetInterruptSource
1558:.\Generated_Source\PSoC4/CyLib.c ****     ********************************************************************************
1559:.\Generated_Source\PSoC4/CyLib.c ****     *
1560:.\Generated_Source\PSoC4/CyLib.c ****     * Summary:
1561:.\Generated_Source\PSoC4/CyLib.c ****     *   Reads a mask containing all the WDT counters interrupts that are currently
1562:.\Generated_Source\PSoC4/CyLib.c ****     *   set by the hardware, if a corresponding mode is selected.
1563:.\Generated_Source\PSoC4/CyLib.c ****     *
1564:.\Generated_Source\PSoC4/CyLib.c ****     * Parameters:
1565:.\Generated_Source\PSoC4/CyLib.c ****     *   None
1566:.\Generated_Source\PSoC4/CyLib.c ****     *
1567:.\Generated_Source\PSoC4/CyLib.c ****     * Return:
1568:.\Generated_Source\PSoC4/CyLib.c ****     *   Mask of interrupts set.
1569:.\Generated_Source\PSoC4/CyLib.c ****     *   Define                    Counter
1570:.\Generated_Source\PSoC4/CyLib.c ****     *   CY_SYS_WDT_COUNTER0_INT    0
1571:.\Generated_Source\PSoC4/CyLib.c ****     *   CY_SYS_WDT_COUNTER1_INT    1
1572:.\Generated_Source\PSoC4/CyLib.c ****     *   CY_SYS_WDT_COUNTER2_INT    2
1573:.\Generated_Source\PSoC4/CyLib.c ****     *
1574:.\Generated_Source\PSoC4/CyLib.c ****     *******************************************************************************/
1575:.\Generated_Source\PSoC4/CyLib.c ****     uint32 CySysWdtGetInterruptSource(void)
1576:.\Generated_Source\PSoC4/CyLib.c ****     {
 2508              		.loc 2 1576 0
 2509              		.cfi_startproc
 2510 0000 80B5     		push	{r7, lr}
 2511              		.cfi_def_cfa_offset 8
 2512              		.cfi_offset 7, -8
 2513              		.cfi_offset 14, -4
 2514 0002 00AF     		add	r7, sp, #0
 2515              		.cfi_def_cfa_register 7
1577:.\Generated_Source\PSoC4/CyLib.c ****         return (CY_SYS_WDT_CONTROL_REG & (CY_SYS_WDT_COUNTER0_INT | CY_SYS_WDT_COUNTER1_INT | CY_SY
 2516              		.loc 2 1577 0
 2517 0004 034B     		ldr	r3, .L203
 2518 0006 1B68     		ldr	r3, [r3]
 2519 0008 034A     		ldr	r2, .L203+4
 2520 000a 1340     		and	r3, r2
1578:.\Generated_Source\PSoC4/CyLib.c ****     }
 2521              		.loc 2 1578 0
 2522 000c 181C     		mov	r0, r3
 2523 000e BD46     		mov	sp, r7
 2524              		@ sp needed
 2525 0010 80BD     		pop	{r7, pc}
 2526              	.L204:
 2527 0012 C046     		.align	2
 2528              	.L203:
 2529 0014 10020B40 		.word	1074463248
 2530 0018 04040400 		.word	263172
 2531              		.cfi_endproc
 2532              	.LFE37:
 2533              		.size	CySysWdtGetInterruptSource, .-CySysWdtGetInterruptSource
 2534              		.section	.text.CySysWdtClearInterrupt,"ax",%progbits
 2535              		.align	2
 2536              		.global	CySysWdtClearInterrupt
 2537              		.code	16
 2538              		.thumb_func
ARM GAS  C:\Users\CHRIST~1\AppData\Local\Temp\cc8KQrfd.s 			page 90


 2539              		.type	CySysWdtClearInterrupt, %function
 2540              	CySysWdtClearInterrupt:
 2541              	.LFB38:
1579:.\Generated_Source\PSoC4/CyLib.c **** 
1580:.\Generated_Source\PSoC4/CyLib.c **** 
1581:.\Generated_Source\PSoC4/CyLib.c ****     /*******************************************************************************
1582:.\Generated_Source\PSoC4/CyLib.c ****     * Function Name: CySysWdtClearInterrupt
1583:.\Generated_Source\PSoC4/CyLib.c ****     ********************************************************************************
1584:.\Generated_Source\PSoC4/CyLib.c ****     *
1585:.\Generated_Source\PSoC4/CyLib.c ****     * Summary:
1586:.\Generated_Source\PSoC4/CyLib.c ****     *   Clears all the WDT counter interrupts set in the mask. Calling this function
1587:.\Generated_Source\PSoC4/CyLib.c ****     *   also prevents Reset from happening when the counter mode is set to generate
1588:.\Generated_Source\PSoC4/CyLib.c ****     *   3 interrupts and then reset the device.
1589:.\Generated_Source\PSoC4/CyLib.c ****     *
1590:.\Generated_Source\PSoC4/CyLib.c ****     *   All the WDT interrupts are to be cleared by the firmware, otherwise interrupts
1591:.\Generated_Source\PSoC4/CyLib.c ****     *   will be generated continuously.
1592:.\Generated_Source\PSoC4/CyLib.c ****     *
1593:.\Generated_Source\PSoC4/CyLib.c ****     * Parameters:
1594:.\Generated_Source\PSoC4/CyLib.c ****     *   counterMask: Mask of all counters to enable
1595:.\Generated_Source\PSoC4/CyLib.c ****     *   Define                    Counter
1596:.\Generated_Source\PSoC4/CyLib.c ****     *   CY_SYS_WDT_COUNTER0_INT    0
1597:.\Generated_Source\PSoC4/CyLib.c ****     *   CY_SYS_WDT_COUNTER1_INT    1
1598:.\Generated_Source\PSoC4/CyLib.c ****     *   CY_SYS_WDT_COUNTER2_INT    2
1599:.\Generated_Source\PSoC4/CyLib.c ****     *
1600:.\Generated_Source\PSoC4/CyLib.c ****     * Return:
1601:.\Generated_Source\PSoC4/CyLib.c ****     *   None
1602:.\Generated_Source\PSoC4/CyLib.c ****     *
1603:.\Generated_Source\PSoC4/CyLib.c ****     * Side effects:
1604:.\Generated_Source\PSoC4/CyLib.c ****     *   This function temporary removes the watchdog lock, if it was set, and
1605:.\Generated_Source\PSoC4/CyLib.c ****     *   restores the lock state, after cleaning the WDT interrupts, that are set in
1606:.\Generated_Source\PSoC4/CyLib.c ****     *   a mask.
1607:.\Generated_Source\PSoC4/CyLib.c ****     *
1608:.\Generated_Source\PSoC4/CyLib.c ****     *******************************************************************************/
1609:.\Generated_Source\PSoC4/CyLib.c ****     void CySysWdtClearInterrupt(uint32 counterMask)
1610:.\Generated_Source\PSoC4/CyLib.c ****     {
 2542              		.loc 2 1610 0
 2543              		.cfi_startproc
 2544 0000 90B5     		push	{r4, r7, lr}
 2545              		.cfi_def_cfa_offset 12
 2546              		.cfi_offset 4, -12
 2547              		.cfi_offset 7, -8
 2548              		.cfi_offset 14, -4
 2549 0002 85B0     		sub	sp, sp, #20
 2550              		.cfi_def_cfa_offset 32
 2551 0004 00AF     		add	r7, sp, #0
 2552              		.cfi_def_cfa_register 7
 2553 0006 7860     		str	r0, [r7, #4]
1611:.\Generated_Source\PSoC4/CyLib.c ****         uint8 interruptState;
1612:.\Generated_Source\PSoC4/CyLib.c ****         uint32 wdtLockState;
1613:.\Generated_Source\PSoC4/CyLib.c **** 
1614:.\Generated_Source\PSoC4/CyLib.c ****         interruptState = CyEnterCriticalSection();
 2554              		.loc 2 1614 0
 2555 0008 0B23     		mov	r3, #11
 2556 000a FC18     		add	r4, r7, r3
 2557 000c FFF7FEFF 		bl	CyEnterCriticalSection
 2558 0010 031C     		mov	r3, r0
 2559 0012 2370     		strb	r3, [r4]
ARM GAS  C:\Users\CHRIST~1\AppData\Local\Temp\cc8KQrfd.s 			page 91


1615:.\Generated_Source\PSoC4/CyLib.c **** 
1616:.\Generated_Source\PSoC4/CyLib.c ****         if (0u != CySysWdtLocked())
 2560              		.loc 2 1616 0
 2561 0014 FFF7FEFF 		bl	CySysWdtLocked
 2562 0018 031E     		sub	r3, r0, #0
 2563 001a 04D0     		beq	.L206
1617:.\Generated_Source\PSoC4/CyLib.c ****         {
1618:.\Generated_Source\PSoC4/CyLib.c ****             wdtLockState = 1u;
 2564              		.loc 2 1618 0
 2565 001c 0123     		mov	r3, #1
 2566 001e FB60     		str	r3, [r7, #12]
1619:.\Generated_Source\PSoC4/CyLib.c ****             CySysWdtUnlock();
 2567              		.loc 2 1619 0
 2568 0020 FFF7FEFF 		bl	CySysWdtUnlock
 2569 0024 01E0     		b	.L207
 2570              	.L206:
1620:.\Generated_Source\PSoC4/CyLib.c ****         }
1621:.\Generated_Source\PSoC4/CyLib.c ****         else
1622:.\Generated_Source\PSoC4/CyLib.c ****         {
1623:.\Generated_Source\PSoC4/CyLib.c ****             wdtLockState = 0u;
 2571              		.loc 2 1623 0
 2572 0026 0023     		mov	r3, #0
 2573 0028 FB60     		str	r3, [r7, #12]
 2574              	.L207:
1624:.\Generated_Source\PSoC4/CyLib.c ****         }
1625:.\Generated_Source\PSoC4/CyLib.c **** 
1626:.\Generated_Source\PSoC4/CyLib.c ****         /* Set new WDT control register value */
1627:.\Generated_Source\PSoC4/CyLib.c ****         counterMask &= (CY_SYS_WDT_COUNTER0_INT |
 2575              		.loc 2 1627 0
 2576 002a 7B68     		ldr	r3, [r7, #4]
 2577 002c 0C4A     		ldr	r2, .L209
 2578 002e 1340     		and	r3, r2
 2579 0030 7B60     		str	r3, [r7, #4]
1628:.\Generated_Source\PSoC4/CyLib.c ****                         CY_SYS_WDT_COUNTER1_INT |
1629:.\Generated_Source\PSoC4/CyLib.c ****                         CY_SYS_WDT_COUNTER2_INT);
1630:.\Generated_Source\PSoC4/CyLib.c **** 
1631:.\Generated_Source\PSoC4/CyLib.c ****         CY_SYS_WDT_CONTROL_REG = counterMask | (CY_SYS_WDT_CONTROL_REG & ~(CY_SYS_WDT_COUNTER0_INT 
 2580              		.loc 2 1631 0
 2581 0032 0C4B     		ldr	r3, .L209+4
 2582 0034 0B4A     		ldr	r2, .L209+4
 2583 0036 1268     		ldr	r2, [r2]
 2584 0038 0B49     		ldr	r1, .L209+8
 2585 003a 1140     		and	r1, r2
 2586 003c 7A68     		ldr	r2, [r7, #4]
 2587 003e 0A43     		orr	r2, r1
 2588 0040 1A60     		str	r2, [r3]
1632:.\Generated_Source\PSoC4/CyLib.c ****                                                                            CY_SYS_WDT_COUNTER1_INT 
1633:.\Generated_Source\PSoC4/CyLib.c ****                                                                            CY_SYS_WDT_COUNTER2_INT)
1634:.\Generated_Source\PSoC4/CyLib.c **** 
1635:.\Generated_Source\PSoC4/CyLib.c ****         if (1u == wdtLockState)
 2589              		.loc 2 1635 0
 2590 0042 FB68     		ldr	r3, [r7, #12]
 2591 0044 012B     		cmp	r3, #1
 2592 0046 01D1     		bne	.L208
1636:.\Generated_Source\PSoC4/CyLib.c ****         {
1637:.\Generated_Source\PSoC4/CyLib.c ****             CySysWdtLock();
 2593              		.loc 2 1637 0
ARM GAS  C:\Users\CHRIST~1\AppData\Local\Temp\cc8KQrfd.s 			page 92


 2594 0048 FFF7FEFF 		bl	CySysWdtLock
 2595              	.L208:
1638:.\Generated_Source\PSoC4/CyLib.c ****         }
1639:.\Generated_Source\PSoC4/CyLib.c **** 
1640:.\Generated_Source\PSoC4/CyLib.c ****         CyExitCriticalSection(interruptState);
 2596              		.loc 2 1640 0
 2597 004c 0B23     		mov	r3, #11
 2598 004e FB18     		add	r3, r7, r3
 2599 0050 1B78     		ldrb	r3, [r3]
 2600 0052 181C     		mov	r0, r3
 2601 0054 FFF7FEFF 		bl	CyExitCriticalSection
1641:.\Generated_Source\PSoC4/CyLib.c ****     }
 2602              		.loc 2 1641 0
 2603 0058 BD46     		mov	sp, r7
 2604 005a 05B0     		add	sp, sp, #20
 2605              		@ sp needed
 2606 005c 90BD     		pop	{r4, r7, pc}
 2607              	.L210:
 2608 005e C046     		.align	2
 2609              	.L209:
 2610 0060 04040400 		.word	263172
 2611 0064 10020B40 		.word	1074463248
 2612 0068 FBFBFBFF 		.word	-263173
 2613              		.cfi_endproc
 2614              	.LFE38:
 2615              		.size	CySysWdtClearInterrupt, .-CySysWdtClearInterrupt
 2616              		.section	.text.CySysWdtResetCounters,"ax",%progbits
 2617              		.align	2
 2618              		.global	CySysWdtResetCounters
 2619              		.code	16
 2620              		.thumb_func
 2621              		.type	CySysWdtResetCounters, %function
 2622              	CySysWdtResetCounters:
 2623              	.LFB39:
1642:.\Generated_Source\PSoC4/CyLib.c **** 
1643:.\Generated_Source\PSoC4/CyLib.c **** 
1644:.\Generated_Source\PSoC4/CyLib.c ****     /*******************************************************************************
1645:.\Generated_Source\PSoC4/CyLib.c ****     * Function Name: CySysWdtResetCounters
1646:.\Generated_Source\PSoC4/CyLib.c ****     ********************************************************************************
1647:.\Generated_Source\PSoC4/CyLib.c ****     *
1648:.\Generated_Source\PSoC4/CyLib.c ****     * Summary:
1649:.\Generated_Source\PSoC4/CyLib.c ****     *  Resets all WDT counters set in the mask.
1650:.\Generated_Source\PSoC4/CyLib.c ****     *
1651:.\Generated_Source\PSoC4/CyLib.c ****     * Parameters:
1652:.\Generated_Source\PSoC4/CyLib.c ****     *  counterMask: Mask of all counters to reset.
1653:.\Generated_Source\PSoC4/CyLib.c ****     *   Define                       Counter
1654:.\Generated_Source\PSoC4/CyLib.c ****     *   CY_SYS_WDT_COUNTER0_RESET    0
1655:.\Generated_Source\PSoC4/CyLib.c ****     *   CY_SYS_WDT_COUNTER1_RESET    1
1656:.\Generated_Source\PSoC4/CyLib.c ****     *   CY_SYS_WDT_COUNTER2_RESET    2
1657:.\Generated_Source\PSoC4/CyLib.c ****     *
1658:.\Generated_Source\PSoC4/CyLib.c ****     * Return:
1659:.\Generated_Source\PSoC4/CyLib.c ****     *   None
1660:.\Generated_Source\PSoC4/CyLib.c ****     *
1661:.\Generated_Source\PSoC4/CyLib.c ****     * Side effects:
1662:.\Generated_Source\PSoC4/CyLib.c ****     *   This function will not reset counter values if the Watchdog is locked.
1663:.\Generated_Source\PSoC4/CyLib.c ****     *
1664:.\Generated_Source\PSoC4/CyLib.c ****     *******************************************************************************/
ARM GAS  C:\Users\CHRIST~1\AppData\Local\Temp\cc8KQrfd.s 			page 93


1665:.\Generated_Source\PSoC4/CyLib.c ****     void CySysWdtResetCounters(uint32 countersMask)
1666:.\Generated_Source\PSoC4/CyLib.c ****     {
 2624              		.loc 2 1666 0
 2625              		.cfi_startproc
 2626 0000 80B5     		push	{r7, lr}
 2627              		.cfi_def_cfa_offset 8
 2628              		.cfi_offset 7, -8
 2629              		.cfi_offset 14, -4
 2630 0002 82B0     		sub	sp, sp, #8
 2631              		.cfi_def_cfa_offset 16
 2632 0004 00AF     		add	r7, sp, #0
 2633              		.cfi_def_cfa_register 7
 2634 0006 7860     		str	r0, [r7, #4]
1667:.\Generated_Source\PSoC4/CyLib.c ****         /* Set new WDT reset value */
1668:.\Generated_Source\PSoC4/CyLib.c ****         CY_SYS_WDT_CONTROL_REG |= (countersMask & (CY_SYS_WDT_COUNTER0_RESET |
 2635              		.loc 2 1668 0
 2636 0008 054B     		ldr	r3, .L212
 2637 000a 054A     		ldr	r2, .L212
 2638 000c 1168     		ldr	r1, [r2]
 2639 000e 7A68     		ldr	r2, [r7, #4]
 2640 0010 0448     		ldr	r0, .L212+4
 2641 0012 0240     		and	r2, r0
 2642 0014 0A43     		orr	r2, r1
 2643 0016 1A60     		str	r2, [r3]
1669:.\Generated_Source\PSoC4/CyLib.c ****             CY_SYS_WDT_COUNTER1_RESET | CY_SYS_WDT_COUNTER2_RESET));
1670:.\Generated_Source\PSoC4/CyLib.c ****     }
 2644              		.loc 2 1670 0
 2645 0018 BD46     		mov	sp, r7
 2646 001a 02B0     		add	sp, sp, #8
 2647              		@ sp needed
 2648 001c 80BD     		pop	{r7, pc}
 2649              	.L213:
 2650 001e C046     		.align	2
 2651              	.L212:
 2652 0020 10020B40 		.word	1074463248
 2653 0024 08080800 		.word	526344
 2654              		.cfi_endproc
 2655              	.LFE39:
 2656              		.size	CySysWdtResetCounters, .-CySysWdtResetCounters
 2657              		.section	.text.CySysClkLfclkPosedgeCatch,"ax",%progbits
 2658              		.align	2
 2659              		.code	16
 2660              		.thumb_func
 2661              		.type	CySysClkLfclkPosedgeCatch, %function
 2662              	CySysClkLfclkPosedgeCatch:
 2663              	.LFB40:
1671:.\Generated_Source\PSoC4/CyLib.c **** 
1672:.\Generated_Source\PSoC4/CyLib.c **** 
1673:.\Generated_Source\PSoC4/CyLib.c ****     /*******************************************************************************
1674:.\Generated_Source\PSoC4/CyLib.c ****     * Function Name: CySysClkLfclkPosedgeCatch
1675:.\Generated_Source\PSoC4/CyLib.c ****     ********************************************************************************
1676:.\Generated_Source\PSoC4/CyLib.c ****     *
1677:.\Generated_Source\PSoC4/CyLib.c ****     * Summary:
1678:.\Generated_Source\PSoC4/CyLib.c ****     *  Returns once LFCLK positive edge occurred.
1679:.\Generated_Source\PSoC4/CyLib.c ****     *
1680:.\Generated_Source\PSoC4/CyLib.c ****     *  The CySysClkLfclkPosedgeRestore() should be called after this function in
1681:.\Generated_Source\PSoC4/CyLib.c ****     *  order to restore WDT configuration.
ARM GAS  C:\Users\CHRIST~1\AppData\Local\Temp\cc8KQrfd.s 			page 94


1682:.\Generated_Source\PSoC4/CyLib.c ****     *
1683:.\Generated_Source\PSoC4/CyLib.c ****     *  The pair of the CySysClkLfclkPosedgeCatch() and CySysClkLfclkPosedgeRestore()
1684:.\Generated_Source\PSoC4/CyLib.c ****     *  functions expected to be called inside of a critical section.
1685:.\Generated_Source\PSoC4/CyLib.c ****     *
1686:.\Generated_Source\PSoC4/CyLib.c ****     *  To ensure that the WDT counter value is read until it changes. The enabled
1687:.\Generated_Source\PSoC4/CyLib.c ****     *  WDT counter is used for that purpose. If no counters are enabled, the counter
1688:.\Generated_Source\PSoC4/CyLib.c ****     *  0 is enabled. And after LFCLK source is switched, the counter 0 configuration
1689:.\Generated_Source\PSoC4/CyLib.c ****     *  is restored back.
1690:.\Generated_Source\PSoC4/CyLib.c ****     *
1691:.\Generated_Source\PSoC4/CyLib.c ****     *  Not applicable for the PSoC 4000 devices.
1692:.\Generated_Source\PSoC4/CyLib.c ****     *
1693:.\Generated_Source\PSoC4/CyLib.c ****     * Parameters:
1694:.\Generated_Source\PSoC4/CyLib.c ****     *  None
1695:.\Generated_Source\PSoC4/CyLib.c ****     *
1696:.\Generated_Source\PSoC4/CyLib.c ****     * Return:
1697:.\Generated_Source\PSoC4/CyLib.c ****     *  None
1698:.\Generated_Source\PSoC4/CyLib.c ****     *
1699:.\Generated_Source\PSoC4/CyLib.c ****     * Side Effects:
1700:.\Generated_Source\PSoC4/CyLib.c ****     *  This function will have no effect if the WDT is locked (CySysWdtLock() is
1701:.\Generated_Source\PSoC4/CyLib.c ****     *  called). Call CySysWdtUnlock() to unlock the WDT.
1702:.\Generated_Source\PSoC4/CyLib.c ****     *
1703:.\Generated_Source\PSoC4/CyLib.c ****     *******************************************************************************/
1704:.\Generated_Source\PSoC4/CyLib.c ****     static void CySysClkLfclkPosedgeCatch(void)
1705:.\Generated_Source\PSoC4/CyLib.c ****     {
 2664              		.loc 2 1705 0
 2665              		.cfi_startproc
 2666 0000 80B5     		push	{r7, lr}
 2667              		.cfi_def_cfa_offset 8
 2668              		.cfi_offset 7, -8
 2669              		.cfi_offset 14, -4
 2670 0002 82B0     		sub	sp, sp, #8
 2671              		.cfi_def_cfa_offset 16
 2672 0004 00AF     		add	r7, sp, #0
 2673              		.cfi_def_cfa_register 7
1706:.\Generated_Source\PSoC4/CyLib.c ****         uint32 firstCount;
1707:.\Generated_Source\PSoC4/CyLib.c **** 
1708:.\Generated_Source\PSoC4/CyLib.c ****         if (0u != CySysWdtReadEnabledStatus(CY_SYS_WDT_COUNTER0))
 2674              		.loc 2 1708 0
 2675 0006 0020     		mov	r0, #0
 2676 0008 FFF7FEFF 		bl	CySysWdtReadEnabledStatus
 2677 000c 031E     		sub	r3, r0, #0
 2678 000e 03D0     		beq	.L215
1709:.\Generated_Source\PSoC4/CyLib.c ****         {
1710:.\Generated_Source\PSoC4/CyLib.c ****             lfclkPosedgeEnabledWdtCounter = CY_SYS_WDT_COUNTER0;
 2679              		.loc 2 1710 0
 2680 0010 1E4B     		ldr	r3, .L220
 2681 0012 0022     		mov	r2, #0
 2682 0014 1A60     		str	r2, [r3]
 2683 0016 24E0     		b	.L216
 2684              	.L215:
1711:.\Generated_Source\PSoC4/CyLib.c ****         }
1712:.\Generated_Source\PSoC4/CyLib.c ****         else if (0u != CySysWdtReadEnabledStatus(CY_SYS_WDT_COUNTER1))
 2685              		.loc 2 1712 0
 2686 0018 0120     		mov	r0, #1
 2687 001a FFF7FEFF 		bl	CySysWdtReadEnabledStatus
 2688 001e 031E     		sub	r3, r0, #0
 2689 0020 03D0     		beq	.L217
ARM GAS  C:\Users\CHRIST~1\AppData\Local\Temp\cc8KQrfd.s 			page 95


1713:.\Generated_Source\PSoC4/CyLib.c ****         {
1714:.\Generated_Source\PSoC4/CyLib.c ****             lfclkPosedgeEnabledWdtCounter = CY_SYS_WDT_COUNTER1;
 2690              		.loc 2 1714 0
 2691 0022 1A4B     		ldr	r3, .L220
 2692 0024 0122     		mov	r2, #1
 2693 0026 1A60     		str	r2, [r3]
 2694 0028 1BE0     		b	.L216
 2695              	.L217:
1715:.\Generated_Source\PSoC4/CyLib.c ****         }
1716:.\Generated_Source\PSoC4/CyLib.c ****         else if (0u != CySysWdtReadEnabledStatus(CY_SYS_WDT_COUNTER2))
 2696              		.loc 2 1716 0
 2697 002a 0220     		mov	r0, #2
 2698 002c FFF7FEFF 		bl	CySysWdtReadEnabledStatus
 2699 0030 031E     		sub	r3, r0, #0
 2700 0032 03D0     		beq	.L218
1717:.\Generated_Source\PSoC4/CyLib.c ****         {
1718:.\Generated_Source\PSoC4/CyLib.c ****             lfclkPosedgeEnabledWdtCounter = CY_SYS_WDT_COUNTER2;
 2701              		.loc 2 1718 0
 2702 0034 154B     		ldr	r3, .L220
 2703 0036 0222     		mov	r2, #2
 2704 0038 1A60     		str	r2, [r3]
 2705 003a 12E0     		b	.L216
 2706              	.L218:
1719:.\Generated_Source\PSoC4/CyLib.c ****         }
1720:.\Generated_Source\PSoC4/CyLib.c ****         else /* All WDT counters are disabled */
1721:.\Generated_Source\PSoC4/CyLib.c ****         {
1722:.\Generated_Source\PSoC4/CyLib.c ****             /* Configure WDT counter # 0 */
1723:.\Generated_Source\PSoC4/CyLib.c ****             lfclkPosedgeWdtCounter0Enabled = 1u;
 2707              		.loc 2 1723 0
 2708 003c 144B     		ldr	r3, .L220+4
 2709 003e 0122     		mov	r2, #1
 2710 0040 1A60     		str	r2, [r3]
1724:.\Generated_Source\PSoC4/CyLib.c ****             lfclkPosedgeEnabledWdtCounter = CY_SYS_WDT_COUNTER0;
 2711              		.loc 2 1724 0
 2712 0042 124B     		ldr	r3, .L220
 2713 0044 0022     		mov	r2, #0
 2714 0046 1A60     		str	r2, [r3]
1725:.\Generated_Source\PSoC4/CyLib.c **** 
1726:.\Generated_Source\PSoC4/CyLib.c ****             lfclkPosedgeWdtCounter0Mode = CySysWdtReadMode(CY_SYS_WDT_COUNTER0);
 2715              		.loc 2 1726 0
 2716 0048 0020     		mov	r0, #0
 2717 004a FFF7FEFF 		bl	CySysWdtReadMode
 2718 004e 021C     		mov	r2, r0
 2719 0050 104B     		ldr	r3, .L220+8
 2720 0052 1A60     		str	r2, [r3]
1727:.\Generated_Source\PSoC4/CyLib.c ****             CySysWdtWriteMode(CY_SYS_WDT_COUNTER0, CY_SYS_WDT_MODE_NONE);
 2721              		.loc 2 1727 0
 2722 0054 0020     		mov	r0, #0
 2723 0056 0021     		mov	r1, #0
 2724 0058 FFF7FEFF 		bl	CySysWdtWriteMode
1728:.\Generated_Source\PSoC4/CyLib.c ****             CySysWdtEnable(CY_SYS_WDT_COUNTER0_MASK);
 2725              		.loc 2 1728 0
 2726 005c 0120     		mov	r0, #1
 2727 005e FFF7FEFF 		bl	CySysWdtEnable
 2728              	.L216:
1729:.\Generated_Source\PSoC4/CyLib.c ****         }
1730:.\Generated_Source\PSoC4/CyLib.c **** 
ARM GAS  C:\Users\CHRIST~1\AppData\Local\Temp\cc8KQrfd.s 			page 96


1731:.\Generated_Source\PSoC4/CyLib.c ****         firstCount = CySysWdtReadCount(lfclkPosedgeEnabledWdtCounter);
 2729              		.loc 2 1731 0
 2730 0062 0A4B     		ldr	r3, .L220
 2731 0064 1B68     		ldr	r3, [r3]
 2732 0066 181C     		mov	r0, r3
 2733 0068 FFF7FEFF 		bl	CySysWdtReadCount
 2734 006c 031C     		mov	r3, r0
 2735 006e 7B60     		str	r3, [r7, #4]
1732:.\Generated_Source\PSoC4/CyLib.c ****         while (CySysWdtReadCount(lfclkPosedgeEnabledWdtCounter) == firstCount)
 2736              		.loc 2 1732 0
 2737 0070 C046     		mov	r8, r8
 2738              	.L219:
 2739              		.loc 2 1732 0 is_stmt 0 discriminator 1
 2740 0072 064B     		ldr	r3, .L220
 2741 0074 1B68     		ldr	r3, [r3]
 2742 0076 181C     		mov	r0, r3
 2743 0078 FFF7FEFF 		bl	CySysWdtReadCount
 2744 007c 021E     		sub	r2, r0, #0
 2745 007e 7B68     		ldr	r3, [r7, #4]
 2746 0080 9A42     		cmp	r2, r3
 2747 0082 F6D0     		beq	.L219
1733:.\Generated_Source\PSoC4/CyLib.c ****         {
1734:.\Generated_Source\PSoC4/CyLib.c ****             /* Wait for counter to increment */
1735:.\Generated_Source\PSoC4/CyLib.c ****         }
1736:.\Generated_Source\PSoC4/CyLib.c ****     }
 2748              		.loc 2 1736 0 is_stmt 1
 2749 0084 BD46     		mov	sp, r7
 2750 0086 02B0     		add	sp, sp, #8
 2751              		@ sp needed
 2752 0088 80BD     		pop	{r7, pc}
 2753              	.L221:
 2754 008a C046     		.align	2
 2755              	.L220:
 2756 008c 00000000 		.word	lfclkPosedgeEnabledWdtCounter
 2757 0090 00000000 		.word	lfclkPosedgeWdtCounter0Enabled
 2758 0094 00000000 		.word	lfclkPosedgeWdtCounter0Mode
 2759              		.cfi_endproc
 2760              	.LFE40:
 2761              		.size	CySysClkLfclkPosedgeCatch, .-CySysClkLfclkPosedgeCatch
 2762              		.section	.text.CySysClkLfclkPosedgeRestore,"ax",%progbits
 2763              		.align	2
 2764              		.code	16
 2765              		.thumb_func
 2766              		.type	CySysClkLfclkPosedgeRestore, %function
 2767              	CySysClkLfclkPosedgeRestore:
 2768              	.LFB41:
1737:.\Generated_Source\PSoC4/CyLib.c **** 
1738:.\Generated_Source\PSoC4/CyLib.c **** 
1739:.\Generated_Source\PSoC4/CyLib.c ****     /*******************************************************************************
1740:.\Generated_Source\PSoC4/CyLib.c ****     * Function Name: CySysClkLfclkPosedgeRestore
1741:.\Generated_Source\PSoC4/CyLib.c ****     ********************************************************************************
1742:.\Generated_Source\PSoC4/CyLib.c ****     *
1743:.\Generated_Source\PSoC4/CyLib.c ****     * Summary:
1744:.\Generated_Source\PSoC4/CyLib.c ****     *  Restores WDT configuration after CySysClkLfclkPosedgeCatch() call.
1745:.\Generated_Source\PSoC4/CyLib.c ****     *
1746:.\Generated_Source\PSoC4/CyLib.c ****     *  The pair of the CySysClkLfclkPosedgeCatch() and CySysClkLfclkPosedgeRestore()
1747:.\Generated_Source\PSoC4/CyLib.c ****     *  functions expected to be called inside of a critical section.
ARM GAS  C:\Users\CHRIST~1\AppData\Local\Temp\cc8KQrfd.s 			page 97


1748:.\Generated_Source\PSoC4/CyLib.c ****     *
1749:.\Generated_Source\PSoC4/CyLib.c ****     *  Not applicable for the PSoC 4000 devices.
1750:.\Generated_Source\PSoC4/CyLib.c ****     *
1751:.\Generated_Source\PSoC4/CyLib.c ****     * Parameters:
1752:.\Generated_Source\PSoC4/CyLib.c ****     *  None
1753:.\Generated_Source\PSoC4/CyLib.c ****     *
1754:.\Generated_Source\PSoC4/CyLib.c ****     * Return:
1755:.\Generated_Source\PSoC4/CyLib.c ****     *  None
1756:.\Generated_Source\PSoC4/CyLib.c ****     *
1757:.\Generated_Source\PSoC4/CyLib.c ****     * Side Effects:
1758:.\Generated_Source\PSoC4/CyLib.c ****     *  This function will have no effect if the WDT is locked (CySysWdtLock() is
1759:.\Generated_Source\PSoC4/CyLib.c ****     *  called). Call CySysWdtUnlock() to unlock the WDT.
1760:.\Generated_Source\PSoC4/CyLib.c ****     *
1761:.\Generated_Source\PSoC4/CyLib.c ****     *******************************************************************************/
1762:.\Generated_Source\PSoC4/CyLib.c ****     static void CySysClkLfclkPosedgeRestore(void)
1763:.\Generated_Source\PSoC4/CyLib.c ****     {
 2769              		.loc 2 1763 0
 2770              		.cfi_startproc
 2771 0000 80B5     		push	{r7, lr}
 2772              		.cfi_def_cfa_offset 8
 2773              		.cfi_offset 7, -8
 2774              		.cfi_offset 14, -4
 2775 0002 00AF     		add	r7, sp, #0
 2776              		.cfi_def_cfa_register 7
1764:.\Generated_Source\PSoC4/CyLib.c ****         if (lfclkPosedgeWdtCounter0Enabled != 0u)
 2777              		.loc 2 1764 0
 2778 0004 0A4B     		ldr	r3, .L224
 2779 0006 1B68     		ldr	r3, [r3]
 2780 0008 002B     		cmp	r3, #0
 2781 000a 0ED0     		beq	.L222
1765:.\Generated_Source\PSoC4/CyLib.c ****         {
1766:.\Generated_Source\PSoC4/CyLib.c ****             /* Restore counter # 0 configuration and force it's shutdown */
1767:.\Generated_Source\PSoC4/CyLib.c ****             CY_SYS_WDT_CONTROL_REG &= (uint32)(~CY_SYS_WDT_COUNTER0_MASK);
 2782              		.loc 2 1767 0
 2783 000c 094B     		ldr	r3, .L224+4
 2784 000e 094A     		ldr	r2, .L224+4
 2785 0010 1268     		ldr	r2, [r2]
 2786 0012 0121     		mov	r1, #1
 2787 0014 8A43     		bic	r2, r1
 2788 0016 1A60     		str	r2, [r3]
1768:.\Generated_Source\PSoC4/CyLib.c ****             CySysWdtWriteMode(CY_SYS_WDT_COUNTER0, lfclkPosedgeWdtCounter0Mode);
 2789              		.loc 2 1768 0
 2790 0018 074B     		ldr	r3, .L224+8
 2791 001a 1B68     		ldr	r3, [r3]
 2792 001c 0020     		mov	r0, #0
 2793 001e 191C     		mov	r1, r3
 2794 0020 FFF7FEFF 		bl	CySysWdtWriteMode
1769:.\Generated_Source\PSoC4/CyLib.c ****             lfclkPosedgeWdtCounter0Enabled = 0u;
 2795              		.loc 2 1769 0
 2796 0024 024B     		ldr	r3, .L224
 2797 0026 0022     		mov	r2, #0
 2798 0028 1A60     		str	r2, [r3]
 2799              	.L222:
1770:.\Generated_Source\PSoC4/CyLib.c ****         }
1771:.\Generated_Source\PSoC4/CyLib.c ****     }
 2800              		.loc 2 1771 0
 2801 002a BD46     		mov	sp, r7
ARM GAS  C:\Users\CHRIST~1\AppData\Local\Temp\cc8KQrfd.s 			page 98


 2802              		@ sp needed
 2803 002c 80BD     		pop	{r7, pc}
 2804              	.L225:
 2805 002e C046     		.align	2
 2806              	.L224:
 2807 0030 00000000 		.word	lfclkPosedgeWdtCounter0Enabled
 2808 0034 10020B40 		.word	1074463248
 2809 0038 00000000 		.word	lfclkPosedgeWdtCounter0Mode
 2810              		.cfi_endproc
 2811              	.LFE41:
 2812              		.size	CySysClkLfclkPosedgeRestore, .-CySysClkLfclkPosedgeRestore
 2813              		.section	.text.CySysLvdEnable,"ax",%progbits
 2814              		.align	2
 2815              		.global	CySysLvdEnable
 2816              		.code	16
 2817              		.thumb_func
 2818              		.type	CySysLvdEnable, %function
 2819              	CySysLvdEnable:
 2820              	.LFB42:
1772:.\Generated_Source\PSoC4/CyLib.c **** 
1773:.\Generated_Source\PSoC4/CyLib.c **** #else
1774:.\Generated_Source\PSoC4/CyLib.c **** 
1775:.\Generated_Source\PSoC4/CyLib.c ****     /*******************************************************************************
1776:.\Generated_Source\PSoC4/CyLib.c ****     * Function Name: CySysWdtReadEnabledStatus
1777:.\Generated_Source\PSoC4/CyLib.c ****     ********************************************************************************
1778:.\Generated_Source\PSoC4/CyLib.c ****     *
1779:.\Generated_Source\PSoC4/CyLib.c ****     * Summary:
1780:.\Generated_Source\PSoC4/CyLib.c ****     *  Reads the enabled status WDT counter.
1781:.\Generated_Source\PSoC4/CyLib.c ****     *
1782:.\Generated_Source\PSoC4/CyLib.c ****     * Parameters:
1783:.\Generated_Source\PSoC4/CyLib.c ****     *  None
1784:.\Generated_Source\PSoC4/CyLib.c ****     *
1785:.\Generated_Source\PSoC4/CyLib.c ****     * Return:
1786:.\Generated_Source\PSoC4/CyLib.c ****     *  Status of WDT counter:
1787:.\Generated_Source\PSoC4/CyLib.c ****     *   0 - counter is disabled
1788:.\Generated_Source\PSoC4/CyLib.c ****     *   1 - counter is enabled
1789:.\Generated_Source\PSoC4/CyLib.c ****     *
1790:.\Generated_Source\PSoC4/CyLib.c ****     *******************************************************************************/
1791:.\Generated_Source\PSoC4/CyLib.c ****     uint32 CySysWdtReadEnabledStatus(void)
1792:.\Generated_Source\PSoC4/CyLib.c ****     {
1793:.\Generated_Source\PSoC4/CyLib.c ****         return ((CY_SYS_WDT_DISABLE_KEY_REG == CY_SYS_WDT_KEY) ? (uint32) 0u : (uint32) 1u);
1794:.\Generated_Source\PSoC4/CyLib.c ****     }
1795:.\Generated_Source\PSoC4/CyLib.c **** 
1796:.\Generated_Source\PSoC4/CyLib.c **** 
1797:.\Generated_Source\PSoC4/CyLib.c ****     /*******************************************************************************
1798:.\Generated_Source\PSoC4/CyLib.c ****     * Function Name: CySysWdtEnable
1799:.\Generated_Source\PSoC4/CyLib.c ****     ********************************************************************************
1800:.\Generated_Source\PSoC4/CyLib.c ****     *
1801:.\Generated_Source\PSoC4/CyLib.c ****     * Summary:
1802:.\Generated_Source\PSoC4/CyLib.c ****     *  Enables the watchdog timer reset generation. The CySysWdtClearInterrupt()
1803:.\Generated_Source\PSoC4/CyLib.c ****     *  feeds the watch dog. Two unserviced interrupts will lead to a system reset
1804:.\Generated_Source\PSoC4/CyLib.c ****     *  (i.e. at the third match).
1805:.\Generated_Source\PSoC4/CyLib.c ****     *
1806:.\Generated_Source\PSoC4/CyLib.c ****     * Parameters:
1807:.\Generated_Source\PSoC4/CyLib.c ****     *  None
1808:.\Generated_Source\PSoC4/CyLib.c ****     *
1809:.\Generated_Source\PSoC4/CyLib.c ****     * Return:
ARM GAS  C:\Users\CHRIST~1\AppData\Local\Temp\cc8KQrfd.s 			page 99


1810:.\Generated_Source\PSoC4/CyLib.c ****     *  None
1811:.\Generated_Source\PSoC4/CyLib.c ****     *
1812:.\Generated_Source\PSoC4/CyLib.c ****     * Side Effects:
1813:.\Generated_Source\PSoC4/CyLib.c ****     *  The ILO is enabled by hardware once WDT is started.
1814:.\Generated_Source\PSoC4/CyLib.c ****     *
1815:.\Generated_Source\PSoC4/CyLib.c ****     *******************************************************************************/
1816:.\Generated_Source\PSoC4/CyLib.c ****     void CySysWdtEnable(void)
1817:.\Generated_Source\PSoC4/CyLib.c ****     {
1818:.\Generated_Source\PSoC4/CyLib.c ****         CY_SYS_WDT_DISABLE_KEY_REG = 0u;
1819:.\Generated_Source\PSoC4/CyLib.c ****     }
1820:.\Generated_Source\PSoC4/CyLib.c **** 
1821:.\Generated_Source\PSoC4/CyLib.c **** 
1822:.\Generated_Source\PSoC4/CyLib.c ****     /*******************************************************************************
1823:.\Generated_Source\PSoC4/CyLib.c ****     * Function Name: CySysWdtDisable
1824:.\Generated_Source\PSoC4/CyLib.c ****     ********************************************************************************
1825:.\Generated_Source\PSoC4/CyLib.c ****     *
1826:.\Generated_Source\PSoC4/CyLib.c ****     * Summary:
1827:.\Generated_Source\PSoC4/CyLib.c ****     *  Disables the WDT reset generation.
1828:.\Generated_Source\PSoC4/CyLib.c ****     *
1829:.\Generated_Source\PSoC4/CyLib.c ****     * Parameters:
1830:.\Generated_Source\PSoC4/CyLib.c ****     *  None
1831:.\Generated_Source\PSoC4/CyLib.c ****     *
1832:.\Generated_Source\PSoC4/CyLib.c ****     * Return:
1833:.\Generated_Source\PSoC4/CyLib.c ****     *  None
1834:.\Generated_Source\PSoC4/CyLib.c ****     *
1835:.\Generated_Source\PSoC4/CyLib.c ****     *******************************************************************************/
1836:.\Generated_Source\PSoC4/CyLib.c ****     void CySysWdtDisable(void)
1837:.\Generated_Source\PSoC4/CyLib.c ****     {
1838:.\Generated_Source\PSoC4/CyLib.c ****         CY_SYS_WDT_DISABLE_KEY_REG = CY_SYS_WDT_KEY;
1839:.\Generated_Source\PSoC4/CyLib.c ****     }
1840:.\Generated_Source\PSoC4/CyLib.c **** 
1841:.\Generated_Source\PSoC4/CyLib.c **** 
1842:.\Generated_Source\PSoC4/CyLib.c ****     /*******************************************************************************
1843:.\Generated_Source\PSoC4/CyLib.c ****     * Function Name: CySysWdtWriteMatch
1844:.\Generated_Source\PSoC4/CyLib.c ****     ********************************************************************************
1845:.\Generated_Source\PSoC4/CyLib.c ****     *
1846:.\Generated_Source\PSoC4/CyLib.c ****     * Summary:
1847:.\Generated_Source\PSoC4/CyLib.c ****     *  Configures the WDT counter match comparison value.
1848:.\Generated_Source\PSoC4/CyLib.c ****     *
1849:.\Generated_Source\PSoC4/CyLib.c ****     * Parameters:
1850:.\Generated_Source\PSoC4/CyLib.c ****     *  match:
1851:.\Generated_Source\PSoC4/CyLib.c ****     *   Valid range [0-65535]. Value to be used to match against the counter.
1852:.\Generated_Source\PSoC4/CyLib.c ****     *
1853:.\Generated_Source\PSoC4/CyLib.c ****     * Return:
1854:.\Generated_Source\PSoC4/CyLib.c ****     *  None
1855:.\Generated_Source\PSoC4/CyLib.c ****     *
1856:.\Generated_Source\PSoC4/CyLib.c ****     *******************************************************************************/
1857:.\Generated_Source\PSoC4/CyLib.c ****     void CySysWdtWriteMatch(uint32 match)
1858:.\Generated_Source\PSoC4/CyLib.c ****     {
1859:.\Generated_Source\PSoC4/CyLib.c ****         CY_SYS_WDT_MATCH_REG = (CY_SYS_WDT_MATCH_REG & (uint32)(~ (uint32)CY_SYS_WDT_MATCH_MASK)) |
1860:.\Generated_Source\PSoC4/CyLib.c ****     }
1861:.\Generated_Source\PSoC4/CyLib.c **** 
1862:.\Generated_Source\PSoC4/CyLib.c **** 
1863:.\Generated_Source\PSoC4/CyLib.c ****     /*******************************************************************************
1864:.\Generated_Source\PSoC4/CyLib.c ****     * Function Name: CySysWdtReadMatch
1865:.\Generated_Source\PSoC4/CyLib.c ****     ********************************************************************************
1866:.\Generated_Source\PSoC4/CyLib.c ****     *
ARM GAS  C:\Users\CHRIST~1\AppData\Local\Temp\cc8KQrfd.s 			page 100


1867:.\Generated_Source\PSoC4/CyLib.c ****     * Summary:
1868:.\Generated_Source\PSoC4/CyLib.c ****     *  Reads the WDT counter match comparison value.
1869:.\Generated_Source\PSoC4/CyLib.c ****     *
1870:.\Generated_Source\PSoC4/CyLib.c ****     * Parameters:
1871:.\Generated_Source\PSoC4/CyLib.c ****     *  None
1872:.\Generated_Source\PSoC4/CyLib.c ****     *
1873:.\Generated_Source\PSoC4/CyLib.c ****     * Return:
1874:.\Generated_Source\PSoC4/CyLib.c ****     *  Counter match value.
1875:.\Generated_Source\PSoC4/CyLib.c ****     *
1876:.\Generated_Source\PSoC4/CyLib.c ****     *******************************************************************************/
1877:.\Generated_Source\PSoC4/CyLib.c ****     uint32 CySysWdtReadMatch(void)
1878:.\Generated_Source\PSoC4/CyLib.c ****     {
1879:.\Generated_Source\PSoC4/CyLib.c ****         return (CY_SYS_WDT_MATCH_REG & CY_SYS_WDT_MATCH_MASK);
1880:.\Generated_Source\PSoC4/CyLib.c ****     }
1881:.\Generated_Source\PSoC4/CyLib.c **** 
1882:.\Generated_Source\PSoC4/CyLib.c **** 
1883:.\Generated_Source\PSoC4/CyLib.c ****     /*******************************************************************************
1884:.\Generated_Source\PSoC4/CyLib.c ****     * Function Name: CySysWdtReadCount
1885:.\Generated_Source\PSoC4/CyLib.c ****     ********************************************************************************
1886:.\Generated_Source\PSoC4/CyLib.c ****     *
1887:.\Generated_Source\PSoC4/CyLib.c ****     * Summary:
1888:.\Generated_Source\PSoC4/CyLib.c ****     *  Reads the current WDT counter value.
1889:.\Generated_Source\PSoC4/CyLib.c ****     *
1890:.\Generated_Source\PSoC4/CyLib.c ****     * Parameters:
1891:.\Generated_Source\PSoC4/CyLib.c ****     *  None
1892:.\Generated_Source\PSoC4/CyLib.c ****     *
1893:.\Generated_Source\PSoC4/CyLib.c ****     * Return:
1894:.\Generated_Source\PSoC4/CyLib.c ****     *  Live counter value
1895:.\Generated_Source\PSoC4/CyLib.c ****     *
1896:.\Generated_Source\PSoC4/CyLib.c ****     *******************************************************************************/
1897:.\Generated_Source\PSoC4/CyLib.c ****     uint32 CySysWdtReadCount(void)
1898:.\Generated_Source\PSoC4/CyLib.c ****     {
1899:.\Generated_Source\PSoC4/CyLib.c ****         return ((uint32)CY_SYS_WDT_COUNTER_REG);
1900:.\Generated_Source\PSoC4/CyLib.c ****     }
1901:.\Generated_Source\PSoC4/CyLib.c **** 
1902:.\Generated_Source\PSoC4/CyLib.c **** 
1903:.\Generated_Source\PSoC4/CyLib.c ****     /*******************************************************************************
1904:.\Generated_Source\PSoC4/CyLib.c ****     * Function Name: CySysWdtWriteIgnoreBits
1905:.\Generated_Source\PSoC4/CyLib.c ****     ********************************************************************************
1906:.\Generated_Source\PSoC4/CyLib.c ****     *
1907:.\Generated_Source\PSoC4/CyLib.c ****     * Summary:
1908:.\Generated_Source\PSoC4/CyLib.c ****     *  Configures the number of the MSB bits of the watchdog timer that are not
1909:.\Generated_Source\PSoC4/CyLib.c ****     *  checked against the match.
1910:.\Generated_Source\PSoC4/CyLib.c ****     *
1911:.\Generated_Source\PSoC4/CyLib.c ****     * Parameters:
1912:.\Generated_Source\PSoC4/CyLib.c ****     *  bitsNum:
1913:.\Generated_Source\PSoC4/CyLib.c ****     *   Valid range [0-15]. Number of MSB bits.
1914:.\Generated_Source\PSoC4/CyLib.c ****     *
1915:.\Generated_Source\PSoC4/CyLib.c ****     * Return:
1916:.\Generated_Source\PSoC4/CyLib.c ****     *  None
1917:.\Generated_Source\PSoC4/CyLib.c ****     *
1918:.\Generated_Source\PSoC4/CyLib.c ****     * Side Effects:
1919:.\Generated_Source\PSoC4/CyLib.c ****     *  The value of bitsNum provides control over the time-to-reset of the watchdog
1920:.\Generated_Source\PSoC4/CyLib.c ****     *  (which happens after 3 successive matches).
1921:.\Generated_Source\PSoC4/CyLib.c ****     *
1922:.\Generated_Source\PSoC4/CyLib.c ****     *******************************************************************************/
1923:.\Generated_Source\PSoC4/CyLib.c ****     void CySysWdtWriteIgnoreBits(uint32 bitsNum)
ARM GAS  C:\Users\CHRIST~1\AppData\Local\Temp\cc8KQrfd.s 			page 101


1924:.\Generated_Source\PSoC4/CyLib.c ****     {
1925:.\Generated_Source\PSoC4/CyLib.c ****         bitsNum = ((uint32)(bitsNum << CY_SYS_WDT_IGNORE_BITS_SHIFT) & CY_SYS_WDT_IGNORE_BITS_MASK)
1926:.\Generated_Source\PSoC4/CyLib.c ****         CY_SYS_WDT_MATCH_REG = (CY_SYS_WDT_MATCH_REG & (uint32)(~CY_SYS_WDT_IGNORE_BITS_MASK)) | bi
1927:.\Generated_Source\PSoC4/CyLib.c ****     }
1928:.\Generated_Source\PSoC4/CyLib.c **** 
1929:.\Generated_Source\PSoC4/CyLib.c **** 
1930:.\Generated_Source\PSoC4/CyLib.c ****     /*******************************************************************************
1931:.\Generated_Source\PSoC4/CyLib.c ****     * Function Name: CySysWdtReadIgnoreBits
1932:.\Generated_Source\PSoC4/CyLib.c ****     ********************************************************************************
1933:.\Generated_Source\PSoC4/CyLib.c ****     *
1934:.\Generated_Source\PSoC4/CyLib.c ****     * Summary:
1935:.\Generated_Source\PSoC4/CyLib.c ****     *  Reads the number of the  MSB bits of the watchdog timer that are not
1936:.\Generated_Source\PSoC4/CyLib.c ****     *  checked against the match.
1937:.\Generated_Source\PSoC4/CyLib.c ****     *
1938:.\Generated_Source\PSoC4/CyLib.c ****     * Parameters:
1939:.\Generated_Source\PSoC4/CyLib.c ****     *  None
1940:.\Generated_Source\PSoC4/CyLib.c ****     *
1941:.\Generated_Source\PSoC4/CyLib.c ****     * Return:
1942:.\Generated_Source\PSoC4/CyLib.c ****     *  Number of MSB bits.
1943:.\Generated_Source\PSoC4/CyLib.c ****     *
1944:.\Generated_Source\PSoC4/CyLib.c ****     *******************************************************************************/
1945:.\Generated_Source\PSoC4/CyLib.c ****     uint32 CySysWdtReadIgnoreBits(void)
1946:.\Generated_Source\PSoC4/CyLib.c ****     {
1947:.\Generated_Source\PSoC4/CyLib.c ****         return((uint32)((CY_SYS_WDT_MATCH_REG & CY_SYS_WDT_IGNORE_BITS_MASK) >> CY_SYS_WDT_IGNORE_B
1948:.\Generated_Source\PSoC4/CyLib.c ****     }
1949:.\Generated_Source\PSoC4/CyLib.c **** 
1950:.\Generated_Source\PSoC4/CyLib.c **** 
1951:.\Generated_Source\PSoC4/CyLib.c ****     /*******************************************************************************
1952:.\Generated_Source\PSoC4/CyLib.c ****     * Function Name: CySysWdtClearInterrupt
1953:.\Generated_Source\PSoC4/CyLib.c ****     ********************************************************************************
1954:.\Generated_Source\PSoC4/CyLib.c ****     *
1955:.\Generated_Source\PSoC4/CyLib.c ****     * Summary:
1956:.\Generated_Source\PSoC4/CyLib.c ****     *  Feeds the watch dog. Cleans the WDT match flag, which is set every time the
1957:.\Generated_Source\PSoC4/CyLib.c ****     *  WDT counter reaches a WDT match value.  Two unserviced interrupts will lead
1958:.\Generated_Source\PSoC4/CyLib.c ****     *  to a system reset (i.e. at the third match).
1959:.\Generated_Source\PSoC4/CyLib.c ****     *
1960:.\Generated_Source\PSoC4/CyLib.c ****     * Parameters:
1961:.\Generated_Source\PSoC4/CyLib.c ****     *  None
1962:.\Generated_Source\PSoC4/CyLib.c ****     *
1963:.\Generated_Source\PSoC4/CyLib.c ****     * Return:
1964:.\Generated_Source\PSoC4/CyLib.c ****     *  None
1965:.\Generated_Source\PSoC4/CyLib.c ****     *
1966:.\Generated_Source\PSoC4/CyLib.c ****     *******************************************************************************/
1967:.\Generated_Source\PSoC4/CyLib.c ****     void CySysWdtClearInterrupt(void)
1968:.\Generated_Source\PSoC4/CyLib.c ****     {
1969:.\Generated_Source\PSoC4/CyLib.c ****         CY_SYS_SRSS_INTR_REG |= CY_SYS_WDT_LOWER_BIT_MASK;
1970:.\Generated_Source\PSoC4/CyLib.c ****     }
1971:.\Generated_Source\PSoC4/CyLib.c **** 
1972:.\Generated_Source\PSoC4/CyLib.c **** 
1973:.\Generated_Source\PSoC4/CyLib.c ****     /*******************************************************************************
1974:.\Generated_Source\PSoC4/CyLib.c ****     * Function Name: CySysWdtMaskInterrupt
1975:.\Generated_Source\PSoC4/CyLib.c ****     ********************************************************************************
1976:.\Generated_Source\PSoC4/CyLib.c ****     *
1977:.\Generated_Source\PSoC4/CyLib.c ****     * Summary:
1978:.\Generated_Source\PSoC4/CyLib.c ****     *  After masking interrupts from the WDT, they are not passed to the CPU.
1979:.\Generated_Source\PSoC4/CyLib.c ****     *  This function does not disable the WDT reset generation.
1980:.\Generated_Source\PSoC4/CyLib.c ****     *
ARM GAS  C:\Users\CHRIST~1\AppData\Local\Temp\cc8KQrfd.s 			page 102


1981:.\Generated_Source\PSoC4/CyLib.c ****     * Parameters:
1982:.\Generated_Source\PSoC4/CyLib.c ****     *  None
1983:.\Generated_Source\PSoC4/CyLib.c ****     *
1984:.\Generated_Source\PSoC4/CyLib.c ****     * Return:
1985:.\Generated_Source\PSoC4/CyLib.c ****     *  None
1986:.\Generated_Source\PSoC4/CyLib.c ****     *
1987:.\Generated_Source\PSoC4/CyLib.c ****     *******************************************************************************/
1988:.\Generated_Source\PSoC4/CyLib.c ****     void CySysWdtMaskInterrupt(void)
1989:.\Generated_Source\PSoC4/CyLib.c ****     {
1990:.\Generated_Source\PSoC4/CyLib.c ****         CY_SYS_SRSS_INTR_MASK_REG &= (uint32)(~ (uint32)CY_SYS_WDT_LOWER_BIT_MASK);
1991:.\Generated_Source\PSoC4/CyLib.c ****     }
1992:.\Generated_Source\PSoC4/CyLib.c **** 
1993:.\Generated_Source\PSoC4/CyLib.c **** 
1994:.\Generated_Source\PSoC4/CyLib.c ****     /*******************************************************************************
1995:.\Generated_Source\PSoC4/CyLib.c ****     * Function Name: CySysWdtUnmaskInterrupt
1996:.\Generated_Source\PSoC4/CyLib.c ****     ********************************************************************************
1997:.\Generated_Source\PSoC4/CyLib.c ****     *
1998:.\Generated_Source\PSoC4/CyLib.c ****     * Summary:
1999:.\Generated_Source\PSoC4/CyLib.c ****     *  Unmasks WDT interrupts.
2000:.\Generated_Source\PSoC4/CyLib.c ****     *
2001:.\Generated_Source\PSoC4/CyLib.c ****     * Parameters:
2002:.\Generated_Source\PSoC4/CyLib.c ****     *  None
2003:.\Generated_Source\PSoC4/CyLib.c ****     *
2004:.\Generated_Source\PSoC4/CyLib.c ****     * Return:
2005:.\Generated_Source\PSoC4/CyLib.c ****     *  None
2006:.\Generated_Source\PSoC4/CyLib.c ****     *
2007:.\Generated_Source\PSoC4/CyLib.c ****     *******************************************************************************/
2008:.\Generated_Source\PSoC4/CyLib.c ****     void CySysWdtUnmaskInterrupt(void)
2009:.\Generated_Source\PSoC4/CyLib.c ****     {
2010:.\Generated_Source\PSoC4/CyLib.c ****         CY_SYS_SRSS_INTR_MASK_REG |= CY_SYS_WDT_LOWER_BIT_MASK;
2011:.\Generated_Source\PSoC4/CyLib.c ****     }
2012:.\Generated_Source\PSoC4/CyLib.c **** 
2013:.\Generated_Source\PSoC4/CyLib.c **** #endif /* (CY_IP_SRSSV2) */
2014:.\Generated_Source\PSoC4/CyLib.c **** 
2015:.\Generated_Source\PSoC4/CyLib.c **** 
2016:.\Generated_Source\PSoC4/CyLib.c **** #if(CY_IP_SRSSV2)
2017:.\Generated_Source\PSoC4/CyLib.c **** 
2018:.\Generated_Source\PSoC4/CyLib.c ****     /*******************************************************************************
2019:.\Generated_Source\PSoC4/CyLib.c ****     * Function Name: CySysLvdEnable
2020:.\Generated_Source\PSoC4/CyLib.c ****     ********************************************************************************
2021:.\Generated_Source\PSoC4/CyLib.c ****     *
2022:.\Generated_Source\PSoC4/CyLib.c ****     * Summary:
2023:.\Generated_Source\PSoC4/CyLib.c ****     *  Enables the output of the low-voltage monitor when Vddd is at or below the
2024:.\Generated_Source\PSoC4/CyLib.c ****     *  trip point, configures the device to generate an interrupt, and sets the voltage
2025:.\Generated_Source\PSoC4/CyLib.c ****     *  trip level.
2026:.\Generated_Source\PSoC4/CyLib.c ****     *
2027:.\Generated_Source\PSoC4/CyLib.c ****     * Parameters:
2028:.\Generated_Source\PSoC4/CyLib.c ****     *  threshold: Threshold selection for Low Voltage Detect circuit.
2029:.\Generated_Source\PSoC4/CyLib.c ****     *  Threshold variation is +/- 2.5% from these typical voltage choices.
2030:.\Generated_Source\PSoC4/CyLib.c ****     *         Define                     Voltage threshold
2031:.\Generated_Source\PSoC4/CyLib.c ****     *    CY_LVD_THRESHOLD_1_75_V       1.7500 V
2032:.\Generated_Source\PSoC4/CyLib.c ****     *    CY_LVD_THRESHOLD_1_80_V       1.8000 V
2033:.\Generated_Source\PSoC4/CyLib.c ****     *    CY_LVD_THRESHOLD_1_90_V       1.9000 V
2034:.\Generated_Source\PSoC4/CyLib.c ****     *    CY_LVD_THRESHOLD_2_00_V       2.0000 V
2035:.\Generated_Source\PSoC4/CyLib.c ****     *    CY_LVD_THRESHOLD_2_10_V       2.1000 V
2036:.\Generated_Source\PSoC4/CyLib.c ****     *    CY_LVD_THRESHOLD_2_20_V       2.2000 V
2037:.\Generated_Source\PSoC4/CyLib.c ****     *    CY_LVD_THRESHOLD_2_30_V       2.3000 V
ARM GAS  C:\Users\CHRIST~1\AppData\Local\Temp\cc8KQrfd.s 			page 103


2038:.\Generated_Source\PSoC4/CyLib.c ****     *    CY_LVD_THRESHOLD_2_40_V       2.4000 V
2039:.\Generated_Source\PSoC4/CyLib.c ****     *    CY_LVD_THRESHOLD_2_50_V       2.5000 V
2040:.\Generated_Source\PSoC4/CyLib.c ****     *    CY_LVD_THRESHOLD_2_60_V       2.6000 V
2041:.\Generated_Source\PSoC4/CyLib.c ****     *    CY_LVD_THRESHOLD_2_70_V       2.7000 V
2042:.\Generated_Source\PSoC4/CyLib.c ****     *    CY_LVD_THRESHOLD_2_80_V       2.8000 V
2043:.\Generated_Source\PSoC4/CyLib.c ****     *    CY_LVD_THRESHOLD_2_90_V       2.9000 V
2044:.\Generated_Source\PSoC4/CyLib.c ****     *    CY_LVD_THRESHOLD_3_00_V       3.0000 V
2045:.\Generated_Source\PSoC4/CyLib.c ****     *    CY_LVD_THRESHOLD_3_20_V       3.2000 V
2046:.\Generated_Source\PSoC4/CyLib.c ****     *    CY_LVD_THRESHOLD_4_50_V       4.5000 V
2047:.\Generated_Source\PSoC4/CyLib.c ****     *
2048:.\Generated_Source\PSoC4/CyLib.c ****     * Return:
2049:.\Generated_Source\PSoC4/CyLib.c ****     *  None
2050:.\Generated_Source\PSoC4/CyLib.c ****     *
2051:.\Generated_Source\PSoC4/CyLib.c ****     *******************************************************************************/
2052:.\Generated_Source\PSoC4/CyLib.c ****     void CySysLvdEnable(uint32 threshold)
2053:.\Generated_Source\PSoC4/CyLib.c ****     {
 2821              		.loc 2 2053 0
 2822              		.cfi_startproc
 2823 0000 80B5     		push	{r7, lr}
 2824              		.cfi_def_cfa_offset 8
 2825              		.cfi_offset 7, -8
 2826              		.cfi_offset 14, -4
 2827 0002 82B0     		sub	sp, sp, #8
 2828              		.cfi_def_cfa_offset 16
 2829 0004 00AF     		add	r7, sp, #0
 2830              		.cfi_def_cfa_register 7
 2831 0006 7860     		str	r0, [r7, #4]
2054:.\Generated_Source\PSoC4/CyLib.c ****         /* Set threshold */
2055:.\Generated_Source\PSoC4/CyLib.c ****         CY_LVD_PWR_VMON_CONFIG_REG = (CY_LVD_PWR_VMON_CONFIG_REG & ~CY_LVD_PWR_VMON_CONFIG_LVD_SEL_
 2832              		.loc 2 2055 0
 2833 0008 0D4B     		ldr	r3, .L227
 2834 000a 0D4A     		ldr	r2, .L227
 2835 000c 1268     		ldr	r2, [r2]
 2836 000e 1E21     		mov	r1, #30
 2837 0010 8A43     		bic	r2, r1
 2838 0012 111C     		mov	r1, r2
2056:.\Generated_Source\PSoC4/CyLib.c ****                 ((threshold << CY_LVD_PWR_VMON_CONFIG_LVD_SEL_SHIFT) & CY_LVD_PWR_VMON_CONFIG_LVD_S
 2839              		.loc 2 2056 0
 2840 0014 7A68     		ldr	r2, [r7, #4]
 2841 0016 5200     		lsl	r2, r2, #1
 2842 0018 1E20     		mov	r0, #30
 2843 001a 0240     		and	r2, r0
2055:.\Generated_Source\PSoC4/CyLib.c ****                 ((threshold << CY_LVD_PWR_VMON_CONFIG_LVD_SEL_SHIFT) & CY_LVD_PWR_VMON_CONFIG_LVD_S
 2844              		.loc 2 2055 0
 2845 001c 0A43     		orr	r2, r1
 2846 001e 1A60     		str	r2, [r3]
2057:.\Generated_Source\PSoC4/CyLib.c **** 
2058:.\Generated_Source\PSoC4/CyLib.c ****         CY_LVD_PWR_VMON_CONFIG_REG |= CY_LVD_PWR_VMON_CONFIG_LVD_EN;
 2847              		.loc 2 2058 0
 2848 0020 074B     		ldr	r3, .L227
 2849 0022 074A     		ldr	r2, .L227
 2850 0024 1268     		ldr	r2, [r2]
 2851 0026 0121     		mov	r1, #1
 2852 0028 0A43     		orr	r2, r1
 2853 002a 1A60     		str	r2, [r3]
2059:.\Generated_Source\PSoC4/CyLib.c ****         CY_LVD_PWR_INTR_MASK_REG   |= CY_LVD_PROPAGATE_INT_TO_CPU;
 2854              		.loc 2 2059 0
ARM GAS  C:\Users\CHRIST~1\AppData\Local\Temp\cc8KQrfd.s 			page 104


 2855 002c 054B     		ldr	r3, .L227+4
 2856 002e 054A     		ldr	r2, .L227+4
 2857 0030 1268     		ldr	r2, [r2]
 2858 0032 0221     		mov	r1, #2
 2859 0034 0A43     		orr	r2, r1
 2860 0036 1A60     		str	r2, [r3]
2060:.\Generated_Source\PSoC4/CyLib.c ****     }
 2861              		.loc 2 2060 0
 2862 0038 BD46     		mov	sp, r7
 2863 003a 02B0     		add	sp, sp, #8
 2864              		@ sp needed
 2865 003c 80BD     		pop	{r7, pc}
 2866              	.L228:
 2867 003e C046     		.align	2
 2868              	.L227:
 2869 0040 18000B40 		.word	1074462744
 2870 0044 08000B40 		.word	1074462728
 2871              		.cfi_endproc
 2872              	.LFE42:
 2873              		.size	CySysLvdEnable, .-CySysLvdEnable
 2874              		.section	.text.CySysLvdDisable,"ax",%progbits
 2875              		.align	2
 2876              		.global	CySysLvdDisable
 2877              		.code	16
 2878              		.thumb_func
 2879              		.type	CySysLvdDisable, %function
 2880              	CySysLvdDisable:
 2881              	.LFB43:
2061:.\Generated_Source\PSoC4/CyLib.c **** 
2062:.\Generated_Source\PSoC4/CyLib.c **** 
2063:.\Generated_Source\PSoC4/CyLib.c ****     /*******************************************************************************
2064:.\Generated_Source\PSoC4/CyLib.c ****     * Function Name: CySysLvdDisable
2065:.\Generated_Source\PSoC4/CyLib.c ****     ********************************************************************************
2066:.\Generated_Source\PSoC4/CyLib.c ****     *
2067:.\Generated_Source\PSoC4/CyLib.c ****     * Summary:
2068:.\Generated_Source\PSoC4/CyLib.c ****     *  Disables the low voltage detection. A low voltage interrupt is disabled.
2069:.\Generated_Source\PSoC4/CyLib.c ****     *
2070:.\Generated_Source\PSoC4/CyLib.c ****     * Parameters:
2071:.\Generated_Source\PSoC4/CyLib.c ****     *  None
2072:.\Generated_Source\PSoC4/CyLib.c ****     *
2073:.\Generated_Source\PSoC4/CyLib.c ****     * Return:
2074:.\Generated_Source\PSoC4/CyLib.c ****     *  None
2075:.\Generated_Source\PSoC4/CyLib.c ****     *
2076:.\Generated_Source\PSoC4/CyLib.c ****     *******************************************************************************/
2077:.\Generated_Source\PSoC4/CyLib.c ****     void CySysLvdDisable(void)
2078:.\Generated_Source\PSoC4/CyLib.c ****     {
 2882              		.loc 2 2078 0
 2883              		.cfi_startproc
 2884 0000 80B5     		push	{r7, lr}
 2885              		.cfi_def_cfa_offset 8
 2886              		.cfi_offset 7, -8
 2887              		.cfi_offset 14, -4
 2888 0002 00AF     		add	r7, sp, #0
 2889              		.cfi_def_cfa_register 7
2079:.\Generated_Source\PSoC4/CyLib.c ****         CY_LVD_PWR_INTR_MASK_REG   &= ~CY_LVD_PROPAGATE_INT_TO_CPU;
 2890              		.loc 2 2079 0
 2891 0004 064B     		ldr	r3, .L230
ARM GAS  C:\Users\CHRIST~1\AppData\Local\Temp\cc8KQrfd.s 			page 105


 2892 0006 064A     		ldr	r2, .L230
 2893 0008 1268     		ldr	r2, [r2]
 2894 000a 0221     		mov	r1, #2
 2895 000c 8A43     		bic	r2, r1
 2896 000e 1A60     		str	r2, [r3]
2080:.\Generated_Source\PSoC4/CyLib.c ****         CY_LVD_PWR_VMON_CONFIG_REG &= ~CY_LVD_PWR_VMON_CONFIG_LVD_EN;
 2897              		.loc 2 2080 0
 2898 0010 044B     		ldr	r3, .L230+4
 2899 0012 044A     		ldr	r2, .L230+4
 2900 0014 1268     		ldr	r2, [r2]
 2901 0016 0121     		mov	r1, #1
 2902 0018 8A43     		bic	r2, r1
 2903 001a 1A60     		str	r2, [r3]
2081:.\Generated_Source\PSoC4/CyLib.c ****     }
 2904              		.loc 2 2081 0
 2905 001c BD46     		mov	sp, r7
 2906              		@ sp needed
 2907 001e 80BD     		pop	{r7, pc}
 2908              	.L231:
 2909              		.align	2
 2910              	.L230:
 2911 0020 08000B40 		.word	1074462728
 2912 0024 18000B40 		.word	1074462744
 2913              		.cfi_endproc
 2914              	.LFE43:
 2915              		.size	CySysLvdDisable, .-CySysLvdDisable
 2916              		.section	.text.CySysLvdGetInterruptSource,"ax",%progbits
 2917              		.align	2
 2918              		.global	CySysLvdGetInterruptSource
 2919              		.code	16
 2920              		.thumb_func
 2921              		.type	CySysLvdGetInterruptSource, %function
 2922              	CySysLvdGetInterruptSource:
 2923              	.LFB44:
2082:.\Generated_Source\PSoC4/CyLib.c **** 
2083:.\Generated_Source\PSoC4/CyLib.c **** 
2084:.\Generated_Source\PSoC4/CyLib.c ****     /*******************************************************************************
2085:.\Generated_Source\PSoC4/CyLib.c ****     * Function Name: CySysLvdGetInterruptSource
2086:.\Generated_Source\PSoC4/CyLib.c ****     ********************************************************************************
2087:.\Generated_Source\PSoC4/CyLib.c ****     *
2088:.\Generated_Source\PSoC4/CyLib.c ****     * Summary:
2089:.\Generated_Source\PSoC4/CyLib.c ****     *  Gets the low voltage detection interrupt status (without clearing).
2090:.\Generated_Source\PSoC4/CyLib.c ****     *
2091:.\Generated_Source\PSoC4/CyLib.c ****     * Parameters:
2092:.\Generated_Source\PSoC4/CyLib.c ****     *  None
2093:.\Generated_Source\PSoC4/CyLib.c ****     *
2094:.\Generated_Source\PSoC4/CyLib.c ****     * Return:
2095:.\Generated_Source\PSoC4/CyLib.c ****     *  Interrupt request value:
2096:.\Generated_Source\PSoC4/CyLib.c ****     *    CY_SYS_LVD_INT - Indicates an Low Voltage Detect interrupt
2097:.\Generated_Source\PSoC4/CyLib.c ****     *
2098:.\Generated_Source\PSoC4/CyLib.c ****     *******************************************************************************/
2099:.\Generated_Source\PSoC4/CyLib.c ****     uint32 CySysLvdGetInterruptSource(void)
2100:.\Generated_Source\PSoC4/CyLib.c ****     {
 2924              		.loc 2 2100 0
 2925              		.cfi_startproc
 2926 0000 80B5     		push	{r7, lr}
 2927              		.cfi_def_cfa_offset 8
ARM GAS  C:\Users\CHRIST~1\AppData\Local\Temp\cc8KQrfd.s 			page 106


 2928              		.cfi_offset 7, -8
 2929              		.cfi_offset 14, -4
 2930 0002 00AF     		add	r7, sp, #0
 2931              		.cfi_def_cfa_register 7
2101:.\Generated_Source\PSoC4/CyLib.c ****         return (CY_LVD_PWR_INTR_REG & CY_SYS_LVD_INT);
 2932              		.loc 2 2101 0
 2933 0004 034B     		ldr	r3, .L234
 2934 0006 1B68     		ldr	r3, [r3]
 2935 0008 0222     		mov	r2, #2
 2936 000a 1340     		and	r3, r2
2102:.\Generated_Source\PSoC4/CyLib.c ****     }
 2937              		.loc 2 2102 0
 2938 000c 181C     		mov	r0, r3
 2939 000e BD46     		mov	sp, r7
 2940              		@ sp needed
 2941 0010 80BD     		pop	{r7, pc}
 2942              	.L235:
 2943 0012 C046     		.align	2
 2944              	.L234:
 2945 0014 04000B40 		.word	1074462724
 2946              		.cfi_endproc
 2947              	.LFE44:
 2948              		.size	CySysLvdGetInterruptSource, .-CySysLvdGetInterruptSource
 2949              		.section	.text.CySysLvdClearInterrupt,"ax",%progbits
 2950              		.align	2
 2951              		.global	CySysLvdClearInterrupt
 2952              		.code	16
 2953              		.thumb_func
 2954              		.type	CySysLvdClearInterrupt, %function
 2955              	CySysLvdClearInterrupt:
 2956              	.LFB45:
2103:.\Generated_Source\PSoC4/CyLib.c **** 
2104:.\Generated_Source\PSoC4/CyLib.c **** 
2105:.\Generated_Source\PSoC4/CyLib.c ****     /*******************************************************************************
2106:.\Generated_Source\PSoC4/CyLib.c ****     * Function Name: CySysLvdClearInterrupt
2107:.\Generated_Source\PSoC4/CyLib.c ****     ********************************************************************************
2108:.\Generated_Source\PSoC4/CyLib.c ****     *
2109:.\Generated_Source\PSoC4/CyLib.c ****     * Summary:
2110:.\Generated_Source\PSoC4/CyLib.c ****     *  Clears the low voltage detection interrupt status.
2111:.\Generated_Source\PSoC4/CyLib.c ****     *
2112:.\Generated_Source\PSoC4/CyLib.c ****     * Parameters:
2113:.\Generated_Source\PSoC4/CyLib.c ****     *  None
2114:.\Generated_Source\PSoC4/CyLib.c ****     *
2115:.\Generated_Source\PSoC4/CyLib.c ****     * Return:
2116:.\Generated_Source\PSoC4/CyLib.c ****     *  None
2117:.\Generated_Source\PSoC4/CyLib.c ****     *
2118:.\Generated_Source\PSoC4/CyLib.c ****     *******************************************************************************/
2119:.\Generated_Source\PSoC4/CyLib.c ****     void CySysLvdClearInterrupt(void)
2120:.\Generated_Source\PSoC4/CyLib.c ****     {
 2957              		.loc 2 2120 0
 2958              		.cfi_startproc
 2959 0000 80B5     		push	{r7, lr}
 2960              		.cfi_def_cfa_offset 8
 2961              		.cfi_offset 7, -8
 2962              		.cfi_offset 14, -4
 2963 0002 00AF     		add	r7, sp, #0
 2964              		.cfi_def_cfa_register 7
ARM GAS  C:\Users\CHRIST~1\AppData\Local\Temp\cc8KQrfd.s 			page 107


2121:.\Generated_Source\PSoC4/CyLib.c ****         CY_LVD_PWR_INTR_REG = CY_SYS_LVD_INT;
 2965              		.loc 2 2121 0
 2966 0004 024B     		ldr	r3, .L237
 2967 0006 0222     		mov	r2, #2
 2968 0008 1A60     		str	r2, [r3]
2122:.\Generated_Source\PSoC4/CyLib.c ****     }
 2969              		.loc 2 2122 0
 2970 000a BD46     		mov	sp, r7
 2971              		@ sp needed
 2972 000c 80BD     		pop	{r7, pc}
 2973              	.L238:
 2974 000e C046     		.align	2
 2975              	.L237:
 2976 0010 04000B40 		.word	1074462724
 2977              		.cfi_endproc
 2978              	.LFE45:
 2979              		.size	CySysLvdClearInterrupt, .-CySysLvdClearInterrupt
 2980              		.section	.text.CySysGetResetReason,"ax",%progbits
 2981              		.align	2
 2982              		.global	CySysGetResetReason
 2983              		.code	16
 2984              		.thumb_func
 2985              		.type	CySysGetResetReason, %function
 2986              	CySysGetResetReason:
 2987              	.LFB46:
2123:.\Generated_Source\PSoC4/CyLib.c **** 
2124:.\Generated_Source\PSoC4/CyLib.c **** #endif /* (CY_IP_SRSSV2) */
2125:.\Generated_Source\PSoC4/CyLib.c **** 
2126:.\Generated_Source\PSoC4/CyLib.c **** 
2127:.\Generated_Source\PSoC4/CyLib.c **** /*******************************************************************************
2128:.\Generated_Source\PSoC4/CyLib.c **** * Function Name: CySysGetResetReason
2129:.\Generated_Source\PSoC4/CyLib.c **** ********************************************************************************
2130:.\Generated_Source\PSoC4/CyLib.c **** *
2131:.\Generated_Source\PSoC4/CyLib.c **** * Summary:
2132:.\Generated_Source\PSoC4/CyLib.c **** *  Reports the cause for the latest reset(s) that occurred in the system. All the
2133:.\Generated_Source\PSoC4/CyLib.c **** *  bits in the RES_CAUSE register assert when the corresponding reset cause
2134:.\Generated_Source\PSoC4/CyLib.c **** *  occurs and must be cleared by the firmware. These bits are cleared by the hardware
2135:.\Generated_Source\PSoC4/CyLib.c **** *  only during XRES, POR, or a detected brown-out.
2136:.\Generated_Source\PSoC4/CyLib.c **** *
2137:.\Generated_Source\PSoC4/CyLib.c **** * Parameters:
2138:.\Generated_Source\PSoC4/CyLib.c **** *  reason: bits in the RES_CAUSE register to clear.
2139:.\Generated_Source\PSoC4/CyLib.c **** *   CY_SYS_RESET_WDT       - WDT caused a reset
2140:.\Generated_Source\PSoC4/CyLib.c **** *   CY_SYS_RESET_PROTFAULT - A protection violation occurred that requires a RESET
2141:.\Generated_Source\PSoC4/CyLib.c **** *   CY_SYS_RESET_SW        - Cortex-M0 requested a system reset.
2142:.\Generated_Source\PSoC4/CyLib.c **** *
2143:.\Generated_Source\PSoC4/CyLib.c **** * Return:
2144:.\Generated_Source\PSoC4/CyLib.c **** *  Status. Same enumerated bit values as used for the reason parameter.
2145:.\Generated_Source\PSoC4/CyLib.c **** *
2146:.\Generated_Source\PSoC4/CyLib.c **** *******************************************************************************/
2147:.\Generated_Source\PSoC4/CyLib.c **** uint32 CySysGetResetReason(uint32 reason)
2148:.\Generated_Source\PSoC4/CyLib.c **** {
 2988              		.loc 2 2148 0
 2989              		.cfi_startproc
 2990 0000 80B5     		push	{r7, lr}
 2991              		.cfi_def_cfa_offset 8
 2992              		.cfi_offset 7, -8
 2993              		.cfi_offset 14, -4
ARM GAS  C:\Users\CHRIST~1\AppData\Local\Temp\cc8KQrfd.s 			page 108


 2994 0002 84B0     		sub	sp, sp, #16
 2995              		.cfi_def_cfa_offset 24
 2996 0004 00AF     		add	r7, sp, #0
 2997              		.cfi_def_cfa_register 7
 2998 0006 7860     		str	r0, [r7, #4]
2149:.\Generated_Source\PSoC4/CyLib.c ****     uint32 status;
2150:.\Generated_Source\PSoC4/CyLib.c **** 
2151:.\Generated_Source\PSoC4/CyLib.c ****     reason &= (CY_SYS_RESET_WDT | CY_SYS_RESET_PROTFAULT | CY_SYS_RESET_SW);
 2999              		.loc 2 2151 0
 3000 0008 7B68     		ldr	r3, [r7, #4]
 3001 000a 1922     		mov	r2, #25
 3002 000c 1340     		and	r3, r2
 3003 000e 7B60     		str	r3, [r7, #4]
2152:.\Generated_Source\PSoC4/CyLib.c ****     status = CY_SYS_RES_CAUSE_REG &
 3004              		.loc 2 2152 0
 3005 0010 064B     		ldr	r3, .L241
 3006 0012 1B68     		ldr	r3, [r3]
 3007 0014 1922     		mov	r2, #25
 3008 0016 1340     		and	r3, r2
 3009 0018 FB60     		str	r3, [r7, #12]
2153:.\Generated_Source\PSoC4/CyLib.c ****              (CY_SYS_RESET_WDT | CY_SYS_RESET_PROTFAULT | CY_SYS_RESET_SW);
2154:.\Generated_Source\PSoC4/CyLib.c ****     CY_SYS_RES_CAUSE_REG = reason;
 3010              		.loc 2 2154 0
 3011 001a 044B     		ldr	r3, .L241
 3012 001c 7A68     		ldr	r2, [r7, #4]
 3013 001e 1A60     		str	r2, [r3]
2155:.\Generated_Source\PSoC4/CyLib.c **** 
2156:.\Generated_Source\PSoC4/CyLib.c ****     return (status);
 3014              		.loc 2 2156 0
 3015 0020 FB68     		ldr	r3, [r7, #12]
2157:.\Generated_Source\PSoC4/CyLib.c **** }
 3016              		.loc 2 2157 0
 3017 0022 181C     		mov	r0, r3
 3018 0024 BD46     		mov	sp, r7
 3019 0026 04B0     		add	sp, sp, #16
 3020              		@ sp needed
 3021 0028 80BD     		pop	{r7, pc}
 3022              	.L242:
 3023 002a C046     		.align	2
 3024              	.L241:
 3025 002c 00030B40 		.word	1074463488
 3026              		.cfi_endproc
 3027              	.LFE46:
 3028              		.size	CySysGetResetReason, .-CySysGetResetReason
 3029              		.section	.text.CyDisableInts,"ax",%progbits
 3030              		.align	2
 3031              		.global	CyDisableInts
 3032              		.code	16
 3033              		.thumb_func
 3034              		.type	CyDisableInts, %function
 3035              	CyDisableInts:
 3036              	.LFB47:
2158:.\Generated_Source\PSoC4/CyLib.c **** 
2159:.\Generated_Source\PSoC4/CyLib.c **** 
2160:.\Generated_Source\PSoC4/CyLib.c **** /*******************************************************************************
2161:.\Generated_Source\PSoC4/CyLib.c **** * Function Name: CyDisableInts
2162:.\Generated_Source\PSoC4/CyLib.c **** ********************************************************************************
ARM GAS  C:\Users\CHRIST~1\AppData\Local\Temp\cc8KQrfd.s 			page 109


2163:.\Generated_Source\PSoC4/CyLib.c **** *
2164:.\Generated_Source\PSoC4/CyLib.c **** * Summary:
2165:.\Generated_Source\PSoC4/CyLib.c **** *  Disables all interrupts.
2166:.\Generated_Source\PSoC4/CyLib.c **** *
2167:.\Generated_Source\PSoC4/CyLib.c **** * Parameters:
2168:.\Generated_Source\PSoC4/CyLib.c **** *  None
2169:.\Generated_Source\PSoC4/CyLib.c **** *
2170:.\Generated_Source\PSoC4/CyLib.c **** * Return:
2171:.\Generated_Source\PSoC4/CyLib.c **** *  32 bit mask of previously enabled interrupts.
2172:.\Generated_Source\PSoC4/CyLib.c **** *
2173:.\Generated_Source\PSoC4/CyLib.c **** *******************************************************************************/
2174:.\Generated_Source\PSoC4/CyLib.c **** uint32 CyDisableInts(void)
2175:.\Generated_Source\PSoC4/CyLib.c **** {
 3037              		.loc 2 2175 0
 3038              		.cfi_startproc
 3039 0000 80B5     		push	{r7, lr}
 3040              		.cfi_def_cfa_offset 8
 3041              		.cfi_offset 7, -8
 3042              		.cfi_offset 14, -4
 3043 0002 82B0     		sub	sp, sp, #8
 3044              		.cfi_def_cfa_offset 16
 3045 0004 00AF     		add	r7, sp, #0
 3046              		.cfi_def_cfa_register 7
2176:.\Generated_Source\PSoC4/CyLib.c ****     uint32 intState;
2177:.\Generated_Source\PSoC4/CyLib.c **** 
2178:.\Generated_Source\PSoC4/CyLib.c ****     /* Get current interrupt state. */
2179:.\Generated_Source\PSoC4/CyLib.c ****     intState = CY_INT_CLEAR_REG;
 3047              		.loc 2 2179 0
 3048 0006 064B     		ldr	r3, .L245
 3049 0008 1B68     		ldr	r3, [r3]
 3050 000a 7B60     		str	r3, [r7, #4]
2180:.\Generated_Source\PSoC4/CyLib.c **** 
2181:.\Generated_Source\PSoC4/CyLib.c ****     /* Disable all interrupts. */
2182:.\Generated_Source\PSoC4/CyLib.c ****     CY_INT_CLEAR_REG = CY_INT_CLEAR_DISABLE_ALL;
 3051              		.loc 2 2182 0
 3052 000c 044B     		ldr	r3, .L245
 3053 000e 0122     		mov	r2, #1
 3054 0010 5242     		neg	r2, r2
 3055 0012 1A60     		str	r2, [r3]
2183:.\Generated_Source\PSoC4/CyLib.c **** 
2184:.\Generated_Source\PSoC4/CyLib.c ****     return (intState);
 3056              		.loc 2 2184 0
 3057 0014 7B68     		ldr	r3, [r7, #4]
2185:.\Generated_Source\PSoC4/CyLib.c **** }
 3058              		.loc 2 2185 0
 3059 0016 181C     		mov	r0, r3
 3060 0018 BD46     		mov	sp, r7
 3061 001a 02B0     		add	sp, sp, #8
 3062              		@ sp needed
 3063 001c 80BD     		pop	{r7, pc}
 3064              	.L246:
 3065 001e C046     		.align	2
 3066              	.L245:
 3067 0020 80E100E0 		.word	-536813184
 3068              		.cfi_endproc
 3069              	.LFE47:
 3070              		.size	CyDisableInts, .-CyDisableInts
ARM GAS  C:\Users\CHRIST~1\AppData\Local\Temp\cc8KQrfd.s 			page 110


 3071              		.section	.text.CyEnableInts,"ax",%progbits
 3072              		.align	2
 3073              		.global	CyEnableInts
 3074              		.code	16
 3075              		.thumb_func
 3076              		.type	CyEnableInts, %function
 3077              	CyEnableInts:
 3078              	.LFB48:
2186:.\Generated_Source\PSoC4/CyLib.c **** 
2187:.\Generated_Source\PSoC4/CyLib.c **** 
2188:.\Generated_Source\PSoC4/CyLib.c **** /*******************************************************************************
2189:.\Generated_Source\PSoC4/CyLib.c **** * Function Name: CyEnableInts
2190:.\Generated_Source\PSoC4/CyLib.c **** ********************************************************************************
2191:.\Generated_Source\PSoC4/CyLib.c **** *
2192:.\Generated_Source\PSoC4/CyLib.c **** * Summary:
2193:.\Generated_Source\PSoC4/CyLib.c **** *  Enables interrupts to a given state.
2194:.\Generated_Source\PSoC4/CyLib.c **** *
2195:.\Generated_Source\PSoC4/CyLib.c **** * Parameters:
2196:.\Generated_Source\PSoC4/CyLib.c **** *   mask, 32 bit mask of interrupts to enable.
2197:.\Generated_Source\PSoC4/CyLib.c **** *
2198:.\Generated_Source\PSoC4/CyLib.c **** * Return:
2199:.\Generated_Source\PSoC4/CyLib.c **** *  None
2200:.\Generated_Source\PSoC4/CyLib.c **** *
2201:.\Generated_Source\PSoC4/CyLib.c **** *******************************************************************************/
2202:.\Generated_Source\PSoC4/CyLib.c **** void CyEnableInts(uint32 mask)
2203:.\Generated_Source\PSoC4/CyLib.c **** {
 3079              		.loc 2 2203 0
 3080              		.cfi_startproc
 3081 0000 80B5     		push	{r7, lr}
 3082              		.cfi_def_cfa_offset 8
 3083              		.cfi_offset 7, -8
 3084              		.cfi_offset 14, -4
 3085 0002 82B0     		sub	sp, sp, #8
 3086              		.cfi_def_cfa_offset 16
 3087 0004 00AF     		add	r7, sp, #0
 3088              		.cfi_def_cfa_register 7
 3089 0006 7860     		str	r0, [r7, #4]
2204:.\Generated_Source\PSoC4/CyLib.c ****     CY_INT_ENABLE_REG = mask;
 3090              		.loc 2 2204 0
 3091 0008 024B     		ldr	r3, .L248
 3092 000a 7A68     		ldr	r2, [r7, #4]
 3093 000c 1A60     		str	r2, [r3]
2205:.\Generated_Source\PSoC4/CyLib.c **** }
 3094              		.loc 2 2205 0
 3095 000e BD46     		mov	sp, r7
 3096 0010 02B0     		add	sp, sp, #8
 3097              		@ sp needed
 3098 0012 80BD     		pop	{r7, pc}
 3099              	.L249:
 3100              		.align	2
 3101              	.L248:
 3102 0014 00E100E0 		.word	-536813312
 3103              		.cfi_endproc
 3104              	.LFE48:
 3105              		.size	CyEnableInts, .-CyEnableInts
 3106              		.section	.text.CyIntSetSysVector,"ax",%progbits
 3107              		.align	2
ARM GAS  C:\Users\CHRIST~1\AppData\Local\Temp\cc8KQrfd.s 			page 111


 3108              		.global	CyIntSetSysVector
 3109              		.code	16
 3110              		.thumb_func
 3111              		.type	CyIntSetSysVector, %function
 3112              	CyIntSetSysVector:
 3113              	.LFB49:
2206:.\Generated_Source\PSoC4/CyLib.c **** 
2207:.\Generated_Source\PSoC4/CyLib.c **** 
2208:.\Generated_Source\PSoC4/CyLib.c **** /*******************************************************************************
2209:.\Generated_Source\PSoC4/CyLib.c **** * Function Name: CyIntSetSysVector
2210:.\Generated_Source\PSoC4/CyLib.c **** ********************************************************************************
2211:.\Generated_Source\PSoC4/CyLib.c **** *
2212:.\Generated_Source\PSoC4/CyLib.c **** * Summary:
2213:.\Generated_Source\PSoC4/CyLib.c **** *  Sets the interrupt vector of the specified system interrupt number. These
2214:.\Generated_Source\PSoC4/CyLib.c **** *  interrupts are for SysTick, PendSV and others.
2215:.\Generated_Source\PSoC4/CyLib.c **** *
2216:.\Generated_Source\PSoC4/CyLib.c **** * Parameters:
2217:.\Generated_Source\PSoC4/CyLib.c **** *  number: System interrupt number:
2218:.\Generated_Source\PSoC4/CyLib.c **** *    CY_INT_NMI_IRQN        - Non Maskable Interrupt
2219:.\Generated_Source\PSoC4/CyLib.c **** *    CY_INT_HARD_FAULT_IRQN - Hard Fault Interrupt
2220:.\Generated_Source\PSoC4/CyLib.c **** *    CY_INT_SVCALL_IRQN     - SV Call Interrupt
2221:.\Generated_Source\PSoC4/CyLib.c **** *    CY_INT_PEND_SV_IRQN    - Pend SV Interrupt
2222:.\Generated_Source\PSoC4/CyLib.c **** *    CY_INT_SYSTICK_IRQN    - System Tick Interrupt
2223:.\Generated_Source\PSoC4/CyLib.c **** *
2224:.\Generated_Source\PSoC4/CyLib.c **** *  address: Pointer to an interrupt service routine.
2225:.\Generated_Source\PSoC4/CyLib.c **** *
2226:.\Generated_Source\PSoC4/CyLib.c **** * Return:
2227:.\Generated_Source\PSoC4/CyLib.c **** *  The old ISR vector at this location.
2228:.\Generated_Source\PSoC4/CyLib.c **** *
2229:.\Generated_Source\PSoC4/CyLib.c **** *******************************************************************************/
2230:.\Generated_Source\PSoC4/CyLib.c **** cyisraddress CyIntSetSysVector(uint8 number, cyisraddress address)
2231:.\Generated_Source\PSoC4/CyLib.c **** {
 3114              		.loc 2 2231 0
 3115              		.cfi_startproc
 3116 0000 80B5     		push	{r7, lr}
 3117              		.cfi_def_cfa_offset 8
 3118              		.cfi_offset 7, -8
 3119              		.cfi_offset 14, -4
 3120 0002 84B0     		sub	sp, sp, #16
 3121              		.cfi_def_cfa_offset 24
 3122 0004 00AF     		add	r7, sp, #0
 3123              		.cfi_def_cfa_register 7
 3124 0006 021C     		mov	r2, r0
 3125 0008 3960     		str	r1, [r7]
 3126 000a FB1D     		add	r3, r7, #7
 3127 000c 1A70     		strb	r2, [r3]
2232:.\Generated_Source\PSoC4/CyLib.c ****     cyisraddress oldIsr;
2233:.\Generated_Source\PSoC4/CyLib.c ****     cyisraddress *ramVectorTable = (cyisraddress *) CY_INT_VECT_TABLE;
 3128              		.loc 2 2233 0
 3129 000e 8023     		mov	r3, #128
 3130 0010 9B05     		lsl	r3, r3, #22
 3131 0012 FB60     		str	r3, [r7, #12]
2234:.\Generated_Source\PSoC4/CyLib.c **** 
2235:.\Generated_Source\PSoC4/CyLib.c ****     CYASSERT(number < CY_INT_IRQ_BASE);
 3132              		.loc 2 2235 0
 3133 0014 FB1D     		add	r3, r7, #7
 3134 0016 1B78     		ldrb	r3, [r3]
ARM GAS  C:\Users\CHRIST~1\AppData\Local\Temp\cc8KQrfd.s 			page 112


 3135 0018 0F2B     		cmp	r3, #15
 3136 001a 02D9     		bls	.L251
 3137              		.loc 2 2235 0 is_stmt 0 discriminator 1
 3138 001c 0020     		mov	r0, #0
 3139 001e FFF7FEFF 		bl	CyHalt
 3140              	.L251:
2236:.\Generated_Source\PSoC4/CyLib.c **** 
2237:.\Generated_Source\PSoC4/CyLib.c ****     /* Save old Interrupt service routine. */
2238:.\Generated_Source\PSoC4/CyLib.c ****     oldIsr = ramVectorTable[number];
 3141              		.loc 2 2238 0 is_stmt 1
 3142 0022 FB1D     		add	r3, r7, #7
 3143 0024 1B78     		ldrb	r3, [r3]
 3144 0026 9B00     		lsl	r3, r3, #2
 3145 0028 FA68     		ldr	r2, [r7, #12]
 3146 002a D318     		add	r3, r2, r3
 3147 002c 1B68     		ldr	r3, [r3]
 3148 002e BB60     		str	r3, [r7, #8]
2239:.\Generated_Source\PSoC4/CyLib.c **** 
2240:.\Generated_Source\PSoC4/CyLib.c ****     /* Set new Interrupt service routine. */
2241:.\Generated_Source\PSoC4/CyLib.c ****     ramVectorTable[number] = address;
 3149              		.loc 2 2241 0
 3150 0030 FB1D     		add	r3, r7, #7
 3151 0032 1B78     		ldrb	r3, [r3]
 3152 0034 9B00     		lsl	r3, r3, #2
 3153 0036 FA68     		ldr	r2, [r7, #12]
 3154 0038 D318     		add	r3, r2, r3
 3155 003a 3A68     		ldr	r2, [r7]
 3156 003c 1A60     		str	r2, [r3]
2242:.\Generated_Source\PSoC4/CyLib.c **** 
2243:.\Generated_Source\PSoC4/CyLib.c ****     return(oldIsr);
 3157              		.loc 2 2243 0
 3158 003e BB68     		ldr	r3, [r7, #8]
2244:.\Generated_Source\PSoC4/CyLib.c **** }
 3159              		.loc 2 2244 0
 3160 0040 181C     		mov	r0, r3
 3161 0042 BD46     		mov	sp, r7
 3162 0044 04B0     		add	sp, sp, #16
 3163              		@ sp needed
 3164 0046 80BD     		pop	{r7, pc}
 3165              		.cfi_endproc
 3166              	.LFE49:
 3167              		.size	CyIntSetSysVector, .-CyIntSetSysVector
 3168              		.section	.text.CyIntGetSysVector,"ax",%progbits
 3169              		.align	2
 3170              		.global	CyIntGetSysVector
 3171              		.code	16
 3172              		.thumb_func
 3173              		.type	CyIntGetSysVector, %function
 3174              	CyIntGetSysVector:
 3175              	.LFB50:
2245:.\Generated_Source\PSoC4/CyLib.c **** 
2246:.\Generated_Source\PSoC4/CyLib.c **** 
2247:.\Generated_Source\PSoC4/CyLib.c **** /*******************************************************************************
2248:.\Generated_Source\PSoC4/CyLib.c **** * Function Name: CyIntGetSysVector
2249:.\Generated_Source\PSoC4/CyLib.c **** ********************************************************************************
2250:.\Generated_Source\PSoC4/CyLib.c **** *
2251:.\Generated_Source\PSoC4/CyLib.c **** * Summary:
ARM GAS  C:\Users\CHRIST~1\AppData\Local\Temp\cc8KQrfd.s 			page 113


2252:.\Generated_Source\PSoC4/CyLib.c **** *   Gets the interrupt vector of the specified system interrupt number. These
2253:.\Generated_Source\PSoC4/CyLib.c **** *   interrupts are for SysTick, PendSV and others.
2254:.\Generated_Source\PSoC4/CyLib.c **** *
2255:.\Generated_Source\PSoC4/CyLib.c **** * Parameters:
2256:.\Generated_Source\PSoC4/CyLib.c **** *  number: System interrupt number:
2257:.\Generated_Source\PSoC4/CyLib.c **** *    CY_INT_NMI_IRQN        - Non Maskable Interrupt
2258:.\Generated_Source\PSoC4/CyLib.c **** *    CY_INT_HARD_FAULT_IRQN - Hard Fault Interrupt
2259:.\Generated_Source\PSoC4/CyLib.c **** *    CY_INT_SVCALL_IRQN     - SV Call Interrupt
2260:.\Generated_Source\PSoC4/CyLib.c **** *    CY_INT_PEND_SV_IRQN    - Pend SV Interrupt
2261:.\Generated_Source\PSoC4/CyLib.c **** *    CY_INT_SYSTICK_IRQN    - System Tick Interrupt
2262:.\Generated_Source\PSoC4/CyLib.c **** *
2263:.\Generated_Source\PSoC4/CyLib.c **** * Return:
2264:.\Generated_Source\PSoC4/CyLib.c **** *   Address of the ISR in the interrupt vector table.
2265:.\Generated_Source\PSoC4/CyLib.c **** *
2266:.\Generated_Source\PSoC4/CyLib.c **** *******************************************************************************/
2267:.\Generated_Source\PSoC4/CyLib.c **** cyisraddress CyIntGetSysVector(uint8 number)
2268:.\Generated_Source\PSoC4/CyLib.c **** {
 3176              		.loc 2 2268 0
 3177              		.cfi_startproc
 3178 0000 80B5     		push	{r7, lr}
 3179              		.cfi_def_cfa_offset 8
 3180              		.cfi_offset 7, -8
 3181              		.cfi_offset 14, -4
 3182 0002 84B0     		sub	sp, sp, #16
 3183              		.cfi_def_cfa_offset 24
 3184 0004 00AF     		add	r7, sp, #0
 3185              		.cfi_def_cfa_register 7
 3186 0006 021C     		mov	r2, r0
 3187 0008 FB1D     		add	r3, r7, #7
 3188 000a 1A70     		strb	r2, [r3]
2269:.\Generated_Source\PSoC4/CyLib.c ****     cyisraddress *ramVectorTable = (cyisraddress *) CY_INT_VECT_TABLE;
 3189              		.loc 2 2269 0
 3190 000c 8023     		mov	r3, #128
 3191 000e 9B05     		lsl	r3, r3, #22
 3192 0010 FB60     		str	r3, [r7, #12]
2270:.\Generated_Source\PSoC4/CyLib.c **** 
2271:.\Generated_Source\PSoC4/CyLib.c ****     CYASSERT(number < CY_INT_IRQ_BASE);
 3193              		.loc 2 2271 0
 3194 0012 FB1D     		add	r3, r7, #7
 3195 0014 1B78     		ldrb	r3, [r3]
 3196 0016 0F2B     		cmp	r3, #15
 3197 0018 02D9     		bls	.L254
 3198              		.loc 2 2271 0 is_stmt 0 discriminator 1
 3199 001a 0020     		mov	r0, #0
 3200 001c FFF7FEFF 		bl	CyHalt
 3201              	.L254:
2272:.\Generated_Source\PSoC4/CyLib.c **** 
2273:.\Generated_Source\PSoC4/CyLib.c ****     return(ramVectorTable[number]);
 3202              		.loc 2 2273 0 is_stmt 1
 3203 0020 FB1D     		add	r3, r7, #7
 3204 0022 1B78     		ldrb	r3, [r3]
 3205 0024 9B00     		lsl	r3, r3, #2
 3206 0026 FA68     		ldr	r2, [r7, #12]
 3207 0028 D318     		add	r3, r2, r3
 3208 002a 1B68     		ldr	r3, [r3]
2274:.\Generated_Source\PSoC4/CyLib.c **** }
 3209              		.loc 2 2274 0
ARM GAS  C:\Users\CHRIST~1\AppData\Local\Temp\cc8KQrfd.s 			page 114


 3210 002c 181C     		mov	r0, r3
 3211 002e BD46     		mov	sp, r7
 3212 0030 04B0     		add	sp, sp, #16
 3213              		@ sp needed
 3214 0032 80BD     		pop	{r7, pc}
 3215              		.cfi_endproc
 3216              	.LFE50:
 3217              		.size	CyIntGetSysVector, .-CyIntGetSysVector
 3218              		.section	.text.CyIntSetVector,"ax",%progbits
 3219              		.align	2
 3220              		.global	CyIntSetVector
 3221              		.code	16
 3222              		.thumb_func
 3223              		.type	CyIntSetVector, %function
 3224              	CyIntSetVector:
 3225              	.LFB51:
2275:.\Generated_Source\PSoC4/CyLib.c **** 
2276:.\Generated_Source\PSoC4/CyLib.c **** 
2277:.\Generated_Source\PSoC4/CyLib.c **** /*******************************************************************************
2278:.\Generated_Source\PSoC4/CyLib.c **** * Function Name: CyIntSetVector
2279:.\Generated_Source\PSoC4/CyLib.c **** ********************************************************************************
2280:.\Generated_Source\PSoC4/CyLib.c **** *
2281:.\Generated_Source\PSoC4/CyLib.c **** * Summary:
2282:.\Generated_Source\PSoC4/CyLib.c **** *  Sets the interrupt vector of the specified interrupt number.
2283:.\Generated_Source\PSoC4/CyLib.c **** *
2284:.\Generated_Source\PSoC4/CyLib.c **** * Parameters:
2285:.\Generated_Source\PSoC4/CyLib.c **** *  number: Valid range [0-31].  Interrupt number
2286:.\Generated_Source\PSoC4/CyLib.c **** *  address: Pointer to an interrupt service routine
2287:.\Generated_Source\PSoC4/CyLib.c **** *
2288:.\Generated_Source\PSoC4/CyLib.c **** * Return:
2289:.\Generated_Source\PSoC4/CyLib.c **** *   Previous interrupt vector value.
2290:.\Generated_Source\PSoC4/CyLib.c **** *
2291:.\Generated_Source\PSoC4/CyLib.c **** *******************************************************************************/
2292:.\Generated_Source\PSoC4/CyLib.c **** cyisraddress CyIntSetVector(uint8 number, cyisraddress address)
2293:.\Generated_Source\PSoC4/CyLib.c **** {
 3226              		.loc 2 2293 0
 3227              		.cfi_startproc
 3228 0000 80B5     		push	{r7, lr}
 3229              		.cfi_def_cfa_offset 8
 3230              		.cfi_offset 7, -8
 3231              		.cfi_offset 14, -4
 3232 0002 84B0     		sub	sp, sp, #16
 3233              		.cfi_def_cfa_offset 24
 3234 0004 00AF     		add	r7, sp, #0
 3235              		.cfi_def_cfa_register 7
 3236 0006 021C     		mov	r2, r0
 3237 0008 3960     		str	r1, [r7]
 3238 000a FB1D     		add	r3, r7, #7
 3239 000c 1A70     		strb	r2, [r3]
2294:.\Generated_Source\PSoC4/CyLib.c ****     cyisraddress oldIsr;
2295:.\Generated_Source\PSoC4/CyLib.c ****     cyisraddress *ramVectorTable = (cyisraddress *) CY_INT_VECT_TABLE;
 3240              		.loc 2 2295 0
 3241 000e 8023     		mov	r3, #128
 3242 0010 9B05     		lsl	r3, r3, #22
 3243 0012 FB60     		str	r3, [r7, #12]
2296:.\Generated_Source\PSoC4/CyLib.c **** 
2297:.\Generated_Source\PSoC4/CyLib.c ****     CYASSERT(number < CY_NUM_INTERRUPTS);
ARM GAS  C:\Users\CHRIST~1\AppData\Local\Temp\cc8KQrfd.s 			page 115


 3244              		.loc 2 2297 0
 3245 0014 FB1D     		add	r3, r7, #7
 3246 0016 1B78     		ldrb	r3, [r3]
 3247 0018 1F2B     		cmp	r3, #31
 3248 001a 02D9     		bls	.L257
 3249              		.loc 2 2297 0 is_stmt 0 discriminator 1
 3250 001c 0020     		mov	r0, #0
 3251 001e FFF7FEFF 		bl	CyHalt
 3252              	.L257:
2298:.\Generated_Source\PSoC4/CyLib.c **** 
2299:.\Generated_Source\PSoC4/CyLib.c ****     /* Save old Interrupt service routine. */
2300:.\Generated_Source\PSoC4/CyLib.c ****     oldIsr = ramVectorTable[CY_INT_IRQ_BASE + number];
 3253              		.loc 2 2300 0 is_stmt 1
 3254 0022 FB1D     		add	r3, r7, #7
 3255 0024 1B78     		ldrb	r3, [r3]
 3256 0026 1033     		add	r3, r3, #16
 3257 0028 9B00     		lsl	r3, r3, #2
 3258 002a FA68     		ldr	r2, [r7, #12]
 3259 002c D318     		add	r3, r2, r3
 3260 002e 1B68     		ldr	r3, [r3]
 3261 0030 BB60     		str	r3, [r7, #8]
2301:.\Generated_Source\PSoC4/CyLib.c **** 
2302:.\Generated_Source\PSoC4/CyLib.c ****     /* Set new Interrupt service routine. */
2303:.\Generated_Source\PSoC4/CyLib.c ****     ramVectorTable[CY_INT_IRQ_BASE + number] = address;
 3262              		.loc 2 2303 0
 3263 0032 FB1D     		add	r3, r7, #7
 3264 0034 1B78     		ldrb	r3, [r3]
 3265 0036 1033     		add	r3, r3, #16
 3266 0038 9B00     		lsl	r3, r3, #2
 3267 003a FA68     		ldr	r2, [r7, #12]
 3268 003c D318     		add	r3, r2, r3
 3269 003e 3A68     		ldr	r2, [r7]
 3270 0040 1A60     		str	r2, [r3]
2304:.\Generated_Source\PSoC4/CyLib.c **** 
2305:.\Generated_Source\PSoC4/CyLib.c ****     return(oldIsr);
 3271              		.loc 2 2305 0
 3272 0042 BB68     		ldr	r3, [r7, #8]
2306:.\Generated_Source\PSoC4/CyLib.c **** }
 3273              		.loc 2 2306 0
 3274 0044 181C     		mov	r0, r3
 3275 0046 BD46     		mov	sp, r7
 3276 0048 04B0     		add	sp, sp, #16
 3277              		@ sp needed
 3278 004a 80BD     		pop	{r7, pc}
 3279              		.cfi_endproc
 3280              	.LFE51:
 3281              		.size	CyIntSetVector, .-CyIntSetVector
 3282              		.section	.text.CyIntGetVector,"ax",%progbits
 3283              		.align	2
 3284              		.global	CyIntGetVector
 3285              		.code	16
 3286              		.thumb_func
 3287              		.type	CyIntGetVector, %function
 3288              	CyIntGetVector:
 3289              	.LFB52:
2307:.\Generated_Source\PSoC4/CyLib.c **** 
2308:.\Generated_Source\PSoC4/CyLib.c **** 
ARM GAS  C:\Users\CHRIST~1\AppData\Local\Temp\cc8KQrfd.s 			page 116


2309:.\Generated_Source\PSoC4/CyLib.c **** /*******************************************************************************
2310:.\Generated_Source\PSoC4/CyLib.c **** * Function Name: CyIntGetVector
2311:.\Generated_Source\PSoC4/CyLib.c **** ********************************************************************************
2312:.\Generated_Source\PSoC4/CyLib.c **** *
2313:.\Generated_Source\PSoC4/CyLib.c **** * Summary:
2314:.\Generated_Source\PSoC4/CyLib.c **** *  Gets the interrupt vector of the specified interrupt number.
2315:.\Generated_Source\PSoC4/CyLib.c **** *
2316:.\Generated_Source\PSoC4/CyLib.c **** * Parameters:
2317:.\Generated_Source\PSoC4/CyLib.c **** *  number: Valid range [0-31].  Interrupt number
2318:.\Generated_Source\PSoC4/CyLib.c **** *
2319:.\Generated_Source\PSoC4/CyLib.c **** * Return:
2320:.\Generated_Source\PSoC4/CyLib.c **** *  Address of the ISR in the interrupt vector table.
2321:.\Generated_Source\PSoC4/CyLib.c **** *
2322:.\Generated_Source\PSoC4/CyLib.c **** *******************************************************************************/
2323:.\Generated_Source\PSoC4/CyLib.c **** cyisraddress CyIntGetVector(uint8 number)
2324:.\Generated_Source\PSoC4/CyLib.c **** {
 3290              		.loc 2 2324 0
 3291              		.cfi_startproc
 3292 0000 80B5     		push	{r7, lr}
 3293              		.cfi_def_cfa_offset 8
 3294              		.cfi_offset 7, -8
 3295              		.cfi_offset 14, -4
 3296 0002 84B0     		sub	sp, sp, #16
 3297              		.cfi_def_cfa_offset 24
 3298 0004 00AF     		add	r7, sp, #0
 3299              		.cfi_def_cfa_register 7
 3300 0006 021C     		mov	r2, r0
 3301 0008 FB1D     		add	r3, r7, #7
 3302 000a 1A70     		strb	r2, [r3]
2325:.\Generated_Source\PSoC4/CyLib.c ****     cyisraddress *ramVectorTable = (cyisraddress *) CY_INT_VECT_TABLE;
 3303              		.loc 2 2325 0
 3304 000c 8023     		mov	r3, #128
 3305 000e 9B05     		lsl	r3, r3, #22
 3306 0010 FB60     		str	r3, [r7, #12]
2326:.\Generated_Source\PSoC4/CyLib.c **** 
2327:.\Generated_Source\PSoC4/CyLib.c ****     CYASSERT(number < CY_NUM_INTERRUPTS);
 3307              		.loc 2 2327 0
 3308 0012 FB1D     		add	r3, r7, #7
 3309 0014 1B78     		ldrb	r3, [r3]
 3310 0016 1F2B     		cmp	r3, #31
 3311 0018 02D9     		bls	.L260
 3312              		.loc 2 2327 0 is_stmt 0 discriminator 1
 3313 001a 0020     		mov	r0, #0
 3314 001c FFF7FEFF 		bl	CyHalt
 3315              	.L260:
2328:.\Generated_Source\PSoC4/CyLib.c **** 
2329:.\Generated_Source\PSoC4/CyLib.c ****     return (ramVectorTable[CY_INT_IRQ_BASE + number]);
 3316              		.loc 2 2329 0 is_stmt 1
 3317 0020 FB1D     		add	r3, r7, #7
 3318 0022 1B78     		ldrb	r3, [r3]
 3319 0024 1033     		add	r3, r3, #16
 3320 0026 9B00     		lsl	r3, r3, #2
 3321 0028 FA68     		ldr	r2, [r7, #12]
 3322 002a D318     		add	r3, r2, r3
 3323 002c 1B68     		ldr	r3, [r3]
2330:.\Generated_Source\PSoC4/CyLib.c **** }
 3324              		.loc 2 2330 0
ARM GAS  C:\Users\CHRIST~1\AppData\Local\Temp\cc8KQrfd.s 			page 117


 3325 002e 181C     		mov	r0, r3
 3326 0030 BD46     		mov	sp, r7
 3327 0032 04B0     		add	sp, sp, #16
 3328              		@ sp needed
 3329 0034 80BD     		pop	{r7, pc}
 3330              		.cfi_endproc
 3331              	.LFE52:
 3332              		.size	CyIntGetVector, .-CyIntGetVector
 3333              		.section	.text.CyIntSetPriority,"ax",%progbits
 3334              		.align	2
 3335              		.global	CyIntSetPriority
 3336              		.code	16
 3337              		.thumb_func
 3338              		.type	CyIntSetPriority, %function
 3339              	CyIntSetPriority:
 3340              	.LFB53:
2331:.\Generated_Source\PSoC4/CyLib.c **** 
2332:.\Generated_Source\PSoC4/CyLib.c **** /*******************************************************************************
2333:.\Generated_Source\PSoC4/CyLib.c **** * Function Name: CyIntSetPriority
2334:.\Generated_Source\PSoC4/CyLib.c **** ********************************************************************************
2335:.\Generated_Source\PSoC4/CyLib.c **** *
2336:.\Generated_Source\PSoC4/CyLib.c **** * Summary:
2337:.\Generated_Source\PSoC4/CyLib.c **** *  Sets the priority of the interrupt.
2338:.\Generated_Source\PSoC4/CyLib.c **** *
2339:.\Generated_Source\PSoC4/CyLib.c **** * Parameters:
2340:.\Generated_Source\PSoC4/CyLib.c **** *  priority: Priority of the interrupt. 0 - 3, 0 being the highest.
2341:.\Generated_Source\PSoC4/CyLib.c **** *  number: The number of the interrupt, 0 - 31.
2342:.\Generated_Source\PSoC4/CyLib.c **** *
2343:.\Generated_Source\PSoC4/CyLib.c **** * Return:
2344:.\Generated_Source\PSoC4/CyLib.c **** *  None
2345:.\Generated_Source\PSoC4/CyLib.c **** *
2346:.\Generated_Source\PSoC4/CyLib.c **** *******************************************************************************/
2347:.\Generated_Source\PSoC4/CyLib.c **** void CyIntSetPriority(uint8 number, uint8 priority)
2348:.\Generated_Source\PSoC4/CyLib.c **** {
 3341              		.loc 2 2348 0
 3342              		.cfi_startproc
 3343 0000 90B5     		push	{r4, r7, lr}
 3344              		.cfi_def_cfa_offset 12
 3345              		.cfi_offset 4, -12
 3346              		.cfi_offset 7, -8
 3347              		.cfi_offset 14, -4
 3348 0002 87B0     		sub	sp, sp, #28
 3349              		.cfi_def_cfa_offset 40
 3350 0004 00AF     		add	r7, sp, #0
 3351              		.cfi_def_cfa_register 7
 3352 0006 021C     		mov	r2, r0
 3353 0008 FB1D     		add	r3, r7, #7
 3354 000a 1A70     		strb	r2, [r3]
 3355 000c BB1D     		add	r3, r7, #6
 3356 000e 0A1C     		add	r2, r1, #0
 3357 0010 1A70     		strb	r2, [r3]
2349:.\Generated_Source\PSoC4/CyLib.c ****     uint8 interruptState;
2350:.\Generated_Source\PSoC4/CyLib.c ****     uint32 shift;
2351:.\Generated_Source\PSoC4/CyLib.c ****     uint32 value;
2352:.\Generated_Source\PSoC4/CyLib.c **** 
2353:.\Generated_Source\PSoC4/CyLib.c ****     CYASSERT(priority <= CY_MIN_PRIORITY);
 3358              		.loc 2 2353 0
ARM GAS  C:\Users\CHRIST~1\AppData\Local\Temp\cc8KQrfd.s 			page 118


 3359 0012 BB1D     		add	r3, r7, #6
 3360 0014 1B78     		ldrb	r3, [r3]
 3361 0016 032B     		cmp	r3, #3
 3362 0018 02D9     		bls	.L263
 3363              		.loc 2 2353 0 is_stmt 0 discriminator 1
 3364 001a 0020     		mov	r0, #0
 3365 001c FFF7FEFF 		bl	CyHalt
 3366              	.L263:
2354:.\Generated_Source\PSoC4/CyLib.c ****     CYASSERT(number < CY_NUM_INTERRUPTS);
 3367              		.loc 2 2354 0 is_stmt 1
 3368 0020 FB1D     		add	r3, r7, #7
 3369 0022 1B78     		ldrb	r3, [r3]
 3370 0024 1F2B     		cmp	r3, #31
 3371 0026 02D9     		bls	.L264
 3372              		.loc 2 2354 0 is_stmt 0 discriminator 1
 3373 0028 0020     		mov	r0, #0
 3374 002a FFF7FEFF 		bl	CyHalt
 3375              	.L264:
2355:.\Generated_Source\PSoC4/CyLib.c **** 
2356:.\Generated_Source\PSoC4/CyLib.c ****     shift = CY_INT_PRIORITY_SHIFT(number);
 3376              		.loc 2 2356 0 is_stmt 1
 3377 002e FB1D     		add	r3, r7, #7
 3378 0030 1B78     		ldrb	r3, [r3]
 3379 0032 0322     		mov	r2, #3
 3380 0034 1340     		and	r3, r2
 3381 0036 DB00     		lsl	r3, r3, #3
 3382 0038 0633     		add	r3, r3, #6
 3383 003a 7B61     		str	r3, [r7, #20]
2357:.\Generated_Source\PSoC4/CyLib.c **** 
2358:.\Generated_Source\PSoC4/CyLib.c ****     interruptState = CyEnterCriticalSection();
 3384              		.loc 2 2358 0
 3385 003c 1323     		mov	r3, #19
 3386 003e FC18     		add	r4, r7, r3
 3387 0040 FFF7FEFF 		bl	CyEnterCriticalSection
 3388 0044 031C     		mov	r3, r0
 3389 0046 2370     		strb	r3, [r4]
2359:.\Generated_Source\PSoC4/CyLib.c **** 
2360:.\Generated_Source\PSoC4/CyLib.c ****     value = CY_INT_PRIORITY_REG(number);
 3390              		.loc 2 2360 0
 3391 0048 FB1D     		add	r3, r7, #7
 3392 004a 1B78     		ldrb	r3, [r3]
 3393 004c 9B08     		lsr	r3, r3, #2
 3394 004e DBB2     		uxtb	r3, r3
 3395 0050 9B00     		lsl	r3, r3, #2
 3396 0052 144A     		ldr	r2, .L265
 3397 0054 9446     		mov	ip, r2
 3398 0056 6344     		add	r3, r3, ip
 3399 0058 1B68     		ldr	r3, [r3]
 3400 005a FB60     		str	r3, [r7, #12]
2361:.\Generated_Source\PSoC4/CyLib.c ****     value &= (uint32)(~((uint32)(CY_INT_PRIORITY_MASK << shift)));
 3401              		.loc 2 2361 0
 3402 005c 7B69     		ldr	r3, [r7, #20]
 3403 005e 0322     		mov	r2, #3
 3404 0060 9A40     		lsl	r2, r2, r3
 3405 0062 131C     		mov	r3, r2
 3406 0064 DA43     		mvn	r2, r3
 3407 0066 FB68     		ldr	r3, [r7, #12]
ARM GAS  C:\Users\CHRIST~1\AppData\Local\Temp\cc8KQrfd.s 			page 119


 3408 0068 1340     		and	r3, r2
 3409 006a FB60     		str	r3, [r7, #12]
2362:.\Generated_Source\PSoC4/CyLib.c ****     value |= ((uint32)priority << shift);
 3410              		.loc 2 2362 0
 3411 006c BB1D     		add	r3, r7, #6
 3412 006e 1A78     		ldrb	r2, [r3]
 3413 0070 7B69     		ldr	r3, [r7, #20]
 3414 0072 9A40     		lsl	r2, r2, r3
 3415 0074 131C     		mov	r3, r2
 3416 0076 FA68     		ldr	r2, [r7, #12]
 3417 0078 1343     		orr	r3, r2
 3418 007a FB60     		str	r3, [r7, #12]
2363:.\Generated_Source\PSoC4/CyLib.c ****     CY_INT_PRIORITY_REG(number) = value;
 3419              		.loc 2 2363 0
 3420 007c FB1D     		add	r3, r7, #7
 3421 007e 1B78     		ldrb	r3, [r3]
 3422 0080 9B08     		lsr	r3, r3, #2
 3423 0082 DBB2     		uxtb	r3, r3
 3424 0084 9B00     		lsl	r3, r3, #2
 3425 0086 074A     		ldr	r2, .L265
 3426 0088 9446     		mov	ip, r2
 3427 008a 6344     		add	r3, r3, ip
 3428 008c FA68     		ldr	r2, [r7, #12]
 3429 008e 1A60     		str	r2, [r3]
2364:.\Generated_Source\PSoC4/CyLib.c **** 
2365:.\Generated_Source\PSoC4/CyLib.c ****     CyExitCriticalSection(interruptState);
 3430              		.loc 2 2365 0
 3431 0090 1323     		mov	r3, #19
 3432 0092 FB18     		add	r3, r7, r3
 3433 0094 1B78     		ldrb	r3, [r3]
 3434 0096 181C     		mov	r0, r3
 3435 0098 FFF7FEFF 		bl	CyExitCriticalSection
2366:.\Generated_Source\PSoC4/CyLib.c **** }
 3436              		.loc 2 2366 0
 3437 009c BD46     		mov	sp, r7
 3438 009e 07B0     		add	sp, sp, #28
 3439              		@ sp needed
 3440 00a0 90BD     		pop	{r4, r7, pc}
 3441              	.L266:
 3442 00a2 C046     		.align	2
 3443              	.L265:
 3444 00a4 00E400E0 		.word	-536812544
 3445              		.cfi_endproc
 3446              	.LFE53:
 3447              		.size	CyIntSetPriority, .-CyIntSetPriority
 3448              		.section	.text.CyIntGetPriority,"ax",%progbits
 3449              		.align	2
 3450              		.global	CyIntGetPriority
 3451              		.code	16
 3452              		.thumb_func
 3453              		.type	CyIntGetPriority, %function
 3454              	CyIntGetPriority:
 3455              	.LFB54:
2367:.\Generated_Source\PSoC4/CyLib.c **** 
2368:.\Generated_Source\PSoC4/CyLib.c **** 
2369:.\Generated_Source\PSoC4/CyLib.c **** /*******************************************************************************
2370:.\Generated_Source\PSoC4/CyLib.c **** * Function Name: CyIntGetPriority
ARM GAS  C:\Users\CHRIST~1\AppData\Local\Temp\cc8KQrfd.s 			page 120


2371:.\Generated_Source\PSoC4/CyLib.c **** ********************************************************************************
2372:.\Generated_Source\PSoC4/CyLib.c **** *
2373:.\Generated_Source\PSoC4/CyLib.c **** * Summary:
2374:.\Generated_Source\PSoC4/CyLib.c **** *  Gets the priority of the interrupt.
2375:.\Generated_Source\PSoC4/CyLib.c **** *
2376:.\Generated_Source\PSoC4/CyLib.c **** * Parameters:
2377:.\Generated_Source\PSoC4/CyLib.c **** *  number: The number of the interrupt, 0 - 31.
2378:.\Generated_Source\PSoC4/CyLib.c **** *
2379:.\Generated_Source\PSoC4/CyLib.c **** * Return:
2380:.\Generated_Source\PSoC4/CyLib.c **** *  Priority of the interrupt. 0 - 3, 0 being the highest.
2381:.\Generated_Source\PSoC4/CyLib.c **** *
2382:.\Generated_Source\PSoC4/CyLib.c **** *******************************************************************************/
2383:.\Generated_Source\PSoC4/CyLib.c **** uint8 CyIntGetPriority(uint8 number)
2384:.\Generated_Source\PSoC4/CyLib.c **** {
 3456              		.loc 2 2384 0
 3457              		.cfi_startproc
 3458 0000 80B5     		push	{r7, lr}
 3459              		.cfi_def_cfa_offset 8
 3460              		.cfi_offset 7, -8
 3461              		.cfi_offset 14, -4
 3462 0002 84B0     		sub	sp, sp, #16
 3463              		.cfi_def_cfa_offset 24
 3464 0004 00AF     		add	r7, sp, #0
 3465              		.cfi_def_cfa_register 7
 3466 0006 021C     		mov	r2, r0
 3467 0008 FB1D     		add	r3, r7, #7
 3468 000a 1A70     		strb	r2, [r3]
2385:.\Generated_Source\PSoC4/CyLib.c ****     uint8 priority;
2386:.\Generated_Source\PSoC4/CyLib.c **** 
2387:.\Generated_Source\PSoC4/CyLib.c ****     CYASSERT(number < CY_NUM_INTERRUPTS);
 3469              		.loc 2 2387 0
 3470 000c FB1D     		add	r3, r7, #7
 3471 000e 1B78     		ldrb	r3, [r3]
 3472 0010 1F2B     		cmp	r3, #31
 3473 0012 02D9     		bls	.L268
 3474              		.loc 2 2387 0 is_stmt 0 discriminator 1
 3475 0014 0020     		mov	r0, #0
 3476 0016 FFF7FEFF 		bl	CyHalt
 3477              	.L268:
2388:.\Generated_Source\PSoC4/CyLib.c **** 
2389:.\Generated_Source\PSoC4/CyLib.c ****     priority = (uint8) (CY_INT_PRIORITY_REG(number) >> CY_INT_PRIORITY_SHIFT(number));
 3478              		.loc 2 2389 0 is_stmt 1
 3479 001a FB1D     		add	r3, r7, #7
 3480 001c 1B78     		ldrb	r3, [r3]
 3481 001e 9B08     		lsr	r3, r3, #2
 3482 0020 DBB2     		uxtb	r3, r3
 3483 0022 9B00     		lsl	r3, r3, #2
 3484 0024 0C4A     		ldr	r2, .L270
 3485 0026 9446     		mov	ip, r2
 3486 0028 6344     		add	r3, r3, ip
 3487 002a 1B68     		ldr	r3, [r3]
 3488 002c FA1D     		add	r2, r7, #7
 3489 002e 1278     		ldrb	r2, [r2]
 3490 0030 0321     		mov	r1, #3
 3491 0032 0A40     		and	r2, r1
 3492 0034 D200     		lsl	r2, r2, #3
 3493 0036 0632     		add	r2, r2, #6
ARM GAS  C:\Users\CHRIST~1\AppData\Local\Temp\cc8KQrfd.s 			page 121


 3494 0038 D340     		lsr	r3, r3, r2
 3495 003a 1A1C     		mov	r2, r3
 3496 003c 0F23     		mov	r3, #15
 3497 003e FB18     		add	r3, r7, r3
 3498 0040 1A70     		strb	r2, [r3]
2390:.\Generated_Source\PSoC4/CyLib.c **** 
2391:.\Generated_Source\PSoC4/CyLib.c ****     return (priority & (uint8) CY_INT_PRIORITY_MASK);
 3499              		.loc 2 2391 0
 3500 0042 0F23     		mov	r3, #15
 3501 0044 FB18     		add	r3, r7, r3
 3502 0046 1B78     		ldrb	r3, [r3]
 3503 0048 0322     		mov	r2, #3
 3504 004a 1340     		and	r3, r2
 3505 004c DBB2     		uxtb	r3, r3
2392:.\Generated_Source\PSoC4/CyLib.c **** }
 3506              		.loc 2 2392 0
 3507 004e 181C     		mov	r0, r3
 3508 0050 BD46     		mov	sp, r7
 3509 0052 04B0     		add	sp, sp, #16
 3510              		@ sp needed
 3511 0054 80BD     		pop	{r7, pc}
 3512              	.L271:
 3513 0056 C046     		.align	2
 3514              	.L270:
 3515 0058 00E400E0 		.word	-536812544
 3516              		.cfi_endproc
 3517              	.LFE54:
 3518              		.size	CyIntGetPriority, .-CyIntGetPriority
 3519              		.section	.text.CyIntEnable,"ax",%progbits
 3520              		.align	2
 3521              		.global	CyIntEnable
 3522              		.code	16
 3523              		.thumb_func
 3524              		.type	CyIntEnable, %function
 3525              	CyIntEnable:
 3526              	.LFB55:
2393:.\Generated_Source\PSoC4/CyLib.c **** 
2394:.\Generated_Source\PSoC4/CyLib.c **** 
2395:.\Generated_Source\PSoC4/CyLib.c **** /*******************************************************************************
2396:.\Generated_Source\PSoC4/CyLib.c **** * Function Name: CyIntEnable
2397:.\Generated_Source\PSoC4/CyLib.c **** ********************************************************************************
2398:.\Generated_Source\PSoC4/CyLib.c **** *
2399:.\Generated_Source\PSoC4/CyLib.c **** * Summary:
2400:.\Generated_Source\PSoC4/CyLib.c **** *  Enables the specified interrupt number.
2401:.\Generated_Source\PSoC4/CyLib.c **** *
2402:.\Generated_Source\PSoC4/CyLib.c **** * Parameters:
2403:.\Generated_Source\PSoC4/CyLib.c **** *  number: Valid range [0-31].  Interrupt number
2404:.\Generated_Source\PSoC4/CyLib.c **** *
2405:.\Generated_Source\PSoC4/CyLib.c **** * Return:
2406:.\Generated_Source\PSoC4/CyLib.c **** *  None
2407:.\Generated_Source\PSoC4/CyLib.c **** *
2408:.\Generated_Source\PSoC4/CyLib.c **** *******************************************************************************/
2409:.\Generated_Source\PSoC4/CyLib.c **** void CyIntEnable(uint8 number)
2410:.\Generated_Source\PSoC4/CyLib.c **** {
 3527              		.loc 2 2410 0
 3528              		.cfi_startproc
 3529 0000 80B5     		push	{r7, lr}
ARM GAS  C:\Users\CHRIST~1\AppData\Local\Temp\cc8KQrfd.s 			page 122


 3530              		.cfi_def_cfa_offset 8
 3531              		.cfi_offset 7, -8
 3532              		.cfi_offset 14, -4
 3533 0002 82B0     		sub	sp, sp, #8
 3534              		.cfi_def_cfa_offset 16
 3535 0004 00AF     		add	r7, sp, #0
 3536              		.cfi_def_cfa_register 7
 3537 0006 021C     		mov	r2, r0
 3538 0008 FB1D     		add	r3, r7, #7
 3539 000a 1A70     		strb	r2, [r3]
2411:.\Generated_Source\PSoC4/CyLib.c ****     CY_INT_ENABLE_REG = ((uint32) 0x01u << (CY_INT_ENABLE_RANGE_MASK & number));
 3540              		.loc 2 2411 0
 3541 000c 054B     		ldr	r3, .L273
 3542 000e FA1D     		add	r2, r7, #7
 3543 0010 1278     		ldrb	r2, [r2]
 3544 0012 1F21     		mov	r1, #31
 3545 0014 0A40     		and	r2, r1
 3546 0016 0121     		mov	r1, #1
 3547 0018 9140     		lsl	r1, r1, r2
 3548 001a 0A1C     		mov	r2, r1
 3549 001c 1A60     		str	r2, [r3]
2412:.\Generated_Source\PSoC4/CyLib.c **** }
 3550              		.loc 2 2412 0
 3551 001e BD46     		mov	sp, r7
 3552 0020 02B0     		add	sp, sp, #8
 3553              		@ sp needed
 3554 0022 80BD     		pop	{r7, pc}
 3555              	.L274:
 3556              		.align	2
 3557              	.L273:
 3558 0024 00E100E0 		.word	-536813312
 3559              		.cfi_endproc
 3560              	.LFE55:
 3561              		.size	CyIntEnable, .-CyIntEnable
 3562              		.section	.text.CyIntGetState,"ax",%progbits
 3563              		.align	2
 3564              		.global	CyIntGetState
 3565              		.code	16
 3566              		.thumb_func
 3567              		.type	CyIntGetState, %function
 3568              	CyIntGetState:
 3569              	.LFB56:
2413:.\Generated_Source\PSoC4/CyLib.c **** 
2414:.\Generated_Source\PSoC4/CyLib.c **** 
2415:.\Generated_Source\PSoC4/CyLib.c **** /*******************************************************************************
2416:.\Generated_Source\PSoC4/CyLib.c **** * Function Name: CyIntGetState
2417:.\Generated_Source\PSoC4/CyLib.c **** ********************************************************************************
2418:.\Generated_Source\PSoC4/CyLib.c **** *
2419:.\Generated_Source\PSoC4/CyLib.c **** * Summary:
2420:.\Generated_Source\PSoC4/CyLib.c **** *  Gets the enable state of the specified interrupt number.
2421:.\Generated_Source\PSoC4/CyLib.c **** *
2422:.\Generated_Source\PSoC4/CyLib.c **** * Parameters:
2423:.\Generated_Source\PSoC4/CyLib.c **** *  number: Valid range [0-31].  Interrupt number.
2424:.\Generated_Source\PSoC4/CyLib.c **** *
2425:.\Generated_Source\PSoC4/CyLib.c **** * Return:
2426:.\Generated_Source\PSoC4/CyLib.c **** *  Enable status: 1 if enabled, 0 if disabled
2427:.\Generated_Source\PSoC4/CyLib.c **** *
ARM GAS  C:\Users\CHRIST~1\AppData\Local\Temp\cc8KQrfd.s 			page 123


2428:.\Generated_Source\PSoC4/CyLib.c **** *******************************************************************************/
2429:.\Generated_Source\PSoC4/CyLib.c **** uint8 CyIntGetState(uint8 number)
2430:.\Generated_Source\PSoC4/CyLib.c **** {
 3570              		.loc 2 2430 0
 3571              		.cfi_startproc
 3572 0000 80B5     		push	{r7, lr}
 3573              		.cfi_def_cfa_offset 8
 3574              		.cfi_offset 7, -8
 3575              		.cfi_offset 14, -4
 3576 0002 82B0     		sub	sp, sp, #8
 3577              		.cfi_def_cfa_offset 16
 3578 0004 00AF     		add	r7, sp, #0
 3579              		.cfi_def_cfa_register 7
 3580 0006 021C     		mov	r2, r0
 3581 0008 FB1D     		add	r3, r7, #7
 3582 000a 1A70     		strb	r2, [r3]
2431:.\Generated_Source\PSoC4/CyLib.c ****     /* Get state of interrupt. */
2432:.\Generated_Source\PSoC4/CyLib.c ****     return ((0u != (CY_INT_ENABLE_REG & ((uint32) 0x01u << (CY_INT_ENABLE_RANGE_MASK & number)))) ?
 3583              		.loc 2 2432 0
 3584 000c 074B     		ldr	r3, .L277
 3585 000e 1A68     		ldr	r2, [r3]
 3586 0010 FB1D     		add	r3, r7, #7
 3587 0012 1B78     		ldrb	r3, [r3]
 3588 0014 1F21     		mov	r1, #31
 3589 0016 0B40     		and	r3, r1
 3590 0018 DA40     		lsr	r2, r2, r3
 3591 001a 131C     		mov	r3, r2
 3592 001c DBB2     		uxtb	r3, r3
 3593 001e 0122     		mov	r2, #1
 3594 0020 1340     		and	r3, r2
 3595 0022 DBB2     		uxtb	r3, r3
2433:.\Generated_Source\PSoC4/CyLib.c **** }
 3596              		.loc 2 2433 0
 3597 0024 181C     		mov	r0, r3
 3598 0026 BD46     		mov	sp, r7
 3599 0028 02B0     		add	sp, sp, #8
 3600              		@ sp needed
 3601 002a 80BD     		pop	{r7, pc}
 3602              	.L278:
 3603              		.align	2
 3604              	.L277:
 3605 002c 00E100E0 		.word	-536813312
 3606              		.cfi_endproc
 3607              	.LFE56:
 3608              		.size	CyIntGetState, .-CyIntGetState
 3609              		.section	.text.CyIntDisable,"ax",%progbits
 3610              		.align	2
 3611              		.global	CyIntDisable
 3612              		.code	16
 3613              		.thumb_func
 3614              		.type	CyIntDisable, %function
 3615              	CyIntDisable:
 3616              	.LFB57:
2434:.\Generated_Source\PSoC4/CyLib.c **** 
2435:.\Generated_Source\PSoC4/CyLib.c **** 
2436:.\Generated_Source\PSoC4/CyLib.c **** /*******************************************************************************
2437:.\Generated_Source\PSoC4/CyLib.c **** * Function Name: CyIntDisable
ARM GAS  C:\Users\CHRIST~1\AppData\Local\Temp\cc8KQrfd.s 			page 124


2438:.\Generated_Source\PSoC4/CyLib.c **** ********************************************************************************
2439:.\Generated_Source\PSoC4/CyLib.c **** *
2440:.\Generated_Source\PSoC4/CyLib.c **** * Summary:
2441:.\Generated_Source\PSoC4/CyLib.c **** *   Disables the specified interrupt number.
2442:.\Generated_Source\PSoC4/CyLib.c **** *
2443:.\Generated_Source\PSoC4/CyLib.c **** * Parameters:
2444:.\Generated_Source\PSoC4/CyLib.c **** *   number: Valid range [0-31].  Interrupt number.
2445:.\Generated_Source\PSoC4/CyLib.c **** *
2446:.\Generated_Source\PSoC4/CyLib.c **** * Return:
2447:.\Generated_Source\PSoC4/CyLib.c **** *  None
2448:.\Generated_Source\PSoC4/CyLib.c **** *
2449:.\Generated_Source\PSoC4/CyLib.c **** *******************************************************************************/
2450:.\Generated_Source\PSoC4/CyLib.c **** void CyIntDisable(uint8 number)
2451:.\Generated_Source\PSoC4/CyLib.c **** {
 3617              		.loc 2 2451 0
 3618              		.cfi_startproc
 3619 0000 80B5     		push	{r7, lr}
 3620              		.cfi_def_cfa_offset 8
 3621              		.cfi_offset 7, -8
 3622              		.cfi_offset 14, -4
 3623 0002 82B0     		sub	sp, sp, #8
 3624              		.cfi_def_cfa_offset 16
 3625 0004 00AF     		add	r7, sp, #0
 3626              		.cfi_def_cfa_register 7
 3627 0006 021C     		mov	r2, r0
 3628 0008 FB1D     		add	r3, r7, #7
 3629 000a 1A70     		strb	r2, [r3]
2452:.\Generated_Source\PSoC4/CyLib.c ****     CY_INT_CLEAR_REG = ((uint32) 0x01u << (CY_INT_ENABLE_RANGE_MASK & number));
 3630              		.loc 2 2452 0
 3631 000c 054B     		ldr	r3, .L280
 3632 000e FA1D     		add	r2, r7, #7
 3633 0010 1278     		ldrb	r2, [r2]
 3634 0012 1F21     		mov	r1, #31
 3635 0014 0A40     		and	r2, r1
 3636 0016 0121     		mov	r1, #1
 3637 0018 9140     		lsl	r1, r1, r2
 3638 001a 0A1C     		mov	r2, r1
 3639 001c 1A60     		str	r2, [r3]
2453:.\Generated_Source\PSoC4/CyLib.c **** }
 3640              		.loc 2 2453 0
 3641 001e BD46     		mov	sp, r7
 3642 0020 02B0     		add	sp, sp, #8
 3643              		@ sp needed
 3644 0022 80BD     		pop	{r7, pc}
 3645              	.L281:
 3646              		.align	2
 3647              	.L280:
 3648 0024 80E100E0 		.word	-536813184
 3649              		.cfi_endproc
 3650              	.LFE57:
 3651              		.size	CyIntDisable, .-CyIntDisable
 3652              		.section	.text.CyIntSetPending,"ax",%progbits
 3653              		.align	2
 3654              		.global	CyIntSetPending
 3655              		.code	16
 3656              		.thumb_func
 3657              		.type	CyIntSetPending, %function
ARM GAS  C:\Users\CHRIST~1\AppData\Local\Temp\cc8KQrfd.s 			page 125


 3658              	CyIntSetPending:
 3659              	.LFB58:
2454:.\Generated_Source\PSoC4/CyLib.c **** 
2455:.\Generated_Source\PSoC4/CyLib.c **** /*******************************************************************************
2456:.\Generated_Source\PSoC4/CyLib.c **** * Function Name: CyIntSetPending
2457:.\Generated_Source\PSoC4/CyLib.c **** ********************************************************************************
2458:.\Generated_Source\PSoC4/CyLib.c **** *
2459:.\Generated_Source\PSoC4/CyLib.c **** * Summary:
2460:.\Generated_Source\PSoC4/CyLib.c **** *  Forces the specified interrupt number to be pending.
2461:.\Generated_Source\PSoC4/CyLib.c **** *
2462:.\Generated_Source\PSoC4/CyLib.c **** * Parameters:
2463:.\Generated_Source\PSoC4/CyLib.c **** *  number: Valid range [0-31].  Interrupt number.
2464:.\Generated_Source\PSoC4/CyLib.c **** *
2465:.\Generated_Source\PSoC4/CyLib.c **** * Return:
2466:.\Generated_Source\PSoC4/CyLib.c **** *  None
2467:.\Generated_Source\PSoC4/CyLib.c **** *
2468:.\Generated_Source\PSoC4/CyLib.c **** *******************************************************************************/
2469:.\Generated_Source\PSoC4/CyLib.c **** void CyIntSetPending(uint8 number)
2470:.\Generated_Source\PSoC4/CyLib.c **** {
 3660              		.loc 2 2470 0
 3661              		.cfi_startproc
 3662 0000 80B5     		push	{r7, lr}
 3663              		.cfi_def_cfa_offset 8
 3664              		.cfi_offset 7, -8
 3665              		.cfi_offset 14, -4
 3666 0002 82B0     		sub	sp, sp, #8
 3667              		.cfi_def_cfa_offset 16
 3668 0004 00AF     		add	r7, sp, #0
 3669              		.cfi_def_cfa_register 7
 3670 0006 021C     		mov	r2, r0
 3671 0008 FB1D     		add	r3, r7, #7
 3672 000a 1A70     		strb	r2, [r3]
2471:.\Generated_Source\PSoC4/CyLib.c ****     CY_INT_SET_PEND_REG = ((uint32) 0x01u << (CY_INT_ENABLE_RANGE_MASK & number));
 3673              		.loc 2 2471 0
 3674 000c 054B     		ldr	r3, .L283
 3675 000e FA1D     		add	r2, r7, #7
 3676 0010 1278     		ldrb	r2, [r2]
 3677 0012 1F21     		mov	r1, #31
 3678 0014 0A40     		and	r2, r1
 3679 0016 0121     		mov	r1, #1
 3680 0018 9140     		lsl	r1, r1, r2
 3681 001a 0A1C     		mov	r2, r1
 3682 001c 1A60     		str	r2, [r3]
2472:.\Generated_Source\PSoC4/CyLib.c **** }
 3683              		.loc 2 2472 0
 3684 001e BD46     		mov	sp, r7
 3685 0020 02B0     		add	sp, sp, #8
 3686              		@ sp needed
 3687 0022 80BD     		pop	{r7, pc}
 3688              	.L284:
 3689              		.align	2
 3690              	.L283:
 3691 0024 00E200E0 		.word	-536813056
 3692              		.cfi_endproc
 3693              	.LFE58:
 3694              		.size	CyIntSetPending, .-CyIntSetPending
 3695              		.section	.text.CyIntClearPending,"ax",%progbits
ARM GAS  C:\Users\CHRIST~1\AppData\Local\Temp\cc8KQrfd.s 			page 126


 3696              		.align	2
 3697              		.global	CyIntClearPending
 3698              		.code	16
 3699              		.thumb_func
 3700              		.type	CyIntClearPending, %function
 3701              	CyIntClearPending:
 3702              	.LFB59:
2473:.\Generated_Source\PSoC4/CyLib.c **** 
2474:.\Generated_Source\PSoC4/CyLib.c **** 
2475:.\Generated_Source\PSoC4/CyLib.c **** /*******************************************************************************
2476:.\Generated_Source\PSoC4/CyLib.c **** * Function Name: CyIntClearPending
2477:.\Generated_Source\PSoC4/CyLib.c **** ********************************************************************************
2478:.\Generated_Source\PSoC4/CyLib.c **** *
2479:.\Generated_Source\PSoC4/CyLib.c **** * Summary:
2480:.\Generated_Source\PSoC4/CyLib.c **** *  Clears any pending interrupt for the specified interrupt number.
2481:.\Generated_Source\PSoC4/CyLib.c **** *
2482:.\Generated_Source\PSoC4/CyLib.c **** * Parameters:
2483:.\Generated_Source\PSoC4/CyLib.c **** *  number: Valid range [0-31].  Interrupt number.
2484:.\Generated_Source\PSoC4/CyLib.c **** *
2485:.\Generated_Source\PSoC4/CyLib.c **** * Return:
2486:.\Generated_Source\PSoC4/CyLib.c **** *  None
2487:.\Generated_Source\PSoC4/CyLib.c **** *
2488:.\Generated_Source\PSoC4/CyLib.c **** *******************************************************************************/
2489:.\Generated_Source\PSoC4/CyLib.c **** void CyIntClearPending(uint8 number)
2490:.\Generated_Source\PSoC4/CyLib.c **** {
 3703              		.loc 2 2490 0
 3704              		.cfi_startproc
 3705 0000 80B5     		push	{r7, lr}
 3706              		.cfi_def_cfa_offset 8
 3707              		.cfi_offset 7, -8
 3708              		.cfi_offset 14, -4
 3709 0002 82B0     		sub	sp, sp, #8
 3710              		.cfi_def_cfa_offset 16
 3711 0004 00AF     		add	r7, sp, #0
 3712              		.cfi_def_cfa_register 7
 3713 0006 021C     		mov	r2, r0
 3714 0008 FB1D     		add	r3, r7, #7
 3715 000a 1A70     		strb	r2, [r3]
2491:.\Generated_Source\PSoC4/CyLib.c ****     CY_INT_CLR_PEND_REG = ((uint32) 0x01u << (CY_INT_ENABLE_RANGE_MASK & number));
 3716              		.loc 2 2491 0
 3717 000c 054B     		ldr	r3, .L286
 3718 000e FA1D     		add	r2, r7, #7
 3719 0010 1278     		ldrb	r2, [r2]
 3720 0012 1F21     		mov	r1, #31
 3721 0014 0A40     		and	r2, r1
 3722 0016 0121     		mov	r1, #1
 3723 0018 9140     		lsl	r1, r1, r2
 3724 001a 0A1C     		mov	r2, r1
 3725 001c 1A60     		str	r2, [r3]
2492:.\Generated_Source\PSoC4/CyLib.c **** }
 3726              		.loc 2 2492 0
 3727 001e BD46     		mov	sp, r7
 3728 0020 02B0     		add	sp, sp, #8
 3729              		@ sp needed
 3730 0022 80BD     		pop	{r7, pc}
 3731              	.L287:
 3732              		.align	2
ARM GAS  C:\Users\CHRIST~1\AppData\Local\Temp\cc8KQrfd.s 			page 127


 3733              	.L286:
 3734 0024 80E200E0 		.word	-536812928
 3735              		.cfi_endproc
 3736              	.LFE59:
 3737              		.size	CyIntClearPending, .-CyIntClearPending
 3738              		.section	.text.CyHalt,"ax",%progbits
 3739              		.align	2
 3740              		.global	CyHalt
 3741              		.code	16
 3742              		.thumb_func
 3743              		.type	CyHalt, %function
 3744              	CyHalt:
 3745              	.LFB60:
2493:.\Generated_Source\PSoC4/CyLib.c **** 
2494:.\Generated_Source\PSoC4/CyLib.c **** 
2495:.\Generated_Source\PSoC4/CyLib.c **** /*******************************************************************************
2496:.\Generated_Source\PSoC4/CyLib.c **** * Function Name: CyHalt
2497:.\Generated_Source\PSoC4/CyLib.c **** ********************************************************************************
2498:.\Generated_Source\PSoC4/CyLib.c **** *
2499:.\Generated_Source\PSoC4/CyLib.c **** * Summary:
2500:.\Generated_Source\PSoC4/CyLib.c **** *  Halts the CPU.
2501:.\Generated_Source\PSoC4/CyLib.c **** *
2502:.\Generated_Source\PSoC4/CyLib.c **** * Parameters:
2503:.\Generated_Source\PSoC4/CyLib.c **** *  reason: Value to be used during debugging.
2504:.\Generated_Source\PSoC4/CyLib.c **** *
2505:.\Generated_Source\PSoC4/CyLib.c **** * Return:
2506:.\Generated_Source\PSoC4/CyLib.c **** *  None
2507:.\Generated_Source\PSoC4/CyLib.c **** *
2508:.\Generated_Source\PSoC4/CyLib.c **** *******************************************************************************/
2509:.\Generated_Source\PSoC4/CyLib.c **** void CyHalt(uint8 reason)
2510:.\Generated_Source\PSoC4/CyLib.c **** {
 3746              		.loc 2 2510 0
 3747              		.cfi_startproc
 3748 0000 80B5     		push	{r7, lr}
 3749              		.cfi_def_cfa_offset 8
 3750              		.cfi_offset 7, -8
 3751              		.cfi_offset 14, -4
 3752 0002 82B0     		sub	sp, sp, #8
 3753              		.cfi_def_cfa_offset 16
 3754 0004 00AF     		add	r7, sp, #0
 3755              		.cfi_def_cfa_register 7
 3756 0006 021C     		mov	r2, r0
 3757 0008 FB1D     		add	r3, r7, #7
 3758 000a 1A70     		strb	r2, [r3]
2511:.\Generated_Source\PSoC4/CyLib.c ****     if(0u != reason)
2512:.\Generated_Source\PSoC4/CyLib.c ****     {
2513:.\Generated_Source\PSoC4/CyLib.c ****         /* To remove unreferenced local variable warning */
2514:.\Generated_Source\PSoC4/CyLib.c ****     }
2515:.\Generated_Source\PSoC4/CyLib.c **** 
2516:.\Generated_Source\PSoC4/CyLib.c ****     #if defined (__ARMCC_VERSION)
2517:.\Generated_Source\PSoC4/CyLib.c ****         __breakpoint(0x0);
2518:.\Generated_Source\PSoC4/CyLib.c ****     #elif defined(__GNUC__) || defined (__ICCARM__)
2519:.\Generated_Source\PSoC4/CyLib.c ****         __asm("    bkpt    1");
 3759              		.loc 2 2519 0
 3760              	@ 2519 ".\Generated_Source\PSoC4\CyLib.c" 1
 3761 000c 01BE     		    bkpt    1
 3762              	@ 0 "" 2
ARM GAS  C:\Users\CHRIST~1\AppData\Local\Temp\cc8KQrfd.s 			page 128


2520:.\Generated_Source\PSoC4/CyLib.c ****     #elif defined(__C51__)
2521:.\Generated_Source\PSoC4/CyLib.c ****         CYDEV_HALT_CPU;
2522:.\Generated_Source\PSoC4/CyLib.c ****     #endif  /* (__ARMCC_VERSION) */
2523:.\Generated_Source\PSoC4/CyLib.c **** }
 3763              		.loc 2 2523 0
 3764              		.code	16
 3765 000e BD46     		mov	sp, r7
 3766 0010 02B0     		add	sp, sp, #8
 3767              		@ sp needed
 3768 0012 80BD     		pop	{r7, pc}
 3769              		.cfi_endproc
 3770              	.LFE60:
 3771              		.size	CyHalt, .-CyHalt
 3772              		.section	.text.CySoftwareReset,"ax",%progbits
 3773              		.align	2
 3774              		.global	CySoftwareReset
 3775              		.code	16
 3776              		.thumb_func
 3777              		.type	CySoftwareReset, %function
 3778              	CySoftwareReset:
 3779              	.LFB61:
2524:.\Generated_Source\PSoC4/CyLib.c **** 
2525:.\Generated_Source\PSoC4/CyLib.c **** 
2526:.\Generated_Source\PSoC4/CyLib.c **** /*******************************************************************************
2527:.\Generated_Source\PSoC4/CyLib.c **** * Function Name: CySoftwareReset
2528:.\Generated_Source\PSoC4/CyLib.c **** ********************************************************************************
2529:.\Generated_Source\PSoC4/CyLib.c **** *
2530:.\Generated_Source\PSoC4/CyLib.c **** * Summary:
2531:.\Generated_Source\PSoC4/CyLib.c **** *  Forces a software reset of the device.
2532:.\Generated_Source\PSoC4/CyLib.c **** *
2533:.\Generated_Source\PSoC4/CyLib.c **** * Parameters:
2534:.\Generated_Source\PSoC4/CyLib.c **** *  None
2535:.\Generated_Source\PSoC4/CyLib.c **** *
2536:.\Generated_Source\PSoC4/CyLib.c **** * Return:
2537:.\Generated_Source\PSoC4/CyLib.c **** *  None
2538:.\Generated_Source\PSoC4/CyLib.c **** *
2539:.\Generated_Source\PSoC4/CyLib.c **** *******************************************************************************/
2540:.\Generated_Source\PSoC4/CyLib.c **** void CySoftwareReset(void)
2541:.\Generated_Source\PSoC4/CyLib.c **** {
 3780              		.loc 2 2541 0
 3781              		.cfi_startproc
 3782 0000 80B5     		push	{r7, lr}
 3783              		.cfi_def_cfa_offset 8
 3784              		.cfi_offset 7, -8
 3785              		.cfi_offset 14, -4
 3786 0002 00AF     		add	r7, sp, #0
 3787              		.cfi_def_cfa_register 7
2542:.\Generated_Source\PSoC4/CyLib.c ****     /***************************************************************************
2543:.\Generated_Source\PSoC4/CyLib.c ****     * Setting the system reset request bit. The vector key value must be written
2544:.\Generated_Source\PSoC4/CyLib.c ****     * to the register, otherwise the register write is unpredictable.
2545:.\Generated_Source\PSoC4/CyLib.c ****     ***************************************************************************/
2546:.\Generated_Source\PSoC4/CyLib.c ****     CY_SYS_CM0_AIRCR_REG = (CY_SYS_CM0_AIRCR_REG & (uint32)(~CY_SYS_CM0_AIRCR_VECTKEY_MASK)) |
 3788              		.loc 2 2546 0
 3789 0004 044B     		ldr	r3, .L290
 3790 0006 044A     		ldr	r2, .L290
 3791 0008 1268     		ldr	r2, [r2]
 3792 000a 1204     		lsl	r2, r2, #16
ARM GAS  C:\Users\CHRIST~1\AppData\Local\Temp\cc8KQrfd.s 			page 129


 3793 000c 120C     		lsr	r2, r2, #16
2547:.\Generated_Source\PSoC4/CyLib.c ****                             CY_SYS_CM0_AIRCR_VECTKEY | CY_SYS_CM0_AIRCR_SYSRESETREQ;
 3794              		.loc 2 2547 0
 3795 000e 0349     		ldr	r1, .L290+4
 3796 0010 0A43     		orr	r2, r1
2546:.\Generated_Source\PSoC4/CyLib.c ****                             CY_SYS_CM0_AIRCR_VECTKEY | CY_SYS_CM0_AIRCR_SYSRESETREQ;
 3797              		.loc 2 2546 0
 3798 0012 1A60     		str	r2, [r3]
2548:.\Generated_Source\PSoC4/CyLib.c **** }
 3799              		.loc 2 2548 0
 3800 0014 BD46     		mov	sp, r7
 3801              		@ sp needed
 3802 0016 80BD     		pop	{r7, pc}
 3803              	.L291:
 3804              		.align	2
 3805              	.L290:
 3806 0018 0CED00E0 		.word	-536810228
 3807 001c 0400FA05 		.word	100270084
 3808              		.cfi_endproc
 3809              	.LFE61:
 3810              		.size	CySoftwareReset, .-CySoftwareReset
 3811              		.section	.text.CyDelay,"ax",%progbits
 3812              		.align	2
 3813              		.global	CyDelay
 3814              		.code	16
 3815              		.thumb_func
 3816              		.type	CyDelay, %function
 3817              	CyDelay:
 3818              	.LFB62:
2549:.\Generated_Source\PSoC4/CyLib.c **** 
2550:.\Generated_Source\PSoC4/CyLib.c **** 
2551:.\Generated_Source\PSoC4/CyLib.c **** /*******************************************************************************
2552:.\Generated_Source\PSoC4/CyLib.c **** * Function Name: CyDelay
2553:.\Generated_Source\PSoC4/CyLib.c **** ********************************************************************************
2554:.\Generated_Source\PSoC4/CyLib.c **** *
2555:.\Generated_Source\PSoC4/CyLib.c **** * Summary:
2556:.\Generated_Source\PSoC4/CyLib.c **** *  Blocks for milliseconds.
2557:.\Generated_Source\PSoC4/CyLib.c **** *
2558:.\Generated_Source\PSoC4/CyLib.c **** * Parameters:
2559:.\Generated_Source\PSoC4/CyLib.c **** *  milliseconds: number of milliseconds to delay.
2560:.\Generated_Source\PSoC4/CyLib.c **** *
2561:.\Generated_Source\PSoC4/CyLib.c **** * Return:
2562:.\Generated_Source\PSoC4/CyLib.c **** *  None
2563:.\Generated_Source\PSoC4/CyLib.c **** *
2564:.\Generated_Source\PSoC4/CyLib.c **** *******************************************************************************/
2565:.\Generated_Source\PSoC4/CyLib.c **** void CyDelay(uint32 milliseconds)
2566:.\Generated_Source\PSoC4/CyLib.c **** {
 3819              		.loc 2 2566 0
 3820              		.cfi_startproc
 3821 0000 80B5     		push	{r7, lr}
 3822              		.cfi_def_cfa_offset 8
 3823              		.cfi_offset 7, -8
 3824              		.cfi_offset 14, -4
 3825 0002 82B0     		sub	sp, sp, #8
 3826              		.cfi_def_cfa_offset 16
 3827 0004 00AF     		add	r7, sp, #0
 3828              		.cfi_def_cfa_register 7
ARM GAS  C:\Users\CHRIST~1\AppData\Local\Temp\cc8KQrfd.s 			page 130


 3829 0006 7860     		str	r0, [r7, #4]
2567:.\Generated_Source\PSoC4/CyLib.c ****     while (milliseconds > CY_DELAY_MS_OVERFLOW)
 3830              		.loc 2 2567 0
 3831 0008 09E0     		b	.L293
 3832              	.L294:
2568:.\Generated_Source\PSoC4/CyLib.c ****     {
2569:.\Generated_Source\PSoC4/CyLib.c ****         /* This loop prevents overflow.
2570:.\Generated_Source\PSoC4/CyLib.c ****          * At 100MHz, milliseconds * cydelayFreqKhz overflows at about 42 seconds
2571:.\Generated_Source\PSoC4/CyLib.c ****          */
2572:.\Generated_Source\PSoC4/CyLib.c ****         CyDelayCycles(cydelay32kMs);
 3833              		.loc 2 2572 0
 3834 000a 0C4B     		ldr	r3, .L295
 3835 000c 1B68     		ldr	r3, [r3]
 3836 000e 181C     		mov	r0, r3
 3837 0010 FFF7FEFF 		bl	CyDelayCycles
2573:.\Generated_Source\PSoC4/CyLib.c ****         milliseconds -= CY_DELAY_MS_OVERFLOW;
 3838              		.loc 2 2573 0
 3839 0014 7B68     		ldr	r3, [r7, #4]
 3840 0016 0A4A     		ldr	r2, .L295+4
 3841 0018 9446     		mov	ip, r2
 3842 001a 6344     		add	r3, r3, ip
 3843 001c 7B60     		str	r3, [r7, #4]
 3844              	.L293:
2567:.\Generated_Source\PSoC4/CyLib.c ****     while (milliseconds > CY_DELAY_MS_OVERFLOW)
 3845              		.loc 2 2567 0
 3846 001e 7A68     		ldr	r2, [r7, #4]
 3847 0020 8023     		mov	r3, #128
 3848 0022 1B02     		lsl	r3, r3, #8
 3849 0024 9A42     		cmp	r2, r3
 3850 0026 F0D8     		bhi	.L294
2574:.\Generated_Source\PSoC4/CyLib.c ****     }
2575:.\Generated_Source\PSoC4/CyLib.c **** 
2576:.\Generated_Source\PSoC4/CyLib.c ****     CyDelayCycles(milliseconds * cydelayFreqKhz);
 3851              		.loc 2 2576 0
 3852 0028 064B     		ldr	r3, .L295+8
 3853 002a 1B68     		ldr	r3, [r3]
 3854 002c 7A68     		ldr	r2, [r7, #4]
 3855 002e 5343     		mul	r3, r2
 3856 0030 181C     		mov	r0, r3
 3857 0032 FFF7FEFF 		bl	CyDelayCycles
2577:.\Generated_Source\PSoC4/CyLib.c **** }
 3858              		.loc 2 2577 0
 3859 0036 BD46     		mov	sp, r7
 3860 0038 02B0     		add	sp, sp, #8
 3861              		@ sp needed
 3862 003a 80BD     		pop	{r7, pc}
 3863              	.L296:
 3864              		.align	2
 3865              	.L295:
 3866 003c 00000000 		.word	cydelay32kMs
 3867 0040 0080FFFF 		.word	-32768
 3868 0044 00000000 		.word	cydelayFreqKhz
 3869              		.cfi_endproc
 3870              	.LFE62:
 3871              		.size	CyDelay, .-CyDelay
 3872              		.section	.text.CyDelayUs,"ax",%progbits
 3873              		.align	2
ARM GAS  C:\Users\CHRIST~1\AppData\Local\Temp\cc8KQrfd.s 			page 131


 3874              		.global	CyDelayUs
 3875              		.code	16
 3876              		.thumb_func
 3877              		.type	CyDelayUs, %function
 3878              	CyDelayUs:
 3879              	.LFB63:
2578:.\Generated_Source\PSoC4/CyLib.c **** 
2579:.\Generated_Source\PSoC4/CyLib.c **** 
2580:.\Generated_Source\PSoC4/CyLib.c **** /*******************************************************************************
2581:.\Generated_Source\PSoC4/CyLib.c **** * Function Name: CyDelayUs
2582:.\Generated_Source\PSoC4/CyLib.c **** ********************************************************************************
2583:.\Generated_Source\PSoC4/CyLib.c **** * Summary:
2584:.\Generated_Source\PSoC4/CyLib.c **** *  Blocks for microseconds.
2585:.\Generated_Source\PSoC4/CyLib.c **** *
2586:.\Generated_Source\PSoC4/CyLib.c **** * Parameters:
2587:.\Generated_Source\PSoC4/CyLib.c **** *  microseconds: number of microseconds to delay.
2588:.\Generated_Source\PSoC4/CyLib.c **** *
2589:.\Generated_Source\PSoC4/CyLib.c **** * Return:
2590:.\Generated_Source\PSoC4/CyLib.c **** *  None
2591:.\Generated_Source\PSoC4/CyLib.c **** *
2592:.\Generated_Source\PSoC4/CyLib.c **** *******************************************************************************/
2593:.\Generated_Source\PSoC4/CyLib.c **** void CyDelayUs(uint16 microseconds)
2594:.\Generated_Source\PSoC4/CyLib.c **** {
 3880              		.loc 2 2594 0
 3881              		.cfi_startproc
 3882 0000 80B5     		push	{r7, lr}
 3883              		.cfi_def_cfa_offset 8
 3884              		.cfi_offset 7, -8
 3885              		.cfi_offset 14, -4
 3886 0002 82B0     		sub	sp, sp, #8
 3887              		.cfi_def_cfa_offset 16
 3888 0004 00AF     		add	r7, sp, #0
 3889              		.cfi_def_cfa_register 7
 3890 0006 021C     		mov	r2, r0
 3891 0008 BB1D     		add	r3, r7, #6
 3892 000a 1A80     		strh	r2, [r3]
2595:.\Generated_Source\PSoC4/CyLib.c ****     CyDelayCycles((uint32)microseconds * cydelayFreqMhz);
 3893              		.loc 2 2595 0
 3894 000c BB1D     		add	r3, r7, #6
 3895 000e 1B88     		ldrh	r3, [r3]
 3896 0010 044A     		ldr	r2, .L298
 3897 0012 1278     		ldrb	r2, [r2]
 3898 0014 5343     		mul	r3, r2
 3899 0016 181C     		mov	r0, r3
 3900 0018 FFF7FEFF 		bl	CyDelayCycles
2596:.\Generated_Source\PSoC4/CyLib.c **** }
 3901              		.loc 2 2596 0
 3902 001c BD46     		mov	sp, r7
 3903 001e 02B0     		add	sp, sp, #8
 3904              		@ sp needed
 3905 0020 80BD     		pop	{r7, pc}
 3906              	.L299:
 3907 0022 C046     		.align	2
 3908              	.L298:
 3909 0024 00000000 		.word	cydelayFreqMhz
 3910              		.cfi_endproc
 3911              	.LFE63:
ARM GAS  C:\Users\CHRIST~1\AppData\Local\Temp\cc8KQrfd.s 			page 132


 3912              		.size	CyDelayUs, .-CyDelayUs
 3913              		.global	__aeabi_uidiv
 3914              		.section	.text.CyDelayFreq,"ax",%progbits
 3915              		.align	2
 3916              		.global	CyDelayFreq
 3917              		.code	16
 3918              		.thumb_func
 3919              		.type	CyDelayFreq, %function
 3920              	CyDelayFreq:
 3921              	.LFB64:
2597:.\Generated_Source\PSoC4/CyLib.c **** 
2598:.\Generated_Source\PSoC4/CyLib.c **** 
2599:.\Generated_Source\PSoC4/CyLib.c **** /*******************************************************************************
2600:.\Generated_Source\PSoC4/CyLib.c **** * Function Name: CyDelayFreq
2601:.\Generated_Source\PSoC4/CyLib.c **** ********************************************************************************
2602:.\Generated_Source\PSoC4/CyLib.c **** * Summary:
2603:.\Generated_Source\PSoC4/CyLib.c **** *  Sets clock frequency for CyDelay.
2604:.\Generated_Source\PSoC4/CyLib.c **** *
2605:.\Generated_Source\PSoC4/CyLib.c **** * Parameters:
2606:.\Generated_Source\PSoC4/CyLib.c **** *  freq: Frequency of bus clock in Hertz.
2607:.\Generated_Source\PSoC4/CyLib.c **** *
2608:.\Generated_Source\PSoC4/CyLib.c **** * Return:
2609:.\Generated_Source\PSoC4/CyLib.c **** *  None
2610:.\Generated_Source\PSoC4/CyLib.c **** *
2611:.\Generated_Source\PSoC4/CyLib.c **** *******************************************************************************/
2612:.\Generated_Source\PSoC4/CyLib.c **** void CyDelayFreq(uint32 freq)
2613:.\Generated_Source\PSoC4/CyLib.c **** {
 3922              		.loc 2 2613 0
 3923              		.cfi_startproc
 3924 0000 80B5     		push	{r7, lr}
 3925              		.cfi_def_cfa_offset 8
 3926              		.cfi_offset 7, -8
 3927              		.cfi_offset 14, -4
 3928 0002 82B0     		sub	sp, sp, #8
 3929              		.cfi_def_cfa_offset 16
 3930 0004 00AF     		add	r7, sp, #0
 3931              		.cfi_def_cfa_register 7
 3932 0006 7860     		str	r0, [r7, #4]
2614:.\Generated_Source\PSoC4/CyLib.c ****     if (freq != 0u)
 3933              		.loc 2 2614 0
 3934 0008 7B68     		ldr	r3, [r7, #4]
 3935 000a 002B     		cmp	r3, #0
 3936 000c 03D0     		beq	.L301
2615:.\Generated_Source\PSoC4/CyLib.c ****     {
2616:.\Generated_Source\PSoC4/CyLib.c ****         cydelayFreqHz = freq;
 3937              		.loc 2 2616 0
 3938 000e 154B     		ldr	r3, .L303
 3939 0010 7A68     		ldr	r2, [r7, #4]
 3940 0012 1A60     		str	r2, [r3]
 3941 0014 02E0     		b	.L302
 3942              	.L301:
2617:.\Generated_Source\PSoC4/CyLib.c ****     }
2618:.\Generated_Source\PSoC4/CyLib.c ****     else
2619:.\Generated_Source\PSoC4/CyLib.c ****     {
2620:.\Generated_Source\PSoC4/CyLib.c ****         cydelayFreqHz = CYDEV_BCLK__SYSCLK__HZ;
 3943              		.loc 2 2620 0
 3944 0016 134B     		ldr	r3, .L303
ARM GAS  C:\Users\CHRIST~1\AppData\Local\Temp\cc8KQrfd.s 			page 133


 3945 0018 134A     		ldr	r2, .L303+4
 3946 001a 1A60     		str	r2, [r3]
 3947              	.L302:
2621:.\Generated_Source\PSoC4/CyLib.c ****     }
2622:.\Generated_Source\PSoC4/CyLib.c **** 
2623:.\Generated_Source\PSoC4/CyLib.c ****     cydelayFreqMhz = (uint8)((cydelayFreqHz + CY_DELAY_1M_MINUS_1_THRESHOLD) / CY_DELAY_1M_THRESHOL
 3948              		.loc 2 2623 0
 3949 001c 114B     		ldr	r3, .L303
 3950 001e 1B68     		ldr	r3, [r3]
 3951 0020 124A     		ldr	r2, .L303+8
 3952 0022 9446     		mov	ip, r2
 3953 0024 6344     		add	r3, r3, ip
 3954 0026 181C     		mov	r0, r3
 3955 0028 1149     		ldr	r1, .L303+12
 3956 002a FFF7FEFF 		bl	__aeabi_uidiv
 3957 002e 031C     		mov	r3, r0
 3958 0030 DAB2     		uxtb	r2, r3
 3959 0032 104B     		ldr	r3, .L303+16
 3960 0034 1A70     		strb	r2, [r3]
2624:.\Generated_Source\PSoC4/CyLib.c ****     cydelayFreqKhz = (cydelayFreqHz + CY_DELAY_1K_MINUS_1_THRESHOLD) / CY_DELAY_1K_THRESHOLD;
 3961              		.loc 2 2624 0
 3962 0036 0B4B     		ldr	r3, .L303
 3963 0038 1B68     		ldr	r3, [r3]
 3964 003a 0F4A     		ldr	r2, .L303+20
 3965 003c 9446     		mov	ip, r2
 3966 003e 6344     		add	r3, r3, ip
 3967 0040 181C     		mov	r0, r3
 3968 0042 FA23     		mov	r3, #250
 3969 0044 9900     		lsl	r1, r3, #2
 3970 0046 FFF7FEFF 		bl	__aeabi_uidiv
 3971 004a 031C     		mov	r3, r0
 3972 004c 1A1C     		mov	r2, r3
 3973 004e 0B4B     		ldr	r3, .L303+24
 3974 0050 1A60     		str	r2, [r3]
2625:.\Generated_Source\PSoC4/CyLib.c ****     cydelay32kMs   = CY_DELAY_MS_OVERFLOW * cydelayFreqKhz;
 3975              		.loc 2 2625 0
 3976 0052 0A4B     		ldr	r3, .L303+24
 3977 0054 1B68     		ldr	r3, [r3]
 3978 0056 DA03     		lsl	r2, r3, #15
 3979 0058 094B     		ldr	r3, .L303+28
 3980 005a 1A60     		str	r2, [r3]
2626:.\Generated_Source\PSoC4/CyLib.c **** }
 3981              		.loc 2 2626 0
 3982 005c BD46     		mov	sp, r7
 3983 005e 02B0     		add	sp, sp, #8
 3984              		@ sp needed
 3985 0060 80BD     		pop	{r7, pc}
 3986              	.L304:
 3987 0062 C046     		.align	2
 3988              	.L303:
 3989 0064 00000000 		.word	cydelayFreqHz
 3990 0068 00366E01 		.word	24000000
 3991 006c 3F420F00 		.word	999999
 3992 0070 40420F00 		.word	1000000
 3993 0074 00000000 		.word	cydelayFreqMhz
 3994 0078 E7030000 		.word	999
 3995 007c 00000000 		.word	cydelayFreqKhz
ARM GAS  C:\Users\CHRIST~1\AppData\Local\Temp\cc8KQrfd.s 			page 134


 3996 0080 00000000 		.word	cydelay32kMs
 3997              		.cfi_endproc
 3998              	.LFE64:
 3999              		.size	CyDelayFreq, .-CyDelayFreq
 4000              		.section	.text.CySysTickStart,"ax",%progbits
 4001              		.align	2
 4002              		.global	CySysTickStart
 4003              		.code	16
 4004              		.thumb_func
 4005              		.type	CySysTickStart, %function
 4006              	CySysTickStart:
 4007              	.LFB65:
2627:.\Generated_Source\PSoC4/CyLib.c **** 
2628:.\Generated_Source\PSoC4/CyLib.c **** 
2629:.\Generated_Source\PSoC4/CyLib.c **** /*******************************************************************************
2630:.\Generated_Source\PSoC4/CyLib.c **** * Function Name: CySysTick_Start
2631:.\Generated_Source\PSoC4/CyLib.c **** ********************************************************************************
2632:.\Generated_Source\PSoC4/CyLib.c **** *
2633:.\Generated_Source\PSoC4/CyLib.c **** * Summary:
2634:.\Generated_Source\PSoC4/CyLib.c **** *  Starts the system timer (SysTick): configures SysTick to generate interrupt
2635:.\Generated_Source\PSoC4/CyLib.c **** *  every 1 ms and enables the interrupt.
2636:.\Generated_Source\PSoC4/CyLib.c **** *
2637:.\Generated_Source\PSoC4/CyLib.c **** * Parameters:
2638:.\Generated_Source\PSoC4/CyLib.c **** *  None
2639:.\Generated_Source\PSoC4/CyLib.c **** *
2640:.\Generated_Source\PSoC4/CyLib.c **** * Return:
2641:.\Generated_Source\PSoC4/CyLib.c **** *  None
2642:.\Generated_Source\PSoC4/CyLib.c **** *
2643:.\Generated_Source\PSoC4/CyLib.c **** * Side Effects:
2644:.\Generated_Source\PSoC4/CyLib.c **** *  Clears SysTick count flag if it was set.
2645:.\Generated_Source\PSoC4/CyLib.c **** *
2646:.\Generated_Source\PSoC4/CyLib.c **** *******************************************************************************/
2647:.\Generated_Source\PSoC4/CyLib.c **** void CySysTickStart(void)
2648:.\Generated_Source\PSoC4/CyLib.c **** {
 4008              		.loc 2 2648 0
 4009              		.cfi_startproc
 4010 0000 80B5     		push	{r7, lr}
 4011              		.cfi_def_cfa_offset 8
 4012              		.cfi_offset 7, -8
 4013              		.cfi_offset 14, -4
 4014 0002 00AF     		add	r7, sp, #0
 4015              		.cfi_def_cfa_register 7
2649:.\Generated_Source\PSoC4/CyLib.c ****     if (0u == CySysTickInitVar)
 4016              		.loc 2 2649 0
 4017 0004 064B     		ldr	r3, .L307
 4018 0006 1B68     		ldr	r3, [r3]
 4019 0008 002B     		cmp	r3, #0
 4020 000a 04D1     		bne	.L306
2650:.\Generated_Source\PSoC4/CyLib.c ****     {
2651:.\Generated_Source\PSoC4/CyLib.c ****         CySysTickInit();
 4021              		.loc 2 2651 0
 4022 000c FFF7FEFF 		bl	CySysTickInit
2652:.\Generated_Source\PSoC4/CyLib.c ****         CySysTickInitVar = 1u;
 4023              		.loc 2 2652 0
 4024 0010 034B     		ldr	r3, .L307
 4025 0012 0122     		mov	r2, #1
 4026 0014 1A60     		str	r2, [r3]
ARM GAS  C:\Users\CHRIST~1\AppData\Local\Temp\cc8KQrfd.s 			page 135


 4027              	.L306:
2653:.\Generated_Source\PSoC4/CyLib.c ****     }
2654:.\Generated_Source\PSoC4/CyLib.c **** 
2655:.\Generated_Source\PSoC4/CyLib.c ****     CySysTickEnable();
 4028              		.loc 2 2655 0
 4029 0016 FFF7FEFF 		bl	CySysTickEnable
2656:.\Generated_Source\PSoC4/CyLib.c **** }
 4030              		.loc 2 2656 0
 4031 001a BD46     		mov	sp, r7
 4032              		@ sp needed
 4033 001c 80BD     		pop	{r7, pc}
 4034              	.L308:
 4035 001e C046     		.align	2
 4036              	.L307:
 4037 0020 00000000 		.word	CySysTickInitVar
 4038              		.cfi_endproc
 4039              	.LFE65:
 4040              		.size	CySysTickStart, .-CySysTickStart
 4041              		.section	.text.CySysTickInit,"ax",%progbits
 4042              		.align	2
 4043              		.global	CySysTickInit
 4044              		.code	16
 4045              		.thumb_func
 4046              		.type	CySysTickInit, %function
 4047              	CySysTickInit:
 4048              	.LFB66:
2657:.\Generated_Source\PSoC4/CyLib.c **** 
2658:.\Generated_Source\PSoC4/CyLib.c **** 
2659:.\Generated_Source\PSoC4/CyLib.c **** /*******************************************************************************
2660:.\Generated_Source\PSoC4/CyLib.c **** * Function Name: CySysTickInit
2661:.\Generated_Source\PSoC4/CyLib.c **** ********************************************************************************
2662:.\Generated_Source\PSoC4/CyLib.c **** *
2663:.\Generated_Source\PSoC4/CyLib.c **** * Summary:
2664:.\Generated_Source\PSoC4/CyLib.c **** *  Sets CySysTickServiceCallbacks() as an ISR for the SysTick exception.
2665:.\Generated_Source\PSoC4/CyLib.c **** *  The clock source for the SysTick counter is set to the System Clock.
2666:.\Generated_Source\PSoC4/CyLib.c **** *  The SysTick reload value is configured for the timer to generate interrupt
2667:.\Generated_Source\PSoC4/CyLib.c **** *  every 1 ms. The System clock value is on the global variables cydelayFreqHz.
2668:.\Generated_Source\PSoC4/CyLib.c **** *  User is responsible for calling CyDelayFreq() function.
2669:.\Generated_Source\PSoC4/CyLib.c **** *  Initializes CySysTickCallbacks array.
2670:.\Generated_Source\PSoC4/CyLib.c **** *
2671:.\Generated_Source\PSoC4/CyLib.c **** * Parameters:
2672:.\Generated_Source\PSoC4/CyLib.c **** *  None
2673:.\Generated_Source\PSoC4/CyLib.c **** *
2674:.\Generated_Source\PSoC4/CyLib.c **** * Return:
2675:.\Generated_Source\PSoC4/CyLib.c **** *  None
2676:.\Generated_Source\PSoC4/CyLib.c **** *
2677:.\Generated_Source\PSoC4/CyLib.c **** * Side Effects:
2678:.\Generated_Source\PSoC4/CyLib.c **** *  Clears SysTick count flag if it was set
2679:.\Generated_Source\PSoC4/CyLib.c **** *
2680:.\Generated_Source\PSoC4/CyLib.c **** *******************************************************************************/
2681:.\Generated_Source\PSoC4/CyLib.c **** void CySysTickInit(void)
2682:.\Generated_Source\PSoC4/CyLib.c **** {
 4049              		.loc 2 2682 0
 4050              		.cfi_startproc
 4051 0000 80B5     		push	{r7, lr}
 4052              		.cfi_def_cfa_offset 8
 4053              		.cfi_offset 7, -8
ARM GAS  C:\Users\CHRIST~1\AppData\Local\Temp\cc8KQrfd.s 			page 136


 4054              		.cfi_offset 14, -4
 4055 0002 82B0     		sub	sp, sp, #8
 4056              		.cfi_def_cfa_offset 16
 4057 0004 00AF     		add	r7, sp, #0
 4058              		.cfi_def_cfa_register 7
2683:.\Generated_Source\PSoC4/CyLib.c ****     uint32 i;
2684:.\Generated_Source\PSoC4/CyLib.c **** 
2685:.\Generated_Source\PSoC4/CyLib.c ****     for (i = 0u; i<CY_SYS_SYST_NUM_OF_CALLBACKS; i++)
 4059              		.loc 2 2685 0
 4060 0006 0023     		mov	r3, #0
 4061 0008 7B60     		str	r3, [r7, #4]
 4062 000a 07E0     		b	.L310
 4063              	.L311:
2686:.\Generated_Source\PSoC4/CyLib.c ****     {
2687:.\Generated_Source\PSoC4/CyLib.c ****         CySysTickCallbacks[i] = (void *) 0;
 4064              		.loc 2 2687 0 discriminator 3
 4065 000c 124B     		ldr	r3, .L312
 4066 000e 7A68     		ldr	r2, [r7, #4]
 4067 0010 9200     		lsl	r2, r2, #2
 4068 0012 0021     		mov	r1, #0
 4069 0014 D150     		str	r1, [r2, r3]
2685:.\Generated_Source\PSoC4/CyLib.c ****     {
 4070              		.loc 2 2685 0 discriminator 3
 4071 0016 7B68     		ldr	r3, [r7, #4]
 4072 0018 0133     		add	r3, r3, #1
 4073 001a 7B60     		str	r3, [r7, #4]
 4074              	.L310:
2685:.\Generated_Source\PSoC4/CyLib.c ****     {
 4075              		.loc 2 2685 0 is_stmt 0 discriminator 1
 4076 001c 7B68     		ldr	r3, [r7, #4]
 4077 001e 042B     		cmp	r3, #4
 4078 0020 F4D9     		bls	.L311
2688:.\Generated_Source\PSoC4/CyLib.c ****     }
2689:.\Generated_Source\PSoC4/CyLib.c **** 
2690:.\Generated_Source\PSoC4/CyLib.c ****     (void) CyIntSetSysVector(CY_INT_SYSTICK_IRQN, &CySysTickServiceCallbacks);
 4079              		.loc 2 2690 0 is_stmt 1
 4080 0022 0E4B     		ldr	r3, .L312+4
 4081 0024 0F20     		mov	r0, #15
 4082 0026 191C     		mov	r1, r3
 4083 0028 FFF7FEFF 		bl	CyIntSetSysVector
2691:.\Generated_Source\PSoC4/CyLib.c **** 
2692:.\Generated_Source\PSoC4/CyLib.c ****     #if(CY_PSOC4_4100BL || CY_PSOC4_4200BL || CY_PSOC5)
2693:.\Generated_Source\PSoC4/CyLib.c ****         CySysTickSetClockSource(CY_SYS_SYST_CSR_CLK_SRC_SYSCLK);
 4084              		.loc 2 2693 0
 4085 002c 0120     		mov	r0, #1
 4086 002e FFF7FEFF 		bl	CySysTickSetClockSource
2694:.\Generated_Source\PSoC4/CyLib.c ****     #endif /* (CY_PSOC4_4100BL || CY_PSOC4_4200BL || CY_PSOC5) */
2695:.\Generated_Source\PSoC4/CyLib.c **** 
2696:.\Generated_Source\PSoC4/CyLib.c ****     CySysTickSetReload(cydelayFreqHz/1000u);
 4087              		.loc 2 2696 0
 4088 0032 0B4B     		ldr	r3, .L312+8
 4089 0034 1B68     		ldr	r3, [r3]
 4090 0036 181C     		mov	r0, r3
 4091 0038 FA23     		mov	r3, #250
 4092 003a 9900     		lsl	r1, r3, #2
 4093 003c FFF7FEFF 		bl	__aeabi_uidiv
 4094 0040 031C     		mov	r3, r0
ARM GAS  C:\Users\CHRIST~1\AppData\Local\Temp\cc8KQrfd.s 			page 137


 4095 0042 181C     		mov	r0, r3
 4096 0044 FFF7FEFF 		bl	CySysTickSetReload
2697:.\Generated_Source\PSoC4/CyLib.c ****     CySysTickClear();
 4097              		.loc 2 2697 0
 4098 0048 FFF7FEFF 		bl	CySysTickClear
2698:.\Generated_Source\PSoC4/CyLib.c ****     CyIntEnable(CY_INT_SYSTICK_IRQN);
 4099              		.loc 2 2698 0
 4100 004c 0F20     		mov	r0, #15
 4101 004e FFF7FEFF 		bl	CyIntEnable
2699:.\Generated_Source\PSoC4/CyLib.c **** }
 4102              		.loc 2 2699 0
 4103 0052 BD46     		mov	sp, r7
 4104 0054 02B0     		add	sp, sp, #8
 4105              		@ sp needed
 4106 0056 80BD     		pop	{r7, pc}
 4107              	.L313:
 4108              		.align	2
 4109              	.L312:
 4110 0058 0C000000 		.word	CySysTickCallbacks
 4111 005c 00000000 		.word	CySysTickServiceCallbacks
 4112 0060 00000000 		.word	cydelayFreqHz
 4113              		.cfi_endproc
 4114              	.LFE66:
 4115              		.size	CySysTickInit, .-CySysTickInit
 4116              		.section	.text.CySysTickEnable,"ax",%progbits
 4117              		.align	2
 4118              		.global	CySysTickEnable
 4119              		.code	16
 4120              		.thumb_func
 4121              		.type	CySysTickEnable, %function
 4122              	CySysTickEnable:
 4123              	.LFB67:
2700:.\Generated_Source\PSoC4/CyLib.c **** 
2701:.\Generated_Source\PSoC4/CyLib.c **** 
2702:.\Generated_Source\PSoC4/CyLib.c **** /*******************************************************************************
2703:.\Generated_Source\PSoC4/CyLib.c **** * Function Name: CySysTickEnable
2704:.\Generated_Source\PSoC4/CyLib.c **** ********************************************************************************
2705:.\Generated_Source\PSoC4/CyLib.c **** *
2706:.\Generated_Source\PSoC4/CyLib.c **** * Summary:
2707:.\Generated_Source\PSoC4/CyLib.c **** *  Enables the SysTick timer and its interrupt.
2708:.\Generated_Source\PSoC4/CyLib.c **** *
2709:.\Generated_Source\PSoC4/CyLib.c **** * Parameters:
2710:.\Generated_Source\PSoC4/CyLib.c **** *  None
2711:.\Generated_Source\PSoC4/CyLib.c **** *
2712:.\Generated_Source\PSoC4/CyLib.c **** * Return:
2713:.\Generated_Source\PSoC4/CyLib.c **** *  None
2714:.\Generated_Source\PSoC4/CyLib.c **** *
2715:.\Generated_Source\PSoC4/CyLib.c **** * Side Effects:
2716:.\Generated_Source\PSoC4/CyLib.c **** *  Clears SysTick count flag if it was set
2717:.\Generated_Source\PSoC4/CyLib.c **** *
2718:.\Generated_Source\PSoC4/CyLib.c **** *******************************************************************************/
2719:.\Generated_Source\PSoC4/CyLib.c **** void CySysTickEnable(void)
2720:.\Generated_Source\PSoC4/CyLib.c **** {
 4124              		.loc 2 2720 0
 4125              		.cfi_startproc
 4126 0000 80B5     		push	{r7, lr}
 4127              		.cfi_def_cfa_offset 8
ARM GAS  C:\Users\CHRIST~1\AppData\Local\Temp\cc8KQrfd.s 			page 138


 4128              		.cfi_offset 7, -8
 4129              		.cfi_offset 14, -4
 4130 0002 00AF     		add	r7, sp, #0
 4131              		.cfi_def_cfa_register 7
2721:.\Generated_Source\PSoC4/CyLib.c ****     CySysTickEnableInterrupt();
 4132              		.loc 2 2721 0
 4133 0004 FFF7FEFF 		bl	CySysTickEnableInterrupt
2722:.\Generated_Source\PSoC4/CyLib.c ****     CY_SYS_SYST_CSR_REG |= CY_SYS_SYST_CSR_ENABLE;
 4134              		.loc 2 2722 0
 4135 0008 034B     		ldr	r3, .L315
 4136 000a 034A     		ldr	r2, .L315
 4137 000c 1268     		ldr	r2, [r2]
 4138 000e 0121     		mov	r1, #1
 4139 0010 0A43     		orr	r2, r1
 4140 0012 1A60     		str	r2, [r3]
2723:.\Generated_Source\PSoC4/CyLib.c **** }
 4141              		.loc 2 2723 0
 4142 0014 BD46     		mov	sp, r7
 4143              		@ sp needed
 4144 0016 80BD     		pop	{r7, pc}
 4145              	.L316:
 4146              		.align	2
 4147              	.L315:
 4148 0018 10E000E0 		.word	-536813552
 4149              		.cfi_endproc
 4150              	.LFE67:
 4151              		.size	CySysTickEnable, .-CySysTickEnable
 4152              		.section	.text.CySysTickStop,"ax",%progbits
 4153              		.align	2
 4154              		.global	CySysTickStop
 4155              		.code	16
 4156              		.thumb_func
 4157              		.type	CySysTickStop, %function
 4158              	CySysTickStop:
 4159              	.LFB68:
2724:.\Generated_Source\PSoC4/CyLib.c **** 
2725:.\Generated_Source\PSoC4/CyLib.c **** 
2726:.\Generated_Source\PSoC4/CyLib.c **** /*******************************************************************************
2727:.\Generated_Source\PSoC4/CyLib.c **** * Function Name: CySysTickStop
2728:.\Generated_Source\PSoC4/CyLib.c **** ********************************************************************************
2729:.\Generated_Source\PSoC4/CyLib.c **** *
2730:.\Generated_Source\PSoC4/CyLib.c **** * Summary:
2731:.\Generated_Source\PSoC4/CyLib.c **** *  Stops the system timer (SysTick).
2732:.\Generated_Source\PSoC4/CyLib.c **** *
2733:.\Generated_Source\PSoC4/CyLib.c **** * Parameters:
2734:.\Generated_Source\PSoC4/CyLib.c **** *  None
2735:.\Generated_Source\PSoC4/CyLib.c **** *
2736:.\Generated_Source\PSoC4/CyLib.c **** * Return:
2737:.\Generated_Source\PSoC4/CyLib.c **** *  None
2738:.\Generated_Source\PSoC4/CyLib.c **** *
2739:.\Generated_Source\PSoC4/CyLib.c **** * Side Effects:
2740:.\Generated_Source\PSoC4/CyLib.c **** *  Clears SysTick count flag if it was set
2741:.\Generated_Source\PSoC4/CyLib.c **** *
2742:.\Generated_Source\PSoC4/CyLib.c **** *******************************************************************************/
2743:.\Generated_Source\PSoC4/CyLib.c **** void CySysTickStop(void)
2744:.\Generated_Source\PSoC4/CyLib.c **** {
 4160              		.loc 2 2744 0
ARM GAS  C:\Users\CHRIST~1\AppData\Local\Temp\cc8KQrfd.s 			page 139


 4161              		.cfi_startproc
 4162 0000 80B5     		push	{r7, lr}
 4163              		.cfi_def_cfa_offset 8
 4164              		.cfi_offset 7, -8
 4165              		.cfi_offset 14, -4
 4166 0002 00AF     		add	r7, sp, #0
 4167              		.cfi_def_cfa_register 7
2745:.\Generated_Source\PSoC4/CyLib.c ****     CY_SYS_SYST_CSR_REG &= ((uint32) ~(CY_SYS_SYST_CSR_ENABLE));
 4168              		.loc 2 2745 0
 4169 0004 034B     		ldr	r3, .L318
 4170 0006 034A     		ldr	r2, .L318
 4171 0008 1268     		ldr	r2, [r2]
 4172 000a 0121     		mov	r1, #1
 4173 000c 8A43     		bic	r2, r1
 4174 000e 1A60     		str	r2, [r3]
2746:.\Generated_Source\PSoC4/CyLib.c **** }
 4175              		.loc 2 2746 0
 4176 0010 BD46     		mov	sp, r7
 4177              		@ sp needed
 4178 0012 80BD     		pop	{r7, pc}
 4179              	.L319:
 4180              		.align	2
 4181              	.L318:
 4182 0014 10E000E0 		.word	-536813552
 4183              		.cfi_endproc
 4184              	.LFE68:
 4185              		.size	CySysTickStop, .-CySysTickStop
 4186              		.section	.text.CySysTickEnableInterrupt,"ax",%progbits
 4187              		.align	2
 4188              		.global	CySysTickEnableInterrupt
 4189              		.code	16
 4190              		.thumb_func
 4191              		.type	CySysTickEnableInterrupt, %function
 4192              	CySysTickEnableInterrupt:
 4193              	.LFB69:
2747:.\Generated_Source\PSoC4/CyLib.c **** 
2748:.\Generated_Source\PSoC4/CyLib.c **** 
2749:.\Generated_Source\PSoC4/CyLib.c **** /*******************************************************************************
2750:.\Generated_Source\PSoC4/CyLib.c **** * Function Name: CySysTickEnableInterrupt
2751:.\Generated_Source\PSoC4/CyLib.c **** ********************************************************************************
2752:.\Generated_Source\PSoC4/CyLib.c **** *
2753:.\Generated_Source\PSoC4/CyLib.c **** * Summary:
2754:.\Generated_Source\PSoC4/CyLib.c **** *  Enables the SysTick interrupt.
2755:.\Generated_Source\PSoC4/CyLib.c **** *
2756:.\Generated_Source\PSoC4/CyLib.c **** * Parameters:
2757:.\Generated_Source\PSoC4/CyLib.c **** *  None
2758:.\Generated_Source\PSoC4/CyLib.c **** *
2759:.\Generated_Source\PSoC4/CyLib.c **** * Return:
2760:.\Generated_Source\PSoC4/CyLib.c **** *  None
2761:.\Generated_Source\PSoC4/CyLib.c **** *
2762:.\Generated_Source\PSoC4/CyLib.c **** * Side Effects:
2763:.\Generated_Source\PSoC4/CyLib.c **** *  Clears SysTick count flag if it was set
2764:.\Generated_Source\PSoC4/CyLib.c **** *
2765:.\Generated_Source\PSoC4/CyLib.c **** *******************************************************************************/
2766:.\Generated_Source\PSoC4/CyLib.c **** void CySysTickEnableInterrupt(void)
2767:.\Generated_Source\PSoC4/CyLib.c **** {
 4194              		.loc 2 2767 0
ARM GAS  C:\Users\CHRIST~1\AppData\Local\Temp\cc8KQrfd.s 			page 140


 4195              		.cfi_startproc
 4196 0000 80B5     		push	{r7, lr}
 4197              		.cfi_def_cfa_offset 8
 4198              		.cfi_offset 7, -8
 4199              		.cfi_offset 14, -4
 4200 0002 00AF     		add	r7, sp, #0
 4201              		.cfi_def_cfa_register 7
2768:.\Generated_Source\PSoC4/CyLib.c ****     CY_SYS_SYST_CSR_REG |= CY_SYS_SYST_CSR_ENABLE_INT;
 4202              		.loc 2 2768 0
 4203 0004 034B     		ldr	r3, .L321
 4204 0006 034A     		ldr	r2, .L321
 4205 0008 1268     		ldr	r2, [r2]
 4206 000a 0221     		mov	r1, #2
 4207 000c 0A43     		orr	r2, r1
 4208 000e 1A60     		str	r2, [r3]
2769:.\Generated_Source\PSoC4/CyLib.c **** }
 4209              		.loc 2 2769 0
 4210 0010 BD46     		mov	sp, r7
 4211              		@ sp needed
 4212 0012 80BD     		pop	{r7, pc}
 4213              	.L322:
 4214              		.align	2
 4215              	.L321:
 4216 0014 10E000E0 		.word	-536813552
 4217              		.cfi_endproc
 4218              	.LFE69:
 4219              		.size	CySysTickEnableInterrupt, .-CySysTickEnableInterrupt
 4220              		.section	.text.CySysTickDisableInterrupt,"ax",%progbits
 4221              		.align	2
 4222              		.global	CySysTickDisableInterrupt
 4223              		.code	16
 4224              		.thumb_func
 4225              		.type	CySysTickDisableInterrupt, %function
 4226              	CySysTickDisableInterrupt:
 4227              	.LFB70:
2770:.\Generated_Source\PSoC4/CyLib.c **** 
2771:.\Generated_Source\PSoC4/CyLib.c **** 
2772:.\Generated_Source\PSoC4/CyLib.c **** /*******************************************************************************
2773:.\Generated_Source\PSoC4/CyLib.c **** * Function Name: CySysTickDisableInterrupt
2774:.\Generated_Source\PSoC4/CyLib.c **** ********************************************************************************
2775:.\Generated_Source\PSoC4/CyLib.c **** *
2776:.\Generated_Source\PSoC4/CyLib.c **** * Summary:
2777:.\Generated_Source\PSoC4/CyLib.c **** *  Disables the SysTick interrupt.
2778:.\Generated_Source\PSoC4/CyLib.c **** *
2779:.\Generated_Source\PSoC4/CyLib.c **** * Parameters:
2780:.\Generated_Source\PSoC4/CyLib.c **** *  None
2781:.\Generated_Source\PSoC4/CyLib.c **** *
2782:.\Generated_Source\PSoC4/CyLib.c **** * Return:
2783:.\Generated_Source\PSoC4/CyLib.c **** *  None
2784:.\Generated_Source\PSoC4/CyLib.c **** *
2785:.\Generated_Source\PSoC4/CyLib.c **** * Side Effects:
2786:.\Generated_Source\PSoC4/CyLib.c **** *  Clears SysTick count flag if it was set
2787:.\Generated_Source\PSoC4/CyLib.c **** *
2788:.\Generated_Source\PSoC4/CyLib.c **** *******************************************************************************/
2789:.\Generated_Source\PSoC4/CyLib.c **** void CySysTickDisableInterrupt(void)
2790:.\Generated_Source\PSoC4/CyLib.c **** {
 4228              		.loc 2 2790 0
ARM GAS  C:\Users\CHRIST~1\AppData\Local\Temp\cc8KQrfd.s 			page 141


 4229              		.cfi_startproc
 4230 0000 80B5     		push	{r7, lr}
 4231              		.cfi_def_cfa_offset 8
 4232              		.cfi_offset 7, -8
 4233              		.cfi_offset 14, -4
 4234 0002 00AF     		add	r7, sp, #0
 4235              		.cfi_def_cfa_register 7
2791:.\Generated_Source\PSoC4/CyLib.c ****     CY_SYS_SYST_CSR_REG &= ((uint32) ~(CY_SYS_SYST_CSR_ENABLE_INT));
 4236              		.loc 2 2791 0
 4237 0004 034B     		ldr	r3, .L324
 4238 0006 034A     		ldr	r2, .L324
 4239 0008 1268     		ldr	r2, [r2]
 4240 000a 0221     		mov	r1, #2
 4241 000c 8A43     		bic	r2, r1
 4242 000e 1A60     		str	r2, [r3]
2792:.\Generated_Source\PSoC4/CyLib.c **** }
 4243              		.loc 2 2792 0
 4244 0010 BD46     		mov	sp, r7
 4245              		@ sp needed
 4246 0012 80BD     		pop	{r7, pc}
 4247              	.L325:
 4248              		.align	2
 4249              	.L324:
 4250 0014 10E000E0 		.word	-536813552
 4251              		.cfi_endproc
 4252              	.LFE70:
 4253              		.size	CySysTickDisableInterrupt, .-CySysTickDisableInterrupt
 4254              		.section	.text.CySysTickSetReload,"ax",%progbits
 4255              		.align	2
 4256              		.global	CySysTickSetReload
 4257              		.code	16
 4258              		.thumb_func
 4259              		.type	CySysTickSetReload, %function
 4260              	CySysTickSetReload:
 4261              	.LFB71:
2793:.\Generated_Source\PSoC4/CyLib.c **** 
2794:.\Generated_Source\PSoC4/CyLib.c **** 
2795:.\Generated_Source\PSoC4/CyLib.c **** /*******************************************************************************
2796:.\Generated_Source\PSoC4/CyLib.c **** * Function Name: CySysTickSetReload
2797:.\Generated_Source\PSoC4/CyLib.c **** ********************************************************************************
2798:.\Generated_Source\PSoC4/CyLib.c **** *
2799:.\Generated_Source\PSoC4/CyLib.c **** * Summary:
2800:.\Generated_Source\PSoC4/CyLib.c **** *  Sets value the counter is set to on startup and after it reaches zero. This
2801:.\Generated_Source\PSoC4/CyLib.c **** *  function do not change or reset current sysTick counter value, so it should
2802:.\Generated_Source\PSoC4/CyLib.c **** *  be cleared using CySysTickClear() API.
2803:.\Generated_Source\PSoC4/CyLib.c **** *
2804:.\Generated_Source\PSoC4/CyLib.c **** * Parameters:
2805:.\Generated_Source\PSoC4/CyLib.c **** *  value: Valid range [0x0-0x00FFFFFF]. Counter reset value
2806:.\Generated_Source\PSoC4/CyLib.c **** *
2807:.\Generated_Source\PSoC4/CyLib.c **** * Return:
2808:.\Generated_Source\PSoC4/CyLib.c **** *  None
2809:.\Generated_Source\PSoC4/CyLib.c **** *
2810:.\Generated_Source\PSoC4/CyLib.c **** *******************************************************************************/
2811:.\Generated_Source\PSoC4/CyLib.c **** void CySysTickSetReload(uint32 value)
2812:.\Generated_Source\PSoC4/CyLib.c **** {
 4262              		.loc 2 2812 0
 4263              		.cfi_startproc
ARM GAS  C:\Users\CHRIST~1\AppData\Local\Temp\cc8KQrfd.s 			page 142


 4264 0000 80B5     		push	{r7, lr}
 4265              		.cfi_def_cfa_offset 8
 4266              		.cfi_offset 7, -8
 4267              		.cfi_offset 14, -4
 4268 0002 82B0     		sub	sp, sp, #8
 4269              		.cfi_def_cfa_offset 16
 4270 0004 00AF     		add	r7, sp, #0
 4271              		.cfi_def_cfa_register 7
 4272 0006 7860     		str	r0, [r7, #4]
2813:.\Generated_Source\PSoC4/CyLib.c ****     CY_SYS_SYST_RVR_REG = (value & CY_SYS_SYST_RVR_CNT_MASK);
 4273              		.loc 2 2813 0
 4274 0008 034B     		ldr	r3, .L327
 4275 000a 7A68     		ldr	r2, [r7, #4]
 4276 000c 1202     		lsl	r2, r2, #8
 4277 000e 120A     		lsr	r2, r2, #8
 4278 0010 1A60     		str	r2, [r3]
2814:.\Generated_Source\PSoC4/CyLib.c **** }
 4279              		.loc 2 2814 0
 4280 0012 BD46     		mov	sp, r7
 4281 0014 02B0     		add	sp, sp, #8
 4282              		@ sp needed
 4283 0016 80BD     		pop	{r7, pc}
 4284              	.L328:
 4285              		.align	2
 4286              	.L327:
 4287 0018 14E000E0 		.word	-536813548
 4288              		.cfi_endproc
 4289              	.LFE71:
 4290              		.size	CySysTickSetReload, .-CySysTickSetReload
 4291              		.section	.text.CySysTickGetReload,"ax",%progbits
 4292              		.align	2
 4293              		.global	CySysTickGetReload
 4294              		.code	16
 4295              		.thumb_func
 4296              		.type	CySysTickGetReload, %function
 4297              	CySysTickGetReload:
 4298              	.LFB72:
2815:.\Generated_Source\PSoC4/CyLib.c **** 
2816:.\Generated_Source\PSoC4/CyLib.c **** 
2817:.\Generated_Source\PSoC4/CyLib.c **** /*******************************************************************************
2818:.\Generated_Source\PSoC4/CyLib.c **** * Function Name: CySysTickGetReload
2819:.\Generated_Source\PSoC4/CyLib.c **** ********************************************************************************
2820:.\Generated_Source\PSoC4/CyLib.c **** *
2821:.\Generated_Source\PSoC4/CyLib.c **** * Summary:
2822:.\Generated_Source\PSoC4/CyLib.c **** *  Sets value the counter is set to on startup and after it reaches zero.
2823:.\Generated_Source\PSoC4/CyLib.c **** *
2824:.\Generated_Source\PSoC4/CyLib.c **** * Parameters:
2825:.\Generated_Source\PSoC4/CyLib.c **** *  None
2826:.\Generated_Source\PSoC4/CyLib.c **** *
2827:.\Generated_Source\PSoC4/CyLib.c **** * Return:
2828:.\Generated_Source\PSoC4/CyLib.c **** *  Counter reset value.
2829:.\Generated_Source\PSoC4/CyLib.c **** *
2830:.\Generated_Source\PSoC4/CyLib.c **** *******************************************************************************/
2831:.\Generated_Source\PSoC4/CyLib.c **** uint32 CySysTickGetReload(void)
2832:.\Generated_Source\PSoC4/CyLib.c **** {
 4299              		.loc 2 2832 0
 4300              		.cfi_startproc
ARM GAS  C:\Users\CHRIST~1\AppData\Local\Temp\cc8KQrfd.s 			page 143


 4301 0000 80B5     		push	{r7, lr}
 4302              		.cfi_def_cfa_offset 8
 4303              		.cfi_offset 7, -8
 4304              		.cfi_offset 14, -4
 4305 0002 00AF     		add	r7, sp, #0
 4306              		.cfi_def_cfa_register 7
2833:.\Generated_Source\PSoC4/CyLib.c ****     return(CY_SYS_SYST_RVR_REG & CY_SYS_SYST_RVR_CNT_MASK);
 4307              		.loc 2 2833 0
 4308 0004 034B     		ldr	r3, .L331
 4309 0006 1B68     		ldr	r3, [r3]
 4310 0008 1B02     		lsl	r3, r3, #8
 4311 000a 1B0A     		lsr	r3, r3, #8
2834:.\Generated_Source\PSoC4/CyLib.c **** }
 4312              		.loc 2 2834 0
 4313 000c 181C     		mov	r0, r3
 4314 000e BD46     		mov	sp, r7
 4315              		@ sp needed
 4316 0010 80BD     		pop	{r7, pc}
 4317              	.L332:
 4318 0012 C046     		.align	2
 4319              	.L331:
 4320 0014 14E000E0 		.word	-536813548
 4321              		.cfi_endproc
 4322              	.LFE72:
 4323              		.size	CySysTickGetReload, .-CySysTickGetReload
 4324              		.section	.text.CySysTickGetValue,"ax",%progbits
 4325              		.align	2
 4326              		.global	CySysTickGetValue
 4327              		.code	16
 4328              		.thumb_func
 4329              		.type	CySysTickGetValue, %function
 4330              	CySysTickGetValue:
 4331              	.LFB73:
2835:.\Generated_Source\PSoC4/CyLib.c **** 
2836:.\Generated_Source\PSoC4/CyLib.c **** 
2837:.\Generated_Source\PSoC4/CyLib.c **** /*******************************************************************************
2838:.\Generated_Source\PSoC4/CyLib.c **** * Function Name: CySysTickGetValue
2839:.\Generated_Source\PSoC4/CyLib.c **** ********************************************************************************
2840:.\Generated_Source\PSoC4/CyLib.c **** *
2841:.\Generated_Source\PSoC4/CyLib.c **** * Summary:
2842:.\Generated_Source\PSoC4/CyLib.c **** *  Gets current SysTick counter value.
2843:.\Generated_Source\PSoC4/CyLib.c **** *
2844:.\Generated_Source\PSoC4/CyLib.c **** * Parameters:
2845:.\Generated_Source\PSoC4/CyLib.c **** *  None
2846:.\Generated_Source\PSoC4/CyLib.c **** *
2847:.\Generated_Source\PSoC4/CyLib.c **** * Return:
2848:.\Generated_Source\PSoC4/CyLib.c **** *  Current SysTick counter value
2849:.\Generated_Source\PSoC4/CyLib.c **** *
2850:.\Generated_Source\PSoC4/CyLib.c **** *******************************************************************************/
2851:.\Generated_Source\PSoC4/CyLib.c **** uint32 CySysTickGetValue(void)
2852:.\Generated_Source\PSoC4/CyLib.c **** {
 4332              		.loc 2 2852 0
 4333              		.cfi_startproc
 4334 0000 80B5     		push	{r7, lr}
 4335              		.cfi_def_cfa_offset 8
 4336              		.cfi_offset 7, -8
 4337              		.cfi_offset 14, -4
ARM GAS  C:\Users\CHRIST~1\AppData\Local\Temp\cc8KQrfd.s 			page 144


 4338 0002 00AF     		add	r7, sp, #0
 4339              		.cfi_def_cfa_register 7
2853:.\Generated_Source\PSoC4/CyLib.c ****     return(CY_SYS_SYST_RVR_REG & CY_SYS_SYST_CVR_REG);
 4340              		.loc 2 2853 0
 4341 0004 034B     		ldr	r3, .L335
 4342 0006 1A68     		ldr	r2, [r3]
 4343 0008 034B     		ldr	r3, .L335+4
 4344 000a 1B68     		ldr	r3, [r3]
 4345 000c 1340     		and	r3, r2
2854:.\Generated_Source\PSoC4/CyLib.c **** }
 4346              		.loc 2 2854 0
 4347 000e 181C     		mov	r0, r3
 4348 0010 BD46     		mov	sp, r7
 4349              		@ sp needed
 4350 0012 80BD     		pop	{r7, pc}
 4351              	.L336:
 4352              		.align	2
 4353              	.L335:
 4354 0014 14E000E0 		.word	-536813548
 4355 0018 18E000E0 		.word	-536813544
 4356              		.cfi_endproc
 4357              	.LFE73:
 4358              		.size	CySysTickGetValue, .-CySysTickGetValue
 4359              		.section	.text.CySysTickSetClockSource,"ax",%progbits
 4360              		.align	2
 4361              		.global	CySysTickSetClockSource
 4362              		.code	16
 4363              		.thumb_func
 4364              		.type	CySysTickSetClockSource, %function
 4365              	CySysTickSetClockSource:
 4366              	.LFB74:
2855:.\Generated_Source\PSoC4/CyLib.c **** 
2856:.\Generated_Source\PSoC4/CyLib.c **** 
2857:.\Generated_Source\PSoC4/CyLib.c **** #if(CY_PSOC4_4100BL || CY_PSOC4_4200BL || CY_PSOC5)
2858:.\Generated_Source\PSoC4/CyLib.c ****     /*******************************************************************************
2859:.\Generated_Source\PSoC4/CyLib.c ****     * Function Name: CySysTickSetClockSource
2860:.\Generated_Source\PSoC4/CyLib.c ****     ********************************************************************************
2861:.\Generated_Source\PSoC4/CyLib.c ****     *
2862:.\Generated_Source\PSoC4/CyLib.c ****     * Summary:
2863:.\Generated_Source\PSoC4/CyLib.c ****     *  Sets the clock source for the SysTick counter.
2864:.\Generated_Source\PSoC4/CyLib.c ****     *
2865:.\Generated_Source\PSoC4/CyLib.c ****     * Parameters:
2866:.\Generated_Source\PSoC4/CyLib.c ****     *  clockSource: Clock source for SysTick counter
2867:.\Generated_Source\PSoC4/CyLib.c ****     *         Define                     Clock Source
2868:.\Generated_Source\PSoC4/CyLib.c ****     *   CY_SYS_SYST_CSR_CLK_SRC_SYSCLK     SysTick is clocked by CPU clock.
2869:.\Generated_Source\PSoC4/CyLib.c ****     *   CY_SYS_SYST_CSR_CLK_SRC_LFCLK      SysTick is clocked by the low frequency clock
2870:.\Generated_Source\PSoC4/CyLib.c ****     *                                 (ILO 100 KHz for PSoC 5LP, LFCLK for PSoC 4).
2871:.\Generated_Source\PSoC4/CyLib.c ****     *
2872:.\Generated_Source\PSoC4/CyLib.c ****     * Return:
2873:.\Generated_Source\PSoC4/CyLib.c ****     *  None
2874:.\Generated_Source\PSoC4/CyLib.c ****     *
2875:.\Generated_Source\PSoC4/CyLib.c ****     * Side Effects:
2876:.\Generated_Source\PSoC4/CyLib.c ****     *  Clears SysTick count flag if it was set. If clock source is not ready this
2877:.\Generated_Source\PSoC4/CyLib.c ****     *  function call will have no effect. After changing clock source to the low frequency
2878:.\Generated_Source\PSoC4/CyLib.c ****     *  clock the counter and reload register values will remain unchanged so time to
2879:.\Generated_Source\PSoC4/CyLib.c ****     *  the interrupt will be significantly bigger and vice versa.
2880:.\Generated_Source\PSoC4/CyLib.c ****     *
ARM GAS  C:\Users\CHRIST~1\AppData\Local\Temp\cc8KQrfd.s 			page 145


2881:.\Generated_Source\PSoC4/CyLib.c ****     *******************************************************************************/
2882:.\Generated_Source\PSoC4/CyLib.c ****     void CySysTickSetClockSource(uint32 clockSource)
2883:.\Generated_Source\PSoC4/CyLib.c ****     {
 4367              		.loc 2 2883 0
 4368              		.cfi_startproc
 4369 0000 80B5     		push	{r7, lr}
 4370              		.cfi_def_cfa_offset 8
 4371              		.cfi_offset 7, -8
 4372              		.cfi_offset 14, -4
 4373 0002 82B0     		sub	sp, sp, #8
 4374              		.cfi_def_cfa_offset 16
 4375 0004 00AF     		add	r7, sp, #0
 4376              		.cfi_def_cfa_register 7
 4377 0006 7860     		str	r0, [r7, #4]
2884:.\Generated_Source\PSoC4/CyLib.c ****         if (clockSource == CY_SYS_SYST_CSR_CLK_SRC_SYSCLK)
 4378              		.loc 2 2884 0
 4379 0008 7B68     		ldr	r3, [r7, #4]
 4380 000a 012B     		cmp	r3, #1
 4381 000c 06D1     		bne	.L338
2885:.\Generated_Source\PSoC4/CyLib.c ****         {
2886:.\Generated_Source\PSoC4/CyLib.c ****             CY_SYS_SYST_CSR_REG |= (uint32)(CY_SYS_SYST_CSR_CLK_SRC_SYSCLK << CY_SYS_SYST_CSR_CLK_S
 4382              		.loc 2 2886 0
 4383 000e 084B     		ldr	r3, .L340
 4384 0010 074A     		ldr	r2, .L340
 4385 0012 1268     		ldr	r2, [r2]
 4386 0014 0421     		mov	r1, #4
 4387 0016 0A43     		orr	r2, r1
 4388 0018 1A60     		str	r2, [r3]
 4389 001a 05E0     		b	.L337
 4390              	.L338:
2887:.\Generated_Source\PSoC4/CyLib.c ****         }
2888:.\Generated_Source\PSoC4/CyLib.c ****         else
2889:.\Generated_Source\PSoC4/CyLib.c ****         {
2890:.\Generated_Source\PSoC4/CyLib.c ****             CY_SYS_SYST_CSR_REG &= ((uint32) ~((uint32)(CY_SYS_SYST_CSR_CLK_SRC_SYSCLK << CY_SYS_SY
 4391              		.loc 2 2890 0
 4392 001c 044B     		ldr	r3, .L340
 4393 001e 044A     		ldr	r2, .L340
 4394 0020 1268     		ldr	r2, [r2]
 4395 0022 0421     		mov	r1, #4
 4396 0024 8A43     		bic	r2, r1
 4397 0026 1A60     		str	r2, [r3]
 4398              	.L337:
2891:.\Generated_Source\PSoC4/CyLib.c ****         }
2892:.\Generated_Source\PSoC4/CyLib.c ****     }
 4399              		.loc 2 2892 0
 4400 0028 BD46     		mov	sp, r7
 4401 002a 02B0     		add	sp, sp, #8
 4402              		@ sp needed
 4403 002c 80BD     		pop	{r7, pc}
 4404              	.L341:
 4405 002e C046     		.align	2
 4406              	.L340:
 4407 0030 10E000E0 		.word	-536813552
 4408              		.cfi_endproc
 4409              	.LFE74:
 4410              		.size	CySysTickSetClockSource, .-CySysTickSetClockSource
 4411              		.section	.text.CySysTickGetCountFlag,"ax",%progbits
ARM GAS  C:\Users\CHRIST~1\AppData\Local\Temp\cc8KQrfd.s 			page 146


 4412              		.align	2
 4413              		.global	CySysTickGetCountFlag
 4414              		.code	16
 4415              		.thumb_func
 4416              		.type	CySysTickGetCountFlag, %function
 4417              	CySysTickGetCountFlag:
 4418              	.LFB75:
2893:.\Generated_Source\PSoC4/CyLib.c **** #endif /* (CY_PSOC4_4100BL || CY_PSOC4_4200BL || CY_PSOC5) */
2894:.\Generated_Source\PSoC4/CyLib.c **** 
2895:.\Generated_Source\PSoC4/CyLib.c **** 
2896:.\Generated_Source\PSoC4/CyLib.c **** /*******************************************************************************
2897:.\Generated_Source\PSoC4/CyLib.c **** * Function Name: CySysTickGetCountFlag
2898:.\Generated_Source\PSoC4/CyLib.c **** ********************************************************************************
2899:.\Generated_Source\PSoC4/CyLib.c **** *
2900:.\Generated_Source\PSoC4/CyLib.c **** * Summary:
2901:.\Generated_Source\PSoC4/CyLib.c **** *  The count flag is set once SysTick counter reaches zero.
2902:.\Generated_Source\PSoC4/CyLib.c **** *   The flag cleared on read.
2903:.\Generated_Source\PSoC4/CyLib.c **** *
2904:.\Generated_Source\PSoC4/CyLib.c **** * Parameters:
2905:.\Generated_Source\PSoC4/CyLib.c **** *  None
2906:.\Generated_Source\PSoC4/CyLib.c **** *
2907:.\Generated_Source\PSoC4/CyLib.c **** * Return:
2908:.\Generated_Source\PSoC4/CyLib.c **** *  Returns non-zero value is counter is set, otherwise zero is returned.
2909:.\Generated_Source\PSoC4/CyLib.c **** *
2910:.\Generated_Source\PSoC4/CyLib.c **** *
2911:.\Generated_Source\PSoC4/CyLib.c **** * Side Effects:
2912:.\Generated_Source\PSoC4/CyLib.c **** *  Clears SysTick count flag if it was set
2913:.\Generated_Source\PSoC4/CyLib.c **** *
2914:.\Generated_Source\PSoC4/CyLib.c **** *******************************************************************************/
2915:.\Generated_Source\PSoC4/CyLib.c **** uint32 CySysTickGetCountFlag(void)
2916:.\Generated_Source\PSoC4/CyLib.c **** {
 4419              		.loc 2 2916 0
 4420              		.cfi_startproc
 4421 0000 80B5     		push	{r7, lr}
 4422              		.cfi_def_cfa_offset 8
 4423              		.cfi_offset 7, -8
 4424              		.cfi_offset 14, -4
 4425 0002 00AF     		add	r7, sp, #0
 4426              		.cfi_def_cfa_register 7
2917:.\Generated_Source\PSoC4/CyLib.c ****     return ((CY_SYS_SYST_CSR_REG>>CY_SYS_SYST_CSR_COUNTFLAG_SHIFT) & 0x01u);
 4427              		.loc 2 2917 0
 4428 0004 034B     		ldr	r3, .L344
 4429 0006 1B68     		ldr	r3, [r3]
 4430 0008 1B0C     		lsr	r3, r3, #16
 4431 000a 0122     		mov	r2, #1
 4432 000c 1340     		and	r3, r2
2918:.\Generated_Source\PSoC4/CyLib.c **** }
 4433              		.loc 2 2918 0
 4434 000e 181C     		mov	r0, r3
 4435 0010 BD46     		mov	sp, r7
 4436              		@ sp needed
 4437 0012 80BD     		pop	{r7, pc}
 4438              	.L345:
 4439              		.align	2
 4440              	.L344:
 4441 0014 10E000E0 		.word	-536813552
 4442              		.cfi_endproc
ARM GAS  C:\Users\CHRIST~1\AppData\Local\Temp\cc8KQrfd.s 			page 147


 4443              	.LFE75:
 4444              		.size	CySysTickGetCountFlag, .-CySysTickGetCountFlag
 4445              		.section	.text.CySysTickClear,"ax",%progbits
 4446              		.align	2
 4447              		.global	CySysTickClear
 4448              		.code	16
 4449              		.thumb_func
 4450              		.type	CySysTickClear, %function
 4451              	CySysTickClear:
 4452              	.LFB76:
2919:.\Generated_Source\PSoC4/CyLib.c **** 
2920:.\Generated_Source\PSoC4/CyLib.c **** 
2921:.\Generated_Source\PSoC4/CyLib.c **** /*******************************************************************************
2922:.\Generated_Source\PSoC4/CyLib.c **** * Function Name: CySysTickClear
2923:.\Generated_Source\PSoC4/CyLib.c **** ********************************************************************************
2924:.\Generated_Source\PSoC4/CyLib.c **** *
2925:.\Generated_Source\PSoC4/CyLib.c **** * Summary:
2926:.\Generated_Source\PSoC4/CyLib.c **** *  Clears the SysTick counter for well-defined startup.
2927:.\Generated_Source\PSoC4/CyLib.c **** *
2928:.\Generated_Source\PSoC4/CyLib.c **** * Parameters:
2929:.\Generated_Source\PSoC4/CyLib.c **** *  None
2930:.\Generated_Source\PSoC4/CyLib.c **** *
2931:.\Generated_Source\PSoC4/CyLib.c **** * Return:
2932:.\Generated_Source\PSoC4/CyLib.c **** *  None
2933:.\Generated_Source\PSoC4/CyLib.c **** *
2934:.\Generated_Source\PSoC4/CyLib.c **** *******************************************************************************/
2935:.\Generated_Source\PSoC4/CyLib.c **** void CySysTickClear(void)
2936:.\Generated_Source\PSoC4/CyLib.c **** {
 4453              		.loc 2 2936 0
 4454              		.cfi_startproc
 4455 0000 80B5     		push	{r7, lr}
 4456              		.cfi_def_cfa_offset 8
 4457              		.cfi_offset 7, -8
 4458              		.cfi_offset 14, -4
 4459 0002 00AF     		add	r7, sp, #0
 4460              		.cfi_def_cfa_register 7
2937:.\Generated_Source\PSoC4/CyLib.c ****     CY_SYS_SYST_CVR_REG = 0u;
 4461              		.loc 2 2937 0
 4462 0004 024B     		ldr	r3, .L347
 4463 0006 0022     		mov	r2, #0
 4464 0008 1A60     		str	r2, [r3]
2938:.\Generated_Source\PSoC4/CyLib.c **** }
 4465              		.loc 2 2938 0
 4466 000a BD46     		mov	sp, r7
 4467              		@ sp needed
 4468 000c 80BD     		pop	{r7, pc}
 4469              	.L348:
 4470 000e C046     		.align	2
 4471              	.L347:
 4472 0010 18E000E0 		.word	-536813544
 4473              		.cfi_endproc
 4474              	.LFE76:
 4475              		.size	CySysTickClear, .-CySysTickClear
 4476              		.section	.text.CySysTickSetCallback,"ax",%progbits
 4477              		.align	2
 4478              		.global	CySysTickSetCallback
 4479              		.code	16
ARM GAS  C:\Users\CHRIST~1\AppData\Local\Temp\cc8KQrfd.s 			page 148


 4480              		.thumb_func
 4481              		.type	CySysTickSetCallback, %function
 4482              	CySysTickSetCallback:
 4483              	.LFB77:
2939:.\Generated_Source\PSoC4/CyLib.c **** 
2940:.\Generated_Source\PSoC4/CyLib.c **** 
2941:.\Generated_Source\PSoC4/CyLib.c **** /*******************************************************************************
2942:.\Generated_Source\PSoC4/CyLib.c **** * Function Name: CySysTickSetCallback
2943:.\Generated_Source\PSoC4/CyLib.c **** ********************************************************************************
2944:.\Generated_Source\PSoC4/CyLib.c **** *
2945:.\Generated_Source\PSoC4/CyLib.c **** * Summary:
2946:.\Generated_Source\PSoC4/CyLib.c **** *  The function set the pointers to the functions that will be called on
2947:.\Generated_Source\PSoC4/CyLib.c **** *  SysTick interrupt.
2948:.\Generated_Source\PSoC4/CyLib.c **** *
2949:.\Generated_Source\PSoC4/CyLib.c **** * Parameters:
2950:.\Generated_Source\PSoC4/CyLib.c **** *  number:  The number of callback function address to be set.
2951:.\Generated_Source\PSoC4/CyLib.c **** *           The valid range is from 0 to 4.
2952:.\Generated_Source\PSoC4/CyLib.c **** *  CallbackFunction: Function address.
2953:.\Generated_Source\PSoC4/CyLib.c **** *
2954:.\Generated_Source\PSoC4/CyLib.c **** * Return:
2955:.\Generated_Source\PSoC4/CyLib.c **** *  Returns the address of the previous callback function.
2956:.\Generated_Source\PSoC4/CyLib.c **** *  The NULL is returned if the specified address in not set.
2957:.\Generated_Source\PSoC4/CyLib.c **** *
2958:.\Generated_Source\PSoC4/CyLib.c **** *******************************************************************************/
2959:.\Generated_Source\PSoC4/CyLib.c **** cySysTickCallback CySysTickSetCallback(uint32 number, cySysTickCallback function)
2960:.\Generated_Source\PSoC4/CyLib.c **** {
 4484              		.loc 2 2960 0
 4485              		.cfi_startproc
 4486 0000 80B5     		push	{r7, lr}
 4487              		.cfi_def_cfa_offset 8
 4488              		.cfi_offset 7, -8
 4489              		.cfi_offset 14, -4
 4490 0002 84B0     		sub	sp, sp, #16
 4491              		.cfi_def_cfa_offset 24
 4492 0004 00AF     		add	r7, sp, #0
 4493              		.cfi_def_cfa_register 7
 4494 0006 7860     		str	r0, [r7, #4]
 4495 0008 3960     		str	r1, [r7]
2961:.\Generated_Source\PSoC4/CyLib.c ****     cySysTickCallback retVal;
2962:.\Generated_Source\PSoC4/CyLib.c **** 
2963:.\Generated_Source\PSoC4/CyLib.c ****     retVal = CySysTickCallbacks[number];
 4496              		.loc 2 2963 0
 4497 000a 074B     		ldr	r3, .L351
 4498 000c 7A68     		ldr	r2, [r7, #4]
 4499 000e 9200     		lsl	r2, r2, #2
 4500 0010 D358     		ldr	r3, [r2, r3]
 4501 0012 FB60     		str	r3, [r7, #12]
2964:.\Generated_Source\PSoC4/CyLib.c ****     CySysTickCallbacks[number] = function;
 4502              		.loc 2 2964 0
 4503 0014 044B     		ldr	r3, .L351
 4504 0016 7A68     		ldr	r2, [r7, #4]
 4505 0018 9200     		lsl	r2, r2, #2
 4506 001a 3968     		ldr	r1, [r7]
 4507 001c D150     		str	r1, [r2, r3]
2965:.\Generated_Source\PSoC4/CyLib.c ****     return (retVal);
 4508              		.loc 2 2965 0
 4509 001e FB68     		ldr	r3, [r7, #12]
ARM GAS  C:\Users\CHRIST~1\AppData\Local\Temp\cc8KQrfd.s 			page 149


2966:.\Generated_Source\PSoC4/CyLib.c **** }
 4510              		.loc 2 2966 0
 4511 0020 181C     		mov	r0, r3
 4512 0022 BD46     		mov	sp, r7
 4513 0024 04B0     		add	sp, sp, #16
 4514              		@ sp needed
 4515 0026 80BD     		pop	{r7, pc}
 4516              	.L352:
 4517              		.align	2
 4518              	.L351:
 4519 0028 0C000000 		.word	CySysTickCallbacks
 4520              		.cfi_endproc
 4521              	.LFE77:
 4522              		.size	CySysTickSetCallback, .-CySysTickSetCallback
 4523              		.section	.text.CySysTickGetCallback,"ax",%progbits
 4524              		.align	2
 4525              		.global	CySysTickGetCallback
 4526              		.code	16
 4527              		.thumb_func
 4528              		.type	CySysTickGetCallback, %function
 4529              	CySysTickGetCallback:
 4530              	.LFB78:
2967:.\Generated_Source\PSoC4/CyLib.c **** 
2968:.\Generated_Source\PSoC4/CyLib.c **** 
2969:.\Generated_Source\PSoC4/CyLib.c **** /*******************************************************************************
2970:.\Generated_Source\PSoC4/CyLib.c **** * Function Name: CySysTickGetCallback
2971:.\Generated_Source\PSoC4/CyLib.c **** ********************************************************************************
2972:.\Generated_Source\PSoC4/CyLib.c **** *
2973:.\Generated_Source\PSoC4/CyLib.c **** * Summary:
2974:.\Generated_Source\PSoC4/CyLib.c **** *  The function get the specified callback pointer.
2975:.\Generated_Source\PSoC4/CyLib.c **** *
2976:.\Generated_Source\PSoC4/CyLib.c **** * Parameters:
2977:.\Generated_Source\PSoC4/CyLib.c **** *  None
2978:.\Generated_Source\PSoC4/CyLib.c **** *
2979:.\Generated_Source\PSoC4/CyLib.c **** * Return:
2980:.\Generated_Source\PSoC4/CyLib.c **** *  None
2981:.\Generated_Source\PSoC4/CyLib.c **** *
2982:.\Generated_Source\PSoC4/CyLib.c **** *******************************************************************************/
2983:.\Generated_Source\PSoC4/CyLib.c **** cySysTickCallback CySysTickGetCallback(uint32 number)
2984:.\Generated_Source\PSoC4/CyLib.c **** {
 4531              		.loc 2 2984 0
 4532              		.cfi_startproc
 4533 0000 80B5     		push	{r7, lr}
 4534              		.cfi_def_cfa_offset 8
 4535              		.cfi_offset 7, -8
 4536              		.cfi_offset 14, -4
 4537 0002 82B0     		sub	sp, sp, #8
 4538              		.cfi_def_cfa_offset 16
 4539 0004 00AF     		add	r7, sp, #0
 4540              		.cfi_def_cfa_register 7
 4541 0006 7860     		str	r0, [r7, #4]
2985:.\Generated_Source\PSoC4/CyLib.c ****     return ((cySysTickCallback) CySysTickCallbacks[number]);
 4542              		.loc 2 2985 0
 4543 0008 034B     		ldr	r3, .L355
 4544 000a 7A68     		ldr	r2, [r7, #4]
 4545 000c 9200     		lsl	r2, r2, #2
 4546 000e D358     		ldr	r3, [r2, r3]
ARM GAS  C:\Users\CHRIST~1\AppData\Local\Temp\cc8KQrfd.s 			page 150


2986:.\Generated_Source\PSoC4/CyLib.c **** }
 4547              		.loc 2 2986 0
 4548 0010 181C     		mov	r0, r3
 4549 0012 BD46     		mov	sp, r7
 4550 0014 02B0     		add	sp, sp, #8
 4551              		@ sp needed
 4552 0016 80BD     		pop	{r7, pc}
 4553              	.L356:
 4554              		.align	2
 4555              	.L355:
 4556 0018 0C000000 		.word	CySysTickCallbacks
 4557              		.cfi_endproc
 4558              	.LFE78:
 4559              		.size	CySysTickGetCallback, .-CySysTickGetCallback
 4560              		.section	.text.CySysTickServiceCallbacks,"ax",%progbits
 4561              		.align	2
 4562              		.code	16
 4563              		.thumb_func
 4564              		.type	CySysTickServiceCallbacks, %function
 4565              	CySysTickServiceCallbacks:
 4566              	.LFB79:
2987:.\Generated_Source\PSoC4/CyLib.c **** 
2988:.\Generated_Source\PSoC4/CyLib.c **** 
2989:.\Generated_Source\PSoC4/CyLib.c **** /*******************************************************************************
2990:.\Generated_Source\PSoC4/CyLib.c **** * Function Name: CySysTickServiceCallbacks
2991:.\Generated_Source\PSoC4/CyLib.c **** ********************************************************************************
2992:.\Generated_Source\PSoC4/CyLib.c **** *
2993:.\Generated_Source\PSoC4/CyLib.c **** * Summary:
2994:.\Generated_Source\PSoC4/CyLib.c **** *  System Tick timer interrupt routine
2995:.\Generated_Source\PSoC4/CyLib.c **** *
2996:.\Generated_Source\PSoC4/CyLib.c **** * Parameters:
2997:.\Generated_Source\PSoC4/CyLib.c **** *  None
2998:.\Generated_Source\PSoC4/CyLib.c **** *
2999:.\Generated_Source\PSoC4/CyLib.c **** * Return:
3000:.\Generated_Source\PSoC4/CyLib.c **** *  None
3001:.\Generated_Source\PSoC4/CyLib.c **** *
3002:.\Generated_Source\PSoC4/CyLib.c **** *******************************************************************************/
3003:.\Generated_Source\PSoC4/CyLib.c **** static void CySysTickServiceCallbacks(void)
3004:.\Generated_Source\PSoC4/CyLib.c **** {
 4567              		.loc 2 3004 0
 4568              		.cfi_startproc
 4569 0000 80B5     		push	{r7, lr}
 4570              		.cfi_def_cfa_offset 8
 4571              		.cfi_offset 7, -8
 4572              		.cfi_offset 14, -4
 4573 0002 82B0     		sub	sp, sp, #8
 4574              		.cfi_def_cfa_offset 16
 4575 0004 00AF     		add	r7, sp, #0
 4576              		.cfi_def_cfa_register 7
3005:.\Generated_Source\PSoC4/CyLib.c ****     uint32 i;
3006:.\Generated_Source\PSoC4/CyLib.c **** 
3007:.\Generated_Source\PSoC4/CyLib.c ****     /* Verify that tick timer flag was set */
3008:.\Generated_Source\PSoC4/CyLib.c ****     if (1u == CySysTickGetCountFlag())
 4577              		.loc 2 3008 0
 4578 0006 FFF7FEFF 		bl	CySysTickGetCountFlag
 4579 000a 031E     		sub	r3, r0, #0
 4580 000c 012B     		cmp	r3, #1
ARM GAS  C:\Users\CHRIST~1\AppData\Local\Temp\cc8KQrfd.s 			page 151


 4581 000e 13D1     		bne	.L357
3009:.\Generated_Source\PSoC4/CyLib.c ****     {
3010:.\Generated_Source\PSoC4/CyLib.c ****         for (i=0u; i < CY_SYS_SYST_NUM_OF_CALLBACKS; i++)
 4582              		.loc 2 3010 0
 4583 0010 0023     		mov	r3, #0
 4584 0012 7B60     		str	r3, [r7, #4]
 4585 0014 0DE0     		b	.L359
 4586              	.L361:
3011:.\Generated_Source\PSoC4/CyLib.c ****         {
3012:.\Generated_Source\PSoC4/CyLib.c ****             if (CySysTickCallbacks[i] != (void *) 0)
 4587              		.loc 2 3012 0
 4588 0016 0A4B     		ldr	r3, .L362
 4589 0018 7A68     		ldr	r2, [r7, #4]
 4590 001a 9200     		lsl	r2, r2, #2
 4591 001c D358     		ldr	r3, [r2, r3]
 4592 001e 002B     		cmp	r3, #0
 4593 0020 04D0     		beq	.L360
3013:.\Generated_Source\PSoC4/CyLib.c ****             {
3014:.\Generated_Source\PSoC4/CyLib.c ****                 (void)(CySysTickCallbacks[i])();
 4594              		.loc 2 3014 0
 4595 0022 074B     		ldr	r3, .L362
 4596 0024 7A68     		ldr	r2, [r7, #4]
 4597 0026 9200     		lsl	r2, r2, #2
 4598 0028 D358     		ldr	r3, [r2, r3]
 4599 002a 9847     		blx	r3
 4600              	.L360:
3010:.\Generated_Source\PSoC4/CyLib.c ****         {
 4601              		.loc 2 3010 0 discriminator 2
 4602 002c 7B68     		ldr	r3, [r7, #4]
 4603 002e 0133     		add	r3, r3, #1
 4604 0030 7B60     		str	r3, [r7, #4]
 4605              	.L359:
3010:.\Generated_Source\PSoC4/CyLib.c ****         {
 4606              		.loc 2 3010 0 is_stmt 0 discriminator 1
 4607 0032 7B68     		ldr	r3, [r7, #4]
 4608 0034 042B     		cmp	r3, #4
 4609 0036 EED9     		bls	.L361
 4610              	.L357:
3015:.\Generated_Source\PSoC4/CyLib.c ****             }
3016:.\Generated_Source\PSoC4/CyLib.c ****         }
3017:.\Generated_Source\PSoC4/CyLib.c ****     }
3018:.\Generated_Source\PSoC4/CyLib.c **** }
 4611              		.loc 2 3018 0 is_stmt 1
 4612 0038 BD46     		mov	sp, r7
 4613 003a 02B0     		add	sp, sp, #8
 4614              		@ sp needed
 4615 003c 80BD     		pop	{r7, pc}
 4616              	.L363:
 4617 003e C046     		.align	2
 4618              	.L362:
 4619 0040 0C000000 		.word	CySysTickCallbacks
 4620              		.cfi_endproc
 4621              	.LFE79:
 4622              		.size	CySysTickServiceCallbacks, .-CySysTickServiceCallbacks
 4623              		.text
 4624              	.Letext0:
 4625              		.file 3 ".\\Generated_Source\\PSoC4\\cytypes.h"
ARM GAS  C:\Users\CHRIST~1\AppData\Local\Temp\cc8KQrfd.s 			page 152


 4626              		.section	.debug_info,"",%progbits
 4627              	.Ldebug_info0:
 4628 0000 270E0000 		.4byte	0xe27
 4629 0004 0400     		.2byte	0x4
 4630 0006 00000000 		.4byte	.Ldebug_abbrev0
 4631 000a 04       		.byte	0x4
 4632 000b 01       		.uleb128 0x1
 4633 000c 10090000 		.4byte	.LASF151
 4634 0010 01       		.byte	0x1
 4635 0011 C5040000 		.4byte	.LASF152
 4636 0015 19020000 		.4byte	.LASF153
 4637 0019 00000000 		.4byte	.Ldebug_ranges0+0
 4638 001d 00000000 		.4byte	0
 4639 0021 00000000 		.4byte	.Ldebug_line0
 4640 0025 02       		.uleb128 0x2
 4641 0026 01       		.byte	0x1
 4642 0027 06       		.byte	0x6
 4643 0028 7B010000 		.4byte	.LASF0
 4644 002c 02       		.uleb128 0x2
 4645 002d 01       		.byte	0x1
 4646 002e 08       		.byte	0x8
 4647 002f 86060000 		.4byte	.LASF1
 4648 0033 02       		.uleb128 0x2
 4649 0034 02       		.byte	0x2
 4650 0035 05       		.byte	0x5
 4651 0036 B2060000 		.4byte	.LASF2
 4652 003a 02       		.uleb128 0x2
 4653 003b 02       		.byte	0x2
 4654 003c 07       		.byte	0x7
 4655 003d 8B040000 		.4byte	.LASF3
 4656 0041 02       		.uleb128 0x2
 4657 0042 04       		.byte	0x4
 4658 0043 05       		.byte	0x5
 4659 0044 EE010000 		.4byte	.LASF4
 4660 0048 02       		.uleb128 0x2
 4661 0049 04       		.byte	0x4
 4662 004a 07       		.byte	0x7
 4663 004b 00040000 		.4byte	.LASF5
 4664 004f 02       		.uleb128 0x2
 4665 0050 08       		.byte	0x8
 4666 0051 05       		.byte	0x5
 4667 0052 6D010000 		.4byte	.LASF6
 4668 0056 02       		.uleb128 0x2
 4669 0057 08       		.byte	0x8
 4670 0058 07       		.byte	0x7
 4671 0059 D2000000 		.4byte	.LASF7
 4672 005d 03       		.uleb128 0x3
 4673 005e 04       		.byte	0x4
 4674 005f 05       		.byte	0x5
 4675 0060 696E7400 		.ascii	"int\000"
 4676 0064 02       		.uleb128 0x2
 4677 0065 04       		.byte	0x4
 4678 0066 07       		.byte	0x7
 4679 0067 C2030000 		.4byte	.LASF8
 4680 006b 04       		.uleb128 0x4
 4681 006c 7E020000 		.4byte	.LASF9
 4682 0070 03       		.byte	0x3
ARM GAS  C:\Users\CHRIST~1\AppData\Local\Temp\cc8KQrfd.s 			page 153


 4683 0071 A1       		.byte	0xa1
 4684 0072 2C000000 		.4byte	0x2c
 4685 0076 04       		.uleb128 0x4
 4686 0077 1A000000 		.4byte	.LASF10
 4687 007b 03       		.byte	0x3
 4688 007c A2       		.byte	0xa2
 4689 007d 3A000000 		.4byte	0x3a
 4690 0081 04       		.uleb128 0x4
 4691 0082 F0020000 		.4byte	.LASF11
 4692 0086 03       		.byte	0x3
 4693 0087 A3       		.byte	0xa3
 4694 0088 48000000 		.4byte	0x48
 4695 008c 02       		.uleb128 0x2
 4696 008d 04       		.byte	0x4
 4697 008e 04       		.byte	0x4
 4698 008f 17060000 		.4byte	.LASF12
 4699 0093 02       		.uleb128 0x2
 4700 0094 08       		.byte	0x8
 4701 0095 04       		.byte	0x4
 4702 0096 9A020000 		.4byte	.LASF13
 4703 009a 02       		.uleb128 0x2
 4704 009b 01       		.byte	0x1
 4705 009c 08       		.byte	0x8
 4706 009d 97070000 		.4byte	.LASF14
 4707 00a1 05       		.uleb128 0x5
 4708 00a2 07090000 		.4byte	.LASF15
 4709 00a6 03       		.byte	0x3
 4710 00a7 4301     		.2byte	0x143
 4711 00a9 48000000 		.4byte	0x48
 4712 00ad 05       		.uleb128 0x5
 4713 00ae 70060000 		.4byte	.LASF16
 4714 00b2 03       		.byte	0x3
 4715 00b3 4B01     		.2byte	0x14b
 4716 00b5 B9000000 		.4byte	0xb9
 4717 00b9 06       		.uleb128 0x6
 4718 00ba 6B000000 		.4byte	0x6b
 4719 00be 05       		.uleb128 0x5
 4720 00bf 1E050000 		.4byte	.LASF17
 4721 00c3 03       		.byte	0x3
 4722 00c4 4D01     		.2byte	0x14d
 4723 00c6 CA000000 		.4byte	0xca
 4724 00ca 06       		.uleb128 0x6
 4725 00cb 81000000 		.4byte	0x81
 4726 00cf 05       		.uleb128 0x5
 4727 00d0 AA070000 		.4byte	.LASF18
 4728 00d4 03       		.byte	0x3
 4729 00d5 5D01     		.2byte	0x15d
 4730 00d7 DB000000 		.4byte	0xdb
 4731 00db 07       		.uleb128 0x7
 4732 00dc 04       		.byte	0x4
 4733 00dd E1000000 		.4byte	0xe1
 4734 00e1 08       		.uleb128 0x8
 4735 00e2 02       		.uleb128 0x2
 4736 00e3 04       		.byte	0x4
 4737 00e4 07       		.byte	0x7
 4738 00e5 70050000 		.4byte	.LASF19
 4739 00e9 04       		.uleb128 0x4
ARM GAS  C:\Users\CHRIST~1\AppData\Local\Temp\cc8KQrfd.s 			page 154


 4740 00ea 1D060000 		.4byte	.LASF20
 4741 00ee 01       		.byte	0x1
 4742 00ef 8B       		.byte	0x8b
 4743 00f0 DB000000 		.4byte	0xdb
 4744 00f4 09       		.uleb128 0x9
 4745 00f5 51010000 		.4byte	.LASF21
 4746 00f9 01       		.byte	0x1
 4747 00fa 7E03     		.2byte	0x37e
 4748 00fc 00000000 		.4byte	.LFB0
 4749 0100 3C000000 		.4byte	.LFE0-.LFB0
 4750 0104 01       		.uleb128 0x1
 4751 0105 9C       		.byte	0x9c
 4752 0106 09       		.uleb128 0x9
 4753 0107 14030000 		.4byte	.LASF22
 4754 010b 01       		.byte	0x1
 4755 010c 9C03     		.2byte	0x39c
 4756 010e 00000000 		.4byte	.LFB1
 4757 0112 48000000 		.4byte	.LFE1-.LFB1
 4758 0116 01       		.uleb128 0x1
 4759 0117 9C       		.byte	0x9c
 4760 0118 0A       		.uleb128 0xa
 4761 0119 B3090000 		.4byte	.LASF23
 4762 011d 02       		.byte	0x2
 4763 011e 57       		.byte	0x57
 4764 011f 00000000 		.4byte	.LFB2
 4765 0123 1C000000 		.4byte	.LFE2-.LFB2
 4766 0127 01       		.uleb128 0x1
 4767 0128 9C       		.byte	0x9c
 4768 0129 0A       		.uleb128 0xa
 4769 012a 2D040000 		.4byte	.LASF24
 4770 012e 02       		.byte	0x2
 4771 012f 6B       		.byte	0x6b
 4772 0130 00000000 		.4byte	.LFB3
 4773 0134 18000000 		.4byte	.LFE3-.LFB3
 4774 0138 01       		.uleb128 0x1
 4775 0139 9C       		.byte	0x9c
 4776 013a 0A       		.uleb128 0xa
 4777 013b E6040000 		.4byte	.LASF25
 4778 013f 02       		.byte	0x2
 4779 0140 7F       		.byte	0x7f
 4780 0141 00000000 		.4byte	.LFB4
 4781 0145 1C000000 		.4byte	.LFE4-.LFB4
 4782 0149 01       		.uleb128 0x1
 4783 014a 9C       		.byte	0x9c
 4784 014b 0B       		.uleb128 0xb
 4785 014c A1020000 		.4byte	.LASF28
 4786 0150 02       		.byte	0x2
 4787 0151 9E       		.byte	0x9e
 4788 0152 00000000 		.4byte	.LFB5
 4789 0156 60000000 		.4byte	.LFE5-.LFB5
 4790 015a 01       		.uleb128 0x1
 4791 015b 9C       		.byte	0x9c
 4792 015c 6F010000 		.4byte	0x16f
 4793 0160 0C       		.uleb128 0xc
 4794 0161 AA010000 		.4byte	.LASF26
 4795 0165 02       		.byte	0x2
 4796 0166 A1       		.byte	0xa1
ARM GAS  C:\Users\CHRIST~1\AppData\Local\Temp\cc8KQrfd.s 			page 155


 4797 0167 6B000000 		.4byte	0x6b
 4798 016b 02       		.uleb128 0x2
 4799 016c 91       		.byte	0x91
 4800 016d 6F       		.sleb128 -17
 4801 016e 00       		.byte	0
 4802 016f 0D       		.uleb128 0xd
 4803 0170 2B070000 		.4byte	.LASF47
 4804 0174 02       		.byte	0x2
 4805 0175 D2       		.byte	0xd2
 4806 0176 81000000 		.4byte	0x81
 4807 017a 00000000 		.4byte	.LFB6
 4808 017e 1C000000 		.4byte	.LFE6-.LFB6
 4809 0182 01       		.uleb128 0x1
 4810 0183 9C       		.byte	0x9c
 4811 0184 0E       		.uleb128 0xe
 4812 0185 9C000000 		.4byte	.LASF154
 4813 0189 02       		.byte	0x2
 4814 018a EE       		.byte	0xee
 4815 018b 81000000 		.4byte	0x81
 4816 018f 00000000 		.4byte	.LFB7
 4817 0193 20000000 		.4byte	.LFE7-.LFB7
 4818 0197 01       		.uleb128 0x1
 4819 0198 9C       		.byte	0x9c
 4820 0199 AC010000 		.4byte	0x1ac
 4821 019d 0C       		.uleb128 0xc
 4822 019e 49000000 		.4byte	.LASF27
 4823 01a2 02       		.byte	0x2
 4824 01a3 F0       		.byte	0xf0
 4825 01a4 81000000 		.4byte	0x81
 4826 01a8 02       		.uleb128 0x2
 4827 01a9 91       		.byte	0x91
 4828 01aa 74       		.sleb128 -12
 4829 01ab 00       		.byte	0
 4830 01ac 0F       		.uleb128 0xf
 4831 01ad CF030000 		.4byte	.LASF29
 4832 01b1 02       		.byte	0x2
 4833 01b2 1F01     		.2byte	0x11f
 4834 01b4 00000000 		.4byte	.LFB8
 4835 01b8 54000000 		.4byte	.LFE8-.LFB8
 4836 01bc 01       		.uleb128 0x1
 4837 01bd 9C       		.byte	0x9c
 4838 01be E1010000 		.4byte	0x1e1
 4839 01c2 10       		.uleb128 0x10
 4840 01c3 69050000 		.4byte	.LASF31
 4841 01c7 02       		.byte	0x2
 4842 01c8 1F01     		.2byte	0x11f
 4843 01ca 81000000 		.4byte	0x81
 4844 01ce 02       		.uleb128 0x2
 4845 01cf 91       		.byte	0x91
 4846 01d0 64       		.sleb128 -28
 4847 01d1 11       		.uleb128 0x11
 4848 01d2 AA010000 		.4byte	.LASF26
 4849 01d6 02       		.byte	0x2
 4850 01d7 2101     		.2byte	0x121
 4851 01d9 6B000000 		.4byte	0x6b
 4852 01dd 02       		.uleb128 0x2
 4853 01de 91       		.byte	0x91
ARM GAS  C:\Users\CHRIST~1\AppData\Local\Temp\cc8KQrfd.s 			page 156


 4854 01df 6F       		.sleb128 -17
 4855 01e0 00       		.byte	0
 4856 01e1 0F       		.uleb128 0xf
 4857 01e2 30000000 		.4byte	.LASF30
 4858 01e6 02       		.byte	0x2
 4859 01e7 5501     		.2byte	0x155
 4860 01e9 00000000 		.4byte	.LFB9
 4861 01ed 40000000 		.4byte	.LFE9-.LFB9
 4862 01f1 01       		.uleb128 0x1
 4863 01f2 9C       		.byte	0x9c
 4864 01f3 16020000 		.4byte	0x216
 4865 01f7 10       		.uleb128 0x10
 4866 01f8 10070000 		.4byte	.LASF32
 4867 01fc 02       		.byte	0x2
 4868 01fd 5501     		.2byte	0x155
 4869 01ff 81000000 		.4byte	0x81
 4870 0203 02       		.uleb128 0x2
 4871 0204 91       		.byte	0x91
 4872 0205 64       		.sleb128 -28
 4873 0206 11       		.uleb128 0x11
 4874 0207 AA010000 		.4byte	.LASF26
 4875 020b 02       		.byte	0x2
 4876 020c 5701     		.2byte	0x157
 4877 020e 6B000000 		.4byte	0x6b
 4878 0212 02       		.uleb128 0x2
 4879 0213 91       		.byte	0x91
 4880 0214 6F       		.sleb128 -17
 4881 0215 00       		.byte	0
 4882 0216 0F       		.uleb128 0xf
 4883 0217 D4070000 		.4byte	.LASF33
 4884 021b 02       		.byte	0x2
 4885 021c 8601     		.2byte	0x186
 4886 021e 00000000 		.4byte	.LFB10
 4887 0222 44000000 		.4byte	.LFE10-.LFB10
 4888 0226 01       		.uleb128 0x1
 4889 0227 9C       		.byte	0x9c
 4890 0228 4B020000 		.4byte	0x24b
 4891 022c 10       		.uleb128 0x10
 4892 022d E2080000 		.4byte	.LASF34
 4893 0231 02       		.byte	0x2
 4894 0232 8601     		.2byte	0x186
 4895 0234 81000000 		.4byte	0x81
 4896 0238 02       		.uleb128 0x2
 4897 0239 91       		.byte	0x91
 4898 023a 64       		.sleb128 -28
 4899 023b 11       		.uleb128 0x11
 4900 023c AA010000 		.4byte	.LASF26
 4901 0240 02       		.byte	0x2
 4902 0241 8801     		.2byte	0x188
 4903 0243 6B000000 		.4byte	0x6b
 4904 0247 02       		.uleb128 0x2
 4905 0248 91       		.byte	0x91
 4906 0249 6F       		.sleb128 -17
 4907 024a 00       		.byte	0
 4908 024b 0F       		.uleb128 0xf
 4909 024c F7040000 		.4byte	.LASF35
 4910 0250 02       		.byte	0x2
ARM GAS  C:\Users\CHRIST~1\AppData\Local\Temp\cc8KQrfd.s 			page 157


 4911 0251 AE01     		.2byte	0x1ae
 4912 0253 00000000 		.4byte	.LFB11
 4913 0257 E0010000 		.4byte	.LFE11-.LFB11
 4914 025b 01       		.uleb128 0x1
 4915 025c 9C       		.byte	0x9c
 4916 025d BC020000 		.4byte	0x2bc
 4917 0261 10       		.uleb128 0x10
 4918 0262 87010000 		.4byte	.LASF36
 4919 0266 02       		.byte	0x2
 4920 0267 AE01     		.2byte	0x1ae
 4921 0269 81000000 		.4byte	0x81
 4922 026d 02       		.uleb128 0x2
 4923 026e 91       		.byte	0x91
 4924 026f 64       		.sleb128 -28
 4925 0270 11       		.uleb128 0x11
 4926 0271 12000000 		.4byte	.LASF37
 4927 0275 02       		.byte	0x2
 4928 0276 B001     		.2byte	0x1b0
 4929 0278 6B000000 		.4byte	0x6b
 4930 027c 02       		.uleb128 0x2
 4931 027d 91       		.byte	0x91
 4932 027e 6F       		.sleb128 -17
 4933 027f 11       		.uleb128 0x11
 4934 0280 93050000 		.4byte	.LASF38
 4935 0284 02       		.byte	0x2
 4936 0285 B101     		.2byte	0x1b1
 4937 0287 6B000000 		.4byte	0x6b
 4938 028b 02       		.uleb128 0x2
 4939 028c 91       		.byte	0x91
 4940 028d 6E       		.sleb128 -18
 4941 028e 11       		.uleb128 0x11
 4942 028f AA010000 		.4byte	.LASF26
 4943 0293 02       		.byte	0x2
 4944 0294 B201     		.2byte	0x1b2
 4945 0296 6B000000 		.4byte	0x6b
 4946 029a 02       		.uleb128 0x2
 4947 029b 91       		.byte	0x91
 4948 029c 6B       		.sleb128 -21
 4949 029d 11       		.uleb128 0x11
 4950 029e DE090000 		.4byte	.LASF39
 4951 02a2 02       		.byte	0x2
 4952 02a3 B301     		.2byte	0x1b3
 4953 02a5 6B000000 		.4byte	0x6b
 4954 02a9 02       		.uleb128 0x2
 4955 02aa 91       		.byte	0x91
 4956 02ab 6C       		.sleb128 -20
 4957 02ac 11       		.uleb128 0x11
 4958 02ad 5E080000 		.4byte	.LASF40
 4959 02b1 02       		.byte	0x2
 4960 02b2 B401     		.2byte	0x1b4
 4961 02b4 6B000000 		.4byte	0x6b
 4962 02b8 02       		.uleb128 0x2
 4963 02b9 91       		.byte	0x91
 4964 02ba 6D       		.sleb128 -19
 4965 02bb 00       		.byte	0
 4966 02bc 12       		.uleb128 0x12
 4967 02bd 1A070000 		.4byte	.LASF49
ARM GAS  C:\Users\CHRIST~1\AppData\Local\Temp\cc8KQrfd.s 			page 158


 4968 02c1 02       		.byte	0x2
 4969 02c2 B302     		.2byte	0x2b3
 4970 02c4 A1000000 		.4byte	0xa1
 4971 02c8 00000000 		.4byte	.LFB12
 4972 02cc 74000000 		.4byte	.LFE12-.LFB12
 4973 02d0 01       		.uleb128 0x1
 4974 02d1 9C       		.byte	0x9c
 4975 02d2 F5020000 		.4byte	0x2f5
 4976 02d6 10       		.uleb128 0x10
 4977 02d7 CC080000 		.4byte	.LASF41
 4978 02db 02       		.byte	0x2
 4979 02dc B302     		.2byte	0x2b3
 4980 02de 81000000 		.4byte	0x81
 4981 02e2 02       		.uleb128 0x2
 4982 02e3 91       		.byte	0x91
 4983 02e4 6C       		.sleb128 -20
 4984 02e5 11       		.uleb128 0x11
 4985 02e6 8F080000 		.4byte	.LASF42
 4986 02ea 02       		.byte	0x2
 4987 02eb B502     		.2byte	0x2b5
 4988 02ed A1000000 		.4byte	0xa1
 4989 02f1 02       		.uleb128 0x2
 4990 02f2 91       		.byte	0x91
 4991 02f3 74       		.sleb128 -12
 4992 02f4 00       		.byte	0
 4993 02f5 13       		.uleb128 0x13
 4994 02f6 EB070000 		.4byte	.LASF43
 4995 02fa 02       		.byte	0x2
 4996 02fb E302     		.2byte	0x2e3
 4997 02fd 00000000 		.4byte	.LFB13
 4998 0301 2C000000 		.4byte	.LFE13-.LFB13
 4999 0305 01       		.uleb128 0x1
 5000 0306 9C       		.byte	0x9c
 5001 0307 14       		.uleb128 0x14
 5002 0308 F7020000 		.4byte	.LASF69
 5003 030c 02       		.byte	0x2
 5004 030d FB02     		.2byte	0x2fb
 5005 030f 81000000 		.4byte	0x81
 5006 0313 00000000 		.4byte	.LFB14
 5007 0317 18000000 		.4byte	.LFE14-.LFB14
 5008 031b 01       		.uleb128 0x1
 5009 031c 9C       		.byte	0x9c
 5010 031d 0F       		.uleb128 0xf
 5011 031e F3080000 		.4byte	.LASF44
 5012 0322 02       		.byte	0x2
 5013 0323 1D03     		.2byte	0x31d
 5014 0325 00000000 		.4byte	.LFB15
 5015 0329 40000000 		.4byte	.LFE15-.LFB15
 5016 032d 01       		.uleb128 0x1
 5017 032e 9C       		.byte	0x9c
 5018 032f 52030000 		.4byte	0x352
 5019 0333 10       		.uleb128 0x10
 5020 0334 E2080000 		.4byte	.LASF34
 5021 0338 02       		.byte	0x2
 5022 0339 1D03     		.2byte	0x31d
 5023 033b 81000000 		.4byte	0x81
 5024 033f 02       		.uleb128 0x2
ARM GAS  C:\Users\CHRIST~1\AppData\Local\Temp\cc8KQrfd.s 			page 159


 5025 0340 91       		.byte	0x91
 5026 0341 64       		.sleb128 -28
 5027 0342 11       		.uleb128 0x11
 5028 0343 AA010000 		.4byte	.LASF26
 5029 0347 02       		.byte	0x2
 5030 0348 1F03     		.2byte	0x31f
 5031 034a 6B000000 		.4byte	0x6b
 5032 034e 02       		.uleb128 0x2
 5033 034f 91       		.byte	0x91
 5034 0350 6F       		.sleb128 -17
 5035 0351 00       		.byte	0
 5036 0352 15       		.uleb128 0x15
 5037 0353 4D080000 		.4byte	.LASF45
 5038 0357 02       		.byte	0x2
 5039 0358 4303     		.2byte	0x343
 5040 035a 00000000 		.4byte	.LFB16
 5041 035e 20000000 		.4byte	.LFE16-.LFB16
 5042 0362 01       		.uleb128 0x1
 5043 0363 9C       		.byte	0x9c
 5044 0364 0F       		.uleb128 0xf
 5045 0365 6F070000 		.4byte	.LASF46
 5046 0369 02       		.byte	0x2
 5047 036a 5803     		.2byte	0x358
 5048 036c 00000000 		.4byte	.LFB17
 5049 0370 5C000000 		.4byte	.LFE17-.LFB17
 5050 0374 01       		.uleb128 0x1
 5051 0375 9C       		.byte	0x9c
 5052 0376 8A030000 		.4byte	0x38a
 5053 037a 11       		.uleb128 0x11
 5054 037b AA010000 		.4byte	.LASF26
 5055 037f 02       		.byte	0x2
 5056 0380 5A03     		.2byte	0x35a
 5057 0382 6B000000 		.4byte	0x6b
 5058 0386 02       		.uleb128 0x2
 5059 0387 91       		.byte	0x91
 5060 0388 6F       		.sleb128 -17
 5061 0389 00       		.byte	0
 5062 038a 16       		.uleb128 0x16
 5063 038b 07010000 		.4byte	.LASF48
 5064 038f 02       		.byte	0x2
 5065 0390 7D03     		.2byte	0x37d
 5066 0392 81000000 		.4byte	0x81
 5067 0396 00000000 		.4byte	.LFB18
 5068 039a 1C000000 		.4byte	.LFE18-.LFB18
 5069 039e 01       		.uleb128 0x1
 5070 039f 9C       		.byte	0x9c
 5071 03a0 12       		.uleb128 0x12
 5072 03a1 7F070000 		.4byte	.LASF50
 5073 03a5 02       		.byte	0x2
 5074 03a6 9503     		.2byte	0x395
 5075 03a8 81000000 		.4byte	0x81
 5076 03ac 00000000 		.4byte	.LFB19
 5077 03b0 40000000 		.4byte	.LFE19-.LFB19
 5078 03b4 01       		.uleb128 0x1
 5079 03b5 9C       		.byte	0x9c
 5080 03b6 D9030000 		.4byte	0x3d9
 5081 03ba 10       		.uleb128 0x10
ARM GAS  C:\Users\CHRIST~1\AppData\Local\Temp\cc8KQrfd.s 			page 160


 5082 03bb A5070000 		.4byte	.LASF51
 5083 03bf 02       		.byte	0x2
 5084 03c0 9503     		.2byte	0x395
 5085 03c2 81000000 		.4byte	0x81
 5086 03c6 02       		.uleb128 0x2
 5087 03c7 91       		.byte	0x91
 5088 03c8 6C       		.sleb128 -20
 5089 03c9 11       		.uleb128 0x11
 5090 03ca 8F080000 		.4byte	.LASF42
 5091 03ce 02       		.byte	0x2
 5092 03cf 9703     		.2byte	0x397
 5093 03d1 81000000 		.4byte	0x81
 5094 03d5 02       		.uleb128 0x2
 5095 03d6 91       		.byte	0x91
 5096 03d7 74       		.sleb128 -12
 5097 03d8 00       		.byte	0
 5098 03d9 0F       		.uleb128 0xf
 5099 03da C7070000 		.4byte	.LASF52
 5100 03de 02       		.byte	0x2
 5101 03df C603     		.2byte	0x3c6
 5102 03e1 00000000 		.4byte	.LFB20
 5103 03e5 34000000 		.4byte	.LFE20-.LFB20
 5104 03e9 01       		.uleb128 0x1
 5105 03ea 9C       		.byte	0x9c
 5106 03eb FF030000 		.4byte	0x3ff
 5107 03ef 11       		.uleb128 0x11
 5108 03f0 AA010000 		.4byte	.LASF26
 5109 03f4 02       		.byte	0x2
 5110 03f5 C803     		.2byte	0x3c8
 5111 03f7 6B000000 		.4byte	0x6b
 5112 03fb 02       		.uleb128 0x2
 5113 03fc 91       		.byte	0x91
 5114 03fd 6F       		.sleb128 -17
 5115 03fe 00       		.byte	0
 5116 03ff 16       		.uleb128 0x16
 5117 0400 61060000 		.4byte	.LASF53
 5118 0404 02       		.byte	0x2
 5119 0405 E003     		.2byte	0x3e0
 5120 0407 81000000 		.4byte	0x81
 5121 040b 00000000 		.4byte	.LFB21
 5122 040f 20000000 		.4byte	.LFE21-.LFB21
 5123 0413 01       		.uleb128 0x1
 5124 0414 9C       		.byte	0x9c
 5125 0415 0F       		.uleb128 0xf
 5126 0416 61000000 		.4byte	.LASF54
 5127 041a 02       		.byte	0x2
 5128 041b F503     		.2byte	0x3f5
 5129 041d 00000000 		.4byte	.LFB22
 5130 0421 4C000000 		.4byte	.LFE22-.LFB22
 5131 0425 01       		.uleb128 0x1
 5132 0426 9C       		.byte	0x9c
 5133 0427 3B040000 		.4byte	0x43b
 5134 042b 11       		.uleb128 0x11
 5135 042c AA010000 		.4byte	.LASF26
 5136 0430 02       		.byte	0x2
 5137 0431 F703     		.2byte	0x3f7
 5138 0433 6B000000 		.4byte	0x6b
ARM GAS  C:\Users\CHRIST~1\AppData\Local\Temp\cc8KQrfd.s 			page 161


 5139 0437 02       		.uleb128 0x2
 5140 0438 91       		.byte	0x91
 5141 0439 6F       		.sleb128 -17
 5142 043a 00       		.byte	0
 5143 043b 12       		.uleb128 0x12
 5144 043c C4090000 		.4byte	.LASF55
 5145 0440 02       		.byte	0x2
 5146 0441 1A04     		.2byte	0x41a
 5147 0443 81000000 		.4byte	0x81
 5148 0447 00000000 		.4byte	.LFB23
 5149 044b 30000000 		.4byte	.LFE23-.LFB23
 5150 044f 01       		.uleb128 0x1
 5151 0450 9C       		.byte	0x9c
 5152 0451 65040000 		.4byte	0x465
 5153 0455 10       		.uleb128 0x10
 5154 0456 77000000 		.4byte	.LASF56
 5155 045a 02       		.byte	0x2
 5156 045b 1A04     		.2byte	0x41a
 5157 045d 81000000 		.4byte	0x81
 5158 0461 02       		.uleb128 0x2
 5159 0462 91       		.byte	0x91
 5160 0463 74       		.sleb128 -12
 5161 0464 00       		.byte	0
 5162 0465 0F       		.uleb128 0xf
 5163 0466 00000000 		.4byte	.LASF57
 5164 046a 02       		.byte	0x2
 5165 046b 3E04     		.2byte	0x43e
 5166 046d 00000000 		.4byte	.LFB24
 5167 0471 58000000 		.4byte	.LFE24-.LFB24
 5168 0475 01       		.uleb128 0x1
 5169 0476 9C       		.byte	0x9c
 5170 0477 A9040000 		.4byte	0x4a9
 5171 047b 10       		.uleb128 0x10
 5172 047c 77000000 		.4byte	.LASF56
 5173 0480 02       		.byte	0x2
 5174 0481 3E04     		.2byte	0x43e
 5175 0483 81000000 		.4byte	0x81
 5176 0487 02       		.uleb128 0x2
 5177 0488 91       		.byte	0x91
 5178 0489 6C       		.sleb128 -20
 5179 048a 10       		.uleb128 0x10
 5180 048b A5070000 		.4byte	.LASF51
 5181 048f 02       		.byte	0x2
 5182 0490 3E04     		.2byte	0x43e
 5183 0492 81000000 		.4byte	0x81
 5184 0496 02       		.uleb128 0x2
 5185 0497 91       		.byte	0x91
 5186 0498 68       		.sleb128 -24
 5187 0499 11       		.uleb128 0x11
 5188 049a 96080000 		.4byte	.LASF58
 5189 049e 02       		.byte	0x2
 5190 049f 4004     		.2byte	0x440
 5191 04a1 81000000 		.4byte	0x81
 5192 04a5 02       		.uleb128 0x2
 5193 04a6 91       		.byte	0x91
 5194 04a7 74       		.sleb128 -12
 5195 04a8 00       		.byte	0
ARM GAS  C:\Users\CHRIST~1\AppData\Local\Temp\cc8KQrfd.s 			page 162


 5196 04a9 17       		.uleb128 0x17
 5197 04aa 3D030000 		.4byte	.LASF59
 5198 04ae 02       		.byte	0x2
 5199 04af 5D04     		.2byte	0x45d
 5200 04b1 81000000 		.4byte	0x81
 5201 04b5 00000000 		.4byte	.LFB25
 5202 04b9 24000000 		.4byte	.LFE25-.LFB25
 5203 04bd 01       		.uleb128 0x1
 5204 04be 9C       		.byte	0x9c
 5205 04bf D3040000 		.4byte	0x4d3
 5206 04c3 10       		.uleb128 0x10
 5207 04c4 77000000 		.4byte	.LASF56
 5208 04c8 02       		.byte	0x2
 5209 04c9 5D04     		.2byte	0x45d
 5210 04cb 81000000 		.4byte	0x81
 5211 04cf 02       		.uleb128 0x2
 5212 04d0 91       		.byte	0x91
 5213 04d1 74       		.sleb128 -12
 5214 04d2 00       		.byte	0
 5215 04d3 0F       		.uleb128 0xf
 5216 04d4 40050000 		.4byte	.LASF60
 5217 04d8 02       		.byte	0x2
 5218 04d9 7E04     		.2byte	0x47e
 5219 04db 00000000 		.4byte	.LFB26
 5220 04df 6C000000 		.4byte	.LFE26-.LFB26
 5221 04e3 01       		.uleb128 0x1
 5222 04e4 9C       		.byte	0x9c
 5223 04e5 17050000 		.4byte	0x517
 5224 04e9 10       		.uleb128 0x10
 5225 04ea 77000000 		.4byte	.LASF56
 5226 04ee 02       		.byte	0x2
 5227 04ef 7E04     		.2byte	0x47e
 5228 04f1 81000000 		.4byte	0x81
 5229 04f5 02       		.uleb128 0x2
 5230 04f6 91       		.byte	0x91
 5231 04f7 6C       		.sleb128 -20
 5232 04f8 10       		.uleb128 0x10
 5233 04f9 93020000 		.4byte	.LASF61
 5234 04fd 02       		.byte	0x2
 5235 04fe 7E04     		.2byte	0x47e
 5236 0500 81000000 		.4byte	0x81
 5237 0504 02       		.uleb128 0x2
 5238 0505 91       		.byte	0x91
 5239 0506 68       		.sleb128 -24
 5240 0507 11       		.uleb128 0x11
 5241 0508 96080000 		.4byte	.LASF58
 5242 050c 02       		.byte	0x2
 5243 050d 8004     		.2byte	0x480
 5244 050f 81000000 		.4byte	0x81
 5245 0513 02       		.uleb128 0x2
 5246 0514 91       		.byte	0x91
 5247 0515 74       		.sleb128 -12
 5248 0516 00       		.byte	0
 5249 0517 12       		.uleb128 0x12
 5250 0518 A5080000 		.4byte	.LASF62
 5251 051c 02       		.byte	0x2
 5252 051d A104     		.2byte	0x4a1
ARM GAS  C:\Users\CHRIST~1\AppData\Local\Temp\cc8KQrfd.s 			page 163


 5253 051f 81000000 		.4byte	0x81
 5254 0523 00000000 		.4byte	.LFB27
 5255 0527 40000000 		.4byte	.LFE27-.LFB27
 5256 052b 01       		.uleb128 0x1
 5257 052c 9C       		.byte	0x9c
 5258 052d 41050000 		.4byte	0x541
 5259 0531 10       		.uleb128 0x10
 5260 0532 77000000 		.4byte	.LASF56
 5261 0536 02       		.byte	0x2
 5262 0537 A104     		.2byte	0x4a1
 5263 0539 81000000 		.4byte	0x81
 5264 053d 02       		.uleb128 0x2
 5265 053e 91       		.byte	0x91
 5266 053f 74       		.sleb128 -12
 5267 0540 00       		.byte	0
 5268 0541 0F       		.uleb128 0xf
 5269 0542 91030000 		.4byte	.LASF63
 5270 0546 02       		.byte	0x2
 5271 0547 CF04     		.2byte	0x4cf
 5272 0549 00000000 		.4byte	.LFB28
 5273 054d 60000000 		.4byte	.LFE28-.LFB28
 5274 0551 01       		.uleb128 0x1
 5275 0552 9C       		.byte	0x9c
 5276 0553 67050000 		.4byte	0x567
 5277 0557 10       		.uleb128 0x10
 5278 0558 A0030000 		.4byte	.LASF64
 5279 055c 02       		.byte	0x2
 5280 055d CF04     		.2byte	0x4cf
 5281 055f 81000000 		.4byte	0x81
 5282 0563 02       		.uleb128 0x2
 5283 0564 91       		.byte	0x91
 5284 0565 74       		.sleb128 -12
 5285 0566 00       		.byte	0
 5286 0567 0F       		.uleb128 0xf
 5287 0568 D0060000 		.4byte	.LASF65
 5288 056c 02       		.byte	0x2
 5289 056d 0405     		.2byte	0x504
 5290 056f 00000000 		.4byte	.LFB29
 5291 0573 60000000 		.4byte	.LFE29-.LFB29
 5292 0577 01       		.uleb128 0x1
 5293 0578 9C       		.byte	0x9c
 5294 0579 8D050000 		.4byte	0x58d
 5295 057d 10       		.uleb128 0x10
 5296 057e A0030000 		.4byte	.LASF64
 5297 0582 02       		.byte	0x2
 5298 0583 0405     		.2byte	0x504
 5299 0585 81000000 		.4byte	0x81
 5300 0589 02       		.uleb128 0x2
 5301 058a 91       		.byte	0x91
 5302 058b 74       		.sleb128 -12
 5303 058c 00       		.byte	0
 5304 058d 0F       		.uleb128 0xf
 5305 058e B1020000 		.4byte	.LASF66
 5306 0592 02       		.byte	0x2
 5307 0593 4305     		.2byte	0x543
 5308 0595 00000000 		.4byte	.LFB30
 5309 0599 58000000 		.4byte	.LFE30-.LFB30
ARM GAS  C:\Users\CHRIST~1\AppData\Local\Temp\cc8KQrfd.s 			page 164


 5310 059d 01       		.uleb128 0x1
 5311 059e 9C       		.byte	0x9c
 5312 059f D1050000 		.4byte	0x5d1
 5313 05a3 10       		.uleb128 0x10
 5314 05a4 D6080000 		.4byte	.LASF67
 5315 05a8 02       		.byte	0x2
 5316 05a9 4305     		.2byte	0x543
 5317 05ab 81000000 		.4byte	0x81
 5318 05af 02       		.uleb128 0x2
 5319 05b0 91       		.byte	0x91
 5320 05b1 64       		.sleb128 -28
 5321 05b2 11       		.uleb128 0x11
 5322 05b3 96080000 		.4byte	.LASF58
 5323 05b7 02       		.byte	0x2
 5324 05b8 4505     		.2byte	0x545
 5325 05ba 81000000 		.4byte	0x81
 5326 05be 02       		.uleb128 0x2
 5327 05bf 91       		.byte	0x91
 5328 05c0 68       		.sleb128 -24
 5329 05c1 11       		.uleb128 0x11
 5330 05c2 6E030000 		.4byte	.LASF68
 5331 05c6 02       		.byte	0x2
 5332 05c7 4605     		.2byte	0x546
 5333 05c9 81000000 		.4byte	0x81
 5334 05cd 02       		.uleb128 0x2
 5335 05ce 91       		.byte	0x91
 5336 05cf 6C       		.sleb128 -20
 5337 05d0 00       		.byte	0
 5338 05d1 14       		.uleb128 0x14
 5339 05d2 BC060000 		.4byte	.LASF70
 5340 05d6 02       		.byte	0x2
 5341 05d7 6805     		.2byte	0x568
 5342 05d9 81000000 		.4byte	0x81
 5343 05dd 00000000 		.4byte	.LFB31
 5344 05e1 1C000000 		.4byte	.LFE31-.LFB31
 5345 05e5 01       		.uleb128 0x1
 5346 05e6 9C       		.byte	0x9c
 5347 05e7 0F       		.uleb128 0xf
 5348 05e8 D6010000 		.4byte	.LASF71
 5349 05ec 02       		.byte	0x2
 5350 05ed 8105     		.2byte	0x581
 5351 05ef 00000000 		.4byte	.LFB32
 5352 05f3 90000000 		.4byte	.LFE32-.LFB32
 5353 05f7 01       		.uleb128 0x1
 5354 05f8 9C       		.byte	0x9c
 5355 05f9 2B060000 		.4byte	0x62b
 5356 05fd 10       		.uleb128 0x10
 5357 05fe 77000000 		.4byte	.LASF56
 5358 0602 02       		.byte	0x2
 5359 0603 8105     		.2byte	0x581
 5360 0605 81000000 		.4byte	0x81
 5361 0609 02       		.uleb128 0x2
 5362 060a 91       		.byte	0x91
 5363 060b 6C       		.sleb128 -20
 5364 060c 10       		.uleb128 0x10
 5365 060d A2050000 		.4byte	.LASF72
 5366 0611 02       		.byte	0x2
ARM GAS  C:\Users\CHRIST~1\AppData\Local\Temp\cc8KQrfd.s 			page 165


 5367 0612 8105     		.2byte	0x581
 5368 0614 81000000 		.4byte	0x81
 5369 0618 02       		.uleb128 0x2
 5370 0619 91       		.byte	0x91
 5371 061a 68       		.sleb128 -24
 5372 061b 11       		.uleb128 0x11
 5373 061c 34030000 		.4byte	.LASF73
 5374 0620 02       		.byte	0x2
 5375 0621 8305     		.2byte	0x583
 5376 0623 81000000 		.4byte	0x81
 5377 0627 02       		.uleb128 0x2
 5378 0628 91       		.byte	0x91
 5379 0629 74       		.sleb128 -12
 5380 062a 00       		.byte	0
 5381 062b 0F       		.uleb128 0xf
 5382 062c 290A0000 		.4byte	.LASF74
 5383 0630 02       		.byte	0x2
 5384 0631 AD05     		.2byte	0x5ad
 5385 0633 00000000 		.4byte	.LFB33
 5386 0637 44000000 		.4byte	.LFE33-.LFB33
 5387 063b 01       		.uleb128 0x1
 5388 063c 9C       		.byte	0x9c
 5389 063d 60060000 		.4byte	0x660
 5390 0641 10       		.uleb128 0x10
 5391 0642 E9010000 		.4byte	.LASF75
 5392 0646 02       		.byte	0x2
 5393 0647 AD05     		.2byte	0x5ad
 5394 0649 81000000 		.4byte	0x81
 5395 064d 02       		.uleb128 0x2
 5396 064e 91       		.byte	0x91
 5397 064f 6C       		.sleb128 -20
 5398 0650 11       		.uleb128 0x11
 5399 0651 96080000 		.4byte	.LASF58
 5400 0655 02       		.byte	0x2
 5401 0656 AF05     		.2byte	0x5af
 5402 0658 81000000 		.4byte	0x81
 5403 065c 02       		.uleb128 0x2
 5404 065d 91       		.byte	0x91
 5405 065e 74       		.sleb128 -12
 5406 065f 00       		.byte	0
 5407 0660 14       		.uleb128 0x14
 5408 0661 4B060000 		.4byte	.LASF76
 5409 0665 02       		.byte	0x2
 5410 0666 C905     		.2byte	0x5c9
 5411 0668 81000000 		.4byte	0x81
 5412 066c 00000000 		.4byte	.LFB34
 5413 0670 18000000 		.4byte	.LFE34-.LFB34
 5414 0674 01       		.uleb128 0x1
 5415 0675 9C       		.byte	0x9c
 5416 0676 12       		.uleb128 0x12
 5417 0677 FE060000 		.4byte	.LASF77
 5418 067b 02       		.byte	0x2
 5419 067c DE05     		.2byte	0x5de
 5420 067e 81000000 		.4byte	0x81
 5421 0682 00000000 		.4byte	.LFB35
 5422 0686 40000000 		.4byte	.LFE35-.LFB35
 5423 068a 01       		.uleb128 0x1
ARM GAS  C:\Users\CHRIST~1\AppData\Local\Temp\cc8KQrfd.s 			page 166


 5424 068b 9C       		.byte	0x9c
 5425 068c A0060000 		.4byte	0x6a0
 5426 0690 10       		.uleb128 0x10
 5427 0691 77000000 		.4byte	.LASF56
 5428 0695 02       		.byte	0x2
 5429 0696 DE05     		.2byte	0x5de
 5430 0698 81000000 		.4byte	0x81
 5431 069c 02       		.uleb128 0x2
 5432 069d 91       		.byte	0x91
 5433 069e 74       		.sleb128 -12
 5434 069f 00       		.byte	0
 5435 06a0 12       		.uleb128 0x12
 5436 06a1 8C010000 		.4byte	.LASF78
 5437 06a5 02       		.byte	0x2
 5438 06a6 F605     		.2byte	0x5f6
 5439 06a8 81000000 		.4byte	0x81
 5440 06ac 00000000 		.4byte	.LFB36
 5441 06b0 54000000 		.4byte	.LFE36-.LFB36
 5442 06b4 01       		.uleb128 0x1
 5443 06b5 9C       		.byte	0x9c
 5444 06b6 D9060000 		.4byte	0x6d9
 5445 06ba 10       		.uleb128 0x10
 5446 06bb 77000000 		.4byte	.LASF56
 5447 06bf 02       		.byte	0x2
 5448 06c0 F605     		.2byte	0x5f6
 5449 06c2 81000000 		.4byte	0x81
 5450 06c6 02       		.uleb128 0x2
 5451 06c7 91       		.byte	0x91
 5452 06c8 6C       		.sleb128 -20
 5453 06c9 11       		.uleb128 0x11
 5454 06ca 34030000 		.4byte	.LASF73
 5455 06ce 02       		.byte	0x2
 5456 06cf F805     		.2byte	0x5f8
 5457 06d1 81000000 		.4byte	0x81
 5458 06d5 02       		.uleb128 0x2
 5459 06d6 91       		.byte	0x91
 5460 06d7 74       		.sleb128 -12
 5461 06d8 00       		.byte	0
 5462 06d9 14       		.uleb128 0x14
 5463 06da 3E070000 		.4byte	.LASF79
 5464 06de 02       		.byte	0x2
 5465 06df 2706     		.2byte	0x627
 5466 06e1 81000000 		.4byte	0x81
 5467 06e5 00000000 		.4byte	.LFB37
 5468 06e9 1C000000 		.4byte	.LFE37-.LFB37
 5469 06ed 01       		.uleb128 0x1
 5470 06ee 9C       		.byte	0x9c
 5471 06ef 0F       		.uleb128 0xf
 5472 06f0 00060000 		.4byte	.LASF80
 5473 06f4 02       		.byte	0x2
 5474 06f5 4906     		.2byte	0x649
 5475 06f7 00000000 		.4byte	.LFB38
 5476 06fb 6C000000 		.4byte	.LFE38-.LFB38
 5477 06ff 01       		.uleb128 0x1
 5478 0700 9C       		.byte	0x9c
 5479 0701 33070000 		.4byte	0x733
 5480 0705 10       		.uleb128 0x10
ARM GAS  C:\Users\CHRIST~1\AppData\Local\Temp\cc8KQrfd.s 			page 167


 5481 0706 A0030000 		.4byte	.LASF64
 5482 070a 02       		.byte	0x2
 5483 070b 4906     		.2byte	0x649
 5484 070d 81000000 		.4byte	0x81
 5485 0711 02       		.uleb128 0x2
 5486 0712 91       		.byte	0x91
 5487 0713 64       		.sleb128 -28
 5488 0714 11       		.uleb128 0x11
 5489 0715 AA010000 		.4byte	.LASF26
 5490 0719 02       		.byte	0x2
 5491 071a 4B06     		.2byte	0x64b
 5492 071c 6B000000 		.4byte	0x6b
 5493 0720 02       		.uleb128 0x2
 5494 0721 91       		.byte	0x91
 5495 0722 6B       		.sleb128 -21
 5496 0723 11       		.uleb128 0x11
 5497 0724 82080000 		.4byte	.LASF81
 5498 0728 02       		.byte	0x2
 5499 0729 4C06     		.2byte	0x64c
 5500 072b 81000000 		.4byte	0x81
 5501 072f 02       		.uleb128 0x2
 5502 0730 91       		.byte	0x91
 5503 0731 6C       		.sleb128 -20
 5504 0732 00       		.byte	0
 5505 0733 18       		.uleb128 0x18
 5506 0734 D9050000 		.4byte	.LASF82
 5507 0738 02       		.byte	0x2
 5508 0739 8106     		.2byte	0x681
 5509 073b 00000000 		.4byte	.LFB39
 5510 073f 28000000 		.4byte	.LFE39-.LFB39
 5511 0743 01       		.uleb128 0x1
 5512 0744 9C       		.byte	0x9c
 5513 0745 59070000 		.4byte	0x759
 5514 0749 10       		.uleb128 0x10
 5515 074a CC020000 		.4byte	.LASF83
 5516 074e 02       		.byte	0x2
 5517 074f 8106     		.2byte	0x681
 5518 0751 81000000 		.4byte	0x81
 5519 0755 02       		.uleb128 0x2
 5520 0756 91       		.byte	0x91
 5521 0757 74       		.sleb128 -12
 5522 0758 00       		.byte	0
 5523 0759 19       		.uleb128 0x19
 5524 075a 82000000 		.4byte	.LASF139
 5525 075e 02       		.byte	0x2
 5526 075f A806     		.2byte	0x6a8
 5527 0761 00000000 		.4byte	.LFB40
 5528 0765 98000000 		.4byte	.LFE40-.LFB40
 5529 0769 01       		.uleb128 0x1
 5530 076a 9C       		.byte	0x9c
 5531 076b 7F070000 		.4byte	0x77f
 5532 076f 11       		.uleb128 0x11
 5533 0770 E6030000 		.4byte	.LASF84
 5534 0774 02       		.byte	0x2
 5535 0775 AA06     		.2byte	0x6aa
 5536 0777 81000000 		.4byte	0x81
 5537 077b 02       		.uleb128 0x2
ARM GAS  C:\Users\CHRIST~1\AppData\Local\Temp\cc8KQrfd.s 			page 168


 5538 077c 91       		.byte	0x91
 5539 077d 74       		.sleb128 -12
 5540 077e 00       		.byte	0
 5541 077f 1A       		.uleb128 0x1a
 5542 0780 3D040000 		.4byte	.LASF85
 5543 0784 02       		.byte	0x2
 5544 0785 E206     		.2byte	0x6e2
 5545 0787 00000000 		.4byte	.LFB41
 5546 078b 3C000000 		.4byte	.LFE41-.LFB41
 5547 078f 01       		.uleb128 0x1
 5548 0790 9C       		.byte	0x9c
 5549 0791 18       		.uleb128 0x18
 5550 0792 4E030000 		.4byte	.LASF86
 5551 0796 02       		.byte	0x2
 5552 0797 0408     		.2byte	0x804
 5553 0799 00000000 		.4byte	.LFB42
 5554 079d 48000000 		.4byte	.LFE42-.LFB42
 5555 07a1 01       		.uleb128 0x1
 5556 07a2 9C       		.byte	0x9c
 5557 07a3 B7070000 		.4byte	0x7b7
 5558 07a7 10       		.uleb128 0x10
 5559 07a8 75060000 		.4byte	.LASF87
 5560 07ac 02       		.byte	0x2
 5561 07ad 0408     		.2byte	0x804
 5562 07af 81000000 		.4byte	0x81
 5563 07b3 02       		.uleb128 0x2
 5564 07b4 91       		.byte	0x91
 5565 07b5 74       		.sleb128 -12
 5566 07b6 00       		.byte	0
 5567 07b7 13       		.uleb128 0x13
 5568 07b8 3D080000 		.4byte	.LASF88
 5569 07bc 02       		.byte	0x2
 5570 07bd 1D08     		.2byte	0x81d
 5571 07bf 00000000 		.4byte	.LFB43
 5572 07c3 28000000 		.4byte	.LFE43-.LFB43
 5573 07c7 01       		.uleb128 0x1
 5574 07c8 9C       		.byte	0x9c
 5575 07c9 14       		.uleb128 0x14
 5576 07ca 12040000 		.4byte	.LASF89
 5577 07ce 02       		.byte	0x2
 5578 07cf 3308     		.2byte	0x833
 5579 07d1 81000000 		.4byte	0x81
 5580 07d5 00000000 		.4byte	.LFB44
 5581 07d9 18000000 		.4byte	.LFE44-.LFB44
 5582 07dd 01       		.uleb128 0x1
 5583 07de 9C       		.byte	0x9c
 5584 07df 13       		.uleb128 0x13
 5585 07e0 D9020000 		.4byte	.LASF90
 5586 07e4 02       		.byte	0x2
 5587 07e5 4708     		.2byte	0x847
 5588 07e7 00000000 		.4byte	.LFB45
 5589 07eb 14000000 		.4byte	.LFE45-.LFB45
 5590 07ef 01       		.uleb128 0x1
 5591 07f0 9C       		.byte	0x9c
 5592 07f1 17       		.uleb128 0x17
 5593 07f2 77040000 		.4byte	.LASF91
 5594 07f6 02       		.byte	0x2
ARM GAS  C:\Users\CHRIST~1\AppData\Local\Temp\cc8KQrfd.s 			page 169


 5595 07f7 6308     		.2byte	0x863
 5596 07f9 81000000 		.4byte	0x81
 5597 07fd 00000000 		.4byte	.LFB46
 5598 0801 30000000 		.4byte	.LFE46-.LFB46
 5599 0805 01       		.uleb128 0x1
 5600 0806 9C       		.byte	0x9c
 5601 0807 2A080000 		.4byte	0x82a
 5602 080b 10       		.uleb128 0x10
 5603 080c 59070000 		.4byte	.LASF92
 5604 0810 02       		.byte	0x2
 5605 0811 6308     		.2byte	0x863
 5606 0813 81000000 		.4byte	0x81
 5607 0817 02       		.uleb128 0x2
 5608 0818 91       		.byte	0x91
 5609 0819 6C       		.sleb128 -20
 5610 081a 11       		.uleb128 0x11
 5611 081b 8F080000 		.4byte	.LASF42
 5612 081f 02       		.byte	0x2
 5613 0820 6508     		.2byte	0x865
 5614 0822 81000000 		.4byte	0x81
 5615 0826 02       		.uleb128 0x2
 5616 0827 91       		.byte	0x91
 5617 0828 74       		.sleb128 -12
 5618 0829 00       		.byte	0
 5619 082a 17       		.uleb128 0x17
 5620 082b 69040000 		.4byte	.LASF93
 5621 082f 02       		.byte	0x2
 5622 0830 7E08     		.2byte	0x87e
 5623 0832 81000000 		.4byte	0x81
 5624 0836 00000000 		.4byte	.LFB47
 5625 083a 24000000 		.4byte	.LFE47-.LFB47
 5626 083e 01       		.uleb128 0x1
 5627 083f 9C       		.byte	0x9c
 5628 0840 54080000 		.4byte	0x854
 5629 0844 11       		.uleb128 0x11
 5630 0845 21000000 		.4byte	.LASF94
 5631 0849 02       		.byte	0x2
 5632 084a 8008     		.2byte	0x880
 5633 084c 81000000 		.4byte	0x81
 5634 0850 02       		.uleb128 0x2
 5635 0851 91       		.byte	0x91
 5636 0852 74       		.sleb128 -12
 5637 0853 00       		.byte	0
 5638 0854 18       		.uleb128 0x18
 5639 0855 FA000000 		.4byte	.LASF95
 5640 0859 02       		.byte	0x2
 5641 085a 9A08     		.2byte	0x89a
 5642 085c 00000000 		.4byte	.LFB48
 5643 0860 18000000 		.4byte	.LFE48-.LFB48
 5644 0864 01       		.uleb128 0x1
 5645 0865 9C       		.byte	0x9c
 5646 0866 7A080000 		.4byte	0x87a
 5647 086a 10       		.uleb128 0x10
 5648 086b 2F030000 		.4byte	.LASF96
 5649 086f 02       		.byte	0x2
 5650 0870 9A08     		.2byte	0x89a
 5651 0872 81000000 		.4byte	0x81
ARM GAS  C:\Users\CHRIST~1\AppData\Local\Temp\cc8KQrfd.s 			page 170


 5652 0876 02       		.uleb128 0x2
 5653 0877 91       		.byte	0x91
 5654 0878 74       		.sleb128 -12
 5655 0879 00       		.byte	0
 5656 087a 12       		.uleb128 0x12
 5657 087b 0C050000 		.4byte	.LASF97
 5658 087f 02       		.byte	0x2
 5659 0880 B608     		.2byte	0x8b6
 5660 0882 CF000000 		.4byte	0xcf
 5661 0886 00000000 		.4byte	.LFB49
 5662 088a 48000000 		.4byte	.LFE49-.LFB49
 5663 088e 01       		.uleb128 0x1
 5664 088f 9C       		.byte	0x9c
 5665 0890 D1080000 		.4byte	0x8d1
 5666 0894 10       		.uleb128 0x10
 5667 0895 0D030000 		.4byte	.LASF98
 5668 0899 02       		.byte	0x2
 5669 089a B608     		.2byte	0x8b6
 5670 089c 6B000000 		.4byte	0x6b
 5671 08a0 02       		.uleb128 0x2
 5672 08a1 91       		.byte	0x91
 5673 08a2 6F       		.sleb128 -17
 5674 08a3 10       		.uleb128 0x10
 5675 08a4 8B050000 		.4byte	.LASF99
 5676 08a8 02       		.byte	0x2
 5677 08a9 B608     		.2byte	0x8b6
 5678 08ab CF000000 		.4byte	0xcf
 5679 08af 02       		.uleb128 0x2
 5680 08b0 91       		.byte	0x91
 5681 08b1 68       		.sleb128 -24
 5682 08b2 11       		.uleb128 0x11
 5683 08b3 70000000 		.4byte	.LASF100
 5684 08b7 02       		.byte	0x2
 5685 08b8 B808     		.2byte	0x8b8
 5686 08ba CF000000 		.4byte	0xcf
 5687 08be 02       		.uleb128 0x2
 5688 08bf 91       		.byte	0x91
 5689 08c0 70       		.sleb128 -16
 5690 08c1 11       		.uleb128 0x11
 5691 08c2 60070000 		.4byte	.LASF101
 5692 08c6 02       		.byte	0x2
 5693 08c7 B908     		.2byte	0x8b9
 5694 08c9 D1080000 		.4byte	0x8d1
 5695 08cd 02       		.uleb128 0x2
 5696 08ce 91       		.byte	0x91
 5697 08cf 74       		.sleb128 -12
 5698 08d0 00       		.byte	0
 5699 08d1 07       		.uleb128 0x7
 5700 08d2 04       		.byte	0x4
 5701 08d3 CF000000 		.4byte	0xcf
 5702 08d7 12       		.uleb128 0x12
 5703 08d8 EC060000 		.4byte	.LASF102
 5704 08dc 02       		.byte	0x2
 5705 08dd DB08     		.2byte	0x8db
 5706 08df CF000000 		.4byte	0xcf
 5707 08e3 00000000 		.4byte	.LFB50
 5708 08e7 34000000 		.4byte	.LFE50-.LFB50
ARM GAS  C:\Users\CHRIST~1\AppData\Local\Temp\cc8KQrfd.s 			page 171


 5709 08eb 01       		.uleb128 0x1
 5710 08ec 9C       		.byte	0x9c
 5711 08ed 10090000 		.4byte	0x910
 5712 08f1 10       		.uleb128 0x10
 5713 08f2 0D030000 		.4byte	.LASF98
 5714 08f6 02       		.byte	0x2
 5715 08f7 DB08     		.2byte	0x8db
 5716 08f9 6B000000 		.4byte	0x6b
 5717 08fd 02       		.uleb128 0x2
 5718 08fe 91       		.byte	0x91
 5719 08ff 6F       		.sleb128 -17
 5720 0900 11       		.uleb128 0x11
 5721 0901 60070000 		.4byte	.LASF101
 5722 0905 02       		.byte	0x2
 5723 0906 DD08     		.2byte	0x8dd
 5724 0908 D1080000 		.4byte	0x8d1
 5725 090c 02       		.uleb128 0x2
 5726 090d 91       		.byte	0x91
 5727 090e 74       		.sleb128 -12
 5728 090f 00       		.byte	0
 5729 0910 12       		.uleb128 0x12
 5730 0911 B6040000 		.4byte	.LASF103
 5731 0915 02       		.byte	0x2
 5732 0916 F408     		.2byte	0x8f4
 5733 0918 CF000000 		.4byte	0xcf
 5734 091c 00000000 		.4byte	.LFB51
 5735 0920 4C000000 		.4byte	.LFE51-.LFB51
 5736 0924 01       		.uleb128 0x1
 5737 0925 9C       		.byte	0x9c
 5738 0926 67090000 		.4byte	0x967
 5739 092a 10       		.uleb128 0x10
 5740 092b 0D030000 		.4byte	.LASF98
 5741 092f 02       		.byte	0x2
 5742 0930 F408     		.2byte	0x8f4
 5743 0932 6B000000 		.4byte	0x6b
 5744 0936 02       		.uleb128 0x2
 5745 0937 91       		.byte	0x91
 5746 0938 6F       		.sleb128 -17
 5747 0939 10       		.uleb128 0x10
 5748 093a 8B050000 		.4byte	.LASF99
 5749 093e 02       		.byte	0x2
 5750 093f F408     		.2byte	0x8f4
 5751 0941 CF000000 		.4byte	0xcf
 5752 0945 02       		.uleb128 0x2
 5753 0946 91       		.byte	0x91
 5754 0947 68       		.sleb128 -24
 5755 0948 11       		.uleb128 0x11
 5756 0949 70000000 		.4byte	.LASF100
 5757 094d 02       		.byte	0x2
 5758 094e F608     		.2byte	0x8f6
 5759 0950 CF000000 		.4byte	0xcf
 5760 0954 02       		.uleb128 0x2
 5761 0955 91       		.byte	0x91
 5762 0956 70       		.sleb128 -16
 5763 0957 11       		.uleb128 0x11
 5764 0958 60070000 		.4byte	.LASF101
 5765 095c 02       		.byte	0x2
ARM GAS  C:\Users\CHRIST~1\AppData\Local\Temp\cc8KQrfd.s 			page 172


 5766 095d F708     		.2byte	0x8f7
 5767 095f D1080000 		.4byte	0x8d1
 5768 0963 02       		.uleb128 0x2
 5769 0964 91       		.byte	0x91
 5770 0965 74       		.sleb128 -12
 5771 0966 00       		.byte	0
 5772 0967 12       		.uleb128 0x12
 5773 0968 2F060000 		.4byte	.LASF104
 5774 096c 02       		.byte	0x2
 5775 096d 1309     		.2byte	0x913
 5776 096f CF000000 		.4byte	0xcf
 5777 0973 00000000 		.4byte	.LFB52
 5778 0977 36000000 		.4byte	.LFE52-.LFB52
 5779 097b 01       		.uleb128 0x1
 5780 097c 9C       		.byte	0x9c
 5781 097d A0090000 		.4byte	0x9a0
 5782 0981 10       		.uleb128 0x10
 5783 0982 0D030000 		.4byte	.LASF98
 5784 0986 02       		.byte	0x2
 5785 0987 1309     		.2byte	0x913
 5786 0989 6B000000 		.4byte	0x6b
 5787 098d 02       		.uleb128 0x2
 5788 098e 91       		.byte	0x91
 5789 098f 6F       		.sleb128 -17
 5790 0990 11       		.uleb128 0x11
 5791 0991 60070000 		.4byte	.LASF101
 5792 0995 02       		.byte	0x2
 5793 0996 1509     		.2byte	0x915
 5794 0998 D1080000 		.4byte	0x8d1
 5795 099c 02       		.uleb128 0x2
 5796 099d 91       		.byte	0x91
 5797 099e 74       		.sleb128 -12
 5798 099f 00       		.byte	0
 5799 09a0 0F       		.uleb128 0xf
 5800 09a1 EF050000 		.4byte	.LASF105
 5801 09a5 02       		.byte	0x2
 5802 09a6 2B09     		.2byte	0x92b
 5803 09a8 00000000 		.4byte	.LFB53
 5804 09ac A8000000 		.4byte	.LFE53-.LFB53
 5805 09b0 01       		.uleb128 0x1
 5806 09b1 9C       		.byte	0x9c
 5807 09b2 020A0000 		.4byte	0xa02
 5808 09b6 10       		.uleb128 0x10
 5809 09b7 0D030000 		.4byte	.LASF98
 5810 09bb 02       		.byte	0x2
 5811 09bc 2B09     		.2byte	0x92b
 5812 09be 6B000000 		.4byte	0x6b
 5813 09c2 02       		.uleb128 0x2
 5814 09c3 91       		.byte	0x91
 5815 09c4 5F       		.sleb128 -33
 5816 09c5 10       		.uleb128 0x10
 5817 09c6 9C070000 		.4byte	.LASF106
 5818 09ca 02       		.byte	0x2
 5819 09cb 2B09     		.2byte	0x92b
 5820 09cd 6B000000 		.4byte	0x6b
 5821 09d1 02       		.uleb128 0x2
 5822 09d2 91       		.byte	0x91
ARM GAS  C:\Users\CHRIST~1\AppData\Local\Temp\cc8KQrfd.s 			page 173


 5823 09d3 5E       		.sleb128 -34
 5824 09d4 11       		.uleb128 0x11
 5825 09d5 AA010000 		.4byte	.LASF26
 5826 09d9 02       		.byte	0x2
 5827 09da 2D09     		.2byte	0x92d
 5828 09dc 6B000000 		.4byte	0x6b
 5829 09e0 02       		.uleb128 0x2
 5830 09e1 91       		.byte	0x91
 5831 09e2 6B       		.sleb128 -21
 5832 09e3 11       		.uleb128 0x11
 5833 09e4 C6020000 		.4byte	.LASF107
 5834 09e8 02       		.byte	0x2
 5835 09e9 2E09     		.2byte	0x92e
 5836 09eb 81000000 		.4byte	0x81
 5837 09ef 02       		.uleb128 0x2
 5838 09f0 91       		.byte	0x91
 5839 09f1 6C       		.sleb128 -20
 5840 09f2 11       		.uleb128 0x11
 5841 09f3 2A000000 		.4byte	.LASF108
 5842 09f7 02       		.byte	0x2
 5843 09f8 2F09     		.2byte	0x92f
 5844 09fa 81000000 		.4byte	0x81
 5845 09fe 02       		.uleb128 0x2
 5846 09ff 91       		.byte	0x91
 5847 0a00 64       		.sleb128 -28
 5848 0a01 00       		.byte	0
 5849 0a02 12       		.uleb128 0x12
 5850 0a03 5D030000 		.4byte	.LASF109
 5851 0a07 02       		.byte	0x2
 5852 0a08 4F09     		.2byte	0x94f
 5853 0a0a 6B000000 		.4byte	0x6b
 5854 0a0e 00000000 		.4byte	.LFB54
 5855 0a12 5C000000 		.4byte	.LFE54-.LFB54
 5856 0a16 01       		.uleb128 0x1
 5857 0a17 9C       		.byte	0x9c
 5858 0a18 3B0A0000 		.4byte	0xa3b
 5859 0a1c 10       		.uleb128 0x10
 5860 0a1d 0D030000 		.4byte	.LASF98
 5861 0a21 02       		.byte	0x2
 5862 0a22 4F09     		.2byte	0x94f
 5863 0a24 6B000000 		.4byte	0x6b
 5864 0a28 02       		.uleb128 0x2
 5865 0a29 91       		.byte	0x91
 5866 0a2a 6F       		.sleb128 -17
 5867 0a2b 11       		.uleb128 0x11
 5868 0a2c 9C070000 		.4byte	.LASF106
 5869 0a30 02       		.byte	0x2
 5870 0a31 5109     		.2byte	0x951
 5871 0a33 6B000000 		.4byte	0x6b
 5872 0a37 02       		.uleb128 0x2
 5873 0a38 91       		.byte	0x91
 5874 0a39 77       		.sleb128 -9
 5875 0a3a 00       		.byte	0
 5876 0a3b 18       		.uleb128 0x18
 5877 0a3c E0060000 		.4byte	.LASF110
 5878 0a40 02       		.byte	0x2
 5879 0a41 6909     		.2byte	0x969
ARM GAS  C:\Users\CHRIST~1\AppData\Local\Temp\cc8KQrfd.s 			page 174


 5880 0a43 00000000 		.4byte	.LFB55
 5881 0a47 28000000 		.4byte	.LFE55-.LFB55
 5882 0a4b 01       		.uleb128 0x1
 5883 0a4c 9C       		.byte	0x9c
 5884 0a4d 610A0000 		.4byte	0xa61
 5885 0a51 10       		.uleb128 0x10
 5886 0a52 0D030000 		.4byte	.LASF98
 5887 0a56 02       		.byte	0x2
 5888 0a57 6909     		.2byte	0x969
 5889 0a59 6B000000 		.4byte	0x6b
 5890 0a5d 02       		.uleb128 0x2
 5891 0a5e 91       		.byte	0x91
 5892 0a5f 77       		.sleb128 -9
 5893 0a60 00       		.byte	0
 5894 0a61 17       		.uleb128 0x17
 5895 0a62 43010000 		.4byte	.LASF111
 5896 0a66 02       		.byte	0x2
 5897 0a67 7D09     		.2byte	0x97d
 5898 0a69 6B000000 		.4byte	0x6b
 5899 0a6d 00000000 		.4byte	.LFB56
 5900 0a71 30000000 		.4byte	.LFE56-.LFB56
 5901 0a75 01       		.uleb128 0x1
 5902 0a76 9C       		.byte	0x9c
 5903 0a77 8B0A0000 		.4byte	0xa8b
 5904 0a7b 10       		.uleb128 0x10
 5905 0a7c 0D030000 		.4byte	.LASF98
 5906 0a80 02       		.byte	0x2
 5907 0a81 7D09     		.2byte	0x97d
 5908 0a83 6B000000 		.4byte	0x6b
 5909 0a87 02       		.uleb128 0x2
 5910 0a88 91       		.byte	0x91
 5911 0a89 77       		.sleb128 -9
 5912 0a8a 00       		.byte	0
 5913 0a8b 18       		.uleb128 0x18
 5914 0a8c F7010000 		.4byte	.LASF112
 5915 0a90 02       		.byte	0x2
 5916 0a91 9209     		.2byte	0x992
 5917 0a93 00000000 		.4byte	.LFB57
 5918 0a97 28000000 		.4byte	.LFE57-.LFB57
 5919 0a9b 01       		.uleb128 0x1
 5920 0a9c 9C       		.byte	0x9c
 5921 0a9d B10A0000 		.4byte	0xab1
 5922 0aa1 10       		.uleb128 0x10
 5923 0aa2 0D030000 		.4byte	.LASF98
 5924 0aa6 02       		.byte	0x2
 5925 0aa7 9209     		.2byte	0x992
 5926 0aa9 6B000000 		.4byte	0x6b
 5927 0aad 02       		.uleb128 0x2
 5928 0aae 91       		.byte	0x91
 5929 0aaf 77       		.sleb128 -9
 5930 0ab0 00       		.byte	0
 5931 0ab1 18       		.uleb128 0x18
 5932 0ab2 59040000 		.4byte	.LASF113
 5933 0ab6 02       		.byte	0x2
 5934 0ab7 A509     		.2byte	0x9a5
 5935 0ab9 00000000 		.4byte	.LFB58
 5936 0abd 28000000 		.4byte	.LFE58-.LFB58
ARM GAS  C:\Users\CHRIST~1\AppData\Local\Temp\cc8KQrfd.s 			page 175


 5937 0ac1 01       		.uleb128 0x1
 5938 0ac2 9C       		.byte	0x9c
 5939 0ac3 D70A0000 		.4byte	0xad7
 5940 0ac7 10       		.uleb128 0x10
 5941 0ac8 0D030000 		.4byte	.LASF98
 5942 0acc 02       		.byte	0x2
 5943 0acd A509     		.2byte	0x9a5
 5944 0acf 6B000000 		.4byte	0x6b
 5945 0ad3 02       		.uleb128 0x2
 5946 0ad4 91       		.byte	0x91
 5947 0ad5 77       		.sleb128 -9
 5948 0ad6 00       		.byte	0
 5949 0ad7 18       		.uleb128 0x18
 5950 0ad8 79050000 		.4byte	.LASF114
 5951 0adc 02       		.byte	0x2
 5952 0add B909     		.2byte	0x9b9
 5953 0adf 00000000 		.4byte	.LFB59
 5954 0ae3 28000000 		.4byte	.LFE59-.LFB59
 5955 0ae7 01       		.uleb128 0x1
 5956 0ae8 9C       		.byte	0x9c
 5957 0ae9 FD0A0000 		.4byte	0xafd
 5958 0aed 10       		.uleb128 0x10
 5959 0aee 0D030000 		.4byte	.LASF98
 5960 0af2 02       		.byte	0x2
 5961 0af3 B909     		.2byte	0x9b9
 5962 0af5 6B000000 		.4byte	0x6b
 5963 0af9 02       		.uleb128 0x2
 5964 0afa 91       		.byte	0x91
 5965 0afb 77       		.sleb128 -9
 5966 0afc 00       		.byte	0
 5967 0afd 18       		.uleb128 0x18
 5968 0afe 7F060000 		.4byte	.LASF115
 5969 0b02 02       		.byte	0x2
 5970 0b03 CD09     		.2byte	0x9cd
 5971 0b05 00000000 		.4byte	.LFB60
 5972 0b09 14000000 		.4byte	.LFE60-.LFB60
 5973 0b0d 01       		.uleb128 0x1
 5974 0b0e 9C       		.byte	0x9c
 5975 0b0f 230B0000 		.4byte	0xb23
 5976 0b13 10       		.uleb128 0x10
 5977 0b14 59070000 		.4byte	.LASF92
 5978 0b18 02       		.byte	0x2
 5979 0b19 CD09     		.2byte	0x9cd
 5980 0b1b 6B000000 		.4byte	0x6b
 5981 0b1f 02       		.uleb128 0x2
 5982 0b20 91       		.byte	0x91
 5983 0b21 77       		.sleb128 -9
 5984 0b22 00       		.byte	0
 5985 0b23 13       		.uleb128 0x13
 5986 0b24 1A010000 		.4byte	.LASF116
 5987 0b28 02       		.byte	0x2
 5988 0b29 EC09     		.2byte	0x9ec
 5989 0b2b 00000000 		.4byte	.LFB61
 5990 0b2f 20000000 		.4byte	.LFE61-.LFB61
 5991 0b33 01       		.uleb128 0x1
 5992 0b34 9C       		.byte	0x9c
 5993 0b35 0F       		.uleb128 0xf
ARM GAS  C:\Users\CHRIST~1\AppData\Local\Temp\cc8KQrfd.s 			page 176


 5994 0b36 0E080000 		.4byte	.LASF117
 5995 0b3a 02       		.byte	0x2
 5996 0b3b 050A     		.2byte	0xa05
 5997 0b3d 00000000 		.4byte	.LFB62
 5998 0b41 48000000 		.4byte	.LFE62-.LFB62
 5999 0b45 01       		.uleb128 0x1
 6000 0b46 9C       		.byte	0x9c
 6001 0b47 5B0B0000 		.4byte	0xb5b
 6002 0b4b 10       		.uleb128 0x10
 6003 0b4c 3E060000 		.4byte	.LASF118
 6004 0b50 02       		.byte	0x2
 6005 0b51 050A     		.2byte	0xa05
 6006 0b53 81000000 		.4byte	0x81
 6007 0b57 02       		.uleb128 0x2
 6008 0b58 91       		.byte	0x91
 6009 0b59 74       		.sleb128 -12
 6010 0b5a 00       		.byte	0
 6011 0b5b 0F       		.uleb128 0xf
 6012 0b5c B9010000 		.4byte	.LASF119
 6013 0b60 02       		.byte	0x2
 6014 0b61 210A     		.2byte	0xa21
 6015 0b63 00000000 		.4byte	.LFB63
 6016 0b67 28000000 		.4byte	.LFE63-.LFB63
 6017 0b6b 01       		.uleb128 0x1
 6018 0b6c 9C       		.byte	0x9c
 6019 0b6d 810B0000 		.4byte	0xb81
 6020 0b71 10       		.uleb128 0x10
 6021 0b72 EF090000 		.4byte	.LASF120
 6022 0b76 02       		.byte	0x2
 6023 0b77 210A     		.2byte	0xa21
 6024 0b79 76000000 		.4byte	0x76
 6025 0b7d 02       		.uleb128 0x2
 6026 0b7e 91       		.byte	0x91
 6027 0b7f 76       		.sleb128 -10
 6028 0b80 00       		.byte	0
 6029 0b81 0F       		.uleb128 0xf
 6030 0b82 9E010000 		.4byte	.LASF121
 6031 0b86 02       		.byte	0x2
 6032 0b87 340A     		.2byte	0xa34
 6033 0b89 00000000 		.4byte	.LFB64
 6034 0b8d 84000000 		.4byte	.LFE64-.LFB64
 6035 0b91 01       		.uleb128 0x1
 6036 0b92 9C       		.byte	0x9c
 6037 0b93 A70B0000 		.4byte	0xba7
 6038 0b97 10       		.uleb128 0x10
 6039 0b98 87010000 		.4byte	.LASF36
 6040 0b9c 02       		.byte	0x2
 6041 0b9d 340A     		.2byte	0xa34
 6042 0b9f 81000000 		.4byte	0x81
 6043 0ba3 02       		.uleb128 0x2
 6044 0ba4 91       		.byte	0x91
 6045 0ba5 74       		.sleb128 -12
 6046 0ba6 00       		.byte	0
 6047 0ba7 15       		.uleb128 0x15
 6048 0ba8 5A050000 		.4byte	.LASF122
 6049 0bac 02       		.byte	0x2
 6050 0bad 570A     		.2byte	0xa57
ARM GAS  C:\Users\CHRIST~1\AppData\Local\Temp\cc8KQrfd.s 			page 177


 6051 0baf 00000000 		.4byte	.LFB65
 6052 0bb3 24000000 		.4byte	.LFE65-.LFB65
 6053 0bb7 01       		.uleb128 0x1
 6054 0bb8 9C       		.byte	0x9c
 6055 0bb9 0F       		.uleb128 0xf
 6056 0bba 83030000 		.4byte	.LASF123
 6057 0bbe 02       		.byte	0x2
 6058 0bbf 790A     		.2byte	0xa79
 6059 0bc1 00000000 		.4byte	.LFB66
 6060 0bc5 64000000 		.4byte	.LFE66-.LFB66
 6061 0bc9 01       		.uleb128 0x1
 6062 0bca 9C       		.byte	0x9c
 6063 0bcb DD0B0000 		.4byte	0xbdd
 6064 0bcf 1B       		.uleb128 0x1b
 6065 0bd0 6900     		.ascii	"i\000"
 6066 0bd2 02       		.byte	0x2
 6067 0bd3 7B0A     		.2byte	0xa7b
 6068 0bd5 81000000 		.4byte	0x81
 6069 0bd9 02       		.uleb128 0x2
 6070 0bda 91       		.byte	0x91
 6071 0bdb 74       		.sleb128 -12
 6072 0bdc 00       		.byte	0
 6073 0bdd 15       		.uleb128 0x15
 6074 0bde B7070000 		.4byte	.LASF124
 6075 0be2 02       		.byte	0x2
 6076 0be3 9F0A     		.2byte	0xa9f
 6077 0be5 00000000 		.4byte	.LFB67
 6078 0be9 1C000000 		.4byte	.LFE67-.LFB67
 6079 0bed 01       		.uleb128 0x1
 6080 0bee 9C       		.byte	0x9c
 6081 0bef 13       		.uleb128 0x13
 6082 0bf0 BE080000 		.4byte	.LASF125
 6083 0bf4 02       		.byte	0x2
 6084 0bf5 B70A     		.2byte	0xab7
 6085 0bf7 00000000 		.4byte	.LFB68
 6086 0bfb 18000000 		.4byte	.LFE68-.LFB68
 6087 0bff 01       		.uleb128 0x1
 6088 0c00 9C       		.byte	0x9c
 6089 0c01 13       		.uleb128 0x13
 6090 0c02 2A010000 		.4byte	.LASF126
 6091 0c06 02       		.byte	0x2
 6092 0c07 CE0A     		.2byte	0xace
 6093 0c09 00000000 		.4byte	.LFB69
 6094 0c0d 18000000 		.4byte	.LFE69-.LFB69
 6095 0c11 01       		.uleb128 0x1
 6096 0c12 9C       		.byte	0x9c
 6097 0c13 13       		.uleb128 0x13
 6098 0c14 16080000 		.4byte	.LASF127
 6099 0c18 02       		.byte	0x2
 6100 0c19 E50A     		.2byte	0xae5
 6101 0c1b 00000000 		.4byte	.LFB70
 6102 0c1f 18000000 		.4byte	.LFE70-.LFB70
 6103 0c23 01       		.uleb128 0x1
 6104 0c24 9C       		.byte	0x9c
 6105 0c25 18       		.uleb128 0x18
 6106 0c26 FC090000 		.4byte	.LASF128
 6107 0c2a 02       		.byte	0x2
ARM GAS  C:\Users\CHRIST~1\AppData\Local\Temp\cc8KQrfd.s 			page 178


 6108 0c2b FB0A     		.2byte	0xafb
 6109 0c2d 00000000 		.4byte	.LFB71
 6110 0c31 1C000000 		.4byte	.LFE71-.LFB71
 6111 0c35 01       		.uleb128 0x1
 6112 0c36 9C       		.byte	0x9c
 6113 0c37 4B0C0000 		.4byte	0xc4b
 6114 0c3b 10       		.uleb128 0x10
 6115 0c3c 2A000000 		.4byte	.LASF108
 6116 0c40 02       		.byte	0x2
 6117 0c41 FB0A     		.2byte	0xafb
 6118 0c43 81000000 		.4byte	0x81
 6119 0c47 02       		.uleb128 0x2
 6120 0c48 91       		.byte	0x91
 6121 0c49 74       		.sleb128 -12
 6122 0c4a 00       		.byte	0
 6123 0c4b 14       		.uleb128 0x14
 6124 0c4c C3010000 		.4byte	.LASF129
 6125 0c50 02       		.byte	0x2
 6126 0c51 0F0B     		.2byte	0xb0f
 6127 0c53 81000000 		.4byte	0x81
 6128 0c57 00000000 		.4byte	.LFB72
 6129 0c5b 18000000 		.4byte	.LFE72-.LFB72
 6130 0c5f 01       		.uleb128 0x1
 6131 0c60 9C       		.byte	0x9c
 6132 0c61 14       		.uleb128 0x14
 6133 0c62 B9050000 		.4byte	.LASF130
 6134 0c66 02       		.byte	0x2
 6135 0c67 230B     		.2byte	0xb23
 6136 0c69 81000000 		.4byte	0x81
 6137 0c6d 00000000 		.4byte	.LFB73
 6138 0c71 1C000000 		.4byte	.LFE73-.LFB73
 6139 0c75 01       		.uleb128 0x1
 6140 0c76 9C       		.byte	0x9c
 6141 0c77 18       		.uleb128 0x18
 6142 0c78 9E040000 		.4byte	.LASF131
 6143 0c7c 02       		.byte	0x2
 6144 0c7d 420B     		.2byte	0xb42
 6145 0c7f 00000000 		.4byte	.LFB74
 6146 0c83 34000000 		.4byte	.LFE74-.LFB74
 6147 0c87 01       		.uleb128 0x1
 6148 0c88 9C       		.byte	0x9c
 6149 0c89 9D0C0000 		.4byte	0xc9d
 6150 0c8d 10       		.uleb128 0x10
 6151 0c8e 55000000 		.4byte	.LASF132
 6152 0c92 02       		.byte	0x2
 6153 0c93 420B     		.2byte	0xb42
 6154 0c95 81000000 		.4byte	0x81
 6155 0c99 02       		.uleb128 0x2
 6156 0c9a 91       		.byte	0x91
 6157 0c9b 74       		.sleb128 -12
 6158 0c9c 00       		.byte	0
 6159 0c9d 14       		.uleb128 0x14
 6160 0c9e AC030000 		.4byte	.LASF133
 6161 0ca2 02       		.byte	0x2
 6162 0ca3 630B     		.2byte	0xb63
 6163 0ca5 81000000 		.4byte	0x81
 6164 0ca9 00000000 		.4byte	.LFB75
ARM GAS  C:\Users\CHRIST~1\AppData\Local\Temp\cc8KQrfd.s 			page 179


 6165 0cad 18000000 		.4byte	.LFE75-.LFB75
 6166 0cb1 01       		.uleb128 0x1
 6167 0cb2 9C       		.byte	0x9c
 6168 0cb3 13       		.uleb128 0x13
 6169 0cb4 F1030000 		.4byte	.LASF134
 6170 0cb8 02       		.byte	0x2
 6171 0cb9 770B     		.2byte	0xb77
 6172 0cbb 00000000 		.4byte	.LFB76
 6173 0cbf 14000000 		.4byte	.LFE76-.LFB76
 6174 0cc3 01       		.uleb128 0x1
 6175 0cc4 9C       		.byte	0x9c
 6176 0cc5 17       		.uleb128 0x17
 6177 0cc6 9E090000 		.4byte	.LASF135
 6178 0cca 02       		.byte	0x2
 6179 0ccb 8F0B     		.2byte	0xb8f
 6180 0ccd E9000000 		.4byte	0xe9
 6181 0cd1 00000000 		.4byte	.LFB77
 6182 0cd5 2C000000 		.4byte	.LFE77-.LFB77
 6183 0cd9 01       		.uleb128 0x1
 6184 0cda 9C       		.byte	0x9c
 6185 0cdb 0D0D0000 		.4byte	0xd0d
 6186 0cdf 10       		.uleb128 0x10
 6187 0ce0 0D030000 		.4byte	.LASF98
 6188 0ce4 02       		.byte	0x2
 6189 0ce5 8F0B     		.2byte	0xb8f
 6190 0ce7 81000000 		.4byte	0x81
 6191 0ceb 02       		.uleb128 0x2
 6192 0cec 91       		.byte	0x91
 6193 0ced 6C       		.sleb128 -20
 6194 0cee 10       		.uleb128 0x10
 6195 0cef EA080000 		.4byte	.LASF136
 6196 0cf3 02       		.byte	0x2
 6197 0cf4 8F0B     		.2byte	0xb8f
 6198 0cf6 E9000000 		.4byte	0xe9
 6199 0cfa 02       		.uleb128 0x2
 6200 0cfb 91       		.byte	0x91
 6201 0cfc 68       		.sleb128 -24
 6202 0cfd 11       		.uleb128 0x11
 6203 0cfe 9B050000 		.4byte	.LASF137
 6204 0d02 02       		.byte	0x2
 6205 0d03 910B     		.2byte	0xb91
 6206 0d05 E9000000 		.4byte	0xe9
 6207 0d09 02       		.uleb128 0x2
 6208 0d0a 91       		.byte	0x91
 6209 0d0b 74       		.sleb128 -12
 6210 0d0c 00       		.byte	0
 6211 0d0d 17       		.uleb128 0x17
 6212 0d0e 04020000 		.4byte	.LASF138
 6213 0d12 02       		.byte	0x2
 6214 0d13 A70B     		.2byte	0xba7
 6215 0d15 E9000000 		.4byte	0xe9
 6216 0d19 00000000 		.4byte	.LFB78
 6217 0d1d 1C000000 		.4byte	.LFE78-.LFB78
 6218 0d21 01       		.uleb128 0x1
 6219 0d22 9C       		.byte	0x9c
 6220 0d23 370D0000 		.4byte	0xd37
 6221 0d27 10       		.uleb128 0x10
ARM GAS  C:\Users\CHRIST~1\AppData\Local\Temp\cc8KQrfd.s 			page 180


 6222 0d28 0D030000 		.4byte	.LASF98
 6223 0d2c 02       		.byte	0x2
 6224 0d2d A70B     		.2byte	0xba7
 6225 0d2f 81000000 		.4byte	0x81
 6226 0d33 02       		.uleb128 0x2
 6227 0d34 91       		.byte	0x91
 6228 0d35 74       		.sleb128 -12
 6229 0d36 00       		.byte	0
 6230 0d37 19       		.uleb128 0x19
 6231 0d38 0F0A0000 		.4byte	.LASF140
 6232 0d3c 02       		.byte	0x2
 6233 0d3d BB0B     		.2byte	0xbbb
 6234 0d3f 00000000 		.4byte	.LFB79
 6235 0d43 44000000 		.4byte	.LFE79-.LFB79
 6236 0d47 01       		.uleb128 0x1
 6237 0d48 9C       		.byte	0x9c
 6238 0d49 5B0D0000 		.4byte	0xd5b
 6239 0d4d 1B       		.uleb128 0x1b
 6240 0d4e 6900     		.ascii	"i\000"
 6241 0d50 02       		.byte	0x2
 6242 0d51 BD0B     		.2byte	0xbbd
 6243 0d53 81000000 		.4byte	0x81
 6244 0d57 02       		.uleb128 0x2
 6245 0d58 91       		.byte	0x91
 6246 0d59 74       		.sleb128 -12
 6247 0d5a 00       		.byte	0
 6248 0d5b 1C       		.uleb128 0x1c
 6249 0d5c E9000000 		.4byte	0xe9
 6250 0d60 6B0D0000 		.4byte	0xd6b
 6251 0d64 1D       		.uleb128 0x1d
 6252 0d65 E2000000 		.4byte	0xe2
 6253 0d69 04       		.byte	0x4
 6254 0d6a 00       		.byte	0
 6255 0d6b 0C       		.uleb128 0xc
 6256 0d6c FB070000 		.4byte	.LASF141
 6257 0d70 02       		.byte	0x2
 6258 0d71 32       		.byte	0x32
 6259 0d72 5B0D0000 		.4byte	0xd5b
 6260 0d76 05       		.uleb128 0x5
 6261 0d77 03       		.byte	0x3
 6262 0d78 0C000000 		.4byte	CySysTickCallbacks
 6263 0d7c 1E       		.uleb128 0x1e
 6264 0d7d E9000000 		.4byte	.LASF142
 6265 0d81 02       		.byte	0x2
 6266 0d82 34       		.byte	0x34
 6267 0d83 81000000 		.4byte	0x81
 6268 0d87 05       		.uleb128 0x5
 6269 0d88 03       		.byte	0x3
 6270 0d89 00000000 		.4byte	CySysTickInitVar
 6271 0d8d 1E       		.uleb128 0x1e
 6272 0d8e CB050000 		.4byte	.LASF143
 6273 0d92 02       		.byte	0x2
 6274 0d93 17       		.byte	0x17
 6275 0d94 81000000 		.4byte	0x81
 6276 0d98 05       		.uleb128 0x5
 6277 0d99 03       		.byte	0x3
 6278 0d9a 00000000 		.4byte	cydelayFreqHz
ARM GAS  C:\Users\CHRIST~1\AppData\Local\Temp\cc8KQrfd.s 			page 181


 6279 0d9e 1E       		.uleb128 0x1e
 6280 0d9f 84020000 		.4byte	.LASF144
 6281 0da3 02       		.byte	0x2
 6282 0da4 18       		.byte	0x18
 6283 0da5 81000000 		.4byte	0x81
 6284 0da9 05       		.uleb128 0x5
 6285 0daa 03       		.byte	0x3
 6286 0dab 00000000 		.4byte	cydelayFreqKhz
 6287 0daf 1E       		.uleb128 0x1e
 6288 0db0 73080000 		.4byte	.LASF145
 6289 0db4 02       		.byte	0x2
 6290 0db5 19       		.byte	0x19
 6291 0db6 6B000000 		.4byte	0x6b
 6292 0dba 05       		.uleb128 0x5
 6293 0dbb 03       		.byte	0x3
 6294 0dbc 00000000 		.4byte	cydelayFreqMhz
 6295 0dc0 1E       		.uleb128 0x1e
 6296 0dc1 30080000 		.4byte	.LASF146
 6297 0dc5 02       		.byte	0x2
 6298 0dc6 1A       		.byte	0x1a
 6299 0dc7 81000000 		.4byte	0x81
 6300 0dcb 05       		.uleb128 0x5
 6301 0dcc 03       		.byte	0x3
 6302 0dcd 00000000 		.4byte	cydelay32kMs
 6303 0dd1 1E       		.uleb128 0x1e
 6304 0dd2 B3000000 		.4byte	.LASF147
 6305 0dd6 02       		.byte	0x2
 6306 0dd7 23       		.byte	0x23
 6307 0dd8 81000000 		.4byte	0x81
 6308 0ddc 05       		.uleb128 0x5
 6309 0ddd 03       		.byte	0x3
 6310 0dde 00000000 		.4byte	lfclkPosedgeWdtCounter0Enabled
 6311 0de2 1E       		.uleb128 0x1e
 6312 0de3 94060000 		.4byte	.LASF148
 6313 0de7 02       		.byte	0x2
 6314 0de8 24       		.byte	0x24
 6315 0de9 81000000 		.4byte	0x81
 6316 0ded 05       		.uleb128 0x5
 6317 0dee 03       		.byte	0x3
 6318 0def 00000000 		.4byte	lfclkPosedgeEnabledWdtCounter
 6319 0df3 1E       		.uleb128 0x1e
 6320 0df4 24050000 		.4byte	.LASF149
 6321 0df8 02       		.byte	0x2
 6322 0df9 25       		.byte	0x25
 6323 0dfa 81000000 		.4byte	0x81
 6324 0dfe 05       		.uleb128 0x5
 6325 0dff 03       		.byte	0x3
 6326 0e00 00000000 		.4byte	lfclkPosedgeWdtCounter0Mode
 6327 0e04 1C       		.uleb128 0x1c
 6328 0e05 6B000000 		.4byte	0x6b
 6329 0e09 140E0000 		.4byte	0xe14
 6330 0e0d 1D       		.uleb128 0x1d
 6331 0e0e E2000000 		.4byte	0xe2
 6332 0e12 2D       		.byte	0x2d
 6333 0e13 00       		.byte	0
 6334 0e14 1E       		.uleb128 0x1e
 6335 0e15 A8050000 		.4byte	.LASF150
ARM GAS  C:\Users\CHRIST~1\AppData\Local\Temp\cc8KQrfd.s 			page 182


 6336 0e19 02       		.byte	0x2
 6337 0e1a 39       		.byte	0x39
 6338 0e1b 250E0000 		.4byte	0xe25
 6339 0e1f 05       		.uleb128 0x5
 6340 0e20 03       		.byte	0x3
 6341 0e21 00000000 		.4byte	cyImoFreqMhz2Reg
 6342 0e25 1F       		.uleb128 0x1f
 6343 0e26 040E0000 		.4byte	0xe04
 6344 0e2a 00       		.byte	0
 6345              		.section	.debug_abbrev,"",%progbits
 6346              	.Ldebug_abbrev0:
 6347 0000 01       		.uleb128 0x1
 6348 0001 11       		.uleb128 0x11
 6349 0002 01       		.byte	0x1
 6350 0003 25       		.uleb128 0x25
 6351 0004 0E       		.uleb128 0xe
 6352 0005 13       		.uleb128 0x13
 6353 0006 0B       		.uleb128 0xb
 6354 0007 03       		.uleb128 0x3
 6355 0008 0E       		.uleb128 0xe
 6356 0009 1B       		.uleb128 0x1b
 6357 000a 0E       		.uleb128 0xe
 6358 000b 55       		.uleb128 0x55
 6359 000c 17       		.uleb128 0x17
 6360 000d 11       		.uleb128 0x11
 6361 000e 01       		.uleb128 0x1
 6362 000f 10       		.uleb128 0x10
 6363 0010 17       		.uleb128 0x17
 6364 0011 00       		.byte	0
 6365 0012 00       		.byte	0
 6366 0013 02       		.uleb128 0x2
 6367 0014 24       		.uleb128 0x24
 6368 0015 00       		.byte	0
 6369 0016 0B       		.uleb128 0xb
 6370 0017 0B       		.uleb128 0xb
 6371 0018 3E       		.uleb128 0x3e
 6372 0019 0B       		.uleb128 0xb
 6373 001a 03       		.uleb128 0x3
 6374 001b 0E       		.uleb128 0xe
 6375 001c 00       		.byte	0
 6376 001d 00       		.byte	0
 6377 001e 03       		.uleb128 0x3
 6378 001f 24       		.uleb128 0x24
 6379 0020 00       		.byte	0
 6380 0021 0B       		.uleb128 0xb
 6381 0022 0B       		.uleb128 0xb
 6382 0023 3E       		.uleb128 0x3e
 6383 0024 0B       		.uleb128 0xb
 6384 0025 03       		.uleb128 0x3
 6385 0026 08       		.uleb128 0x8
 6386 0027 00       		.byte	0
 6387 0028 00       		.byte	0
 6388 0029 04       		.uleb128 0x4
 6389 002a 16       		.uleb128 0x16
 6390 002b 00       		.byte	0
 6391 002c 03       		.uleb128 0x3
 6392 002d 0E       		.uleb128 0xe
ARM GAS  C:\Users\CHRIST~1\AppData\Local\Temp\cc8KQrfd.s 			page 183


 6393 002e 3A       		.uleb128 0x3a
 6394 002f 0B       		.uleb128 0xb
 6395 0030 3B       		.uleb128 0x3b
 6396 0031 0B       		.uleb128 0xb
 6397 0032 49       		.uleb128 0x49
 6398 0033 13       		.uleb128 0x13
 6399 0034 00       		.byte	0
 6400 0035 00       		.byte	0
 6401 0036 05       		.uleb128 0x5
 6402 0037 16       		.uleb128 0x16
 6403 0038 00       		.byte	0
 6404 0039 03       		.uleb128 0x3
 6405 003a 0E       		.uleb128 0xe
 6406 003b 3A       		.uleb128 0x3a
 6407 003c 0B       		.uleb128 0xb
 6408 003d 3B       		.uleb128 0x3b
 6409 003e 05       		.uleb128 0x5
 6410 003f 49       		.uleb128 0x49
 6411 0040 13       		.uleb128 0x13
 6412 0041 00       		.byte	0
 6413 0042 00       		.byte	0
 6414 0043 06       		.uleb128 0x6
 6415 0044 35       		.uleb128 0x35
 6416 0045 00       		.byte	0
 6417 0046 49       		.uleb128 0x49
 6418 0047 13       		.uleb128 0x13
 6419 0048 00       		.byte	0
 6420 0049 00       		.byte	0
 6421 004a 07       		.uleb128 0x7
 6422 004b 0F       		.uleb128 0xf
 6423 004c 00       		.byte	0
 6424 004d 0B       		.uleb128 0xb
 6425 004e 0B       		.uleb128 0xb
 6426 004f 49       		.uleb128 0x49
 6427 0050 13       		.uleb128 0x13
 6428 0051 00       		.byte	0
 6429 0052 00       		.byte	0
 6430 0053 08       		.uleb128 0x8
 6431 0054 15       		.uleb128 0x15
 6432 0055 00       		.byte	0
 6433 0056 27       		.uleb128 0x27
 6434 0057 19       		.uleb128 0x19
 6435 0058 00       		.byte	0
 6436 0059 00       		.byte	0
 6437 005a 09       		.uleb128 0x9
 6438 005b 2E       		.uleb128 0x2e
 6439 005c 00       		.byte	0
 6440 005d 03       		.uleb128 0x3
 6441 005e 0E       		.uleb128 0xe
 6442 005f 3A       		.uleb128 0x3a
 6443 0060 0B       		.uleb128 0xb
 6444 0061 3B       		.uleb128 0x3b
 6445 0062 05       		.uleb128 0x5
 6446 0063 27       		.uleb128 0x27
 6447 0064 19       		.uleb128 0x19
 6448 0065 11       		.uleb128 0x11
 6449 0066 01       		.uleb128 0x1
ARM GAS  C:\Users\CHRIST~1\AppData\Local\Temp\cc8KQrfd.s 			page 184


 6450 0067 12       		.uleb128 0x12
 6451 0068 06       		.uleb128 0x6
 6452 0069 40       		.uleb128 0x40
 6453 006a 18       		.uleb128 0x18
 6454 006b 9742     		.uleb128 0x2117
 6455 006d 19       		.uleb128 0x19
 6456 006e 00       		.byte	0
 6457 006f 00       		.byte	0
 6458 0070 0A       		.uleb128 0xa
 6459 0071 2E       		.uleb128 0x2e
 6460 0072 00       		.byte	0
 6461 0073 3F       		.uleb128 0x3f
 6462 0074 19       		.uleb128 0x19
 6463 0075 03       		.uleb128 0x3
 6464 0076 0E       		.uleb128 0xe
 6465 0077 3A       		.uleb128 0x3a
 6466 0078 0B       		.uleb128 0xb
 6467 0079 3B       		.uleb128 0x3b
 6468 007a 0B       		.uleb128 0xb
 6469 007b 27       		.uleb128 0x27
 6470 007c 19       		.uleb128 0x19
 6471 007d 11       		.uleb128 0x11
 6472 007e 01       		.uleb128 0x1
 6473 007f 12       		.uleb128 0x12
 6474 0080 06       		.uleb128 0x6
 6475 0081 40       		.uleb128 0x40
 6476 0082 18       		.uleb128 0x18
 6477 0083 9742     		.uleb128 0x2117
 6478 0085 19       		.uleb128 0x19
 6479 0086 00       		.byte	0
 6480 0087 00       		.byte	0
 6481 0088 0B       		.uleb128 0xb
 6482 0089 2E       		.uleb128 0x2e
 6483 008a 01       		.byte	0x1
 6484 008b 3F       		.uleb128 0x3f
 6485 008c 19       		.uleb128 0x19
 6486 008d 03       		.uleb128 0x3
 6487 008e 0E       		.uleb128 0xe
 6488 008f 3A       		.uleb128 0x3a
 6489 0090 0B       		.uleb128 0xb
 6490 0091 3B       		.uleb128 0x3b
 6491 0092 0B       		.uleb128 0xb
 6492 0093 27       		.uleb128 0x27
 6493 0094 19       		.uleb128 0x19
 6494 0095 11       		.uleb128 0x11
 6495 0096 01       		.uleb128 0x1
 6496 0097 12       		.uleb128 0x12
 6497 0098 06       		.uleb128 0x6
 6498 0099 40       		.uleb128 0x40
 6499 009a 18       		.uleb128 0x18
 6500 009b 9642     		.uleb128 0x2116
 6501 009d 19       		.uleb128 0x19
 6502 009e 01       		.uleb128 0x1
 6503 009f 13       		.uleb128 0x13
 6504 00a0 00       		.byte	0
 6505 00a1 00       		.byte	0
 6506 00a2 0C       		.uleb128 0xc
ARM GAS  C:\Users\CHRIST~1\AppData\Local\Temp\cc8KQrfd.s 			page 185


 6507 00a3 34       		.uleb128 0x34
 6508 00a4 00       		.byte	0
 6509 00a5 03       		.uleb128 0x3
 6510 00a6 0E       		.uleb128 0xe
 6511 00a7 3A       		.uleb128 0x3a
 6512 00a8 0B       		.uleb128 0xb
 6513 00a9 3B       		.uleb128 0x3b
 6514 00aa 0B       		.uleb128 0xb
 6515 00ab 49       		.uleb128 0x49
 6516 00ac 13       		.uleb128 0x13
 6517 00ad 02       		.uleb128 0x2
 6518 00ae 18       		.uleb128 0x18
 6519 00af 00       		.byte	0
 6520 00b0 00       		.byte	0
 6521 00b1 0D       		.uleb128 0xd
 6522 00b2 2E       		.uleb128 0x2e
 6523 00b3 00       		.byte	0
 6524 00b4 03       		.uleb128 0x3
 6525 00b5 0E       		.uleb128 0xe
 6526 00b6 3A       		.uleb128 0x3a
 6527 00b7 0B       		.uleb128 0xb
 6528 00b8 3B       		.uleb128 0x3b
 6529 00b9 0B       		.uleb128 0xb
 6530 00ba 27       		.uleb128 0x27
 6531 00bb 19       		.uleb128 0x19
 6532 00bc 49       		.uleb128 0x49
 6533 00bd 13       		.uleb128 0x13
 6534 00be 11       		.uleb128 0x11
 6535 00bf 01       		.uleb128 0x1
 6536 00c0 12       		.uleb128 0x12
 6537 00c1 06       		.uleb128 0x6
 6538 00c2 40       		.uleb128 0x40
 6539 00c3 18       		.uleb128 0x18
 6540 00c4 9742     		.uleb128 0x2117
 6541 00c6 19       		.uleb128 0x19
 6542 00c7 00       		.byte	0
 6543 00c8 00       		.byte	0
 6544 00c9 0E       		.uleb128 0xe
 6545 00ca 2E       		.uleb128 0x2e
 6546 00cb 01       		.byte	0x1
 6547 00cc 03       		.uleb128 0x3
 6548 00cd 0E       		.uleb128 0xe
 6549 00ce 3A       		.uleb128 0x3a
 6550 00cf 0B       		.uleb128 0xb
 6551 00d0 3B       		.uleb128 0x3b
 6552 00d1 0B       		.uleb128 0xb
 6553 00d2 27       		.uleb128 0x27
 6554 00d3 19       		.uleb128 0x19
 6555 00d4 49       		.uleb128 0x49
 6556 00d5 13       		.uleb128 0x13
 6557 00d6 11       		.uleb128 0x11
 6558 00d7 01       		.uleb128 0x1
 6559 00d8 12       		.uleb128 0x12
 6560 00d9 06       		.uleb128 0x6
 6561 00da 40       		.uleb128 0x40
 6562 00db 18       		.uleb128 0x18
 6563 00dc 9742     		.uleb128 0x2117
ARM GAS  C:\Users\CHRIST~1\AppData\Local\Temp\cc8KQrfd.s 			page 186


 6564 00de 19       		.uleb128 0x19
 6565 00df 01       		.uleb128 0x1
 6566 00e0 13       		.uleb128 0x13
 6567 00e1 00       		.byte	0
 6568 00e2 00       		.byte	0
 6569 00e3 0F       		.uleb128 0xf
 6570 00e4 2E       		.uleb128 0x2e
 6571 00e5 01       		.byte	0x1
 6572 00e6 3F       		.uleb128 0x3f
 6573 00e7 19       		.uleb128 0x19
 6574 00e8 03       		.uleb128 0x3
 6575 00e9 0E       		.uleb128 0xe
 6576 00ea 3A       		.uleb128 0x3a
 6577 00eb 0B       		.uleb128 0xb
 6578 00ec 3B       		.uleb128 0x3b
 6579 00ed 05       		.uleb128 0x5
 6580 00ee 27       		.uleb128 0x27
 6581 00ef 19       		.uleb128 0x19
 6582 00f0 11       		.uleb128 0x11
 6583 00f1 01       		.uleb128 0x1
 6584 00f2 12       		.uleb128 0x12
 6585 00f3 06       		.uleb128 0x6
 6586 00f4 40       		.uleb128 0x40
 6587 00f5 18       		.uleb128 0x18
 6588 00f6 9642     		.uleb128 0x2116
 6589 00f8 19       		.uleb128 0x19
 6590 00f9 01       		.uleb128 0x1
 6591 00fa 13       		.uleb128 0x13
 6592 00fb 00       		.byte	0
 6593 00fc 00       		.byte	0
 6594 00fd 10       		.uleb128 0x10
 6595 00fe 05       		.uleb128 0x5
 6596 00ff 00       		.byte	0
 6597 0100 03       		.uleb128 0x3
 6598 0101 0E       		.uleb128 0xe
 6599 0102 3A       		.uleb128 0x3a
 6600 0103 0B       		.uleb128 0xb
 6601 0104 3B       		.uleb128 0x3b
 6602 0105 05       		.uleb128 0x5
 6603 0106 49       		.uleb128 0x49
 6604 0107 13       		.uleb128 0x13
 6605 0108 02       		.uleb128 0x2
 6606 0109 18       		.uleb128 0x18
 6607 010a 00       		.byte	0
 6608 010b 00       		.byte	0
 6609 010c 11       		.uleb128 0x11
 6610 010d 34       		.uleb128 0x34
 6611 010e 00       		.byte	0
 6612 010f 03       		.uleb128 0x3
 6613 0110 0E       		.uleb128 0xe
 6614 0111 3A       		.uleb128 0x3a
 6615 0112 0B       		.uleb128 0xb
 6616 0113 3B       		.uleb128 0x3b
 6617 0114 05       		.uleb128 0x5
 6618 0115 49       		.uleb128 0x49
 6619 0116 13       		.uleb128 0x13
 6620 0117 02       		.uleb128 0x2
ARM GAS  C:\Users\CHRIST~1\AppData\Local\Temp\cc8KQrfd.s 			page 187


 6621 0118 18       		.uleb128 0x18
 6622 0119 00       		.byte	0
 6623 011a 00       		.byte	0
 6624 011b 12       		.uleb128 0x12
 6625 011c 2E       		.uleb128 0x2e
 6626 011d 01       		.byte	0x1
 6627 011e 3F       		.uleb128 0x3f
 6628 011f 19       		.uleb128 0x19
 6629 0120 03       		.uleb128 0x3
 6630 0121 0E       		.uleb128 0xe
 6631 0122 3A       		.uleb128 0x3a
 6632 0123 0B       		.uleb128 0xb
 6633 0124 3B       		.uleb128 0x3b
 6634 0125 05       		.uleb128 0x5
 6635 0126 27       		.uleb128 0x27
 6636 0127 19       		.uleb128 0x19
 6637 0128 49       		.uleb128 0x49
 6638 0129 13       		.uleb128 0x13
 6639 012a 11       		.uleb128 0x11
 6640 012b 01       		.uleb128 0x1
 6641 012c 12       		.uleb128 0x12
 6642 012d 06       		.uleb128 0x6
 6643 012e 40       		.uleb128 0x40
 6644 012f 18       		.uleb128 0x18
 6645 0130 9642     		.uleb128 0x2116
 6646 0132 19       		.uleb128 0x19
 6647 0133 01       		.uleb128 0x1
 6648 0134 13       		.uleb128 0x13
 6649 0135 00       		.byte	0
 6650 0136 00       		.byte	0
 6651 0137 13       		.uleb128 0x13
 6652 0138 2E       		.uleb128 0x2e
 6653 0139 00       		.byte	0
 6654 013a 3F       		.uleb128 0x3f
 6655 013b 19       		.uleb128 0x19
 6656 013c 03       		.uleb128 0x3
 6657 013d 0E       		.uleb128 0xe
 6658 013e 3A       		.uleb128 0x3a
 6659 013f 0B       		.uleb128 0xb
 6660 0140 3B       		.uleb128 0x3b
 6661 0141 05       		.uleb128 0x5
 6662 0142 27       		.uleb128 0x27
 6663 0143 19       		.uleb128 0x19
 6664 0144 11       		.uleb128 0x11
 6665 0145 01       		.uleb128 0x1
 6666 0146 12       		.uleb128 0x12
 6667 0147 06       		.uleb128 0x6
 6668 0148 40       		.uleb128 0x40
 6669 0149 18       		.uleb128 0x18
 6670 014a 9742     		.uleb128 0x2117
 6671 014c 19       		.uleb128 0x19
 6672 014d 00       		.byte	0
 6673 014e 00       		.byte	0
 6674 014f 14       		.uleb128 0x14
 6675 0150 2E       		.uleb128 0x2e
 6676 0151 00       		.byte	0
 6677 0152 3F       		.uleb128 0x3f
ARM GAS  C:\Users\CHRIST~1\AppData\Local\Temp\cc8KQrfd.s 			page 188


 6678 0153 19       		.uleb128 0x19
 6679 0154 03       		.uleb128 0x3
 6680 0155 0E       		.uleb128 0xe
 6681 0156 3A       		.uleb128 0x3a
 6682 0157 0B       		.uleb128 0xb
 6683 0158 3B       		.uleb128 0x3b
 6684 0159 05       		.uleb128 0x5
 6685 015a 27       		.uleb128 0x27
 6686 015b 19       		.uleb128 0x19
 6687 015c 49       		.uleb128 0x49
 6688 015d 13       		.uleb128 0x13
 6689 015e 11       		.uleb128 0x11
 6690 015f 01       		.uleb128 0x1
 6691 0160 12       		.uleb128 0x12
 6692 0161 06       		.uleb128 0x6
 6693 0162 40       		.uleb128 0x40
 6694 0163 18       		.uleb128 0x18
 6695 0164 9742     		.uleb128 0x2117
 6696 0166 19       		.uleb128 0x19
 6697 0167 00       		.byte	0
 6698 0168 00       		.byte	0
 6699 0169 15       		.uleb128 0x15
 6700 016a 2E       		.uleb128 0x2e
 6701 016b 00       		.byte	0
 6702 016c 3F       		.uleb128 0x3f
 6703 016d 19       		.uleb128 0x19
 6704 016e 03       		.uleb128 0x3
 6705 016f 0E       		.uleb128 0xe
 6706 0170 3A       		.uleb128 0x3a
 6707 0171 0B       		.uleb128 0xb
 6708 0172 3B       		.uleb128 0x3b
 6709 0173 05       		.uleb128 0x5
 6710 0174 27       		.uleb128 0x27
 6711 0175 19       		.uleb128 0x19
 6712 0176 11       		.uleb128 0x11
 6713 0177 01       		.uleb128 0x1
 6714 0178 12       		.uleb128 0x12
 6715 0179 06       		.uleb128 0x6
 6716 017a 40       		.uleb128 0x40
 6717 017b 18       		.uleb128 0x18
 6718 017c 9642     		.uleb128 0x2116
 6719 017e 19       		.uleb128 0x19
 6720 017f 00       		.byte	0
 6721 0180 00       		.byte	0
 6722 0181 16       		.uleb128 0x16
 6723 0182 2E       		.uleb128 0x2e
 6724 0183 00       		.byte	0
 6725 0184 03       		.uleb128 0x3
 6726 0185 0E       		.uleb128 0xe
 6727 0186 3A       		.uleb128 0x3a
 6728 0187 0B       		.uleb128 0xb
 6729 0188 3B       		.uleb128 0x3b
 6730 0189 05       		.uleb128 0x5
 6731 018a 27       		.uleb128 0x27
 6732 018b 19       		.uleb128 0x19
 6733 018c 49       		.uleb128 0x49
 6734 018d 13       		.uleb128 0x13
ARM GAS  C:\Users\CHRIST~1\AppData\Local\Temp\cc8KQrfd.s 			page 189


 6735 018e 11       		.uleb128 0x11
 6736 018f 01       		.uleb128 0x1
 6737 0190 12       		.uleb128 0x12
 6738 0191 06       		.uleb128 0x6
 6739 0192 40       		.uleb128 0x40
 6740 0193 18       		.uleb128 0x18
 6741 0194 9742     		.uleb128 0x2117
 6742 0196 19       		.uleb128 0x19
 6743 0197 00       		.byte	0
 6744 0198 00       		.byte	0
 6745 0199 17       		.uleb128 0x17
 6746 019a 2E       		.uleb128 0x2e
 6747 019b 01       		.byte	0x1
 6748 019c 3F       		.uleb128 0x3f
 6749 019d 19       		.uleb128 0x19
 6750 019e 03       		.uleb128 0x3
 6751 019f 0E       		.uleb128 0xe
 6752 01a0 3A       		.uleb128 0x3a
 6753 01a1 0B       		.uleb128 0xb
 6754 01a2 3B       		.uleb128 0x3b
 6755 01a3 05       		.uleb128 0x5
 6756 01a4 27       		.uleb128 0x27
 6757 01a5 19       		.uleb128 0x19
 6758 01a6 49       		.uleb128 0x49
 6759 01a7 13       		.uleb128 0x13
 6760 01a8 11       		.uleb128 0x11
 6761 01a9 01       		.uleb128 0x1
 6762 01aa 12       		.uleb128 0x12
 6763 01ab 06       		.uleb128 0x6
 6764 01ac 40       		.uleb128 0x40
 6765 01ad 18       		.uleb128 0x18
 6766 01ae 9742     		.uleb128 0x2117
 6767 01b0 19       		.uleb128 0x19
 6768 01b1 01       		.uleb128 0x1
 6769 01b2 13       		.uleb128 0x13
 6770 01b3 00       		.byte	0
 6771 01b4 00       		.byte	0
 6772 01b5 18       		.uleb128 0x18
 6773 01b6 2E       		.uleb128 0x2e
 6774 01b7 01       		.byte	0x1
 6775 01b8 3F       		.uleb128 0x3f
 6776 01b9 19       		.uleb128 0x19
 6777 01ba 03       		.uleb128 0x3
 6778 01bb 0E       		.uleb128 0xe
 6779 01bc 3A       		.uleb128 0x3a
 6780 01bd 0B       		.uleb128 0xb
 6781 01be 3B       		.uleb128 0x3b
 6782 01bf 05       		.uleb128 0x5
 6783 01c0 27       		.uleb128 0x27
 6784 01c1 19       		.uleb128 0x19
 6785 01c2 11       		.uleb128 0x11
 6786 01c3 01       		.uleb128 0x1
 6787 01c4 12       		.uleb128 0x12
 6788 01c5 06       		.uleb128 0x6
 6789 01c6 40       		.uleb128 0x40
 6790 01c7 18       		.uleb128 0x18
 6791 01c8 9742     		.uleb128 0x2117
ARM GAS  C:\Users\CHRIST~1\AppData\Local\Temp\cc8KQrfd.s 			page 190


 6792 01ca 19       		.uleb128 0x19
 6793 01cb 01       		.uleb128 0x1
 6794 01cc 13       		.uleb128 0x13
 6795 01cd 00       		.byte	0
 6796 01ce 00       		.byte	0
 6797 01cf 19       		.uleb128 0x19
 6798 01d0 2E       		.uleb128 0x2e
 6799 01d1 01       		.byte	0x1
 6800 01d2 03       		.uleb128 0x3
 6801 01d3 0E       		.uleb128 0xe
 6802 01d4 3A       		.uleb128 0x3a
 6803 01d5 0B       		.uleb128 0xb
 6804 01d6 3B       		.uleb128 0x3b
 6805 01d7 05       		.uleb128 0x5
 6806 01d8 27       		.uleb128 0x27
 6807 01d9 19       		.uleb128 0x19
 6808 01da 11       		.uleb128 0x11
 6809 01db 01       		.uleb128 0x1
 6810 01dc 12       		.uleb128 0x12
 6811 01dd 06       		.uleb128 0x6
 6812 01de 40       		.uleb128 0x40
 6813 01df 18       		.uleb128 0x18
 6814 01e0 9642     		.uleb128 0x2116
 6815 01e2 19       		.uleb128 0x19
 6816 01e3 01       		.uleb128 0x1
 6817 01e4 13       		.uleb128 0x13
 6818 01e5 00       		.byte	0
 6819 01e6 00       		.byte	0
 6820 01e7 1A       		.uleb128 0x1a
 6821 01e8 2E       		.uleb128 0x2e
 6822 01e9 00       		.byte	0
 6823 01ea 03       		.uleb128 0x3
 6824 01eb 0E       		.uleb128 0xe
 6825 01ec 3A       		.uleb128 0x3a
 6826 01ed 0B       		.uleb128 0xb
 6827 01ee 3B       		.uleb128 0x3b
 6828 01ef 05       		.uleb128 0x5
 6829 01f0 27       		.uleb128 0x27
 6830 01f1 19       		.uleb128 0x19
 6831 01f2 11       		.uleb128 0x11
 6832 01f3 01       		.uleb128 0x1
 6833 01f4 12       		.uleb128 0x12
 6834 01f5 06       		.uleb128 0x6
 6835 01f6 40       		.uleb128 0x40
 6836 01f7 18       		.uleb128 0x18
 6837 01f8 9642     		.uleb128 0x2116
 6838 01fa 19       		.uleb128 0x19
 6839 01fb 00       		.byte	0
 6840 01fc 00       		.byte	0
 6841 01fd 1B       		.uleb128 0x1b
 6842 01fe 34       		.uleb128 0x34
 6843 01ff 00       		.byte	0
 6844 0200 03       		.uleb128 0x3
 6845 0201 08       		.uleb128 0x8
 6846 0202 3A       		.uleb128 0x3a
 6847 0203 0B       		.uleb128 0xb
 6848 0204 3B       		.uleb128 0x3b
ARM GAS  C:\Users\CHRIST~1\AppData\Local\Temp\cc8KQrfd.s 			page 191


 6849 0205 05       		.uleb128 0x5
 6850 0206 49       		.uleb128 0x49
 6851 0207 13       		.uleb128 0x13
 6852 0208 02       		.uleb128 0x2
 6853 0209 18       		.uleb128 0x18
 6854 020a 00       		.byte	0
 6855 020b 00       		.byte	0
 6856 020c 1C       		.uleb128 0x1c
 6857 020d 01       		.uleb128 0x1
 6858 020e 01       		.byte	0x1
 6859 020f 49       		.uleb128 0x49
 6860 0210 13       		.uleb128 0x13
 6861 0211 01       		.uleb128 0x1
 6862 0212 13       		.uleb128 0x13
 6863 0213 00       		.byte	0
 6864 0214 00       		.byte	0
 6865 0215 1D       		.uleb128 0x1d
 6866 0216 21       		.uleb128 0x21
 6867 0217 00       		.byte	0
 6868 0218 49       		.uleb128 0x49
 6869 0219 13       		.uleb128 0x13
 6870 021a 2F       		.uleb128 0x2f
 6871 021b 0B       		.uleb128 0xb
 6872 021c 00       		.byte	0
 6873 021d 00       		.byte	0
 6874 021e 1E       		.uleb128 0x1e
 6875 021f 34       		.uleb128 0x34
 6876 0220 00       		.byte	0
 6877 0221 03       		.uleb128 0x3
 6878 0222 0E       		.uleb128 0xe
 6879 0223 3A       		.uleb128 0x3a
 6880 0224 0B       		.uleb128 0xb
 6881 0225 3B       		.uleb128 0x3b
 6882 0226 0B       		.uleb128 0xb
 6883 0227 49       		.uleb128 0x49
 6884 0228 13       		.uleb128 0x13
 6885 0229 3F       		.uleb128 0x3f
 6886 022a 19       		.uleb128 0x19
 6887 022b 02       		.uleb128 0x2
 6888 022c 18       		.uleb128 0x18
 6889 022d 00       		.byte	0
 6890 022e 00       		.byte	0
 6891 022f 1F       		.uleb128 0x1f
 6892 0230 26       		.uleb128 0x26
 6893 0231 00       		.byte	0
 6894 0232 49       		.uleb128 0x49
 6895 0233 13       		.uleb128 0x13
 6896 0234 00       		.byte	0
 6897 0235 00       		.byte	0
 6898 0236 00       		.byte	0
 6899              		.section	.debug_aranges,"",%progbits
 6900 0000 94020000 		.4byte	0x294
 6901 0004 0200     		.2byte	0x2
 6902 0006 00000000 		.4byte	.Ldebug_info0
 6903 000a 04       		.byte	0x4
 6904 000b 00       		.byte	0
 6905 000c 0000     		.2byte	0
ARM GAS  C:\Users\CHRIST~1\AppData\Local\Temp\cc8KQrfd.s 			page 192


 6906 000e 0000     		.2byte	0
 6907 0010 00000000 		.4byte	.LFB0
 6908 0014 3C000000 		.4byte	.LFE0-.LFB0
 6909 0018 00000000 		.4byte	.LFB1
 6910 001c 48000000 		.4byte	.LFE1-.LFB1
 6911 0020 00000000 		.4byte	.LFB2
 6912 0024 1C000000 		.4byte	.LFE2-.LFB2
 6913 0028 00000000 		.4byte	.LFB3
 6914 002c 18000000 		.4byte	.LFE3-.LFB3
 6915 0030 00000000 		.4byte	.LFB4
 6916 0034 1C000000 		.4byte	.LFE4-.LFB4
 6917 0038 00000000 		.4byte	.LFB5
 6918 003c 60000000 		.4byte	.LFE5-.LFB5
 6919 0040 00000000 		.4byte	.LFB6
 6920 0044 1C000000 		.4byte	.LFE6-.LFB6
 6921 0048 00000000 		.4byte	.LFB7
 6922 004c 20000000 		.4byte	.LFE7-.LFB7
 6923 0050 00000000 		.4byte	.LFB8
 6924 0054 54000000 		.4byte	.LFE8-.LFB8
 6925 0058 00000000 		.4byte	.LFB9
 6926 005c 40000000 		.4byte	.LFE9-.LFB9
 6927 0060 00000000 		.4byte	.LFB10
 6928 0064 44000000 		.4byte	.LFE10-.LFB10
 6929 0068 00000000 		.4byte	.LFB11
 6930 006c E0010000 		.4byte	.LFE11-.LFB11
 6931 0070 00000000 		.4byte	.LFB12
 6932 0074 74000000 		.4byte	.LFE12-.LFB12
 6933 0078 00000000 		.4byte	.LFB13
 6934 007c 2C000000 		.4byte	.LFE13-.LFB13
 6935 0080 00000000 		.4byte	.LFB14
 6936 0084 18000000 		.4byte	.LFE14-.LFB14
 6937 0088 00000000 		.4byte	.LFB15
 6938 008c 40000000 		.4byte	.LFE15-.LFB15
 6939 0090 00000000 		.4byte	.LFB16
 6940 0094 20000000 		.4byte	.LFE16-.LFB16
 6941 0098 00000000 		.4byte	.LFB17
 6942 009c 5C000000 		.4byte	.LFE17-.LFB17
 6943 00a0 00000000 		.4byte	.LFB18
 6944 00a4 1C000000 		.4byte	.LFE18-.LFB18
 6945 00a8 00000000 		.4byte	.LFB19
 6946 00ac 40000000 		.4byte	.LFE19-.LFB19
 6947 00b0 00000000 		.4byte	.LFB20
 6948 00b4 34000000 		.4byte	.LFE20-.LFB20
 6949 00b8 00000000 		.4byte	.LFB21
 6950 00bc 20000000 		.4byte	.LFE21-.LFB21
 6951 00c0 00000000 		.4byte	.LFB22
 6952 00c4 4C000000 		.4byte	.LFE22-.LFB22
 6953 00c8 00000000 		.4byte	.LFB23
 6954 00cc 30000000 		.4byte	.LFE23-.LFB23
 6955 00d0 00000000 		.4byte	.LFB24
 6956 00d4 58000000 		.4byte	.LFE24-.LFB24
 6957 00d8 00000000 		.4byte	.LFB25
 6958 00dc 24000000 		.4byte	.LFE25-.LFB25
 6959 00e0 00000000 		.4byte	.LFB26
 6960 00e4 6C000000 		.4byte	.LFE26-.LFB26
 6961 00e8 00000000 		.4byte	.LFB27
 6962 00ec 40000000 		.4byte	.LFE27-.LFB27
ARM GAS  C:\Users\CHRIST~1\AppData\Local\Temp\cc8KQrfd.s 			page 193


 6963 00f0 00000000 		.4byte	.LFB28
 6964 00f4 60000000 		.4byte	.LFE28-.LFB28
 6965 00f8 00000000 		.4byte	.LFB29
 6966 00fc 60000000 		.4byte	.LFE29-.LFB29
 6967 0100 00000000 		.4byte	.LFB30
 6968 0104 58000000 		.4byte	.LFE30-.LFB30
 6969 0108 00000000 		.4byte	.LFB31
 6970 010c 1C000000 		.4byte	.LFE31-.LFB31
 6971 0110 00000000 		.4byte	.LFB32
 6972 0114 90000000 		.4byte	.LFE32-.LFB32
 6973 0118 00000000 		.4byte	.LFB33
 6974 011c 44000000 		.4byte	.LFE33-.LFB33
 6975 0120 00000000 		.4byte	.LFB34
 6976 0124 18000000 		.4byte	.LFE34-.LFB34
 6977 0128 00000000 		.4byte	.LFB35
 6978 012c 40000000 		.4byte	.LFE35-.LFB35
 6979 0130 00000000 		.4byte	.LFB36
 6980 0134 54000000 		.4byte	.LFE36-.LFB36
 6981 0138 00000000 		.4byte	.LFB37
 6982 013c 1C000000 		.4byte	.LFE37-.LFB37
 6983 0140 00000000 		.4byte	.LFB38
 6984 0144 6C000000 		.4byte	.LFE38-.LFB38
 6985 0148 00000000 		.4byte	.LFB39
 6986 014c 28000000 		.4byte	.LFE39-.LFB39
 6987 0150 00000000 		.4byte	.LFB40
 6988 0154 98000000 		.4byte	.LFE40-.LFB40
 6989 0158 00000000 		.4byte	.LFB41
 6990 015c 3C000000 		.4byte	.LFE41-.LFB41
 6991 0160 00000000 		.4byte	.LFB42
 6992 0164 48000000 		.4byte	.LFE42-.LFB42
 6993 0168 00000000 		.4byte	.LFB43
 6994 016c 28000000 		.4byte	.LFE43-.LFB43
 6995 0170 00000000 		.4byte	.LFB44
 6996 0174 18000000 		.4byte	.LFE44-.LFB44
 6997 0178 00000000 		.4byte	.LFB45
 6998 017c 14000000 		.4byte	.LFE45-.LFB45
 6999 0180 00000000 		.4byte	.LFB46
 7000 0184 30000000 		.4byte	.LFE46-.LFB46
 7001 0188 00000000 		.4byte	.LFB47
 7002 018c 24000000 		.4byte	.LFE47-.LFB47
 7003 0190 00000000 		.4byte	.LFB48
 7004 0194 18000000 		.4byte	.LFE48-.LFB48
 7005 0198 00000000 		.4byte	.LFB49
 7006 019c 48000000 		.4byte	.LFE49-.LFB49
 7007 01a0 00000000 		.4byte	.LFB50
 7008 01a4 34000000 		.4byte	.LFE50-.LFB50
 7009 01a8 00000000 		.4byte	.LFB51
 7010 01ac 4C000000 		.4byte	.LFE51-.LFB51
 7011 01b0 00000000 		.4byte	.LFB52
 7012 01b4 36000000 		.4byte	.LFE52-.LFB52
 7013 01b8 00000000 		.4byte	.LFB53
 7014 01bc A8000000 		.4byte	.LFE53-.LFB53
 7015 01c0 00000000 		.4byte	.LFB54
 7016 01c4 5C000000 		.4byte	.LFE54-.LFB54
 7017 01c8 00000000 		.4byte	.LFB55
 7018 01cc 28000000 		.4byte	.LFE55-.LFB55
 7019 01d0 00000000 		.4byte	.LFB56
ARM GAS  C:\Users\CHRIST~1\AppData\Local\Temp\cc8KQrfd.s 			page 194


 7020 01d4 30000000 		.4byte	.LFE56-.LFB56
 7021 01d8 00000000 		.4byte	.LFB57
 7022 01dc 28000000 		.4byte	.LFE57-.LFB57
 7023 01e0 00000000 		.4byte	.LFB58
 7024 01e4 28000000 		.4byte	.LFE58-.LFB58
 7025 01e8 00000000 		.4byte	.LFB59
 7026 01ec 28000000 		.4byte	.LFE59-.LFB59
 7027 01f0 00000000 		.4byte	.LFB60
 7028 01f4 14000000 		.4byte	.LFE60-.LFB60
 7029 01f8 00000000 		.4byte	.LFB61
 7030 01fc 20000000 		.4byte	.LFE61-.LFB61
 7031 0200 00000000 		.4byte	.LFB62
 7032 0204 48000000 		.4byte	.LFE62-.LFB62
 7033 0208 00000000 		.4byte	.LFB63
 7034 020c 28000000 		.4byte	.LFE63-.LFB63
 7035 0210 00000000 		.4byte	.LFB64
 7036 0214 84000000 		.4byte	.LFE64-.LFB64
 7037 0218 00000000 		.4byte	.LFB65
 7038 021c 24000000 		.4byte	.LFE65-.LFB65
 7039 0220 00000000 		.4byte	.LFB66
 7040 0224 64000000 		.4byte	.LFE66-.LFB66
 7041 0228 00000000 		.4byte	.LFB67
 7042 022c 1C000000 		.4byte	.LFE67-.LFB67
 7043 0230 00000000 		.4byte	.LFB68
 7044 0234 18000000 		.4byte	.LFE68-.LFB68
 7045 0238 00000000 		.4byte	.LFB69
 7046 023c 18000000 		.4byte	.LFE69-.LFB69
 7047 0240 00000000 		.4byte	.LFB70
 7048 0244 18000000 		.4byte	.LFE70-.LFB70
 7049 0248 00000000 		.4byte	.LFB71
 7050 024c 1C000000 		.4byte	.LFE71-.LFB71
 7051 0250 00000000 		.4byte	.LFB72
 7052 0254 18000000 		.4byte	.LFE72-.LFB72
 7053 0258 00000000 		.4byte	.LFB73
 7054 025c 1C000000 		.4byte	.LFE73-.LFB73
 7055 0260 00000000 		.4byte	.LFB74
 7056 0264 34000000 		.4byte	.LFE74-.LFB74
 7057 0268 00000000 		.4byte	.LFB75
 7058 026c 18000000 		.4byte	.LFE75-.LFB75
 7059 0270 00000000 		.4byte	.LFB76
 7060 0274 14000000 		.4byte	.LFE76-.LFB76
 7061 0278 00000000 		.4byte	.LFB77
 7062 027c 2C000000 		.4byte	.LFE77-.LFB77
 7063 0280 00000000 		.4byte	.LFB78
 7064 0284 1C000000 		.4byte	.LFE78-.LFB78
 7065 0288 00000000 		.4byte	.LFB79
 7066 028c 44000000 		.4byte	.LFE79-.LFB79
 7067 0290 00000000 		.4byte	0
 7068 0294 00000000 		.4byte	0
 7069              		.section	.debug_ranges,"",%progbits
 7070              	.Ldebug_ranges0:
 7071 0000 00000000 		.4byte	.LFB0
 7072 0004 3C000000 		.4byte	.LFE0
 7073 0008 00000000 		.4byte	.LFB1
 7074 000c 48000000 		.4byte	.LFE1
 7075 0010 00000000 		.4byte	.LFB2
 7076 0014 1C000000 		.4byte	.LFE2
ARM GAS  C:\Users\CHRIST~1\AppData\Local\Temp\cc8KQrfd.s 			page 195


 7077 0018 00000000 		.4byte	.LFB3
 7078 001c 18000000 		.4byte	.LFE3
 7079 0020 00000000 		.4byte	.LFB4
 7080 0024 1C000000 		.4byte	.LFE4
 7081 0028 00000000 		.4byte	.LFB5
 7082 002c 60000000 		.4byte	.LFE5
 7083 0030 00000000 		.4byte	.LFB6
 7084 0034 1C000000 		.4byte	.LFE6
 7085 0038 00000000 		.4byte	.LFB7
 7086 003c 20000000 		.4byte	.LFE7
 7087 0040 00000000 		.4byte	.LFB8
 7088 0044 54000000 		.4byte	.LFE8
 7089 0048 00000000 		.4byte	.LFB9
 7090 004c 40000000 		.4byte	.LFE9
 7091 0050 00000000 		.4byte	.LFB10
 7092 0054 44000000 		.4byte	.LFE10
 7093 0058 00000000 		.4byte	.LFB11
 7094 005c E0010000 		.4byte	.LFE11
 7095 0060 00000000 		.4byte	.LFB12
 7096 0064 74000000 		.4byte	.LFE12
 7097 0068 00000000 		.4byte	.LFB13
 7098 006c 2C000000 		.4byte	.LFE13
 7099 0070 00000000 		.4byte	.LFB14
 7100 0074 18000000 		.4byte	.LFE14
 7101 0078 00000000 		.4byte	.LFB15
 7102 007c 40000000 		.4byte	.LFE15
 7103 0080 00000000 		.4byte	.LFB16
 7104 0084 20000000 		.4byte	.LFE16
 7105 0088 00000000 		.4byte	.LFB17
 7106 008c 5C000000 		.4byte	.LFE17
 7107 0090 00000000 		.4byte	.LFB18
 7108 0094 1C000000 		.4byte	.LFE18
 7109 0098 00000000 		.4byte	.LFB19
 7110 009c 40000000 		.4byte	.LFE19
 7111 00a0 00000000 		.4byte	.LFB20
 7112 00a4 34000000 		.4byte	.LFE20
 7113 00a8 00000000 		.4byte	.LFB21
 7114 00ac 20000000 		.4byte	.LFE21
 7115 00b0 00000000 		.4byte	.LFB22
 7116 00b4 4C000000 		.4byte	.LFE22
 7117 00b8 00000000 		.4byte	.LFB23
 7118 00bc 30000000 		.4byte	.LFE23
 7119 00c0 00000000 		.4byte	.LFB24
 7120 00c4 58000000 		.4byte	.LFE24
 7121 00c8 00000000 		.4byte	.LFB25
 7122 00cc 24000000 		.4byte	.LFE25
 7123 00d0 00000000 		.4byte	.LFB26
 7124 00d4 6C000000 		.4byte	.LFE26
 7125 00d8 00000000 		.4byte	.LFB27
 7126 00dc 40000000 		.4byte	.LFE27
 7127 00e0 00000000 		.4byte	.LFB28
 7128 00e4 60000000 		.4byte	.LFE28
 7129 00e8 00000000 		.4byte	.LFB29
 7130 00ec 60000000 		.4byte	.LFE29
 7131 00f0 00000000 		.4byte	.LFB30
 7132 00f4 58000000 		.4byte	.LFE30
 7133 00f8 00000000 		.4byte	.LFB31
ARM GAS  C:\Users\CHRIST~1\AppData\Local\Temp\cc8KQrfd.s 			page 196


 7134 00fc 1C000000 		.4byte	.LFE31
 7135 0100 00000000 		.4byte	.LFB32
 7136 0104 90000000 		.4byte	.LFE32
 7137 0108 00000000 		.4byte	.LFB33
 7138 010c 44000000 		.4byte	.LFE33
 7139 0110 00000000 		.4byte	.LFB34
 7140 0114 18000000 		.4byte	.LFE34
 7141 0118 00000000 		.4byte	.LFB35
 7142 011c 40000000 		.4byte	.LFE35
 7143 0120 00000000 		.4byte	.LFB36
 7144 0124 54000000 		.4byte	.LFE36
 7145 0128 00000000 		.4byte	.LFB37
 7146 012c 1C000000 		.4byte	.LFE37
 7147 0130 00000000 		.4byte	.LFB38
 7148 0134 6C000000 		.4byte	.LFE38
 7149 0138 00000000 		.4byte	.LFB39
 7150 013c 28000000 		.4byte	.LFE39
 7151 0140 00000000 		.4byte	.LFB40
 7152 0144 98000000 		.4byte	.LFE40
 7153 0148 00000000 		.4byte	.LFB41
 7154 014c 3C000000 		.4byte	.LFE41
 7155 0150 00000000 		.4byte	.LFB42
 7156 0154 48000000 		.4byte	.LFE42
 7157 0158 00000000 		.4byte	.LFB43
 7158 015c 28000000 		.4byte	.LFE43
 7159 0160 00000000 		.4byte	.LFB44
 7160 0164 18000000 		.4byte	.LFE44
 7161 0168 00000000 		.4byte	.LFB45
 7162 016c 14000000 		.4byte	.LFE45
 7163 0170 00000000 		.4byte	.LFB46
 7164 0174 30000000 		.4byte	.LFE46
 7165 0178 00000000 		.4byte	.LFB47
 7166 017c 24000000 		.4byte	.LFE47
 7167 0180 00000000 		.4byte	.LFB48
 7168 0184 18000000 		.4byte	.LFE48
 7169 0188 00000000 		.4byte	.LFB49
 7170 018c 48000000 		.4byte	.LFE49
 7171 0190 00000000 		.4byte	.LFB50
 7172 0194 34000000 		.4byte	.LFE50
 7173 0198 00000000 		.4byte	.LFB51
 7174 019c 4C000000 		.4byte	.LFE51
 7175 01a0 00000000 		.4byte	.LFB52
 7176 01a4 36000000 		.4byte	.LFE52
 7177 01a8 00000000 		.4byte	.LFB53
 7178 01ac A8000000 		.4byte	.LFE53
 7179 01b0 00000000 		.4byte	.LFB54
 7180 01b4 5C000000 		.4byte	.LFE54
 7181 01b8 00000000 		.4byte	.LFB55
 7182 01bc 28000000 		.4byte	.LFE55
 7183 01c0 00000000 		.4byte	.LFB56
 7184 01c4 30000000 		.4byte	.LFE56
 7185 01c8 00000000 		.4byte	.LFB57
 7186 01cc 28000000 		.4byte	.LFE57
 7187 01d0 00000000 		.4byte	.LFB58
 7188 01d4 28000000 		.4byte	.LFE58
 7189 01d8 00000000 		.4byte	.LFB59
 7190 01dc 28000000 		.4byte	.LFE59
ARM GAS  C:\Users\CHRIST~1\AppData\Local\Temp\cc8KQrfd.s 			page 197


 7191 01e0 00000000 		.4byte	.LFB60
 7192 01e4 14000000 		.4byte	.LFE60
 7193 01e8 00000000 		.4byte	.LFB61
 7194 01ec 20000000 		.4byte	.LFE61
 7195 01f0 00000000 		.4byte	.LFB62
 7196 01f4 48000000 		.4byte	.LFE62
 7197 01f8 00000000 		.4byte	.LFB63
 7198 01fc 28000000 		.4byte	.LFE63
 7199 0200 00000000 		.4byte	.LFB64
 7200 0204 84000000 		.4byte	.LFE64
 7201 0208 00000000 		.4byte	.LFB65
 7202 020c 24000000 		.4byte	.LFE65
 7203 0210 00000000 		.4byte	.LFB66
 7204 0214 64000000 		.4byte	.LFE66
 7205 0218 00000000 		.4byte	.LFB67
 7206 021c 1C000000 		.4byte	.LFE67
 7207 0220 00000000 		.4byte	.LFB68
 7208 0224 18000000 		.4byte	.LFE68
 7209 0228 00000000 		.4byte	.LFB69
 7210 022c 18000000 		.4byte	.LFE69
 7211 0230 00000000 		.4byte	.LFB70
 7212 0234 18000000 		.4byte	.LFE70
 7213 0238 00000000 		.4byte	.LFB71
 7214 023c 1C000000 		.4byte	.LFE71
 7215 0240 00000000 		.4byte	.LFB72
 7216 0244 18000000 		.4byte	.LFE72
 7217 0248 00000000 		.4byte	.LFB73
 7218 024c 1C000000 		.4byte	.LFE73
 7219 0250 00000000 		.4byte	.LFB74
 7220 0254 34000000 		.4byte	.LFE74
 7221 0258 00000000 		.4byte	.LFB75
 7222 025c 18000000 		.4byte	.LFE75
 7223 0260 00000000 		.4byte	.LFB76
 7224 0264 14000000 		.4byte	.LFE76
 7225 0268 00000000 		.4byte	.LFB77
 7226 026c 2C000000 		.4byte	.LFE77
 7227 0270 00000000 		.4byte	.LFB78
 7228 0274 1C000000 		.4byte	.LFE78
 7229 0278 00000000 		.4byte	.LFB79
 7230 027c 44000000 		.4byte	.LFE79
 7231 0280 00000000 		.4byte	0
 7232 0284 00000000 		.4byte	0
 7233              		.section	.debug_line,"",%progbits
 7234              	.Ldebug_line0:
 7235 0000 0D090000 		.section	.debug_str,"MS",%progbits,1
 7235      02004F00 
 7235      00000201 
 7235      FB0E0D00 
 7235      01010101 
 7236              	.LASF57:
 7237 0000 43795379 		.ascii	"CySysWdtWriteMode\000"
 7237      73576474 
 7237      57726974 
 7237      654D6F64 
 7237      6500
 7238              	.LASF37:
 7239 0012 62675472 		.ascii	"bgTrim4\000"
ARM GAS  C:\Users\CHRIST~1\AppData\Local\Temp\cc8KQrfd.s 			page 198


 7239      696D3400 
 7240              	.LASF10:
 7241 001a 75696E74 		.ascii	"uint16\000"
 7241      313600
 7242              	.LASF94:
 7243 0021 696E7453 		.ascii	"intState\000"
 7243      74617465 
 7243      00
 7244              	.LASF108:
 7245 002a 76616C75 		.ascii	"value\000"
 7245      6500
 7246              	.LASF30:
 7247 0030 43795379 		.ascii	"CySysClkWriteHfclkDirect\000"
 7247      73436C6B 
 7247      57726974 
 7247      65486663 
 7247      6C6B4469 
 7248              	.LASF27:
 7249 0049 6C66636C 		.ascii	"lfclkSource\000"
 7249      6B536F75 
 7249      72636500 
 7250              	.LASF132:
 7251 0055 636C6F63 		.ascii	"clockSource\000"
 7251      6B536F75 
 7251      72636500 
 7252              	.LASF54:
 7253 0061 43795379 		.ascii	"CySysWdtUnlock\000"
 7253      73576474 
 7253      556E6C6F 
 7253      636B00
 7254              	.LASF100:
 7255 0070 6F6C6449 		.ascii	"oldIsr\000"
 7255      737200
 7256              	.LASF56:
 7257 0077 636F756E 		.ascii	"counterNum\000"
 7257      7465724E 
 7257      756D00
 7258              	.LASF139:
 7259 0082 43795379 		.ascii	"CySysClkLfclkPosedgeCatch\000"
 7259      73436C6B 
 7259      4C66636C 
 7259      6B506F73 
 7259      65646765 
 7260              	.LASF154:
 7261 009c 43795379 		.ascii	"CySysClkGetLfclkSource\000"
 7261      73436C6B 
 7261      4765744C 
 7261      66636C6B 
 7261      536F7572 
 7262              	.LASF147:
 7263 00b3 6C66636C 		.ascii	"lfclkPosedgeWdtCounter0Enabled\000"
 7263      6B506F73 
 7263      65646765 
 7263      57647443 
 7263      6F756E74 
 7264              	.LASF7:
 7265 00d2 6C6F6E67 		.ascii	"long long unsigned int\000"
ARM GAS  C:\Users\CHRIST~1\AppData\Local\Temp\cc8KQrfd.s 			page 199


 7265      206C6F6E 
 7265      6720756E 
 7265      7369676E 
 7265      65642069 
 7266              	.LASF142:
 7267 00e9 43795379 		.ascii	"CySysTickInitVar\000"
 7267      73546963 
 7267      6B496E69 
 7267      74566172 
 7267      00
 7268              	.LASF95:
 7269 00fa 4379456E 		.ascii	"CyEnableInts\000"
 7269      61626C65 
 7269      496E7473 
 7269      00
 7270              	.LASF48:
 7271 0107 43795379 		.ascii	"CySysClkWcoEnabled\000"
 7271      73436C6B 
 7271      57636F45 
 7271      6E61626C 
 7271      656400
 7272              	.LASF116:
 7273 011a 4379536F 		.ascii	"CySoftwareReset\000"
 7273      66747761 
 7273      72655265 
 7273      73657400 
 7274              	.LASF126:
 7275 012a 43795379 		.ascii	"CySysTickEnableInterrupt\000"
 7275      73546963 
 7275      6B456E61 
 7275      626C6549 
 7275      6E746572 
 7276              	.LASF111:
 7277 0143 4379496E 		.ascii	"CyIntGetState\000"
 7277      74476574 
 7277      53746174 
 7277      6500
 7278              	.LASF21:
 7279 0151 43795379 		.ascii	"CySysClkWcoSetHighPowerMode\000"
 7279      73436C6B 
 7279      57636F53 
 7279      65744869 
 7279      6768506F 
 7280              	.LASF6:
 7281 016d 6C6F6E67 		.ascii	"long long int\000"
 7281      206C6F6E 
 7281      6720696E 
 7281      7400
 7282              	.LASF0:
 7283 017b 7369676E 		.ascii	"signed char\000"
 7283      65642063 
 7283      68617200 
 7284              	.LASF36:
 7285 0187 66726571 		.ascii	"freq\000"
 7285      00
 7286              	.LASF78:
 7287 018c 43795379 		.ascii	"CySysWdtReadCount\000"
ARM GAS  C:\Users\CHRIST~1\AppData\Local\Temp\cc8KQrfd.s 			page 200


 7287      73576474 
 7287      52656164 
 7287      436F756E 
 7287      7400
 7288              	.LASF121:
 7289 019e 43794465 		.ascii	"CyDelayFreq\000"
 7289      6C617946 
 7289      72657100 
 7290              	.LASF26:
 7291 01aa 696E7465 		.ascii	"interruptState\000"
 7291      72727570 
 7291      74537461 
 7291      746500
 7292              	.LASF119:
 7293 01b9 43794465 		.ascii	"CyDelayUs\000"
 7293      6C617955 
 7293      7300
 7294              	.LASF129:
 7295 01c3 43795379 		.ascii	"CySysTickGetReload\000"
 7295      73546963 
 7295      6B476574 
 7295      52656C6F 
 7295      616400
 7296              	.LASF71:
 7297 01d6 43795379 		.ascii	"CySysWdtWriteMatch\000"
 7297      73576474 
 7297      57726974 
 7297      654D6174 
 7297      636800
 7298              	.LASF75:
 7299 01e9 62697473 		.ascii	"bits\000"
 7299      00
 7300              	.LASF4:
 7301 01ee 6C6F6E67 		.ascii	"long int\000"
 7301      20696E74 
 7301      00
 7302              	.LASF112:
 7303 01f7 4379496E 		.ascii	"CyIntDisable\000"
 7303      74446973 
 7303      61626C65 
 7303      00
 7304              	.LASF138:
 7305 0204 43795379 		.ascii	"CySysTickGetCallback\000"
 7305      73546963 
 7305      6B476574 
 7305      43616C6C 
 7305      6261636B 
 7306              	.LASF153:
 7307 0219 433A5C55 		.ascii	"C:\\Users\\Christina\\Documents\\For_fun\\GitHub\\D"
 7307      73657273 
 7307      5C436872 
 7307      69737469 
 7307      6E615C44 
 7308 0246 65707265 		.ascii	"eprecated\\Corner-Module\\CornerModule\\CornerModul"
 7308      63617465 
 7308      645C436F 
 7308      726E6572 
ARM GAS  C:\Users\CHRIST~1\AppData\Local\Temp\cc8KQrfd.s 			page 201


 7308      2D4D6F64 
 7309 0276 652E6379 		.ascii	"e.cydsn\000"
 7309      64736E00 
 7310              	.LASF9:
 7311 027e 75696E74 		.ascii	"uint8\000"
 7311      3800
 7312              	.LASF144:
 7313 0284 63796465 		.ascii	"cydelayFreqKhz\000"
 7313      6C617946 
 7313      7265714B 
 7313      687A00
 7314              	.LASF61:
 7315 0293 656E6162 		.ascii	"enable\000"
 7315      6C6500
 7316              	.LASF13:
 7317 029a 646F7562 		.ascii	"double\000"
 7317      6C6500
 7318              	.LASF28:
 7319 02a1 43795379 		.ascii	"CySysClkIloStop\000"
 7319      73436C6B 
 7319      496C6F53 
 7319      746F7000 
 7320              	.LASF66:
 7321 02b1 43795379 		.ascii	"CySysWdtWriteCascade\000"
 7321      73576474 
 7321      57726974 
 7321      65436173 
 7321      63616465 
 7322              	.LASF107:
 7323 02c6 73686966 		.ascii	"shift\000"
 7323      7400
 7324              	.LASF83:
 7325 02cc 636F756E 		.ascii	"countersMask\000"
 7325      74657273 
 7325      4D61736B 
 7325      00
 7326              	.LASF90:
 7327 02d9 43795379 		.ascii	"CySysLvdClearInterrupt\000"
 7327      734C7664 
 7327      436C6561 
 7327      72496E74 
 7327      65727275 
 7328              	.LASF11:
 7329 02f0 75696E74 		.ascii	"uint32\000"
 7329      333200
 7330              	.LASF69:
 7331 02f7 43795379 		.ascii	"CySysClkEcoReadStatus\000"
 7331      73436C6B 
 7331      45636F52 
 7331      65616453 
 7331      74617475 
 7332              	.LASF98:
 7333 030d 6E756D62 		.ascii	"number\000"
 7333      657200
 7334              	.LASF22:
 7335 0314 43795379 		.ascii	"CySysClkWcoSetLowPowerMode\000"
 7335      73436C6B 
ARM GAS  C:\Users\CHRIST~1\AppData\Local\Temp\cc8KQrfd.s 			page 202


 7335      57636F53 
 7335      65744C6F 
 7335      77506F77 
 7336              	.LASF96:
 7337 032f 6D61736B 		.ascii	"mask\000"
 7337      00
 7338              	.LASF73:
 7339 0334 72656756 		.ascii	"regValue\000"
 7339      616C7565 
 7339      00
 7340              	.LASF59:
 7341 033d 43795379 		.ascii	"CySysWdtReadMode\000"
 7341      73576474 
 7341      52656164 
 7341      4D6F6465 
 7341      00
 7342              	.LASF86:
 7343 034e 43795379 		.ascii	"CySysLvdEnable\000"
 7343      734C7664 
 7343      456E6162 
 7343      6C6500
 7344              	.LASF109:
 7345 035d 4379496E 		.ascii	"CyIntGetPriority\000"
 7345      74476574 
 7345      5072696F 
 7345      72697479 
 7345      00
 7346              	.LASF68:
 7347 036e 636F756E 		.ascii	"countersEnableStatus\000"
 7347      74657273 
 7347      456E6162 
 7347      6C655374 
 7347      61747573 
 7348              	.LASF123:
 7349 0383 43795379 		.ascii	"CySysTickInit\000"
 7349      73546963 
 7349      6B496E69 
 7349      7400
 7350              	.LASF63:
 7351 0391 43795379 		.ascii	"CySysWdtEnable\000"
 7351      73576474 
 7351      456E6162 
 7351      6C6500
 7352              	.LASF64:
 7353 03a0 636F756E 		.ascii	"counterMask\000"
 7353      7465724D 
 7353      61736B00 
 7354              	.LASF133:
 7355 03ac 43795379 		.ascii	"CySysTickGetCountFlag\000"
 7355      73546963 
 7355      6B476574 
 7355      436F756E 
 7355      74466C61 
 7356              	.LASF8:
 7357 03c2 756E7369 		.ascii	"unsigned int\000"
 7357      676E6564 
 7357      20696E74 
ARM GAS  C:\Users\CHRIST~1\AppData\Local\Temp\cc8KQrfd.s 			page 203


 7357      00
 7358              	.LASF29:
 7359 03cf 43795379 		.ascii	"CySysClkSetLfclkSource\000"
 7359      73436C6B 
 7359      5365744C 
 7359      66636C6B 
 7359      536F7572 
 7360              	.LASF84:
 7361 03e6 66697273 		.ascii	"firstCount\000"
 7361      74436F75 
 7361      6E7400
 7362              	.LASF134:
 7363 03f1 43795379 		.ascii	"CySysTickClear\000"
 7363      73546963 
 7363      6B436C65 
 7363      617200
 7364              	.LASF5:
 7365 0400 6C6F6E67 		.ascii	"long unsigned int\000"
 7365      20756E73 
 7365      69676E65 
 7365      6420696E 
 7365      7400
 7366              	.LASF89:
 7367 0412 43795379 		.ascii	"CySysLvdGetInterruptSource\000"
 7367      734C7664 
 7367      47657449 
 7367      6E746572 
 7367      72757074 
 7368              	.LASF24:
 7369 042d 43795379 		.ascii	"CySysClkImoStop\000"
 7369      73436C6B 
 7369      496D6F53 
 7369      746F7000 
 7370              	.LASF85:
 7371 043d 43795379 		.ascii	"CySysClkLfclkPosedgeRestore\000"
 7371      73436C6B 
 7371      4C66636C 
 7371      6B506F73 
 7371      65646765 
 7372              	.LASF113:
 7373 0459 4379496E 		.ascii	"CyIntSetPending\000"
 7373      74536574 
 7373      50656E64 
 7373      696E6700 
 7374              	.LASF93:
 7375 0469 43794469 		.ascii	"CyDisableInts\000"
 7375      7361626C 
 7375      65496E74 
 7375      7300
 7376              	.LASF91:
 7377 0477 43795379 		.ascii	"CySysGetResetReason\000"
 7377      73476574 
 7377      52657365 
 7377      74526561 
 7377      736F6E00 
 7378              	.LASF3:
 7379 048b 73686F72 		.ascii	"short unsigned int\000"
ARM GAS  C:\Users\CHRIST~1\AppData\Local\Temp\cc8KQrfd.s 			page 204


 7379      7420756E 
 7379      7369676E 
 7379      65642069 
 7379      6E7400
 7380              	.LASF131:
 7381 049e 43795379 		.ascii	"CySysTickSetClockSource\000"
 7381      73546963 
 7381      6B536574 
 7381      436C6F63 
 7381      6B536F75 
 7382              	.LASF103:
 7383 04b6 4379496E 		.ascii	"CyIntSetVector\000"
 7383      74536574 
 7383      56656374 
 7383      6F7200
 7384              	.LASF152:
 7385 04c5 2E5C4765 		.ascii	".\\Generated_Source\\PSoC4\\CyLib.c\000"
 7385      6E657261 
 7385      7465645F 
 7385      536F7572 
 7385      63655C50 
 7386              	.LASF25:
 7387 04e6 43795379 		.ascii	"CySysClkIloStart\000"
 7387      73436C6B 
 7387      496C6F53 
 7387      74617274 
 7387      00
 7388              	.LASF35:
 7389 04f7 43795379 		.ascii	"CySysClkWriteImoFreq\000"
 7389      73436C6B 
 7389      57726974 
 7389      65496D6F 
 7389      46726571 
 7390              	.LASF97:
 7391 050c 4379496E 		.ascii	"CyIntSetSysVector\000"
 7391      74536574 
 7391      53797356 
 7391      6563746F 
 7391      7200
 7392              	.LASF17:
 7393 051e 72656733 		.ascii	"reg32\000"
 7393      3200
 7394              	.LASF149:
 7395 0524 6C66636C 		.ascii	"lfclkPosedgeWdtCounter0Mode\000"
 7395      6B506F73 
 7395      65646765 
 7395      57647443 
 7395      6F756E74 
 7396              	.LASF60:
 7397 0540 43795379 		.ascii	"CySysWdtWriteClearOnMatch\000"
 7397      73576474 
 7397      57726974 
 7397      65436C65 
 7397      61724F6E 
 7398              	.LASF122:
 7399 055a 43795379 		.ascii	"CySysTickStart\000"
 7399      73546963 
ARM GAS  C:\Users\CHRIST~1\AppData\Local\Temp\cc8KQrfd.s 			page 205


 7399      6B537461 
 7399      727400
 7400              	.LASF31:
 7401 0569 736F7572 		.ascii	"source\000"
 7401      636500
 7402              	.LASF19:
 7403 0570 73697A65 		.ascii	"sizetype\000"
 7403      74797065 
 7403      00
 7404              	.LASF114:
 7405 0579 4379496E 		.ascii	"CyIntClearPending\000"
 7405      74436C65 
 7405      61725065 
 7405      6E64696E 
 7405      6700
 7406              	.LASF99:
 7407 058b 61646472 		.ascii	"address\000"
 7407      65737300 
 7408              	.LASF38:
 7409 0593 62675472 		.ascii	"bgTrim5\000"
 7409      696D3500 
 7410              	.LASF137:
 7411 059b 72657456 		.ascii	"retVal\000"
 7411      616C00
 7412              	.LASF72:
 7413 05a2 6D617463 		.ascii	"match\000"
 7413      6800
 7414              	.LASF150:
 7415 05a8 6379496D 		.ascii	"cyImoFreqMhz2Reg\000"
 7415      6F467265 
 7415      714D687A 
 7415      32526567 
 7415      00
 7416              	.LASF130:
 7417 05b9 43795379 		.ascii	"CySysTickGetValue\000"
 7417      73546963 
 7417      6B476574 
 7417      56616C75 
 7417      6500
 7418              	.LASF143:
 7419 05cb 63796465 		.ascii	"cydelayFreqHz\000"
 7419      6C617946 
 7419      72657148 
 7419      7A00
 7420              	.LASF82:
 7421 05d9 43795379 		.ascii	"CySysWdtResetCounters\000"
 7421      73576474 
 7421      52657365 
 7421      74436F75 
 7421      6E746572 
 7422              	.LASF105:
 7423 05ef 4379496E 		.ascii	"CyIntSetPriority\000"
 7423      74536574 
 7423      5072696F 
 7423      72697479 
 7423      00
 7424              	.LASF80:
ARM GAS  C:\Users\CHRIST~1\AppData\Local\Temp\cc8KQrfd.s 			page 206


 7425 0600 43795379 		.ascii	"CySysWdtClearInterrupt\000"
 7425      73576474 
 7425      436C6561 
 7425      72496E74 
 7425      65727275 
 7426              	.LASF12:
 7427 0617 666C6F61 		.ascii	"float\000"
 7427      7400
 7428              	.LASF20:
 7429 061d 63795379 		.ascii	"cySysTickCallback\000"
 7429      73546963 
 7429      6B43616C 
 7429      6C626163 
 7429      6B00
 7430              	.LASF104:
 7431 062f 4379496E 		.ascii	"CyIntGetVector\000"
 7431      74476574 
 7431      56656374 
 7431      6F7200
 7432              	.LASF118:
 7433 063e 6D696C6C 		.ascii	"milliseconds\000"
 7433      69736563 
 7433      6F6E6473 
 7433      00
 7434              	.LASF76:
 7435 064b 43795379 		.ascii	"CySysWdtReadToggleBit\000"
 7435      73576474 
 7435      52656164 
 7435      546F6767 
 7435      6C654269 
 7436              	.LASF53:
 7437 0661 43795379 		.ascii	"CySysWdtLocked\000"
 7437      73576474 
 7437      4C6F636B 
 7437      656400
 7438              	.LASF16:
 7439 0670 72656738 		.ascii	"reg8\000"
 7439      00
 7440              	.LASF87:
 7441 0675 74687265 		.ascii	"threshold\000"
 7441      73686F6C 
 7441      6400
 7442              	.LASF115:
 7443 067f 43794861 		.ascii	"CyHalt\000"
 7443      6C7400
 7444              	.LASF1:
 7445 0686 756E7369 		.ascii	"unsigned char\000"
 7445      676E6564 
 7445      20636861 
 7445      7200
 7446              	.LASF148:
 7447 0694 6C66636C 		.ascii	"lfclkPosedgeEnabledWdtCounter\000"
 7447      6B506F73 
 7447      65646765 
 7447      456E6162 
 7447      6C656457 
 7448              	.LASF2:
ARM GAS  C:\Users\CHRIST~1\AppData\Local\Temp\cc8KQrfd.s 			page 207


 7449 06b2 73686F72 		.ascii	"short int\000"
 7449      7420696E 
 7449      7400
 7450              	.LASF70:
 7451 06bc 43795379 		.ascii	"CySysWdtReadCascade\000"
 7451      73576474 
 7451      52656164 
 7451      43617363 
 7451      61646500 
 7452              	.LASF65:
 7453 06d0 43795379 		.ascii	"CySysWdtDisable\000"
 7453      73576474 
 7453      44697361 
 7453      626C6500 
 7454              	.LASF110:
 7455 06e0 4379496E 		.ascii	"CyIntEnable\000"
 7455      74456E61 
 7455      626C6500 
 7456              	.LASF102:
 7457 06ec 4379496E 		.ascii	"CyIntGetSysVector\000"
 7457      74476574 
 7457      53797356 
 7457      6563746F 
 7457      7200
 7458              	.LASF77:
 7459 06fe 43795379 		.ascii	"CySysWdtReadMatch\000"
 7459      73576474 
 7459      52656164 
 7459      4D617463 
 7459      6800
 7460              	.LASF32:
 7461 0710 636C6B53 		.ascii	"clkSelect\000"
 7461      656C6563 
 7461      7400
 7462              	.LASF49:
 7463 071a 43795379 		.ascii	"CySysClkEcoStart\000"
 7463      73436C6B 
 7463      45636F53 
 7463      74617274 
 7463      00
 7464              	.LASF47:
 7465 072b 43795379 		.ascii	"CySysClkIloEnabled\000"
 7465      73436C6B 
 7465      496C6F45 
 7465      6E61626C 
 7465      656400
 7466              	.LASF79:
 7467 073e 43795379 		.ascii	"CySysWdtGetInterruptSource\000"
 7467      73576474 
 7467      47657449 
 7467      6E746572 
 7467      72757074 
 7468              	.LASF92:
 7469 0759 72656173 		.ascii	"reason\000"
 7469      6F6E00
 7470              	.LASF101:
 7471 0760 72616D56 		.ascii	"ramVectorTable\000"
ARM GAS  C:\Users\CHRIST~1\AppData\Local\Temp\cc8KQrfd.s 			page 208


 7471      6563746F 
 7471      72546162 
 7471      6C6500
 7472              	.LASF46:
 7473 076f 43795379 		.ascii	"CySysClkWcoStop\000"
 7473      73436C6B 
 7473      57636F53 
 7473      746F7000 
 7474              	.LASF50:
 7475 077f 43795379 		.ascii	"CySysClkWcoSetPowerMode\000"
 7475      73436C6B 
 7475      57636F53 
 7475      6574506F 
 7475      7765724D 
 7476              	.LASF14:
 7477 0797 63686172 		.ascii	"char\000"
 7477      00
 7478              	.LASF106:
 7479 079c 7072696F 		.ascii	"priority\000"
 7479      72697479 
 7479      00
 7480              	.LASF51:
 7481 07a5 6D6F6465 		.ascii	"mode\000"
 7481      00
 7482              	.LASF18:
 7483 07aa 63796973 		.ascii	"cyisraddress\000"
 7483      72616464 
 7483      72657373 
 7483      00
 7484              	.LASF124:
 7485 07b7 43795379 		.ascii	"CySysTickEnable\000"
 7485      73546963 
 7485      6B456E61 
 7485      626C6500 
 7486              	.LASF52:
 7487 07c7 43795379 		.ascii	"CySysWdtLock\000"
 7487      73576474 
 7487      4C6F636B 
 7487      00
 7488              	.LASF33:
 7489 07d4 43795379 		.ascii	"CySysClkWriteSysclkDiv\000"
 7489      73436C6B 
 7489      57726974 
 7489      65537973 
 7489      636C6B44 
 7490              	.LASF43:
 7491 07eb 43795379 		.ascii	"CySysClkEcoStop\000"
 7491      73436C6B 
 7491      45636F53 
 7491      746F7000 
 7492              	.LASF141:
 7493 07fb 43795379 		.ascii	"CySysTickCallbacks\000"
 7493      73546963 
 7493      6B43616C 
 7493      6C626163 
 7493      6B7300
 7494              	.LASF117:
ARM GAS  C:\Users\CHRIST~1\AppData\Local\Temp\cc8KQrfd.s 			page 209


 7495 080e 43794465 		.ascii	"CyDelay\000"
 7495      6C617900 
 7496              	.LASF127:
 7497 0816 43795379 		.ascii	"CySysTickDisableInterrupt\000"
 7497      73546963 
 7497      6B446973 
 7497      61626C65 
 7497      496E7465 
 7498              	.LASF146:
 7499 0830 63796465 		.ascii	"cydelay32kMs\000"
 7499      6C617933 
 7499      326B4D73 
 7499      00
 7500              	.LASF88:
 7501 083d 43795379 		.ascii	"CySysLvdDisable\000"
 7501      734C7664 
 7501      44697361 
 7501      626C6500 
 7502              	.LASF45:
 7503 084d 43795379 		.ascii	"CySysClkWcoStart\000"
 7503      73436C6B 
 7503      57636F53 
 7503      74617274 
 7503      00
 7504              	.LASF40:
 7505 085e 63757272 		.ascii	"currentImoTrim2Value\000"
 7505      656E7449 
 7505      6D6F5472 
 7505      696D3256 
 7505      616C7565 
 7506              	.LASF145:
 7507 0873 63796465 		.ascii	"cydelayFreqMhz\000"
 7507      6C617946 
 7507      7265714D 
 7507      687A00
 7508              	.LASF81:
 7509 0882 7764744C 		.ascii	"wdtLockState\000"
 7509      6F636B53 
 7509      74617465 
 7509      00
 7510              	.LASF42:
 7511 088f 73746174 		.ascii	"status\000"
 7511      757300
 7512              	.LASF58:
 7513 0896 636F6E66 		.ascii	"configRegValue\000"
 7513      69675265 
 7513      6756616C 
 7513      756500
 7514              	.LASF62:
 7515 08a5 43795379 		.ascii	"CySysWdtReadClearOnMatch\000"
 7515      73576474 
 7515      52656164 
 7515      436C6561 
 7515      724F6E4D 
 7516              	.LASF125:
 7517 08be 43795379 		.ascii	"CySysTickStop\000"
 7517      73546963 
ARM GAS  C:\Users\CHRIST~1\AppData\Local\Temp\cc8KQrfd.s 			page 210


 7517      6B53746F 
 7517      7000
 7518              	.LASF41:
 7519 08cc 74696D65 		.ascii	"timeoutUs\000"
 7519      6F757455 
 7519      7300
 7520              	.LASF67:
 7521 08d6 63617363 		.ascii	"cascadeMask\000"
 7521      6164654D 
 7521      61736B00 
 7522              	.LASF34:
 7523 08e2 64697669 		.ascii	"divider\000"
 7523      64657200 
 7524              	.LASF136:
 7525 08ea 66756E63 		.ascii	"function\000"
 7525      74696F6E 
 7525      00
 7526              	.LASF44:
 7527 08f3 43795379 		.ascii	"CySysClkWriteEcoDiv\000"
 7527      73436C6B 
 7527      57726974 
 7527      6545636F 
 7527      44697600 
 7528              	.LASF15:
 7529 0907 63797374 		.ascii	"cystatus\000"
 7529      61747573 
 7529      00
 7530              	.LASF151:
 7531 0910 474E5520 		.ascii	"GNU C 4.9.3 20150303 (release) [ARM/embedded-4_9-br"
 7531      4320342E 
 7531      392E3320 
 7531      32303135 
 7531      30333033 
 7532 0943 616E6368 		.ascii	"anch revision 221220] -mcpu=cortex-m0 -mthumb -g -O"
 7532      20726576 
 7532      6973696F 
 7532      6E203232 
 7532      31323230 
 7533 0976 30202D66 		.ascii	"0 -ffunction-sections -ffat-lto-objects\000"
 7533      66756E63 
 7533      74696F6E 
 7533      2D736563 
 7533      74696F6E 
 7534              	.LASF135:
 7535 099e 43795379 		.ascii	"CySysTickSetCallback\000"
 7535      73546963 
 7535      6B536574 
 7535      43616C6C 
 7535      6261636B 
 7536              	.LASF23:
 7537 09b3 43795379 		.ascii	"CySysClkImoStart\000"
 7537      73436C6B 
 7537      496D6F53 
 7537      74617274 
 7537      00
 7538              	.LASF55:
 7539 09c4 43795379 		.ascii	"CySysWdtReadEnabledStatus\000"
ARM GAS  C:\Users\CHRIST~1\AppData\Local\Temp\cc8KQrfd.s 			page 211


 7539      73576474 
 7539      52656164 
 7539      456E6162 
 7539      6C656453 
 7540              	.LASF39:
 7541 09de 6E657749 		.ascii	"newImoTrim2Value\000"
 7541      6D6F5472 
 7541      696D3256 
 7541      616C7565 
 7541      00
 7542              	.LASF120:
 7543 09ef 6D696372 		.ascii	"microseconds\000"
 7543      6F736563 
 7543      6F6E6473 
 7543      00
 7544              	.LASF128:
 7545 09fc 43795379 		.ascii	"CySysTickSetReload\000"
 7545      73546963 
 7545      6B536574 
 7545      52656C6F 
 7545      616400
 7546              	.LASF140:
 7547 0a0f 43795379 		.ascii	"CySysTickServiceCallbacks\000"
 7547      73546963 
 7547      6B536572 
 7547      76696365 
 7547      43616C6C 
 7548              	.LASF74:
 7549 0a29 43795379 		.ascii	"CySysWdtWriteToggleBit\000"
 7549      73576474 
 7549      57726974 
 7549      65546F67 
 7549      676C6542 
 7550              		.ident	"GCC: (GNU Tools for ARM Embedded Processors) 4.9.3 20150303 (release) [ARM/embedded-4_9-br
