ARM GAS  C:\Users\CHRIST~1\AppData\Local\Temp\ccp9ZpVC.s 			page 1


   1              		.cpu cortex-m0
   2              		.fpu softvfp
   3              		.eabi_attribute 20, 1
   4              		.eabi_attribute 21, 1
   5              		.eabi_attribute 23, 3
   6              		.eabi_attribute 24, 1
   7              		.eabi_attribute 25, 1
   8              		.eabi_attribute 26, 1
   9              		.eabi_attribute 30, 6
  10              		.eabi_attribute 34, 0
  11              		.eabi_attribute 18, 4
  12              		.code	16
  13              		.file	"I2C_MPU6050_sda.c"
  14              		.text
  15              	.Ltext0:
  16              		.cfi_sections	.debug_frame
  17              		.section	.text.I2C_MPU6050_sda_Write,"ax",%progbits
  18              		.align	2
  19              		.global	I2C_MPU6050_sda_Write
  20              		.code	16
  21              		.thumb_func
  22              		.type	I2C_MPU6050_sda_Write, %function
  23              	I2C_MPU6050_sda_Write:
  24              	.LFB0:
  25              		.file 1 ".\\Generated_Source\\PSoC4\\I2C_MPU6050_sda.c"
   1:.\Generated_Source\PSoC4/I2C_MPU6050_sda.c **** /*******************************************************************************
   2:.\Generated_Source\PSoC4/I2C_MPU6050_sda.c **** * File Name: I2C_MPU6050_sda.c  
   3:.\Generated_Source\PSoC4/I2C_MPU6050_sda.c **** * Version 2.10
   4:.\Generated_Source\PSoC4/I2C_MPU6050_sda.c **** *
   5:.\Generated_Source\PSoC4/I2C_MPU6050_sda.c **** * Description:
   6:.\Generated_Source\PSoC4/I2C_MPU6050_sda.c **** *  This file contains API to enable firmware control of a Pins component.
   7:.\Generated_Source\PSoC4/I2C_MPU6050_sda.c **** *
   8:.\Generated_Source\PSoC4/I2C_MPU6050_sda.c **** * Note:
   9:.\Generated_Source\PSoC4/I2C_MPU6050_sda.c **** *
  10:.\Generated_Source\PSoC4/I2C_MPU6050_sda.c **** ********************************************************************************
  11:.\Generated_Source\PSoC4/I2C_MPU6050_sda.c **** * Copyright 2008-2014, Cypress Semiconductor Corporation.  All rights reserved.
  12:.\Generated_Source\PSoC4/I2C_MPU6050_sda.c **** * You may use this file only in accordance with the license, terms, conditions, 
  13:.\Generated_Source\PSoC4/I2C_MPU6050_sda.c **** * disclaimers, and limitations in the end user license agreement accompanying 
  14:.\Generated_Source\PSoC4/I2C_MPU6050_sda.c **** * the software package with which this file was provided.
  15:.\Generated_Source\PSoC4/I2C_MPU6050_sda.c **** *******************************************************************************/
  16:.\Generated_Source\PSoC4/I2C_MPU6050_sda.c **** 
  17:.\Generated_Source\PSoC4/I2C_MPU6050_sda.c **** #include "cytypes.h"
  18:.\Generated_Source\PSoC4/I2C_MPU6050_sda.c **** #include "I2C_MPU6050_sda.h"
  19:.\Generated_Source\PSoC4/I2C_MPU6050_sda.c **** 
  20:.\Generated_Source\PSoC4/I2C_MPU6050_sda.c **** #define SetP4PinDriveMode(shift, mode)  \
  21:.\Generated_Source\PSoC4/I2C_MPU6050_sda.c ****     do { \
  22:.\Generated_Source\PSoC4/I2C_MPU6050_sda.c ****         I2C_MPU6050_sda_PC =   (I2C_MPU6050_sda_PC & \
  23:.\Generated_Source\PSoC4/I2C_MPU6050_sda.c ****                                 (uint32)(~(uint32)(I2C_MPU6050_sda_DRIVE_MODE_IND_MASK << (I2C_MPU6
  24:.\Generated_Source\PSoC4/I2C_MPU6050_sda.c ****                                 (uint32)((uint32)(mode) << (I2C_MPU6050_sda_DRIVE_MODE_BITS * (shif
  25:.\Generated_Source\PSoC4/I2C_MPU6050_sda.c ****     } while (0)
  26:.\Generated_Source\PSoC4/I2C_MPU6050_sda.c **** 
  27:.\Generated_Source\PSoC4/I2C_MPU6050_sda.c **** 
  28:.\Generated_Source\PSoC4/I2C_MPU6050_sda.c **** /*******************************************************************************
  29:.\Generated_Source\PSoC4/I2C_MPU6050_sda.c **** * Function Name: I2C_MPU6050_sda_Write
  30:.\Generated_Source\PSoC4/I2C_MPU6050_sda.c **** ********************************************************************************
  31:.\Generated_Source\PSoC4/I2C_MPU6050_sda.c **** *
  32:.\Generated_Source\PSoC4/I2C_MPU6050_sda.c **** * Summary:
ARM GAS  C:\Users\CHRIST~1\AppData\Local\Temp\ccp9ZpVC.s 			page 2


  33:.\Generated_Source\PSoC4/I2C_MPU6050_sda.c **** *  Assign a new value to the digital port's data output register.  
  34:.\Generated_Source\PSoC4/I2C_MPU6050_sda.c **** *
  35:.\Generated_Source\PSoC4/I2C_MPU6050_sda.c **** * Parameters:  
  36:.\Generated_Source\PSoC4/I2C_MPU6050_sda.c **** *  prtValue:  The value to be assigned to the Digital Port. 
  37:.\Generated_Source\PSoC4/I2C_MPU6050_sda.c **** *
  38:.\Generated_Source\PSoC4/I2C_MPU6050_sda.c **** * Return: 
  39:.\Generated_Source\PSoC4/I2C_MPU6050_sda.c **** *  None 
  40:.\Generated_Source\PSoC4/I2C_MPU6050_sda.c **** *  
  41:.\Generated_Source\PSoC4/I2C_MPU6050_sda.c **** *******************************************************************************/
  42:.\Generated_Source\PSoC4/I2C_MPU6050_sda.c **** void I2C_MPU6050_sda_Write(uint8 value) 
  43:.\Generated_Source\PSoC4/I2C_MPU6050_sda.c **** {
  26              		.loc 1 43 0
  27              		.cfi_startproc
  28 0000 80B5     		push	{r7, lr}
  29              		.cfi_def_cfa_offset 8
  30              		.cfi_offset 7, -8
  31              		.cfi_offset 14, -4
  32 0002 84B0     		sub	sp, sp, #16
  33              		.cfi_def_cfa_offset 24
  34 0004 00AF     		add	r7, sp, #0
  35              		.cfi_def_cfa_register 7
  36 0006 021C     		mov	r2, r0
  37 0008 FB1D     		add	r3, r7, #7
  38 000a 1A70     		strb	r2, [r3]
  44:.\Generated_Source\PSoC4/I2C_MPU6050_sda.c ****     uint8 drVal = (uint8)(I2C_MPU6050_sda_DR & (uint8)(~I2C_MPU6050_sda_MASK));
  39              		.loc 1 44 0
  40 000c 0D4B     		ldr	r3, .L2
  41 000e 1B68     		ldr	r3, [r3]
  42 0010 DAB2     		uxtb	r2, r3
  43 0012 0F23     		mov	r3, #15
  44 0014 FB18     		add	r3, r7, r3
  45 0016 0121     		mov	r1, #1
  46 0018 8A43     		bic	r2, r1
  47 001a 1A70     		strb	r2, [r3]
  45:.\Generated_Source\PSoC4/I2C_MPU6050_sda.c ****     drVal = (drVal | ((uint8)(value << I2C_MPU6050_sda_SHIFT) & I2C_MPU6050_sda_MASK));
  48              		.loc 1 45 0
  49 001c FB1D     		add	r3, r7, #7
  50 001e 1B78     		ldrb	r3, [r3]
  51 0020 0122     		mov	r2, #1
  52 0022 1340     		and	r3, r2
  53 0024 D9B2     		uxtb	r1, r3
  54 0026 0F23     		mov	r3, #15
  55 0028 FB18     		add	r3, r7, r3
  56 002a 0F22     		mov	r2, #15
  57 002c BA18     		add	r2, r7, r2
  58 002e 1278     		ldrb	r2, [r2]
  59 0030 0A43     		orr	r2, r1
  60 0032 1A70     		strb	r2, [r3]
  46:.\Generated_Source\PSoC4/I2C_MPU6050_sda.c ****     I2C_MPU6050_sda_DR = (uint32)drVal;
  61              		.loc 1 46 0
  62 0034 034B     		ldr	r3, .L2
  63 0036 0F22     		mov	r2, #15
  64 0038 BA18     		add	r2, r7, r2
  65 003a 1278     		ldrb	r2, [r2]
  66 003c 1A60     		str	r2, [r3]
  47:.\Generated_Source\PSoC4/I2C_MPU6050_sda.c **** }
  67              		.loc 1 47 0
ARM GAS  C:\Users\CHRIST~1\AppData\Local\Temp\ccp9ZpVC.s 			page 3


  68 003e BD46     		mov	sp, r7
  69 0040 04B0     		add	sp, sp, #16
  70              		@ sp needed
  71 0042 80BD     		pop	{r7, pc}
  72              	.L3:
  73              		.align	2
  74              	.L2:
  75 0044 00000440 		.word	1074003968
  76              		.cfi_endproc
  77              	.LFE0:
  78              		.size	I2C_MPU6050_sda_Write, .-I2C_MPU6050_sda_Write
  79              		.section	.text.I2C_MPU6050_sda_SetDriveMode,"ax",%progbits
  80              		.align	2
  81              		.global	I2C_MPU6050_sda_SetDriveMode
  82              		.code	16
  83              		.thumb_func
  84              		.type	I2C_MPU6050_sda_SetDriveMode, %function
  85              	I2C_MPU6050_sda_SetDriveMode:
  86              	.LFB1:
  48:.\Generated_Source\PSoC4/I2C_MPU6050_sda.c **** 
  49:.\Generated_Source\PSoC4/I2C_MPU6050_sda.c **** 
  50:.\Generated_Source\PSoC4/I2C_MPU6050_sda.c **** /*******************************************************************************
  51:.\Generated_Source\PSoC4/I2C_MPU6050_sda.c **** * Function Name: I2C_MPU6050_sda_SetDriveMode
  52:.\Generated_Source\PSoC4/I2C_MPU6050_sda.c **** ********************************************************************************
  53:.\Generated_Source\PSoC4/I2C_MPU6050_sda.c **** *
  54:.\Generated_Source\PSoC4/I2C_MPU6050_sda.c **** * Summary:
  55:.\Generated_Source\PSoC4/I2C_MPU6050_sda.c **** *  Change the drive mode on the pins of the port.
  56:.\Generated_Source\PSoC4/I2C_MPU6050_sda.c **** * 
  57:.\Generated_Source\PSoC4/I2C_MPU6050_sda.c **** * Parameters:  
  58:.\Generated_Source\PSoC4/I2C_MPU6050_sda.c **** *  mode:  Change the pins to one of the following drive modes.
  59:.\Generated_Source\PSoC4/I2C_MPU6050_sda.c **** *
  60:.\Generated_Source\PSoC4/I2C_MPU6050_sda.c **** *  I2C_MPU6050_sda_DM_STRONG     Strong Drive 
  61:.\Generated_Source\PSoC4/I2C_MPU6050_sda.c **** *  I2C_MPU6050_sda_DM_OD_HI      Open Drain, Drives High 
  62:.\Generated_Source\PSoC4/I2C_MPU6050_sda.c **** *  I2C_MPU6050_sda_DM_OD_LO      Open Drain, Drives Low 
  63:.\Generated_Source\PSoC4/I2C_MPU6050_sda.c **** *  I2C_MPU6050_sda_DM_RES_UP     Resistive Pull Up 
  64:.\Generated_Source\PSoC4/I2C_MPU6050_sda.c **** *  I2C_MPU6050_sda_DM_RES_DWN    Resistive Pull Down 
  65:.\Generated_Source\PSoC4/I2C_MPU6050_sda.c **** *  I2C_MPU6050_sda_DM_RES_UPDWN  Resistive Pull Up/Down 
  66:.\Generated_Source\PSoC4/I2C_MPU6050_sda.c **** *  I2C_MPU6050_sda_DM_DIG_HIZ    High Impedance Digital 
  67:.\Generated_Source\PSoC4/I2C_MPU6050_sda.c **** *  I2C_MPU6050_sda_DM_ALG_HIZ    High Impedance Analog 
  68:.\Generated_Source\PSoC4/I2C_MPU6050_sda.c **** *
  69:.\Generated_Source\PSoC4/I2C_MPU6050_sda.c **** * Return: 
  70:.\Generated_Source\PSoC4/I2C_MPU6050_sda.c **** *  None
  71:.\Generated_Source\PSoC4/I2C_MPU6050_sda.c **** *
  72:.\Generated_Source\PSoC4/I2C_MPU6050_sda.c **** *******************************************************************************/
  73:.\Generated_Source\PSoC4/I2C_MPU6050_sda.c **** void I2C_MPU6050_sda_SetDriveMode(uint8 mode) 
  74:.\Generated_Source\PSoC4/I2C_MPU6050_sda.c **** {
  87              		.loc 1 74 0
  88              		.cfi_startproc
  89 0000 80B5     		push	{r7, lr}
  90              		.cfi_def_cfa_offset 8
  91              		.cfi_offset 7, -8
  92              		.cfi_offset 14, -4
  93 0002 82B0     		sub	sp, sp, #8
  94              		.cfi_def_cfa_offset 16
  95 0004 00AF     		add	r7, sp, #0
  96              		.cfi_def_cfa_register 7
  97 0006 021C     		mov	r2, r0
ARM GAS  C:\Users\CHRIST~1\AppData\Local\Temp\ccp9ZpVC.s 			page 4


  98 0008 FB1D     		add	r3, r7, #7
  99 000a 1A70     		strb	r2, [r3]
  75:.\Generated_Source\PSoC4/I2C_MPU6050_sda.c **** 	SetP4PinDriveMode(I2C_MPU6050_sda__0__SHIFT, mode);
 100              		.loc 1 75 0
 101 000c 064B     		ldr	r3, .L5
 102 000e 064A     		ldr	r2, .L5
 103 0010 1268     		ldr	r2, [r2]
 104 0012 0721     		mov	r1, #7
 105 0014 8A43     		bic	r2, r1
 106 0016 111C     		mov	r1, r2
 107 0018 FA1D     		add	r2, r7, #7
 108 001a 1278     		ldrb	r2, [r2]
 109 001c 0A43     		orr	r2, r1
 110 001e 1A60     		str	r2, [r3]
  76:.\Generated_Source\PSoC4/I2C_MPU6050_sda.c **** }
 111              		.loc 1 76 0
 112 0020 BD46     		mov	sp, r7
 113 0022 02B0     		add	sp, sp, #8
 114              		@ sp needed
 115 0024 80BD     		pop	{r7, pc}
 116              	.L6:
 117 0026 C046     		.align	2
 118              	.L5:
 119 0028 08000440 		.word	1074003976
 120              		.cfi_endproc
 121              	.LFE1:
 122              		.size	I2C_MPU6050_sda_SetDriveMode, .-I2C_MPU6050_sda_SetDriveMode
 123              		.section	.text.I2C_MPU6050_sda_Read,"ax",%progbits
 124              		.align	2
 125              		.global	I2C_MPU6050_sda_Read
 126              		.code	16
 127              		.thumb_func
 128              		.type	I2C_MPU6050_sda_Read, %function
 129              	I2C_MPU6050_sda_Read:
 130              	.LFB2:
  77:.\Generated_Source\PSoC4/I2C_MPU6050_sda.c **** 
  78:.\Generated_Source\PSoC4/I2C_MPU6050_sda.c **** 
  79:.\Generated_Source\PSoC4/I2C_MPU6050_sda.c **** /*******************************************************************************
  80:.\Generated_Source\PSoC4/I2C_MPU6050_sda.c **** * Function Name: I2C_MPU6050_sda_Read
  81:.\Generated_Source\PSoC4/I2C_MPU6050_sda.c **** ********************************************************************************
  82:.\Generated_Source\PSoC4/I2C_MPU6050_sda.c **** *
  83:.\Generated_Source\PSoC4/I2C_MPU6050_sda.c **** * Summary:
  84:.\Generated_Source\PSoC4/I2C_MPU6050_sda.c **** *  Read the current value on the pins of the Digital Port in right justified 
  85:.\Generated_Source\PSoC4/I2C_MPU6050_sda.c **** *  form.
  86:.\Generated_Source\PSoC4/I2C_MPU6050_sda.c **** *
  87:.\Generated_Source\PSoC4/I2C_MPU6050_sda.c **** * Parameters:  
  88:.\Generated_Source\PSoC4/I2C_MPU6050_sda.c **** *  None 
  89:.\Generated_Source\PSoC4/I2C_MPU6050_sda.c **** *
  90:.\Generated_Source\PSoC4/I2C_MPU6050_sda.c **** * Return: 
  91:.\Generated_Source\PSoC4/I2C_MPU6050_sda.c **** *  Returns the current value of the Digital Port as a right justified number
  92:.\Generated_Source\PSoC4/I2C_MPU6050_sda.c **** *  
  93:.\Generated_Source\PSoC4/I2C_MPU6050_sda.c **** * Note:
  94:.\Generated_Source\PSoC4/I2C_MPU6050_sda.c **** *  Macro I2C_MPU6050_sda_ReadPS calls this function. 
  95:.\Generated_Source\PSoC4/I2C_MPU6050_sda.c **** *  
  96:.\Generated_Source\PSoC4/I2C_MPU6050_sda.c **** *******************************************************************************/
  97:.\Generated_Source\PSoC4/I2C_MPU6050_sda.c **** uint8 I2C_MPU6050_sda_Read(void) 
  98:.\Generated_Source\PSoC4/I2C_MPU6050_sda.c **** {
ARM GAS  C:\Users\CHRIST~1\AppData\Local\Temp\ccp9ZpVC.s 			page 5


 131              		.loc 1 98 0
 132              		.cfi_startproc
 133 0000 80B5     		push	{r7, lr}
 134              		.cfi_def_cfa_offset 8
 135              		.cfi_offset 7, -8
 136              		.cfi_offset 14, -4
 137 0002 00AF     		add	r7, sp, #0
 138              		.cfi_def_cfa_register 7
  99:.\Generated_Source\PSoC4/I2C_MPU6050_sda.c ****     return (uint8)((I2C_MPU6050_sda_PS & I2C_MPU6050_sda_MASK) >> I2C_MPU6050_sda_SHIFT);
 139              		.loc 1 99 0
 140 0004 044B     		ldr	r3, .L9
 141 0006 1B68     		ldr	r3, [r3]
 142 0008 DBB2     		uxtb	r3, r3
 143 000a 0122     		mov	r2, #1
 144 000c 1340     		and	r3, r2
 145 000e DBB2     		uxtb	r3, r3
 100:.\Generated_Source\PSoC4/I2C_MPU6050_sda.c **** }
 146              		.loc 1 100 0
 147 0010 181C     		mov	r0, r3
 148 0012 BD46     		mov	sp, r7
 149              		@ sp needed
 150 0014 80BD     		pop	{r7, pc}
 151              	.L10:
 152 0016 C046     		.align	2
 153              	.L9:
 154 0018 04000440 		.word	1074003972
 155              		.cfi_endproc
 156              	.LFE2:
 157              		.size	I2C_MPU6050_sda_Read, .-I2C_MPU6050_sda_Read
 158              		.section	.text.I2C_MPU6050_sda_ReadDataReg,"ax",%progbits
 159              		.align	2
 160              		.global	I2C_MPU6050_sda_ReadDataReg
 161              		.code	16
 162              		.thumb_func
 163              		.type	I2C_MPU6050_sda_ReadDataReg, %function
 164              	I2C_MPU6050_sda_ReadDataReg:
 165              	.LFB3:
 101:.\Generated_Source\PSoC4/I2C_MPU6050_sda.c **** 
 102:.\Generated_Source\PSoC4/I2C_MPU6050_sda.c **** 
 103:.\Generated_Source\PSoC4/I2C_MPU6050_sda.c **** /*******************************************************************************
 104:.\Generated_Source\PSoC4/I2C_MPU6050_sda.c **** * Function Name: I2C_MPU6050_sda_ReadDataReg
 105:.\Generated_Source\PSoC4/I2C_MPU6050_sda.c **** ********************************************************************************
 106:.\Generated_Source\PSoC4/I2C_MPU6050_sda.c **** *
 107:.\Generated_Source\PSoC4/I2C_MPU6050_sda.c **** * Summary:
 108:.\Generated_Source\PSoC4/I2C_MPU6050_sda.c **** *  Read the current value assigned to a Digital Port's data output register
 109:.\Generated_Source\PSoC4/I2C_MPU6050_sda.c **** *
 110:.\Generated_Source\PSoC4/I2C_MPU6050_sda.c **** * Parameters:  
 111:.\Generated_Source\PSoC4/I2C_MPU6050_sda.c **** *  None 
 112:.\Generated_Source\PSoC4/I2C_MPU6050_sda.c **** *
 113:.\Generated_Source\PSoC4/I2C_MPU6050_sda.c **** * Return: 
 114:.\Generated_Source\PSoC4/I2C_MPU6050_sda.c **** *  Returns the current value assigned to the Digital Port's data output register
 115:.\Generated_Source\PSoC4/I2C_MPU6050_sda.c **** *  
 116:.\Generated_Source\PSoC4/I2C_MPU6050_sda.c **** *******************************************************************************/
 117:.\Generated_Source\PSoC4/I2C_MPU6050_sda.c **** uint8 I2C_MPU6050_sda_ReadDataReg(void) 
 118:.\Generated_Source\PSoC4/I2C_MPU6050_sda.c **** {
 166              		.loc 1 118 0
 167              		.cfi_startproc
ARM GAS  C:\Users\CHRIST~1\AppData\Local\Temp\ccp9ZpVC.s 			page 6


 168 0000 80B5     		push	{r7, lr}
 169              		.cfi_def_cfa_offset 8
 170              		.cfi_offset 7, -8
 171              		.cfi_offset 14, -4
 172 0002 00AF     		add	r7, sp, #0
 173              		.cfi_def_cfa_register 7
 119:.\Generated_Source\PSoC4/I2C_MPU6050_sda.c ****     return (uint8)((I2C_MPU6050_sda_DR & I2C_MPU6050_sda_MASK) >> I2C_MPU6050_sda_SHIFT);
 174              		.loc 1 119 0
 175 0004 044B     		ldr	r3, .L13
 176 0006 1B68     		ldr	r3, [r3]
 177 0008 DBB2     		uxtb	r3, r3
 178 000a 0122     		mov	r2, #1
 179 000c 1340     		and	r3, r2
 180 000e DBB2     		uxtb	r3, r3
 120:.\Generated_Source\PSoC4/I2C_MPU6050_sda.c **** }
 181              		.loc 1 120 0
 182 0010 181C     		mov	r0, r3
 183 0012 BD46     		mov	sp, r7
 184              		@ sp needed
 185 0014 80BD     		pop	{r7, pc}
 186              	.L14:
 187 0016 C046     		.align	2
 188              	.L13:
 189 0018 00000440 		.word	1074003968
 190              		.cfi_endproc
 191              	.LFE3:
 192              		.size	I2C_MPU6050_sda_ReadDataReg, .-I2C_MPU6050_sda_ReadDataReg
 193              		.section	.text.I2C_MPU6050_sda_ClearInterrupt,"ax",%progbits
 194              		.align	2
 195              		.global	I2C_MPU6050_sda_ClearInterrupt
 196              		.code	16
 197              		.thumb_func
 198              		.type	I2C_MPU6050_sda_ClearInterrupt, %function
 199              	I2C_MPU6050_sda_ClearInterrupt:
 200              	.LFB4:
 121:.\Generated_Source\PSoC4/I2C_MPU6050_sda.c **** 
 122:.\Generated_Source\PSoC4/I2C_MPU6050_sda.c **** 
 123:.\Generated_Source\PSoC4/I2C_MPU6050_sda.c **** /* If Interrupts Are Enabled for this Pins component */ 
 124:.\Generated_Source\PSoC4/I2C_MPU6050_sda.c **** #if defined(I2C_MPU6050_sda_INTSTAT) 
 125:.\Generated_Source\PSoC4/I2C_MPU6050_sda.c **** 
 126:.\Generated_Source\PSoC4/I2C_MPU6050_sda.c ****     /*******************************************************************************
 127:.\Generated_Source\PSoC4/I2C_MPU6050_sda.c ****     * Function Name: I2C_MPU6050_sda_ClearInterrupt
 128:.\Generated_Source\PSoC4/I2C_MPU6050_sda.c ****     ********************************************************************************
 129:.\Generated_Source\PSoC4/I2C_MPU6050_sda.c ****     *
 130:.\Generated_Source\PSoC4/I2C_MPU6050_sda.c ****     * Summary:
 131:.\Generated_Source\PSoC4/I2C_MPU6050_sda.c ****     *  Clears any active interrupts attached to port and returns the value of the 
 132:.\Generated_Source\PSoC4/I2C_MPU6050_sda.c ****     *  interrupt status register.
 133:.\Generated_Source\PSoC4/I2C_MPU6050_sda.c ****     *
 134:.\Generated_Source\PSoC4/I2C_MPU6050_sda.c ****     * Parameters:  
 135:.\Generated_Source\PSoC4/I2C_MPU6050_sda.c ****     *  None 
 136:.\Generated_Source\PSoC4/I2C_MPU6050_sda.c ****     *
 137:.\Generated_Source\PSoC4/I2C_MPU6050_sda.c ****     * Return: 
 138:.\Generated_Source\PSoC4/I2C_MPU6050_sda.c ****     *  Returns the value of the interrupt status register
 139:.\Generated_Source\PSoC4/I2C_MPU6050_sda.c ****     *  
 140:.\Generated_Source\PSoC4/I2C_MPU6050_sda.c ****     *******************************************************************************/
 141:.\Generated_Source\PSoC4/I2C_MPU6050_sda.c ****     uint8 I2C_MPU6050_sda_ClearInterrupt(void) 
 142:.\Generated_Source\PSoC4/I2C_MPU6050_sda.c ****     {
ARM GAS  C:\Users\CHRIST~1\AppData\Local\Temp\ccp9ZpVC.s 			page 7


 201              		.loc 1 142 0
 202              		.cfi_startproc
 203 0000 80B5     		push	{r7, lr}
 204              		.cfi_def_cfa_offset 8
 205              		.cfi_offset 7, -8
 206              		.cfi_offset 14, -4
 207 0002 82B0     		sub	sp, sp, #8
 208              		.cfi_def_cfa_offset 16
 209 0004 00AF     		add	r7, sp, #0
 210              		.cfi_def_cfa_register 7
 143:.\Generated_Source\PSoC4/I2C_MPU6050_sda.c **** 		uint8 maskedStatus = (uint8)(I2C_MPU6050_sda_INTSTAT & I2C_MPU6050_sda_MASK);
 211              		.loc 1 143 0
 212 0006 084B     		ldr	r3, .L17
 213 0008 1B68     		ldr	r3, [r3]
 214 000a DAB2     		uxtb	r2, r3
 215 000c FB1D     		add	r3, r7, #7
 216 000e 0121     		mov	r1, #1
 217 0010 0A40     		and	r2, r1
 218 0012 1A70     		strb	r2, [r3]
 144:.\Generated_Source\PSoC4/I2C_MPU6050_sda.c **** 		I2C_MPU6050_sda_INTSTAT = maskedStatus;
 219              		.loc 1 144 0
 220 0014 044B     		ldr	r3, .L17
 221 0016 FA1D     		add	r2, r7, #7
 222 0018 1278     		ldrb	r2, [r2]
 223 001a 1A60     		str	r2, [r3]
 145:.\Generated_Source\PSoC4/I2C_MPU6050_sda.c ****         return maskedStatus >> I2C_MPU6050_sda_SHIFT;
 224              		.loc 1 145 0
 225 001c FB1D     		add	r3, r7, #7
 226 001e 1B78     		ldrb	r3, [r3]
 146:.\Generated_Source\PSoC4/I2C_MPU6050_sda.c ****     }
 227              		.loc 1 146 0
 228 0020 181C     		mov	r0, r3
 229 0022 BD46     		mov	sp, r7
 230 0024 02B0     		add	sp, sp, #8
 231              		@ sp needed
 232 0026 80BD     		pop	{r7, pc}
 233              	.L18:
 234              		.align	2
 235              	.L17:
 236 0028 10000440 		.word	1074003984
 237              		.cfi_endproc
 238              	.LFE4:
 239              		.size	I2C_MPU6050_sda_ClearInterrupt, .-I2C_MPU6050_sda_ClearInterrupt
 240              		.text
 241              	.Letext0:
 242              		.file 2 ".\\Generated_Source\\PSoC4\\cytypes.h"