ARM GAS  C:\Users\CHRIST~1\AppData\Local\Temp\ccm8CNJM.s 			page 1


   1              		.cpu cortex-m0
   2              		.fpu softvfp
   3              		.eabi_attribute 20, 1
   4              		.eabi_attribute 21, 1
   5              		.eabi_attribute 23, 3
   6              		.eabi_attribute 24, 1
   7              		.eabi_attribute 25, 1
   8              		.eabi_attribute 26, 1
   9              		.eabi_attribute 30, 6
  10              		.eabi_attribute 34, 0
  11              		.eabi_attribute 18, 4
  12              		.code	16
  13              		.file	"I2C_MPU6050.c"
  14              		.text
  15              	.Ltext0:
  16              		.cfi_sections	.debug_frame
  17              		.global	I2C_MPU6050_initVar
  18              		.bss
  19              		.type	I2C_MPU6050_initVar, %object
  20              		.size	I2C_MPU6050_initVar, 1
  21              	I2C_MPU6050_initVar:
  22 0000 00       		.space	1
  23              		.global	I2C_MPU6050_customIntrHandler
  24 0001 000000   		.align	2
  25              		.type	I2C_MPU6050_customIntrHandler, %object
  26              		.size	I2C_MPU6050_customIntrHandler, 4
  27              	I2C_MPU6050_customIntrHandler:
  28 0004 00000000 		.space	4
  29              		.section	.text.I2C_MPU6050_Init,"ax",%progbits
  30              		.align	2
  31              		.global	I2C_MPU6050_Init
  32              		.code	16
  33              		.thumb_func
  34              		.type	I2C_MPU6050_Init, %function
  35              	I2C_MPU6050_Init:
  36              	.LFB2:
  37              		.file 1 ".\\Generated_Source\\PSoC4\\I2C_MPU6050.c"
   1:.\Generated_Source\PSoC4/I2C_MPU6050.c **** /*******************************************************************************
   2:.\Generated_Source\PSoC4/I2C_MPU6050.c **** * File Name: I2C_MPU6050.c
   3:.\Generated_Source\PSoC4/I2C_MPU6050.c **** * Version 2.0
   4:.\Generated_Source\PSoC4/I2C_MPU6050.c **** *
   5:.\Generated_Source\PSoC4/I2C_MPU6050.c **** * Description:
   6:.\Generated_Source\PSoC4/I2C_MPU6050.c **** *  This file provides the source code to the API for the SCB Component.
   7:.\Generated_Source\PSoC4/I2C_MPU6050.c **** *
   8:.\Generated_Source\PSoC4/I2C_MPU6050.c **** * Note:
   9:.\Generated_Source\PSoC4/I2C_MPU6050.c **** *
  10:.\Generated_Source\PSoC4/I2C_MPU6050.c **** *******************************************************************************
  11:.\Generated_Source\PSoC4/I2C_MPU6050.c **** * Copyright 2013-2014, Cypress Semiconductor Corporation.  All rights reserved.
  12:.\Generated_Source\PSoC4/I2C_MPU6050.c **** * You may use this file only in accordance with the license, terms, conditions,
  13:.\Generated_Source\PSoC4/I2C_MPU6050.c **** * disclaimers, and limitations in the end user license agreement accompanying
  14:.\Generated_Source\PSoC4/I2C_MPU6050.c **** * the software package with which this file was provided.
  15:.\Generated_Source\PSoC4/I2C_MPU6050.c **** *******************************************************************************/
  16:.\Generated_Source\PSoC4/I2C_MPU6050.c **** 
  17:.\Generated_Source\PSoC4/I2C_MPU6050.c **** #include "I2C_MPU6050_PVT.h"
  18:.\Generated_Source\PSoC4/I2C_MPU6050.c **** 
  19:.\Generated_Source\PSoC4/I2C_MPU6050.c **** #if(I2C_MPU6050_SCB_MODE_I2C_INC)
  20:.\Generated_Source\PSoC4/I2C_MPU6050.c ****     #include "I2C_MPU6050_I2C_PVT.h"
ARM GAS  C:\Users\CHRIST~1\AppData\Local\Temp\ccm8CNJM.s 			page 2


  21:.\Generated_Source\PSoC4/I2C_MPU6050.c **** #endif /* (I2C_MPU6050_SCB_MODE_I2C_INC) */
  22:.\Generated_Source\PSoC4/I2C_MPU6050.c **** 
  23:.\Generated_Source\PSoC4/I2C_MPU6050.c **** #if(I2C_MPU6050_SCB_MODE_EZI2C_INC)
  24:.\Generated_Source\PSoC4/I2C_MPU6050.c ****     #include "I2C_MPU6050_EZI2C_PVT.h"
  25:.\Generated_Source\PSoC4/I2C_MPU6050.c **** #endif /* (I2C_MPU6050_SCB_MODE_EZI2C_INC) */
  26:.\Generated_Source\PSoC4/I2C_MPU6050.c **** 
  27:.\Generated_Source\PSoC4/I2C_MPU6050.c **** #if(I2C_MPU6050_SCB_MODE_SPI_INC || I2C_MPU6050_SCB_MODE_UART_INC)
  28:.\Generated_Source\PSoC4/I2C_MPU6050.c ****     #include "I2C_MPU6050_SPI_UART_PVT.h"
  29:.\Generated_Source\PSoC4/I2C_MPU6050.c **** #endif /* (I2C_MPU6050_SCB_MODE_SPI_INC || I2C_MPU6050_SCB_MODE_UART_INC) */
  30:.\Generated_Source\PSoC4/I2C_MPU6050.c **** 
  31:.\Generated_Source\PSoC4/I2C_MPU6050.c **** 
  32:.\Generated_Source\PSoC4/I2C_MPU6050.c **** /***************************************
  33:.\Generated_Source\PSoC4/I2C_MPU6050.c **** *    Run Time Configuration Vars
  34:.\Generated_Source\PSoC4/I2C_MPU6050.c **** ***************************************/
  35:.\Generated_Source\PSoC4/I2C_MPU6050.c **** 
  36:.\Generated_Source\PSoC4/I2C_MPU6050.c **** /* Stores internal component configuration for Unconfigured mode */
  37:.\Generated_Source\PSoC4/I2C_MPU6050.c **** #if(I2C_MPU6050_SCB_MODE_UNCONFIG_CONST_CFG)
  38:.\Generated_Source\PSoC4/I2C_MPU6050.c ****     /* Common configuration variables */
  39:.\Generated_Source\PSoC4/I2C_MPU6050.c ****     uint8 I2C_MPU6050_scbMode = I2C_MPU6050_SCB_MODE_UNCONFIG;
  40:.\Generated_Source\PSoC4/I2C_MPU6050.c ****     uint8 I2C_MPU6050_scbEnableWake;
  41:.\Generated_Source\PSoC4/I2C_MPU6050.c ****     uint8 I2C_MPU6050_scbEnableIntr;
  42:.\Generated_Source\PSoC4/I2C_MPU6050.c **** 
  43:.\Generated_Source\PSoC4/I2C_MPU6050.c ****     /* I2C configuration variables */
  44:.\Generated_Source\PSoC4/I2C_MPU6050.c ****     uint8 I2C_MPU6050_mode;
  45:.\Generated_Source\PSoC4/I2C_MPU6050.c ****     uint8 I2C_MPU6050_acceptAddr;
  46:.\Generated_Source\PSoC4/I2C_MPU6050.c **** 
  47:.\Generated_Source\PSoC4/I2C_MPU6050.c ****     /* SPI/UART configuration variables */
  48:.\Generated_Source\PSoC4/I2C_MPU6050.c ****     volatile uint8 * I2C_MPU6050_rxBuffer;
  49:.\Generated_Source\PSoC4/I2C_MPU6050.c ****     uint8  I2C_MPU6050_rxDataBits;
  50:.\Generated_Source\PSoC4/I2C_MPU6050.c ****     uint32 I2C_MPU6050_rxBufferSize;
  51:.\Generated_Source\PSoC4/I2C_MPU6050.c **** 
  52:.\Generated_Source\PSoC4/I2C_MPU6050.c ****     volatile uint8 * I2C_MPU6050_txBuffer;
  53:.\Generated_Source\PSoC4/I2C_MPU6050.c ****     uint8  I2C_MPU6050_txDataBits;
  54:.\Generated_Source\PSoC4/I2C_MPU6050.c ****     uint32 I2C_MPU6050_txBufferSize;
  55:.\Generated_Source\PSoC4/I2C_MPU6050.c **** 
  56:.\Generated_Source\PSoC4/I2C_MPU6050.c ****     /* EZI2C configuration variables */
  57:.\Generated_Source\PSoC4/I2C_MPU6050.c ****     uint8 I2C_MPU6050_numberOfAddr;
  58:.\Generated_Source\PSoC4/I2C_MPU6050.c ****     uint8 I2C_MPU6050_subAddrSize;
  59:.\Generated_Source\PSoC4/I2C_MPU6050.c **** #endif /* (I2C_MPU6050_SCB_MODE_UNCONFIG_CONST_CFG) */
  60:.\Generated_Source\PSoC4/I2C_MPU6050.c **** 
  61:.\Generated_Source\PSoC4/I2C_MPU6050.c **** 
  62:.\Generated_Source\PSoC4/I2C_MPU6050.c **** /***************************************
  63:.\Generated_Source\PSoC4/I2C_MPU6050.c **** *     Common SCB Vars
  64:.\Generated_Source\PSoC4/I2C_MPU6050.c **** ***************************************/
  65:.\Generated_Source\PSoC4/I2C_MPU6050.c **** 
  66:.\Generated_Source\PSoC4/I2C_MPU6050.c **** uint8 I2C_MPU6050_initVar = 0u;
  67:.\Generated_Source\PSoC4/I2C_MPU6050.c **** 
  68:.\Generated_Source\PSoC4/I2C_MPU6050.c **** #if !defined (CY_REMOVE_I2C_MPU6050_CUSTOM_INTR_HANDLER)
  69:.\Generated_Source\PSoC4/I2C_MPU6050.c ****     cyisraddress I2C_MPU6050_customIntrHandler = NULL;
  70:.\Generated_Source\PSoC4/I2C_MPU6050.c **** #endif /* !defined (CY_REMOVE_I2C_MPU6050_CUSTOM_INTR_HANDLER) */
  71:.\Generated_Source\PSoC4/I2C_MPU6050.c **** 
  72:.\Generated_Source\PSoC4/I2C_MPU6050.c **** 
  73:.\Generated_Source\PSoC4/I2C_MPU6050.c **** /***************************************
  74:.\Generated_Source\PSoC4/I2C_MPU6050.c **** *    Private Function Prototypes
  75:.\Generated_Source\PSoC4/I2C_MPU6050.c **** ***************************************/
  76:.\Generated_Source\PSoC4/I2C_MPU6050.c **** 
  77:.\Generated_Source\PSoC4/I2C_MPU6050.c **** static void I2C_MPU6050_ScbEnableIntr(void);
ARM GAS  C:\Users\CHRIST~1\AppData\Local\Temp\ccm8CNJM.s 			page 3


  78:.\Generated_Source\PSoC4/I2C_MPU6050.c **** static void I2C_MPU6050_ScbModeStop(void);
  79:.\Generated_Source\PSoC4/I2C_MPU6050.c **** 
  80:.\Generated_Source\PSoC4/I2C_MPU6050.c **** 
  81:.\Generated_Source\PSoC4/I2C_MPU6050.c **** /*******************************************************************************
  82:.\Generated_Source\PSoC4/I2C_MPU6050.c **** * Function Name: I2C_MPU6050_Init
  83:.\Generated_Source\PSoC4/I2C_MPU6050.c **** ********************************************************************************
  84:.\Generated_Source\PSoC4/I2C_MPU6050.c **** *
  85:.\Generated_Source\PSoC4/I2C_MPU6050.c **** * Summary:
  86:.\Generated_Source\PSoC4/I2C_MPU6050.c **** *  Initializes the SCB component to operate in one of the selected
  87:.\Generated_Source\PSoC4/I2C_MPU6050.c **** *  configurations: I2C, SPI, UART or EZI2C.
  88:.\Generated_Source\PSoC4/I2C_MPU6050.c **** *  When the configuration is set to "Unconfigured SCB", this function does
  89:.\Generated_Source\PSoC4/I2C_MPU6050.c **** *  not do any initialization. Use mode-specific initialization APIs instead:
  90:.\Generated_Source\PSoC4/I2C_MPU6050.c **** *  SCB_I2CInit, SCB_SpiInit, SCB_UartInit or SCB_EzI2CInit.
  91:.\Generated_Source\PSoC4/I2C_MPU6050.c **** *
  92:.\Generated_Source\PSoC4/I2C_MPU6050.c **** * Parameters:
  93:.\Generated_Source\PSoC4/I2C_MPU6050.c **** *  None
  94:.\Generated_Source\PSoC4/I2C_MPU6050.c **** *
  95:.\Generated_Source\PSoC4/I2C_MPU6050.c **** * Return:
  96:.\Generated_Source\PSoC4/I2C_MPU6050.c **** *  None
  97:.\Generated_Source\PSoC4/I2C_MPU6050.c **** *
  98:.\Generated_Source\PSoC4/I2C_MPU6050.c **** *******************************************************************************/
  99:.\Generated_Source\PSoC4/I2C_MPU6050.c **** void I2C_MPU6050_Init(void)
 100:.\Generated_Source\PSoC4/I2C_MPU6050.c **** {
  38              		.loc 1 100 0
  39              		.cfi_startproc
  40 0000 80B5     		push	{r7, lr}
  41              		.cfi_def_cfa_offset 8
  42              		.cfi_offset 7, -8
  43              		.cfi_offset 14, -4
  44 0002 00AF     		add	r7, sp, #0
  45              		.cfi_def_cfa_register 7
 101:.\Generated_Source\PSoC4/I2C_MPU6050.c **** #if(I2C_MPU6050_SCB_MODE_UNCONFIG_CONST_CFG)
 102:.\Generated_Source\PSoC4/I2C_MPU6050.c ****     if(I2C_MPU6050_SCB_MODE_UNCONFIG_RUNTM_CFG)
 103:.\Generated_Source\PSoC4/I2C_MPU6050.c ****     {
 104:.\Generated_Source\PSoC4/I2C_MPU6050.c ****         I2C_MPU6050_initVar = 0u;
 105:.\Generated_Source\PSoC4/I2C_MPU6050.c ****     }
 106:.\Generated_Source\PSoC4/I2C_MPU6050.c ****     else
 107:.\Generated_Source\PSoC4/I2C_MPU6050.c ****     {
 108:.\Generated_Source\PSoC4/I2C_MPU6050.c ****         /* Initialization was done before this function call */
 109:.\Generated_Source\PSoC4/I2C_MPU6050.c ****     }
 110:.\Generated_Source\PSoC4/I2C_MPU6050.c **** 
 111:.\Generated_Source\PSoC4/I2C_MPU6050.c **** #elif(I2C_MPU6050_SCB_MODE_I2C_CONST_CFG)
 112:.\Generated_Source\PSoC4/I2C_MPU6050.c ****     I2C_MPU6050_I2CInit();
  46              		.loc 1 112 0
  47 0004 FFF7FEFF 		bl	I2C_MPU6050_I2CInit
 113:.\Generated_Source\PSoC4/I2C_MPU6050.c **** 
 114:.\Generated_Source\PSoC4/I2C_MPU6050.c **** #elif(I2C_MPU6050_SCB_MODE_SPI_CONST_CFG)
 115:.\Generated_Source\PSoC4/I2C_MPU6050.c ****     I2C_MPU6050_SpiInit();
 116:.\Generated_Source\PSoC4/I2C_MPU6050.c **** 
 117:.\Generated_Source\PSoC4/I2C_MPU6050.c **** #elif(I2C_MPU6050_SCB_MODE_UART_CONST_CFG)
 118:.\Generated_Source\PSoC4/I2C_MPU6050.c ****     I2C_MPU6050_UartInit();
 119:.\Generated_Source\PSoC4/I2C_MPU6050.c **** 
 120:.\Generated_Source\PSoC4/I2C_MPU6050.c **** #elif(I2C_MPU6050_SCB_MODE_EZI2C_CONST_CFG)
 121:.\Generated_Source\PSoC4/I2C_MPU6050.c ****     I2C_MPU6050_EzI2CInit();
 122:.\Generated_Source\PSoC4/I2C_MPU6050.c **** 
 123:.\Generated_Source\PSoC4/I2C_MPU6050.c **** #endif /* (I2C_MPU6050_SCB_MODE_UNCONFIG_CONST_CFG) */
 124:.\Generated_Source\PSoC4/I2C_MPU6050.c **** }
ARM GAS  C:\Users\CHRIST~1\AppData\Local\Temp\ccm8CNJM.s 			page 4


  48              		.loc 1 124 0
  49 0008 BD46     		mov	sp, r7
  50              		@ sp needed
  51 000a 80BD     		pop	{r7, pc}
  52              		.cfi_endproc
  53              	.LFE2:
  54              		.size	I2C_MPU6050_Init, .-I2C_MPU6050_Init
  55              		.section	.text.I2C_MPU6050_Enable,"ax",%progbits
  56              		.align	2
  57              		.global	I2C_MPU6050_Enable
  58              		.code	16
  59              		.thumb_func
  60              		.type	I2C_MPU6050_Enable, %function
  61              	I2C_MPU6050_Enable:
  62              	.LFB3:
 125:.\Generated_Source\PSoC4/I2C_MPU6050.c **** 
 126:.\Generated_Source\PSoC4/I2C_MPU6050.c **** 
 127:.\Generated_Source\PSoC4/I2C_MPU6050.c **** /*******************************************************************************
 128:.\Generated_Source\PSoC4/I2C_MPU6050.c **** * Function Name: I2C_MPU6050_Enable
 129:.\Generated_Source\PSoC4/I2C_MPU6050.c **** ********************************************************************************
 130:.\Generated_Source\PSoC4/I2C_MPU6050.c **** *
 131:.\Generated_Source\PSoC4/I2C_MPU6050.c **** * Summary:
 132:.\Generated_Source\PSoC4/I2C_MPU6050.c **** *  Enables the SCB component operation.
 133:.\Generated_Source\PSoC4/I2C_MPU6050.c **** *  The SCB configuration should be not changed when the component is enabled.
 134:.\Generated_Source\PSoC4/I2C_MPU6050.c **** *  Any configuration changes should be made after disabling the component.
 135:.\Generated_Source\PSoC4/I2C_MPU6050.c **** *
 136:.\Generated_Source\PSoC4/I2C_MPU6050.c **** * Parameters:
 137:.\Generated_Source\PSoC4/I2C_MPU6050.c **** *  None
 138:.\Generated_Source\PSoC4/I2C_MPU6050.c **** *
 139:.\Generated_Source\PSoC4/I2C_MPU6050.c **** * Return:
 140:.\Generated_Source\PSoC4/I2C_MPU6050.c **** *  None
 141:.\Generated_Source\PSoC4/I2C_MPU6050.c **** *
 142:.\Generated_Source\PSoC4/I2C_MPU6050.c **** *******************************************************************************/
 143:.\Generated_Source\PSoC4/I2C_MPU6050.c **** void I2C_MPU6050_Enable(void)
 144:.\Generated_Source\PSoC4/I2C_MPU6050.c **** {
  63              		.loc 1 144 0
  64              		.cfi_startproc
  65 0000 80B5     		push	{r7, lr}
  66              		.cfi_def_cfa_offset 8
  67              		.cfi_offset 7, -8
  68              		.cfi_offset 14, -4
  69 0002 00AF     		add	r7, sp, #0
  70              		.cfi_def_cfa_register 7
 145:.\Generated_Source\PSoC4/I2C_MPU6050.c **** #if(I2C_MPU6050_SCB_MODE_UNCONFIG_CONST_CFG)
 146:.\Generated_Source\PSoC4/I2C_MPU6050.c ****     /* Enable SCB block, only if it is already configured */
 147:.\Generated_Source\PSoC4/I2C_MPU6050.c ****     if(!I2C_MPU6050_SCB_MODE_UNCONFIG_RUNTM_CFG)
 148:.\Generated_Source\PSoC4/I2C_MPU6050.c ****     {
 149:.\Generated_Source\PSoC4/I2C_MPU6050.c ****         I2C_MPU6050_CTRL_REG |= I2C_MPU6050_CTRL_ENABLED;
 150:.\Generated_Source\PSoC4/I2C_MPU6050.c **** 
 151:.\Generated_Source\PSoC4/I2C_MPU6050.c ****         I2C_MPU6050_ScbEnableIntr();
 152:.\Generated_Source\PSoC4/I2C_MPU6050.c ****     }
 153:.\Generated_Source\PSoC4/I2C_MPU6050.c **** #else
 154:.\Generated_Source\PSoC4/I2C_MPU6050.c ****     I2C_MPU6050_CTRL_REG |= I2C_MPU6050_CTRL_ENABLED;
  71              		.loc 1 154 0
  72 0004 054B     		ldr	r3, .L3
  73 0006 054A     		ldr	r2, .L3
  74 0008 1268     		ldr	r2, [r2]
ARM GAS  C:\Users\CHRIST~1\AppData\Local\Temp\ccm8CNJM.s 			page 5


  75 000a 8021     		mov	r1, #128
  76 000c 0906     		lsl	r1, r1, #24
  77 000e 0A43     		orr	r2, r1
  78 0010 1A60     		str	r2, [r3]
 155:.\Generated_Source\PSoC4/I2C_MPU6050.c **** 
 156:.\Generated_Source\PSoC4/I2C_MPU6050.c ****     I2C_MPU6050_ScbEnableIntr();
  79              		.loc 1 156 0
  80 0012 FFF7FEFF 		bl	I2C_MPU6050_ScbEnableIntr
 157:.\Generated_Source\PSoC4/I2C_MPU6050.c **** #endif /* (I2C_MPU6050_SCB_MODE_UNCONFIG_CONST_CFG) */
 158:.\Generated_Source\PSoC4/I2C_MPU6050.c **** }
  81              		.loc 1 158 0
  82 0016 BD46     		mov	sp, r7
  83              		@ sp needed
  84 0018 80BD     		pop	{r7, pc}
  85              	.L4:
  86 001a C046     		.align	2
  87              	.L3:
  88 001c 00002540 		.word	1076166656
  89              		.cfi_endproc
  90              	.LFE3:
  91              		.size	I2C_MPU6050_Enable, .-I2C_MPU6050_Enable
  92              		.section	.text.I2C_MPU6050_Start,"ax",%progbits
  93              		.align	2
  94              		.global	I2C_MPU6050_Start
  95              		.code	16
  96              		.thumb_func
  97              		.type	I2C_MPU6050_Start, %function
  98              	I2C_MPU6050_Start:
  99              	.LFB4:
 159:.\Generated_Source\PSoC4/I2C_MPU6050.c **** 
 160:.\Generated_Source\PSoC4/I2C_MPU6050.c **** 
 161:.\Generated_Source\PSoC4/I2C_MPU6050.c **** /*******************************************************************************
 162:.\Generated_Source\PSoC4/I2C_MPU6050.c **** * Function Name: I2C_MPU6050_Start
 163:.\Generated_Source\PSoC4/I2C_MPU6050.c **** ********************************************************************************
 164:.\Generated_Source\PSoC4/I2C_MPU6050.c **** *
 165:.\Generated_Source\PSoC4/I2C_MPU6050.c **** * Summary:
 166:.\Generated_Source\PSoC4/I2C_MPU6050.c **** *  Invokes SCB_Init() and SCB_Enable().
 167:.\Generated_Source\PSoC4/I2C_MPU6050.c **** *  After this function call, the component is enabled and ready for operation.
 168:.\Generated_Source\PSoC4/I2C_MPU6050.c **** *  When configuration is set to "Unconfigured SCB", the component must first be
 169:.\Generated_Source\PSoC4/I2C_MPU6050.c **** *  initialized to operate in one of the following configurations: I2C, SPI, UART
 170:.\Generated_Source\PSoC4/I2C_MPU6050.c **** *  or EZ I2C. Otherwise this function does not enable the component.
 171:.\Generated_Source\PSoC4/I2C_MPU6050.c **** *
 172:.\Generated_Source\PSoC4/I2C_MPU6050.c **** * Parameters:
 173:.\Generated_Source\PSoC4/I2C_MPU6050.c **** *  None
 174:.\Generated_Source\PSoC4/I2C_MPU6050.c **** *
 175:.\Generated_Source\PSoC4/I2C_MPU6050.c **** * Return:
 176:.\Generated_Source\PSoC4/I2C_MPU6050.c **** *  None
 177:.\Generated_Source\PSoC4/I2C_MPU6050.c **** *
 178:.\Generated_Source\PSoC4/I2C_MPU6050.c **** * Global variables:
 179:.\Generated_Source\PSoC4/I2C_MPU6050.c **** *  I2C_MPU6050_initVar - used to check initial configuration, modified
 180:.\Generated_Source\PSoC4/I2C_MPU6050.c **** *  on first function call.
 181:.\Generated_Source\PSoC4/I2C_MPU6050.c **** *
 182:.\Generated_Source\PSoC4/I2C_MPU6050.c **** *******************************************************************************/
 183:.\Generated_Source\PSoC4/I2C_MPU6050.c **** void I2C_MPU6050_Start(void)
 184:.\Generated_Source\PSoC4/I2C_MPU6050.c **** {
 100              		.loc 1 184 0
 101              		.cfi_startproc
ARM GAS  C:\Users\CHRIST~1\AppData\Local\Temp\ccm8CNJM.s 			page 6


 102 0000 80B5     		push	{r7, lr}
 103              		.cfi_def_cfa_offset 8
 104              		.cfi_offset 7, -8
 105              		.cfi_offset 14, -4
 106 0002 00AF     		add	r7, sp, #0
 107              		.cfi_def_cfa_register 7
 185:.\Generated_Source\PSoC4/I2C_MPU6050.c ****     if(0u == I2C_MPU6050_initVar)
 108              		.loc 1 185 0
 109 0004 064B     		ldr	r3, .L7
 110 0006 1B78     		ldrb	r3, [r3]
 111 0008 002B     		cmp	r3, #0
 112 000a 04D1     		bne	.L6
 186:.\Generated_Source\PSoC4/I2C_MPU6050.c ****     {
 187:.\Generated_Source\PSoC4/I2C_MPU6050.c ****         I2C_MPU6050_Init();
 113              		.loc 1 187 0
 114 000c FFF7FEFF 		bl	I2C_MPU6050_Init
 188:.\Generated_Source\PSoC4/I2C_MPU6050.c ****         I2C_MPU6050_initVar = 1u; /* Component was initialized */
 115              		.loc 1 188 0
 116 0010 034B     		ldr	r3, .L7
 117 0012 0122     		mov	r2, #1
 118 0014 1A70     		strb	r2, [r3]
 119              	.L6:
 189:.\Generated_Source\PSoC4/I2C_MPU6050.c ****     }
 190:.\Generated_Source\PSoC4/I2C_MPU6050.c **** 
 191:.\Generated_Source\PSoC4/I2C_MPU6050.c ****     I2C_MPU6050_Enable();
 120              		.loc 1 191 0
 121 0016 FFF7FEFF 		bl	I2C_MPU6050_Enable
 192:.\Generated_Source\PSoC4/I2C_MPU6050.c **** }
 122              		.loc 1 192 0
 123 001a BD46     		mov	sp, r7
 124              		@ sp needed
 125 001c 80BD     		pop	{r7, pc}
 126              	.L8:
 127 001e C046     		.align	2
 128              	.L7:
 129 0020 00000000 		.word	I2C_MPU6050_initVar
 130              		.cfi_endproc
 131              	.LFE4:
 132              		.size	I2C_MPU6050_Start, .-I2C_MPU6050_Start
 133              		.section	.text.I2C_MPU6050_Stop,"ax",%progbits
 134              		.align	2
 135              		.global	I2C_MPU6050_Stop
 136              		.code	16
 137              		.thumb_func
 138              		.type	I2C_MPU6050_Stop, %function
 139              	I2C_MPU6050_Stop:
 140              	.LFB5:
 193:.\Generated_Source\PSoC4/I2C_MPU6050.c **** 
 194:.\Generated_Source\PSoC4/I2C_MPU6050.c **** 
 195:.\Generated_Source\PSoC4/I2C_MPU6050.c **** /*******************************************************************************
 196:.\Generated_Source\PSoC4/I2C_MPU6050.c **** * Function Name: I2C_MPU6050_Stop
 197:.\Generated_Source\PSoC4/I2C_MPU6050.c **** ********************************************************************************
 198:.\Generated_Source\PSoC4/I2C_MPU6050.c **** *
 199:.\Generated_Source\PSoC4/I2C_MPU6050.c **** * Summary:
 200:.\Generated_Source\PSoC4/I2C_MPU6050.c **** *  Disables the SCB component and its interrupt.
 201:.\Generated_Source\PSoC4/I2C_MPU6050.c **** *
 202:.\Generated_Source\PSoC4/I2C_MPU6050.c **** * Parameters:
ARM GAS  C:\Users\CHRIST~1\AppData\Local\Temp\ccm8CNJM.s 			page 7


 203:.\Generated_Source\PSoC4/I2C_MPU6050.c **** *  None
 204:.\Generated_Source\PSoC4/I2C_MPU6050.c **** *
 205:.\Generated_Source\PSoC4/I2C_MPU6050.c **** * Return:
 206:.\Generated_Source\PSoC4/I2C_MPU6050.c **** *  None
 207:.\Generated_Source\PSoC4/I2C_MPU6050.c **** *
 208:.\Generated_Source\PSoC4/I2C_MPU6050.c **** *******************************************************************************/
 209:.\Generated_Source\PSoC4/I2C_MPU6050.c **** void I2C_MPU6050_Stop(void)
 210:.\Generated_Source\PSoC4/I2C_MPU6050.c **** {
 141              		.loc 1 210 0
 142              		.cfi_startproc
 143 0000 80B5     		push	{r7, lr}
 144              		.cfi_def_cfa_offset 8
 145              		.cfi_offset 7, -8
 146              		.cfi_offset 14, -4
 147 0002 00AF     		add	r7, sp, #0
 148              		.cfi_def_cfa_register 7
 211:.\Generated_Source\PSoC4/I2C_MPU6050.c **** #if(I2C_MPU6050_SCB_IRQ_INTERNAL)
 212:.\Generated_Source\PSoC4/I2C_MPU6050.c ****     I2C_MPU6050_DisableInt();
 149              		.loc 1 212 0
 150 0004 0A20     		mov	r0, #10
 151 0006 FFF7FEFF 		bl	CyIntDisable
 213:.\Generated_Source\PSoC4/I2C_MPU6050.c **** #endif /* (I2C_MPU6050_SCB_IRQ_INTERNAL) */
 214:.\Generated_Source\PSoC4/I2C_MPU6050.c **** 
 215:.\Generated_Source\PSoC4/I2C_MPU6050.c ****     I2C_MPU6050_CTRL_REG &= (uint32) ~I2C_MPU6050_CTRL_ENABLED;  /* Disable scb IP */
 152              		.loc 1 215 0
 153 000a 064B     		ldr	r3, .L10
 154 000c 054A     		ldr	r2, .L10
 155 000e 1268     		ldr	r2, [r2]
 156 0010 5200     		lsl	r2, r2, #1
 157 0012 5208     		lsr	r2, r2, #1
 158 0014 1A60     		str	r2, [r3]
 216:.\Generated_Source\PSoC4/I2C_MPU6050.c **** 
 217:.\Generated_Source\PSoC4/I2C_MPU6050.c **** #if(I2C_MPU6050_SCB_IRQ_INTERNAL)
 218:.\Generated_Source\PSoC4/I2C_MPU6050.c ****     I2C_MPU6050_ClearPendingInt();
 159              		.loc 1 218 0
 160 0016 0A20     		mov	r0, #10
 161 0018 FFF7FEFF 		bl	CyIntClearPending
 219:.\Generated_Source\PSoC4/I2C_MPU6050.c **** #endif /* (I2C_MPU6050_SCB_IRQ_INTERNAL) */
 220:.\Generated_Source\PSoC4/I2C_MPU6050.c **** 
 221:.\Generated_Source\PSoC4/I2C_MPU6050.c ****     I2C_MPU6050_ScbModeStop(); /* Calls scbMode specific Stop function */
 162              		.loc 1 221 0
 163 001c FFF7FEFF 		bl	I2C_MPU6050_ScbModeStop
 222:.\Generated_Source\PSoC4/I2C_MPU6050.c **** }
 164              		.loc 1 222 0
 165 0020 BD46     		mov	sp, r7
 166              		@ sp needed
 167 0022 80BD     		pop	{r7, pc}
 168              	.L11:
 169              		.align	2
 170              	.L10:
 171 0024 00002540 		.word	1076166656
 172              		.cfi_endproc
 173              	.LFE5:
 174              		.size	I2C_MPU6050_Stop, .-I2C_MPU6050_Stop
 175              		.section	.text.I2C_MPU6050_SetRxFifoLevel,"ax",%progbits
 176              		.align	2
 177              		.global	I2C_MPU6050_SetRxFifoLevel
ARM GAS  C:\Users\CHRIST~1\AppData\Local\Temp\ccm8CNJM.s 			page 8


 178              		.code	16
 179              		.thumb_func
 180              		.type	I2C_MPU6050_SetRxFifoLevel, %function
 181              	I2C_MPU6050_SetRxFifoLevel:
 182              	.LFB6:
 223:.\Generated_Source\PSoC4/I2C_MPU6050.c **** 
 224:.\Generated_Source\PSoC4/I2C_MPU6050.c **** 
 225:.\Generated_Source\PSoC4/I2C_MPU6050.c **** /*******************************************************************************
 226:.\Generated_Source\PSoC4/I2C_MPU6050.c **** * Function Name: I2C_MPU6050_SetRxFifoLevel
 227:.\Generated_Source\PSoC4/I2C_MPU6050.c **** ********************************************************************************
 228:.\Generated_Source\PSoC4/I2C_MPU6050.c **** *
 229:.\Generated_Source\PSoC4/I2C_MPU6050.c **** * Summary:
 230:.\Generated_Source\PSoC4/I2C_MPU6050.c **** *  Sets level in the RX FIFO to generate a RX level interrupt.
 231:.\Generated_Source\PSoC4/I2C_MPU6050.c **** *  When the RX FIFO has more entries than the RX FIFO level an RX level
 232:.\Generated_Source\PSoC4/I2C_MPU6050.c **** *  interrupt request is generated.
 233:.\Generated_Source\PSoC4/I2C_MPU6050.c **** *
 234:.\Generated_Source\PSoC4/I2C_MPU6050.c **** * Parameters:
 235:.\Generated_Source\PSoC4/I2C_MPU6050.c **** *  level: Level in the RX FIFO to generate RX level interrupt.
 236:.\Generated_Source\PSoC4/I2C_MPU6050.c **** *         The range of valid level values is between 0 and RX FIFO depth - 1.
 237:.\Generated_Source\PSoC4/I2C_MPU6050.c **** *
 238:.\Generated_Source\PSoC4/I2C_MPU6050.c **** * Return:
 239:.\Generated_Source\PSoC4/I2C_MPU6050.c **** *  None
 240:.\Generated_Source\PSoC4/I2C_MPU6050.c **** *
 241:.\Generated_Source\PSoC4/I2C_MPU6050.c **** *******************************************************************************/
 242:.\Generated_Source\PSoC4/I2C_MPU6050.c **** void I2C_MPU6050_SetRxFifoLevel(uint32 level)
 243:.\Generated_Source\PSoC4/I2C_MPU6050.c **** {
 183              		.loc 1 243 0
 184              		.cfi_startproc
 185 0000 80B5     		push	{r7, lr}
 186              		.cfi_def_cfa_offset 8
 187              		.cfi_offset 7, -8
 188              		.cfi_offset 14, -4
 189 0002 84B0     		sub	sp, sp, #16
 190              		.cfi_def_cfa_offset 24
 191 0004 00AF     		add	r7, sp, #0
 192              		.cfi_def_cfa_register 7
 193 0006 7860     		str	r0, [r7, #4]
 244:.\Generated_Source\PSoC4/I2C_MPU6050.c ****     uint32 rxFifoCtrl;
 245:.\Generated_Source\PSoC4/I2C_MPU6050.c **** 
 246:.\Generated_Source\PSoC4/I2C_MPU6050.c ****     rxFifoCtrl = I2C_MPU6050_RX_FIFO_CTRL_REG;
 194              		.loc 1 246 0
 195 0008 094B     		ldr	r3, .L13
 196 000a 1B68     		ldr	r3, [r3]
 197 000c FB60     		str	r3, [r7, #12]
 247:.\Generated_Source\PSoC4/I2C_MPU6050.c **** 
 248:.\Generated_Source\PSoC4/I2C_MPU6050.c ****     rxFifoCtrl &= ((uint32) ~I2C_MPU6050_RX_FIFO_CTRL_TRIGGER_LEVEL_MASK); /* Clear level mask bits
 198              		.loc 1 248 0
 199 000e FB68     		ldr	r3, [r7, #12]
 200 0010 0F22     		mov	r2, #15
 201 0012 9343     		bic	r3, r2
 202 0014 FB60     		str	r3, [r7, #12]
 249:.\Generated_Source\PSoC4/I2C_MPU6050.c ****     rxFifoCtrl |= ((uint32) (I2C_MPU6050_RX_FIFO_CTRL_TRIGGER_LEVEL_MASK & level));
 203              		.loc 1 249 0
 204 0016 7B68     		ldr	r3, [r7, #4]
 205 0018 0F22     		mov	r2, #15
 206 001a 1340     		and	r3, r2
 207 001c FA68     		ldr	r2, [r7, #12]
ARM GAS  C:\Users\CHRIST~1\AppData\Local\Temp\ccm8CNJM.s 			page 9


 208 001e 1343     		orr	r3, r2
 209 0020 FB60     		str	r3, [r7, #12]
 250:.\Generated_Source\PSoC4/I2C_MPU6050.c **** 
 251:.\Generated_Source\PSoC4/I2C_MPU6050.c ****     I2C_MPU6050_RX_FIFO_CTRL_REG = rxFifoCtrl;
 210              		.loc 1 251 0
 211 0022 034B     		ldr	r3, .L13
 212 0024 FA68     		ldr	r2, [r7, #12]
 213 0026 1A60     		str	r2, [r3]
 252:.\Generated_Source\PSoC4/I2C_MPU6050.c **** }
 214              		.loc 1 252 0
 215 0028 BD46     		mov	sp, r7
 216 002a 04B0     		add	sp, sp, #16
 217              		@ sp needed
 218 002c 80BD     		pop	{r7, pc}
 219              	.L14:
 220 002e C046     		.align	2
 221              	.L13:
 222 0030 04032540 		.word	1076167428
 223              		.cfi_endproc
 224              	.LFE6:
 225              		.size	I2C_MPU6050_SetRxFifoLevel, .-I2C_MPU6050_SetRxFifoLevel
 226              		.section	.text.I2C_MPU6050_SetTxFifoLevel,"ax",%progbits
 227              		.align	2
 228              		.global	I2C_MPU6050_SetTxFifoLevel
 229              		.code	16
 230              		.thumb_func
 231              		.type	I2C_MPU6050_SetTxFifoLevel, %function
 232              	I2C_MPU6050_SetTxFifoLevel:
 233              	.LFB7:
 253:.\Generated_Source\PSoC4/I2C_MPU6050.c **** 
 254:.\Generated_Source\PSoC4/I2C_MPU6050.c **** 
 255:.\Generated_Source\PSoC4/I2C_MPU6050.c **** /*******************************************************************************
 256:.\Generated_Source\PSoC4/I2C_MPU6050.c **** * Function Name: I2C_MPU6050_SetTxFifoLevel
 257:.\Generated_Source\PSoC4/I2C_MPU6050.c **** ********************************************************************************
 258:.\Generated_Source\PSoC4/I2C_MPU6050.c **** *
 259:.\Generated_Source\PSoC4/I2C_MPU6050.c **** * Summary:
 260:.\Generated_Source\PSoC4/I2C_MPU6050.c **** *  Sets level in the TX FIFO to generate a TX level interrupt.
 261:.\Generated_Source\PSoC4/I2C_MPU6050.c **** *  When the TX FIFO has more entries than the TX FIFO level an TX level
 262:.\Generated_Source\PSoC4/I2C_MPU6050.c **** *  interrupt request is generated.
 263:.\Generated_Source\PSoC4/I2C_MPU6050.c **** *
 264:.\Generated_Source\PSoC4/I2C_MPU6050.c **** * Parameters:
 265:.\Generated_Source\PSoC4/I2C_MPU6050.c **** *  level: Level in the TX FIFO to generate TX level interrupt.
 266:.\Generated_Source\PSoC4/I2C_MPU6050.c **** *         The range of valid level values is between 0 and TX FIFO depth - 1.
 267:.\Generated_Source\PSoC4/I2C_MPU6050.c **** *
 268:.\Generated_Source\PSoC4/I2C_MPU6050.c **** * Return:
 269:.\Generated_Source\PSoC4/I2C_MPU6050.c **** *  None
 270:.\Generated_Source\PSoC4/I2C_MPU6050.c **** *
 271:.\Generated_Source\PSoC4/I2C_MPU6050.c **** *******************************************************************************/
 272:.\Generated_Source\PSoC4/I2C_MPU6050.c **** void I2C_MPU6050_SetTxFifoLevel(uint32 level)
 273:.\Generated_Source\PSoC4/I2C_MPU6050.c **** {
 234              		.loc 1 273 0
 235              		.cfi_startproc
 236 0000 80B5     		push	{r7, lr}
 237              		.cfi_def_cfa_offset 8
 238              		.cfi_offset 7, -8
 239              		.cfi_offset 14, -4
 240 0002 84B0     		sub	sp, sp, #16
ARM GAS  C:\Users\CHRIST~1\AppData\Local\Temp\ccm8CNJM.s 			page 10


 241              		.cfi_def_cfa_offset 24
 242 0004 00AF     		add	r7, sp, #0
 243              		.cfi_def_cfa_register 7
 244 0006 7860     		str	r0, [r7, #4]
 274:.\Generated_Source\PSoC4/I2C_MPU6050.c ****     uint32 txFifoCtrl;
 275:.\Generated_Source\PSoC4/I2C_MPU6050.c **** 
 276:.\Generated_Source\PSoC4/I2C_MPU6050.c ****     txFifoCtrl = I2C_MPU6050_TX_FIFO_CTRL_REG;
 245              		.loc 1 276 0
 246 0008 094B     		ldr	r3, .L16
 247 000a 1B68     		ldr	r3, [r3]
 248 000c FB60     		str	r3, [r7, #12]
 277:.\Generated_Source\PSoC4/I2C_MPU6050.c **** 
 278:.\Generated_Source\PSoC4/I2C_MPU6050.c ****     txFifoCtrl &= ((uint32) ~I2C_MPU6050_TX_FIFO_CTRL_TRIGGER_LEVEL_MASK); /* Clear level mask bits
 249              		.loc 1 278 0
 250 000e FB68     		ldr	r3, [r7, #12]
 251 0010 0F22     		mov	r2, #15
 252 0012 9343     		bic	r3, r2
 253 0014 FB60     		str	r3, [r7, #12]
 279:.\Generated_Source\PSoC4/I2C_MPU6050.c ****     txFifoCtrl |= ((uint32) (I2C_MPU6050_TX_FIFO_CTRL_TRIGGER_LEVEL_MASK & level));
 254              		.loc 1 279 0
 255 0016 7B68     		ldr	r3, [r7, #4]
 256 0018 0F22     		mov	r2, #15
 257 001a 1340     		and	r3, r2
 258 001c FA68     		ldr	r2, [r7, #12]
 259 001e 1343     		orr	r3, r2
 260 0020 FB60     		str	r3, [r7, #12]
 280:.\Generated_Source\PSoC4/I2C_MPU6050.c **** 
 281:.\Generated_Source\PSoC4/I2C_MPU6050.c ****     I2C_MPU6050_TX_FIFO_CTRL_REG = txFifoCtrl;
 261              		.loc 1 281 0
 262 0022 034B     		ldr	r3, .L16
 263 0024 FA68     		ldr	r2, [r7, #12]
 264 0026 1A60     		str	r2, [r3]
 282:.\Generated_Source\PSoC4/I2C_MPU6050.c **** }
 265              		.loc 1 282 0
 266 0028 BD46     		mov	sp, r7
 267 002a 04B0     		add	sp, sp, #16
 268              		@ sp needed
 269 002c 80BD     		pop	{r7, pc}
 270              	.L17:
 271 002e C046     		.align	2
 272              	.L16:
 273 0030 04022540 		.word	1076167172
 274              		.cfi_endproc
 275              	.LFE7:
 276              		.size	I2C_MPU6050_SetTxFifoLevel, .-I2C_MPU6050_SetTxFifoLevel
 277              		.section	.text.I2C_MPU6050_SetCustomInterruptHandler,"ax",%progbits
 278              		.align	2
 279              		.global	I2C_MPU6050_SetCustomInterruptHandler
 280              		.code	16
 281              		.thumb_func
 282              		.type	I2C_MPU6050_SetCustomInterruptHandler, %function
 283              	I2C_MPU6050_SetCustomInterruptHandler:
 284              	.LFB8:
 283:.\Generated_Source\PSoC4/I2C_MPU6050.c **** 
 284:.\Generated_Source\PSoC4/I2C_MPU6050.c **** 
 285:.\Generated_Source\PSoC4/I2C_MPU6050.c **** /*******************************************************************************
 286:.\Generated_Source\PSoC4/I2C_MPU6050.c **** * Function Name: I2C_MPU6050_SetCustomInterruptHandler
ARM GAS  C:\Users\CHRIST~1\AppData\Local\Temp\ccm8CNJM.s 			page 11


 287:.\Generated_Source\PSoC4/I2C_MPU6050.c **** ********************************************************************************
 288:.\Generated_Source\PSoC4/I2C_MPU6050.c **** *
 289:.\Generated_Source\PSoC4/I2C_MPU6050.c **** * Summary:
 290:.\Generated_Source\PSoC4/I2C_MPU6050.c **** *  Registers a function to be called by the internal interrupt handler.
 291:.\Generated_Source\PSoC4/I2C_MPU6050.c **** *  First the function that is registered is called, then the internal interrupt
 292:.\Generated_Source\PSoC4/I2C_MPU6050.c **** *  handler performs any operation such as software buffer management functions
 293:.\Generated_Source\PSoC4/I2C_MPU6050.c **** *  before the interrupt returns.  It is the user's responsibility not to break
 294:.\Generated_Source\PSoC4/I2C_MPU6050.c **** *  the software buffer operations. Only one custom handler is supported, which
 295:.\Generated_Source\PSoC4/I2C_MPU6050.c **** *  is the function provided by the most recent call.
 296:.\Generated_Source\PSoC4/I2C_MPU6050.c **** *  At the initialization time no custom handler is registered.
 297:.\Generated_Source\PSoC4/I2C_MPU6050.c **** *
 298:.\Generated_Source\PSoC4/I2C_MPU6050.c **** * Parameters:
 299:.\Generated_Source\PSoC4/I2C_MPU6050.c **** *  func: Pointer to the function to register.
 300:.\Generated_Source\PSoC4/I2C_MPU6050.c **** *        The value NULL indicates to remove the current custom interrupt
 301:.\Generated_Source\PSoC4/I2C_MPU6050.c **** *        handler.
 302:.\Generated_Source\PSoC4/I2C_MPU6050.c **** *
 303:.\Generated_Source\PSoC4/I2C_MPU6050.c **** * Return:
 304:.\Generated_Source\PSoC4/I2C_MPU6050.c **** *  None
 305:.\Generated_Source\PSoC4/I2C_MPU6050.c **** *
 306:.\Generated_Source\PSoC4/I2C_MPU6050.c **** *******************************************************************************/
 307:.\Generated_Source\PSoC4/I2C_MPU6050.c **** void I2C_MPU6050_SetCustomInterruptHandler(cyisraddress func)
 308:.\Generated_Source\PSoC4/I2C_MPU6050.c **** {
 285              		.loc 1 308 0
 286              		.cfi_startproc
 287 0000 80B5     		push	{r7, lr}
 288              		.cfi_def_cfa_offset 8
 289              		.cfi_offset 7, -8
 290              		.cfi_offset 14, -4
 291 0002 82B0     		sub	sp, sp, #8
 292              		.cfi_def_cfa_offset 16
 293 0004 00AF     		add	r7, sp, #0
 294              		.cfi_def_cfa_register 7
 295 0006 7860     		str	r0, [r7, #4]
 309:.\Generated_Source\PSoC4/I2C_MPU6050.c **** #if !defined (CY_REMOVE_I2C_MPU6050_CUSTOM_INTR_HANDLER)
 310:.\Generated_Source\PSoC4/I2C_MPU6050.c ****     I2C_MPU6050_customIntrHandler = func; /* Register interrupt handler */
 296              		.loc 1 310 0
 297 0008 024B     		ldr	r3, .L19
 298 000a 7A68     		ldr	r2, [r7, #4]
 299 000c 1A60     		str	r2, [r3]
 311:.\Generated_Source\PSoC4/I2C_MPU6050.c **** #else
 312:.\Generated_Source\PSoC4/I2C_MPU6050.c ****     if(NULL != func)
 313:.\Generated_Source\PSoC4/I2C_MPU6050.c ****     {
 314:.\Generated_Source\PSoC4/I2C_MPU6050.c ****         /* Suppress compiler warning */
 315:.\Generated_Source\PSoC4/I2C_MPU6050.c ****     }
 316:.\Generated_Source\PSoC4/I2C_MPU6050.c **** #endif /* !defined (CY_REMOVE_I2C_MPU6050_CUSTOM_INTR_HANDLER) */
 317:.\Generated_Source\PSoC4/I2C_MPU6050.c **** }
 300              		.loc 1 317 0
 301 000e BD46     		mov	sp, r7
 302 0010 02B0     		add	sp, sp, #8
 303              		@ sp needed
 304 0012 80BD     		pop	{r7, pc}
 305              	.L20:
 306              		.align	2
 307              	.L19:
 308 0014 00000000 		.word	I2C_MPU6050_customIntrHandler
 309              		.cfi_endproc
 310              	.LFE8:
ARM GAS  C:\Users\CHRIST~1\AppData\Local\Temp\ccm8CNJM.s 			page 12


 311              		.size	I2C_MPU6050_SetCustomInterruptHandler, .-I2C_MPU6050_SetCustomInterruptHandler
 312              		.section	.text.I2C_MPU6050_ScbEnableIntr,"ax",%progbits
 313              		.align	2
 314              		.code	16
 315              		.thumb_func
 316              		.type	I2C_MPU6050_ScbEnableIntr, %function
 317              	I2C_MPU6050_ScbEnableIntr:
 318              	.LFB9:
 318:.\Generated_Source\PSoC4/I2C_MPU6050.c **** 
 319:.\Generated_Source\PSoC4/I2C_MPU6050.c **** 
 320:.\Generated_Source\PSoC4/I2C_MPU6050.c **** /*******************************************************************************
 321:.\Generated_Source\PSoC4/I2C_MPU6050.c **** * Function Name: I2C_MPU6050_ScbModeEnableIntr
 322:.\Generated_Source\PSoC4/I2C_MPU6050.c **** ********************************************************************************
 323:.\Generated_Source\PSoC4/I2C_MPU6050.c **** *
 324:.\Generated_Source\PSoC4/I2C_MPU6050.c **** * Summary:
 325:.\Generated_Source\PSoC4/I2C_MPU6050.c **** *  Enables an interrupt for a specific mode.
 326:.\Generated_Source\PSoC4/I2C_MPU6050.c **** *
 327:.\Generated_Source\PSoC4/I2C_MPU6050.c **** * Parameters:
 328:.\Generated_Source\PSoC4/I2C_MPU6050.c **** *  None
 329:.\Generated_Source\PSoC4/I2C_MPU6050.c **** *
 330:.\Generated_Source\PSoC4/I2C_MPU6050.c **** * Return:
 331:.\Generated_Source\PSoC4/I2C_MPU6050.c **** *  None
 332:.\Generated_Source\PSoC4/I2C_MPU6050.c **** *
 333:.\Generated_Source\PSoC4/I2C_MPU6050.c **** *******************************************************************************/
 334:.\Generated_Source\PSoC4/I2C_MPU6050.c **** static void I2C_MPU6050_ScbEnableIntr(void)
 335:.\Generated_Source\PSoC4/I2C_MPU6050.c **** {
 319              		.loc 1 335 0
 320              		.cfi_startproc
 321 0000 80B5     		push	{r7, lr}
 322              		.cfi_def_cfa_offset 8
 323              		.cfi_offset 7, -8
 324              		.cfi_offset 14, -4
 325 0002 00AF     		add	r7, sp, #0
 326              		.cfi_def_cfa_register 7
 336:.\Generated_Source\PSoC4/I2C_MPU6050.c **** #if(I2C_MPU6050_SCB_IRQ_INTERNAL)
 337:.\Generated_Source\PSoC4/I2C_MPU6050.c ****     #if(I2C_MPU6050_SCB_MODE_UNCONFIG_CONST_CFG)
 338:.\Generated_Source\PSoC4/I2C_MPU6050.c ****         /* Enable interrupt in NVIC */
 339:.\Generated_Source\PSoC4/I2C_MPU6050.c ****         if(0u != I2C_MPU6050_scbEnableIntr)
 340:.\Generated_Source\PSoC4/I2C_MPU6050.c ****         {
 341:.\Generated_Source\PSoC4/I2C_MPU6050.c ****             I2C_MPU6050_EnableInt();
 342:.\Generated_Source\PSoC4/I2C_MPU6050.c ****         }
 343:.\Generated_Source\PSoC4/I2C_MPU6050.c ****     #else
 344:.\Generated_Source\PSoC4/I2C_MPU6050.c ****         I2C_MPU6050_EnableInt();
 327              		.loc 1 344 0
 328 0004 0A20     		mov	r0, #10
 329 0006 FFF7FEFF 		bl	CyIntEnable
 345:.\Generated_Source\PSoC4/I2C_MPU6050.c **** 
 346:.\Generated_Source\PSoC4/I2C_MPU6050.c ****     #endif /* (I2C_MPU6050_SCB_MODE_UNCONFIG_CONST_CFG) */
 347:.\Generated_Source\PSoC4/I2C_MPU6050.c **** #endif /* (I2C_MPU6050_SCB_IRQ_INTERNAL) */
 348:.\Generated_Source\PSoC4/I2C_MPU6050.c **** }
 330              		.loc 1 348 0
 331 000a BD46     		mov	sp, r7
 332              		@ sp needed
 333 000c 80BD     		pop	{r7, pc}
 334              		.cfi_endproc
 335              	.LFE9:
 336              		.size	I2C_MPU6050_ScbEnableIntr, .-I2C_MPU6050_ScbEnableIntr
ARM GAS  C:\Users\CHRIST~1\AppData\Local\Temp\ccm8CNJM.s 			page 13


 337              		.section	.text.I2C_MPU6050_ScbModeStop,"ax",%progbits
 338              		.align	2
 339              		.code	16
 340              		.thumb_func
 341              		.type	I2C_MPU6050_ScbModeStop, %function
 342              	I2C_MPU6050_ScbModeStop:
 343              	.LFB10:
 349:.\Generated_Source\PSoC4/I2C_MPU6050.c **** 
 350:.\Generated_Source\PSoC4/I2C_MPU6050.c **** 
 351:.\Generated_Source\PSoC4/I2C_MPU6050.c **** /*******************************************************************************
 352:.\Generated_Source\PSoC4/I2C_MPU6050.c **** * Function Name: I2C_MPU6050_ScbModeStop
 353:.\Generated_Source\PSoC4/I2C_MPU6050.c **** ********************************************************************************
 354:.\Generated_Source\PSoC4/I2C_MPU6050.c **** *
 355:.\Generated_Source\PSoC4/I2C_MPU6050.c **** * Summary:
 356:.\Generated_Source\PSoC4/I2C_MPU6050.c **** *  Calls the Stop function for a specific operation mode.
 357:.\Generated_Source\PSoC4/I2C_MPU6050.c **** *
 358:.\Generated_Source\PSoC4/I2C_MPU6050.c **** * Parameters:
 359:.\Generated_Source\PSoC4/I2C_MPU6050.c **** *  None
 360:.\Generated_Source\PSoC4/I2C_MPU6050.c **** *
 361:.\Generated_Source\PSoC4/I2C_MPU6050.c **** * Return:
 362:.\Generated_Source\PSoC4/I2C_MPU6050.c **** *  None
 363:.\Generated_Source\PSoC4/I2C_MPU6050.c **** *
 364:.\Generated_Source\PSoC4/I2C_MPU6050.c **** *******************************************************************************/
 365:.\Generated_Source\PSoC4/I2C_MPU6050.c **** static void I2C_MPU6050_ScbModeStop(void)
 366:.\Generated_Source\PSoC4/I2C_MPU6050.c **** {
 344              		.loc 1 366 0
 345              		.cfi_startproc
 346 0000 80B5     		push	{r7, lr}
 347              		.cfi_def_cfa_offset 8
 348              		.cfi_offset 7, -8
 349              		.cfi_offset 14, -4
 350 0002 00AF     		add	r7, sp, #0
 351              		.cfi_def_cfa_register 7
 367:.\Generated_Source\PSoC4/I2C_MPU6050.c **** #if(I2C_MPU6050_SCB_MODE_UNCONFIG_CONST_CFG)
 368:.\Generated_Source\PSoC4/I2C_MPU6050.c ****     if(I2C_MPU6050_SCB_MODE_I2C_RUNTM_CFG)
 369:.\Generated_Source\PSoC4/I2C_MPU6050.c ****     {
 370:.\Generated_Source\PSoC4/I2C_MPU6050.c ****         I2C_MPU6050_I2CStop();
 371:.\Generated_Source\PSoC4/I2C_MPU6050.c ****     }
 372:.\Generated_Source\PSoC4/I2C_MPU6050.c ****     else if (I2C_MPU6050_SCB_MODE_EZI2C_RUNTM_CFG)
 373:.\Generated_Source\PSoC4/I2C_MPU6050.c ****     {
 374:.\Generated_Source\PSoC4/I2C_MPU6050.c ****         I2C_MPU6050_EzI2CStop();
 375:.\Generated_Source\PSoC4/I2C_MPU6050.c ****     }
 376:.\Generated_Source\PSoC4/I2C_MPU6050.c **** #if (!I2C_MPU6050_CY_SCBIP_V1)
 377:.\Generated_Source\PSoC4/I2C_MPU6050.c ****     else if (I2C_MPU6050_SCB_MODE_UART_RUNTM_CFG)
 378:.\Generated_Source\PSoC4/I2C_MPU6050.c ****     {
 379:.\Generated_Source\PSoC4/I2C_MPU6050.c ****         I2C_MPU6050_UartStop();
 380:.\Generated_Source\PSoC4/I2C_MPU6050.c ****     }
 381:.\Generated_Source\PSoC4/I2C_MPU6050.c **** #endif /* (!I2C_MPU6050_CY_SCBIP_V1) */
 382:.\Generated_Source\PSoC4/I2C_MPU6050.c ****     else
 383:.\Generated_Source\PSoC4/I2C_MPU6050.c ****     {
 384:.\Generated_Source\PSoC4/I2C_MPU6050.c ****         /* Do nothing for other modes */
 385:.\Generated_Source\PSoC4/I2C_MPU6050.c ****     }
 386:.\Generated_Source\PSoC4/I2C_MPU6050.c **** #elif(I2C_MPU6050_SCB_MODE_I2C_CONST_CFG)
 387:.\Generated_Source\PSoC4/I2C_MPU6050.c ****     I2C_MPU6050_I2CStop();
 352              		.loc 1 387 0
 353 0004 FFF7FEFF 		bl	I2C_MPU6050_I2CStop
 388:.\Generated_Source\PSoC4/I2C_MPU6050.c **** 
ARM GAS  C:\Users\CHRIST~1\AppData\Local\Temp\ccm8CNJM.s 			page 14


 389:.\Generated_Source\PSoC4/I2C_MPU6050.c **** #elif(I2C_MPU6050_SCB_MODE_EZI2C_CONST_CFG)
 390:.\Generated_Source\PSoC4/I2C_MPU6050.c ****     I2C_MPU6050_EzI2CStop();
 391:.\Generated_Source\PSoC4/I2C_MPU6050.c **** 
 392:.\Generated_Source\PSoC4/I2C_MPU6050.c **** #elif(I2C_MPU6050_SCB_MODE_UART_CONST_CFG)
 393:.\Generated_Source\PSoC4/I2C_MPU6050.c ****     I2C_MPU6050_UartStop();
 394:.\Generated_Source\PSoC4/I2C_MPU6050.c **** 
 395:.\Generated_Source\PSoC4/I2C_MPU6050.c **** #endif /* (I2C_MPU6050_SCB_MODE_UNCONFIG_CONST_CFG) */
 396:.\Generated_Source\PSoC4/I2C_MPU6050.c **** }
 354              		.loc 1 396 0
 355 0008 BD46     		mov	sp, r7
 356              		@ sp needed
 357 000a 80BD     		pop	{r7, pc}
 358              		.cfi_endproc
 359              	.LFE10:
 360              		.size	I2C_MPU6050_ScbModeStop, .-I2C_MPU6050_ScbModeStop
 361              		.text
 362              	.Letext0:
 363              		.file 2 "Generated_Source\\PSoC4/cytypes.h"