ARM GAS  C:\Users\CHRIST~1\AppData\Local\Temp\ccTEKiBa.s 			page 1


   1              		.cpu cortex-m0
   2              		.fpu softvfp
   3              		.eabi_attribute 20, 1
   4              		.eabi_attribute 21, 1
   5              		.eabi_attribute 23, 3
   6              		.eabi_attribute 24, 1
   7              		.eabi_attribute 25, 1
   8              		.eabi_attribute 26, 1
   9              		.eabi_attribute 30, 6
  10              		.eabi_attribute 34, 0
  11              		.eabi_attribute 18, 4
  12              		.code	16
  13              		.file	"I2C_MPU6050_I2C_MASTER.c"
  14              		.text
  15              	.Ltext0:
  16              		.cfi_sections	.debug_frame
  17              		.comm	I2C_MPU6050_mstrStatus,2,2
  18              		.comm	I2C_MPU6050_mstrControl,1,1
  19              		.comm	I2C_MPU6050_mstrRdBufPtr,4,4
  20              		.comm	I2C_MPU6050_mstrRdBufSize,4,4
  21              		.comm	I2C_MPU6050_mstrRdBufIndex,4,4
  22              		.comm	I2C_MPU6050_mstrWrBufPtr,4,4
  23              		.comm	I2C_MPU6050_mstrWrBufSize,4,4
  24              		.comm	I2C_MPU6050_mstrWrBufIndex,4,4
  25              		.comm	I2C_MPU6050_mstrWrBufIndexTmp,4,4
  26              		.section	.text.I2C_MPU6050_I2CMasterWriteBuf,"ax",%progbits
  27              		.align	2
  28              		.global	I2C_MPU6050_I2CMasterWriteBuf
  29              		.code	16
  30              		.thumb_func
  31              		.type	I2C_MPU6050_I2CMasterWriteBuf, %function
  32              	I2C_MPU6050_I2CMasterWriteBuf:
  33              	.LFB2:
  34              		.file 1 ".\\Generated_Source\\PSoC4\\I2C_MPU6050_I2C_MASTER.c"
   1:.\Generated_Source\PSoC4/I2C_MPU6050_I2C_MASTER.c **** /*******************************************************************************
   2:.\Generated_Source\PSoC4/I2C_MPU6050_I2C_MASTER.c **** * File Name: I2C_MPU6050_I2C_MASTER.c
   3:.\Generated_Source\PSoC4/I2C_MPU6050_I2C_MASTER.c **** * Version 2.0
   4:.\Generated_Source\PSoC4/I2C_MPU6050_I2C_MASTER.c **** *
   5:.\Generated_Source\PSoC4/I2C_MPU6050_I2C_MASTER.c **** * Description:
   6:.\Generated_Source\PSoC4/I2C_MPU6050_I2C_MASTER.c **** *  This file provides the source code to the API for the SCB Component in
   7:.\Generated_Source\PSoC4/I2C_MPU6050_I2C_MASTER.c **** *  I2C Master mode.
   8:.\Generated_Source\PSoC4/I2C_MPU6050_I2C_MASTER.c **** *
   9:.\Generated_Source\PSoC4/I2C_MPU6050_I2C_MASTER.c **** * Note:
  10:.\Generated_Source\PSoC4/I2C_MPU6050_I2C_MASTER.c **** *
  11:.\Generated_Source\PSoC4/I2C_MPU6050_I2C_MASTER.c **** *******************************************************************************
  12:.\Generated_Source\PSoC4/I2C_MPU6050_I2C_MASTER.c **** * Copyright 2013-2014, Cypress Semiconductor Corporation.  All rights reserved.
  13:.\Generated_Source\PSoC4/I2C_MPU6050_I2C_MASTER.c **** * You may use this file only in accordance with the license, terms, conditions,
  14:.\Generated_Source\PSoC4/I2C_MPU6050_I2C_MASTER.c **** * disclaimers, and limitations in the end user license agreement accompanying
  15:.\Generated_Source\PSoC4/I2C_MPU6050_I2C_MASTER.c **** * the software package with which this file was provided.
  16:.\Generated_Source\PSoC4/I2C_MPU6050_I2C_MASTER.c **** *******************************************************************************/
  17:.\Generated_Source\PSoC4/I2C_MPU6050_I2C_MASTER.c **** 
  18:.\Generated_Source\PSoC4/I2C_MPU6050_I2C_MASTER.c **** #include "I2C_MPU6050_PVT.h"
  19:.\Generated_Source\PSoC4/I2C_MPU6050_I2C_MASTER.c **** #include "I2C_MPU6050_I2C_PVT.h"
  20:.\Generated_Source\PSoC4/I2C_MPU6050_I2C_MASTER.c **** 
  21:.\Generated_Source\PSoC4/I2C_MPU6050_I2C_MASTER.c **** #if(I2C_MPU6050_I2C_MASTER_CONST)
  22:.\Generated_Source\PSoC4/I2C_MPU6050_I2C_MASTER.c **** 
  23:.\Generated_Source\PSoC4/I2C_MPU6050_I2C_MASTER.c **** /***************************************
ARM GAS  C:\Users\CHRIST~1\AppData\Local\Temp\ccTEKiBa.s 			page 2


  24:.\Generated_Source\PSoC4/I2C_MPU6050_I2C_MASTER.c **** *      I2C Master Private Vars
  25:.\Generated_Source\PSoC4/I2C_MPU6050_I2C_MASTER.c **** ***************************************/
  26:.\Generated_Source\PSoC4/I2C_MPU6050_I2C_MASTER.c **** 
  27:.\Generated_Source\PSoC4/I2C_MPU6050_I2C_MASTER.c **** /* Master variables */
  28:.\Generated_Source\PSoC4/I2C_MPU6050_I2C_MASTER.c **** volatile uint16 I2C_MPU6050_mstrStatus;      /* Master Status byte  */
  29:.\Generated_Source\PSoC4/I2C_MPU6050_I2C_MASTER.c **** volatile uint8  I2C_MPU6050_mstrControl;     /* Master Control byte */
  30:.\Generated_Source\PSoC4/I2C_MPU6050_I2C_MASTER.c **** 
  31:.\Generated_Source\PSoC4/I2C_MPU6050_I2C_MASTER.c **** /* Receive buffer variables */
  32:.\Generated_Source\PSoC4/I2C_MPU6050_I2C_MASTER.c **** volatile uint8 * I2C_MPU6050_mstrRdBufPtr;   /* Pointer to Master Read buffer */
  33:.\Generated_Source\PSoC4/I2C_MPU6050_I2C_MASTER.c **** volatile uint32  I2C_MPU6050_mstrRdBufSize;  /* Master Read buffer size       */
  34:.\Generated_Source\PSoC4/I2C_MPU6050_I2C_MASTER.c **** volatile uint32  I2C_MPU6050_mstrRdBufIndex; /* Master Read buffer Index      */
  35:.\Generated_Source\PSoC4/I2C_MPU6050_I2C_MASTER.c **** 
  36:.\Generated_Source\PSoC4/I2C_MPU6050_I2C_MASTER.c **** /* Transmit buffer variables */
  37:.\Generated_Source\PSoC4/I2C_MPU6050_I2C_MASTER.c **** volatile uint8 * I2C_MPU6050_mstrWrBufPtr;   /* Pointer to Master Write buffer */
  38:.\Generated_Source\PSoC4/I2C_MPU6050_I2C_MASTER.c **** volatile uint32  I2C_MPU6050_mstrWrBufSize;  /* Master Write buffer size       */
  39:.\Generated_Source\PSoC4/I2C_MPU6050_I2C_MASTER.c **** volatile uint32  I2C_MPU6050_mstrWrBufIndex; /* Master Write buffer Index      */
  40:.\Generated_Source\PSoC4/I2C_MPU6050_I2C_MASTER.c **** volatile uint32  I2C_MPU6050_mstrWrBufIndexTmp; /* Master Write buffer Index Tmp */
  41:.\Generated_Source\PSoC4/I2C_MPU6050_I2C_MASTER.c **** 
  42:.\Generated_Source\PSoC4/I2C_MPU6050_I2C_MASTER.c **** #if (!I2C_MPU6050_CY_SCBIP_V0 && \
  43:.\Generated_Source\PSoC4/I2C_MPU6050_I2C_MASTER.c ****     I2C_MPU6050_I2C_MULTI_MASTER_SLAVE_CONST && I2C_MPU6050_I2C_WAKE_ENABLE_CONST)
  44:.\Generated_Source\PSoC4/I2C_MPU6050_I2C_MASTER.c ****     static void I2C_MPU6050_I2CMasterDisableEcAm(void);
  45:.\Generated_Source\PSoC4/I2C_MPU6050_I2C_MASTER.c **** #endif /* (!I2C_MPU6050_CY_SCBIP_V0) */
  46:.\Generated_Source\PSoC4/I2C_MPU6050_I2C_MASTER.c **** 
  47:.\Generated_Source\PSoC4/I2C_MPU6050_I2C_MASTER.c **** 
  48:.\Generated_Source\PSoC4/I2C_MPU6050_I2C_MASTER.c **** /*******************************************************************************
  49:.\Generated_Source\PSoC4/I2C_MPU6050_I2C_MASTER.c **** * Function Name: I2C_MPU6050_I2CMasterWriteBuf
  50:.\Generated_Source\PSoC4/I2C_MPU6050_I2C_MASTER.c **** ********************************************************************************
  51:.\Generated_Source\PSoC4/I2C_MPU6050_I2C_MASTER.c **** *
  52:.\Generated_Source\PSoC4/I2C_MPU6050_I2C_MASTER.c **** * Summary:
  53:.\Generated_Source\PSoC4/I2C_MPU6050_I2C_MASTER.c **** * Automatically writes an entire buffer of data to a slave device.
  54:.\Generated_Source\PSoC4/I2C_MPU6050_I2C_MASTER.c **** * Once the data transfer is initiated by this function, further data transfer
  55:.\Generated_Source\PSoC4/I2C_MPU6050_I2C_MASTER.c **** * is handled by the included ISR.
  56:.\Generated_Source\PSoC4/I2C_MPU6050_I2C_MASTER.c **** * Enables the I2C interrupt and clears SCB_ I2C_MSTAT_WR_CMPLT status.
  57:.\Generated_Source\PSoC4/I2C_MPU6050_I2C_MASTER.c **** *
  58:.\Generated_Source\PSoC4/I2C_MPU6050_I2C_MASTER.c **** * Parameters:
  59:.\Generated_Source\PSoC4/I2C_MPU6050_I2C_MASTER.c **** *  slaveAddr: 7-bit slave address.
  60:.\Generated_Source\PSoC4/I2C_MPU6050_I2C_MASTER.c **** *  xferData:  Pointer to buffer of data to be sent.
  61:.\Generated_Source\PSoC4/I2C_MPU6050_I2C_MASTER.c **** *  cnt:       Size of buffer to send.
  62:.\Generated_Source\PSoC4/I2C_MPU6050_I2C_MASTER.c **** *  mode:      Transfer mode defines: start or restart condition generation at
  63:.\Generated_Source\PSoC4/I2C_MPU6050_I2C_MASTER.c **** *             begin of the transfer and complete the transfer or halt before
  64:.\Generated_Source\PSoC4/I2C_MPU6050_I2C_MASTER.c **** *             generating a stop.
  65:.\Generated_Source\PSoC4/I2C_MPU6050_I2C_MASTER.c **** *
  66:.\Generated_Source\PSoC4/I2C_MPU6050_I2C_MASTER.c **** * Return:
  67:.\Generated_Source\PSoC4/I2C_MPU6050_I2C_MASTER.c **** *  Error status.
  68:.\Generated_Source\PSoC4/I2C_MPU6050_I2C_MASTER.c **** *
  69:.\Generated_Source\PSoC4/I2C_MPU6050_I2C_MASTER.c **** * Global variables:
  70:.\Generated_Source\PSoC4/I2C_MPU6050_I2C_MASTER.c **** *  I2C_MPU6050_mstrStatus  - used to store current status of I2C Master.
  71:.\Generated_Source\PSoC4/I2C_MPU6050_I2C_MASTER.c **** *  I2C_MPU6050_state       - used to store current state of software FSM.
  72:.\Generated_Source\PSoC4/I2C_MPU6050_I2C_MASTER.c **** *  I2C_MPU6050_mstrControl - used to control master end of transaction with
  73:.\Generated_Source\PSoC4/I2C_MPU6050_I2C_MASTER.c **** *  or without the Stop generation.
  74:.\Generated_Source\PSoC4/I2C_MPU6050_I2C_MASTER.c **** *  I2C_MPU6050_mstrWrBufPtr - used to store pointer to master write buffer.
  75:.\Generated_Source\PSoC4/I2C_MPU6050_I2C_MASTER.c **** *  I2C_MPU6050_mstrWrBufIndex - used to current index within master write
  76:.\Generated_Source\PSoC4/I2C_MPU6050_I2C_MASTER.c **** *  buffer.
  77:.\Generated_Source\PSoC4/I2C_MPU6050_I2C_MASTER.c **** *  I2C_MPU6050_mstrWrBufSize - used to store master write buffer size.
  78:.\Generated_Source\PSoC4/I2C_MPU6050_I2C_MASTER.c **** *
  79:.\Generated_Source\PSoC4/I2C_MPU6050_I2C_MASTER.c **** *******************************************************************************/
  80:.\Generated_Source\PSoC4/I2C_MPU6050_I2C_MASTER.c **** uint32 I2C_MPU6050_I2CMasterWriteBuf(uint32 slaveAddress, uint8 * wrData, uint32 cnt, uint32 mode)
ARM GAS  C:\Users\CHRIST~1\AppData\Local\Temp\ccTEKiBa.s 			page 3


  81:.\Generated_Source\PSoC4/I2C_MPU6050_I2C_MASTER.c **** {
  35              		.loc 1 81 0
  36              		.cfi_startproc
  37 0000 80B5     		push	{r7, lr}
  38              		.cfi_def_cfa_offset 8
  39              		.cfi_offset 7, -8
  40              		.cfi_offset 14, -4
  41 0002 86B0     		sub	sp, sp, #24
  42              		.cfi_def_cfa_offset 32
  43 0004 00AF     		add	r7, sp, #0
  44              		.cfi_def_cfa_register 7
  45 0006 F860     		str	r0, [r7, #12]
  46 0008 B960     		str	r1, [r7, #8]
  47 000a 7A60     		str	r2, [r7, #4]
  48 000c 3B60     		str	r3, [r7]
  82:.\Generated_Source\PSoC4/I2C_MPU6050_I2C_MASTER.c ****     uint32 errStatus;
  83:.\Generated_Source\PSoC4/I2C_MPU6050_I2C_MASTER.c **** 
  84:.\Generated_Source\PSoC4/I2C_MPU6050_I2C_MASTER.c ****     errStatus = I2C_MPU6050_I2C_MSTR_NOT_READY;
  49              		.loc 1 84 0
  50 000e 0423     		mov	r3, #4
  51 0010 7B61     		str	r3, [r7, #20]
  85:.\Generated_Source\PSoC4/I2C_MPU6050_I2C_MASTER.c **** 
  86:.\Generated_Source\PSoC4/I2C_MPU6050_I2C_MASTER.c ****     if(NULL != wrData)  /* Check buffer pointer */
  52              		.loc 1 86 0
  53 0012 BB68     		ldr	r3, [r7, #8]
  54 0014 002B     		cmp	r3, #0
  55 0016 20D0     		beq	.L2
  87:.\Generated_Source\PSoC4/I2C_MPU6050_I2C_MASTER.c ****     {
  88:.\Generated_Source\PSoC4/I2C_MPU6050_I2C_MASTER.c ****         /* Check FSM state and bus before generating Start/ReStart condition */
  89:.\Generated_Source\PSoC4/I2C_MPU6050_I2C_MASTER.c ****         if(I2C_MPU6050_CHECK_I2C_FSM_IDLE)
  56              		.loc 1 89 0
  57 0018 324B     		ldr	r3, .L10
  58 001a 1B78     		ldrb	r3, [r3]
  59 001c DBB2     		uxtb	r3, r3
  60 001e 102B     		cmp	r3, #16
  61 0020 0CD1     		bne	.L3
  90:.\Generated_Source\PSoC4/I2C_MPU6050_I2C_MASTER.c ****         {
  91:.\Generated_Source\PSoC4/I2C_MPU6050_I2C_MASTER.c ****             I2C_MPU6050_DisableInt();  /* Lock from interruption */
  62              		.loc 1 91 0
  63 0022 0A20     		mov	r0, #10
  64 0024 FFF7FEFF 		bl	CyIntDisable
  92:.\Generated_Source\PSoC4/I2C_MPU6050_I2C_MASTER.c **** 
  93:.\Generated_Source\PSoC4/I2C_MPU6050_I2C_MASTER.c ****             /* Check bus state */
  94:.\Generated_Source\PSoC4/I2C_MPU6050_I2C_MASTER.c ****             errStatus = I2C_MPU6050_CHECK_I2C_STATUS(I2C_MPU6050_I2C_STATUS_BUS_BUSY) ?
  65              		.loc 1 94 0
  66 0028 2F4B     		ldr	r3, .L10+4
  67 002a 1B68     		ldr	r3, [r3]
  68 002c 0122     		mov	r2, #1
  69 002e 1340     		and	r3, r2
  70 0030 01D0     		beq	.L4
  71              		.loc 1 94 0 is_stmt 0 discriminator 1
  72 0032 0823     		mov	r3, #8
  73 0034 00E0     		b	.L5
  74              	.L4:
  75              		.loc 1 94 0 discriminator 2
  76 0036 0023     		mov	r3, #0
  77              	.L5:
ARM GAS  C:\Users\CHRIST~1\AppData\Local\Temp\ccTEKiBa.s 			page 4


  78              		.loc 1 94 0 discriminator 4
  79 0038 7B61     		str	r3, [r7, #20]
  80 003a 0EE0     		b	.L2
  81              	.L3:
  95:.\Generated_Source\PSoC4/I2C_MPU6050_I2C_MASTER.c ****                             I2C_MPU6050_I2C_MSTR_BUS_BUSY : I2C_MPU6050_I2C_MSTR_NO_ERROR;
  96:.\Generated_Source\PSoC4/I2C_MPU6050_I2C_MASTER.c ****         }
  97:.\Generated_Source\PSoC4/I2C_MPU6050_I2C_MASTER.c ****         else if(I2C_MPU6050_CHECK_I2C_FSM_HALT)
  82              		.loc 1 97 0 is_stmt 1
  83 003c 294B     		ldr	r3, .L10
  84 003e 1B78     		ldrb	r3, [r3]
  85 0040 DBB2     		uxtb	r3, r3
  86 0042 602B     		cmp	r3, #96
  87 0044 09D1     		bne	.L2
  98:.\Generated_Source\PSoC4/I2C_MPU6050_I2C_MASTER.c ****         {
  99:.\Generated_Source\PSoC4/I2C_MPU6050_I2C_MASTER.c ****             I2C_MPU6050_mstrStatus &= (uint16) ~I2C_MPU6050_I2C_MSTAT_XFER_HALT;
  88              		.loc 1 99 0
  89 0046 294B     		ldr	r3, .L10+8
  90 0048 1B88     		ldrh	r3, [r3]
  91 004a 9BB2     		uxth	r3, r3
  92 004c 0822     		mov	r2, #8
  93 004e 9343     		bic	r3, r2
  94 0050 9AB2     		uxth	r2, r3
  95 0052 264B     		ldr	r3, .L10+8
  96 0054 1A80     		strh	r2, [r3]
 100:.\Generated_Source\PSoC4/I2C_MPU6050_I2C_MASTER.c ****                               errStatus  = I2C_MPU6050_I2C_MSTR_NO_ERROR;
  97              		.loc 1 100 0
  98 0056 0023     		mov	r3, #0
  99 0058 7B61     		str	r3, [r7, #20]
 100              	.L2:
 101:.\Generated_Source\PSoC4/I2C_MPU6050_I2C_MASTER.c ****         }
 102:.\Generated_Source\PSoC4/I2C_MPU6050_I2C_MASTER.c ****         else
 103:.\Generated_Source\PSoC4/I2C_MPU6050_I2C_MASTER.c ****         {
 104:.\Generated_Source\PSoC4/I2C_MPU6050_I2C_MASTER.c ****             /* Unexpected FSM state: exit */
 105:.\Generated_Source\PSoC4/I2C_MPU6050_I2C_MASTER.c ****         }
 106:.\Generated_Source\PSoC4/I2C_MPU6050_I2C_MASTER.c ****     }
 107:.\Generated_Source\PSoC4/I2C_MPU6050_I2C_MASTER.c **** 
 108:.\Generated_Source\PSoC4/I2C_MPU6050_I2C_MASTER.c ****     /* Check if master is ready to start  */
 109:.\Generated_Source\PSoC4/I2C_MPU6050_I2C_MASTER.c ****     if(I2C_MPU6050_I2C_MSTR_NO_ERROR == errStatus) /* No error proceed */
 101              		.loc 1 109 0
 102 005a 7B69     		ldr	r3, [r7, #20]
 103 005c 002B     		cmp	r3, #0
 104 005e 38D1     		bne	.L6
 110:.\Generated_Source\PSoC4/I2C_MPU6050_I2C_MASTER.c ****     {
 111:.\Generated_Source\PSoC4/I2C_MPU6050_I2C_MASTER.c ****     #if (!I2C_MPU6050_CY_SCBIP_V0 && \
 112:.\Generated_Source\PSoC4/I2C_MPU6050_I2C_MASTER.c ****         I2C_MPU6050_I2C_MULTI_MASTER_SLAVE_CONST && I2C_MPU6050_I2C_WAKE_ENABLE_CONST)
 113:.\Generated_Source\PSoC4/I2C_MPU6050_I2C_MASTER.c ****             I2C_MPU6050_I2CMasterDisableEcAm();
 114:.\Generated_Source\PSoC4/I2C_MPU6050_I2C_MASTER.c ****     #endif /* (!I2C_MPU6050_CY_SCBIP_V0) */
 115:.\Generated_Source\PSoC4/I2C_MPU6050_I2C_MASTER.c **** 
 116:.\Generated_Source\PSoC4/I2C_MPU6050_I2C_MASTER.c ****         /* Set up write transaction */
 117:.\Generated_Source\PSoC4/I2C_MPU6050_I2C_MASTER.c ****         I2C_MPU6050_state = I2C_MPU6050_I2C_FSM_MSTR_WR_ADDR;
 105              		.loc 1 117 0
 106 0060 204B     		ldr	r3, .L10
 107 0062 2822     		mov	r2, #40
 108 0064 1A70     		strb	r2, [r3]
 118:.\Generated_Source\PSoC4/I2C_MPU6050_I2C_MASTER.c ****         I2C_MPU6050_mstrWrBufIndexTmp = 0u;
 109              		.loc 1 118 0
 110 0066 224B     		ldr	r3, .L10+12
ARM GAS  C:\Users\CHRIST~1\AppData\Local\Temp\ccTEKiBa.s 			page 5


 111 0068 0022     		mov	r2, #0
 112 006a 1A60     		str	r2, [r3]
 119:.\Generated_Source\PSoC4/I2C_MPU6050_I2C_MASTER.c ****         I2C_MPU6050_mstrWrBufIndex    = 0u;
 113              		.loc 1 119 0
 114 006c 214B     		ldr	r3, .L10+16
 115 006e 0022     		mov	r2, #0
 116 0070 1A60     		str	r2, [r3]
 120:.\Generated_Source\PSoC4/I2C_MPU6050_I2C_MASTER.c ****         I2C_MPU6050_mstrWrBufSize     = cnt;
 117              		.loc 1 120 0
 118 0072 214B     		ldr	r3, .L10+20
 119 0074 7A68     		ldr	r2, [r7, #4]
 120 0076 1A60     		str	r2, [r3]
 121:.\Generated_Source\PSoC4/I2C_MPU6050_I2C_MASTER.c ****         I2C_MPU6050_mstrWrBufPtr      = (volatile uint8 *) wrData;
 121              		.loc 1 121 0
 122 0078 204B     		ldr	r3, .L10+24
 123 007a BA68     		ldr	r2, [r7, #8]
 124 007c 1A60     		str	r2, [r3]
 122:.\Generated_Source\PSoC4/I2C_MPU6050_I2C_MASTER.c ****         I2C_MPU6050_mstrControl       = (uint8) mode;
 125              		.loc 1 122 0
 126 007e 3B68     		ldr	r3, [r7]
 127 0080 DAB2     		uxtb	r2, r3
 128 0082 1F4B     		ldr	r3, .L10+28
 129 0084 1A70     		strb	r2, [r3]
 123:.\Generated_Source\PSoC4/I2C_MPU6050_I2C_MASTER.c **** 
 124:.\Generated_Source\PSoC4/I2C_MPU6050_I2C_MASTER.c ****         slaveAddress = I2C_MPU6050_GET_I2C_8BIT_ADDRESS(slaveAddress);
 130              		.loc 1 124 0
 131 0086 FB68     		ldr	r3, [r7, #12]
 132 0088 5B00     		lsl	r3, r3, #1
 133 008a FF22     		mov	r2, #255
 134 008c 1340     		and	r3, r2
 135 008e FB60     		str	r3, [r7, #12]
 125:.\Generated_Source\PSoC4/I2C_MPU6050_I2C_MASTER.c **** 
 126:.\Generated_Source\PSoC4/I2C_MPU6050_I2C_MASTER.c ****         I2C_MPU6050_mstrStatus &= (uint16) ~I2C_MPU6050_I2C_MSTAT_WR_CMPLT;
 136              		.loc 1 126 0
 137 0090 164B     		ldr	r3, .L10+8
 138 0092 1B88     		ldrh	r3, [r3]
 139 0094 9BB2     		uxth	r3, r3
 140 0096 0222     		mov	r2, #2
 141 0098 9343     		bic	r3, r2
 142 009a 9AB2     		uxth	r2, r3
 143 009c 134B     		ldr	r3, .L10+8
 144 009e 1A80     		strh	r2, [r3]
 127:.\Generated_Source\PSoC4/I2C_MPU6050_I2C_MASTER.c **** 
 128:.\Generated_Source\PSoC4/I2C_MPU6050_I2C_MASTER.c ****         I2C_MPU6050_ClearMasterInterruptSource(I2C_MPU6050_INTR_MASTER_ALL);
 145              		.loc 1 128 0
 146 00a0 184B     		ldr	r3, .L10+32
 147 00a2 194A     		ldr	r2, .L10+36
 148 00a4 1A60     		str	r2, [r3]
 129:.\Generated_Source\PSoC4/I2C_MPU6050_I2C_MASTER.c ****         I2C_MPU6050_ClearTxInterruptSource(I2C_MPU6050_INTR_TX_UNDERFLOW);
 149              		.loc 1 129 0
 150 00a6 194B     		ldr	r3, .L10+40
 151 00a8 4022     		mov	r2, #64
 152 00aa 1A60     		str	r2, [r3]
 130:.\Generated_Source\PSoC4/I2C_MPU6050_I2C_MASTER.c ****         /* The TX and RX FIFO have to be EMPTY */
 131:.\Generated_Source\PSoC4/I2C_MPU6050_I2C_MASTER.c **** 
 132:.\Generated_Source\PSoC4/I2C_MPU6050_I2C_MASTER.c ****         /* Generate Start or ReStart */
 133:.\Generated_Source\PSoC4/I2C_MPU6050_I2C_MASTER.c ****         if(I2C_MPU6050_CHECK_I2C_MODE_RESTART(mode))
ARM GAS  C:\Users\CHRIST~1\AppData\Local\Temp\ccTEKiBa.s 			page 6


 153              		.loc 1 133 0
 154 00ac 3B68     		ldr	r3, [r7]
 155 00ae 0122     		mov	r2, #1
 156 00b0 1340     		and	r3, r2
 157 00b2 05D0     		beq	.L7
 134:.\Generated_Source\PSoC4/I2C_MPU6050_I2C_MASTER.c ****         {
 135:.\Generated_Source\PSoC4/I2C_MPU6050_I2C_MASTER.c ****             I2C_MPU6050_I2C_MASTER_GENERATE_RESTART;
 158              		.loc 1 135 0
 159 00b4 FFF7FEFF 		bl	I2C_MPU6050_I2CReStartGeneration
 136:.\Generated_Source\PSoC4/I2C_MPU6050_I2C_MASTER.c ****             I2C_MPU6050_TX_FIFO_WR_REG = slaveAddress;
 160              		.loc 1 136 0
 161 00b8 154B     		ldr	r3, .L10+44
 162 00ba FA68     		ldr	r2, [r7, #12]
 163 00bc 1A60     		str	r2, [r3]
 164 00be 05E0     		b	.L8
 165              	.L7:
 137:.\Generated_Source\PSoC4/I2C_MPU6050_I2C_MASTER.c ****         }
 138:.\Generated_Source\PSoC4/I2C_MPU6050_I2C_MASTER.c ****         else
 139:.\Generated_Source\PSoC4/I2C_MPU6050_I2C_MASTER.c ****         {
 140:.\Generated_Source\PSoC4/I2C_MPU6050_I2C_MASTER.c ****             I2C_MPU6050_TX_FIFO_WR_REG = slaveAddress;
 166              		.loc 1 140 0
 167 00c0 134B     		ldr	r3, .L10+44
 168 00c2 FA68     		ldr	r2, [r7, #12]
 169 00c4 1A60     		str	r2, [r3]
 141:.\Generated_Source\PSoC4/I2C_MPU6050_I2C_MASTER.c ****             I2C_MPU6050_I2C_MASTER_GENERATE_START;
 170              		.loc 1 141 0
 171 00c6 134B     		ldr	r3, .L10+48
 172 00c8 0222     		mov	r2, #2
 173 00ca 1A60     		str	r2, [r3]
 174              	.L8:
 142:.\Generated_Source\PSoC4/I2C_MPU6050_I2C_MASTER.c ****         }
 143:.\Generated_Source\PSoC4/I2C_MPU6050_I2C_MASTER.c **** 
 144:.\Generated_Source\PSoC4/I2C_MPU6050_I2C_MASTER.c ****          /* Catch when address is sent */
 145:.\Generated_Source\PSoC4/I2C_MPU6050_I2C_MASTER.c ****         I2C_MPU6050_SetTxInterruptMode(I2C_MPU6050_INTR_TX_UNDERFLOW);
 175              		.loc 1 145 0
 176 00cc 124B     		ldr	r3, .L10+52
 177 00ce 4022     		mov	r2, #64
 178 00d0 1A60     		str	r2, [r3]
 179              	.L6:
 146:.\Generated_Source\PSoC4/I2C_MPU6050_I2C_MASTER.c ****     }
 147:.\Generated_Source\PSoC4/I2C_MPU6050_I2C_MASTER.c **** 
 148:.\Generated_Source\PSoC4/I2C_MPU6050_I2C_MASTER.c ****     I2C_MPU6050_EnableInt();   /* Release lock */
 180              		.loc 1 148 0
 181 00d2 0A20     		mov	r0, #10
 182 00d4 FFF7FEFF 		bl	CyIntEnable
 149:.\Generated_Source\PSoC4/I2C_MPU6050_I2C_MASTER.c **** 
 150:.\Generated_Source\PSoC4/I2C_MPU6050_I2C_MASTER.c ****     return(errStatus);
 183              		.loc 1 150 0
 184 00d8 7B69     		ldr	r3, [r7, #20]
 151:.\Generated_Source\PSoC4/I2C_MPU6050_I2C_MASTER.c **** }
 185              		.loc 1 151 0
 186 00da 181C     		mov	r0, r3
 187 00dc BD46     		mov	sp, r7
 188 00de 06B0     		add	sp, sp, #24
 189              		@ sp needed
 190 00e0 80BD     		pop	{r7, pc}
 191              	.L11:
ARM GAS  C:\Users\CHRIST~1\AppData\Local\Temp\ccTEKiBa.s 			page 7


 192 00e2 C046     		.align	2
 193              	.L10:
 194 00e4 00000000 		.word	I2C_MPU6050_state
 195 00e8 64002540 		.word	1076166756
 196 00ec 00000000 		.word	I2C_MPU6050_mstrStatus
 197 00f0 00000000 		.word	I2C_MPU6050_mstrWrBufIndexTmp
 198 00f4 00000000 		.word	I2C_MPU6050_mstrWrBufIndex
 199 00f8 00000000 		.word	I2C_MPU6050_mstrWrBufSize
 200 00fc 00000000 		.word	I2C_MPU6050_mstrWrBufPtr
 201 0100 00000000 		.word	I2C_MPU6050_mstrControl
 202 0104 000F2540 		.word	1076170496
 203 0108 17030000 		.word	791
 204 010c 800F2540 		.word	1076170624
 205 0110 40022540 		.word	1076167232
 206 0114 68002540 		.word	1076166760
 207 0118 880F2540 		.word	1076170632
 208              		.cfi_endproc
 209              	.LFE2:
 210              		.size	I2C_MPU6050_I2CMasterWriteBuf, .-I2C_MPU6050_I2CMasterWriteBuf
 211              		.section	.text.I2C_MPU6050_I2CMasterReadBuf,"ax",%progbits
 212              		.align	2
 213              		.global	I2C_MPU6050_I2CMasterReadBuf
 214              		.code	16
 215              		.thumb_func
 216              		.type	I2C_MPU6050_I2CMasterReadBuf, %function
 217              	I2C_MPU6050_I2CMasterReadBuf:
 218              	.LFB3:
 152:.\Generated_Source\PSoC4/I2C_MPU6050_I2C_MASTER.c **** 
 153:.\Generated_Source\PSoC4/I2C_MPU6050_I2C_MASTER.c **** 
 154:.\Generated_Source\PSoC4/I2C_MPU6050_I2C_MASTER.c **** /*******************************************************************************
 155:.\Generated_Source\PSoC4/I2C_MPU6050_I2C_MASTER.c **** * Function Name: I2C_MPU6050_I2CMasterReadBuf
 156:.\Generated_Source\PSoC4/I2C_MPU6050_I2C_MASTER.c **** ********************************************************************************
 157:.\Generated_Source\PSoC4/I2C_MPU6050_I2C_MASTER.c **** *
 158:.\Generated_Source\PSoC4/I2C_MPU6050_I2C_MASTER.c **** * Summary:
 159:.\Generated_Source\PSoC4/I2C_MPU6050_I2C_MASTER.c **** *  Automatically reads an entire buffer of data from a slave device.
 160:.\Generated_Source\PSoC4/I2C_MPU6050_I2C_MASTER.c **** *  Once the data transfer is initiated by this function, further data transfer
 161:.\Generated_Source\PSoC4/I2C_MPU6050_I2C_MASTER.c **** *  is handled by the included ISR.
 162:.\Generated_Source\PSoC4/I2C_MPU6050_I2C_MASTER.c **** * Enables the I2C interrupt and clears SCB_ I2C_MSTAT_RD_CMPLT status.
 163:.\Generated_Source\PSoC4/I2C_MPU6050_I2C_MASTER.c **** *
 164:.\Generated_Source\PSoC4/I2C_MPU6050_I2C_MASTER.c **** * Parameters:
 165:.\Generated_Source\PSoC4/I2C_MPU6050_I2C_MASTER.c **** *  slaveAddr: 7-bit slave address.
 166:.\Generated_Source\PSoC4/I2C_MPU6050_I2C_MASTER.c **** *  xferData:  Pointer to buffer where to put data from slave.
 167:.\Generated_Source\PSoC4/I2C_MPU6050_I2C_MASTER.c **** *  cnt:       Size of buffer to read.
 168:.\Generated_Source\PSoC4/I2C_MPU6050_I2C_MASTER.c **** *  mode:      Transfer mode defines: start or restart condition generation at
 169:.\Generated_Source\PSoC4/I2C_MPU6050_I2C_MASTER.c **** *             begin of the transfer and complete the transfer or halt before
 170:.\Generated_Source\PSoC4/I2C_MPU6050_I2C_MASTER.c **** *             generating a stop.
 171:.\Generated_Source\PSoC4/I2C_MPU6050_I2C_MASTER.c **** *
 172:.\Generated_Source\PSoC4/I2C_MPU6050_I2C_MASTER.c **** * Return:
 173:.\Generated_Source\PSoC4/I2C_MPU6050_I2C_MASTER.c **** *  Error status.
 174:.\Generated_Source\PSoC4/I2C_MPU6050_I2C_MASTER.c **** *
 175:.\Generated_Source\PSoC4/I2C_MPU6050_I2C_MASTER.c **** * Global variables:
 176:.\Generated_Source\PSoC4/I2C_MPU6050_I2C_MASTER.c **** *  I2C_MPU6050_mstrStatus  - used to store current status of I2C Master.
 177:.\Generated_Source\PSoC4/I2C_MPU6050_I2C_MASTER.c **** *  I2C_MPU6050_state       - used to store current state of software FSM.
 178:.\Generated_Source\PSoC4/I2C_MPU6050_I2C_MASTER.c **** *  I2C_MPU6050_mstrControl - used to control master end of transaction with
 179:.\Generated_Source\PSoC4/I2C_MPU6050_I2C_MASTER.c **** *  or without the Stop generation.
 180:.\Generated_Source\PSoC4/I2C_MPU6050_I2C_MASTER.c **** *  I2C_MPU6050_mstrRdBufPtr - used to store pointer to master write buffer.
 181:.\Generated_Source\PSoC4/I2C_MPU6050_I2C_MASTER.c **** *  I2C_MPU6050_mstrRdBufIndex - used to current index within master write
ARM GAS  C:\Users\CHRIST~1\AppData\Local\Temp\ccTEKiBa.s 			page 8


 182:.\Generated_Source\PSoC4/I2C_MPU6050_I2C_MASTER.c **** *  buffer.
 183:.\Generated_Source\PSoC4/I2C_MPU6050_I2C_MASTER.c **** *  I2C_MPU6050_mstrRdBufSize - used to store master write buffer size.
 184:.\Generated_Source\PSoC4/I2C_MPU6050_I2C_MASTER.c **** *
 185:.\Generated_Source\PSoC4/I2C_MPU6050_I2C_MASTER.c **** *******************************************************************************/
 186:.\Generated_Source\PSoC4/I2C_MPU6050_I2C_MASTER.c **** uint32 I2C_MPU6050_I2CMasterReadBuf(uint32 slaveAddress, uint8 * rdData, uint32 cnt, uint32 mode)
 187:.\Generated_Source\PSoC4/I2C_MPU6050_I2C_MASTER.c **** {
 219              		.loc 1 187 0
 220              		.cfi_startproc
 221 0000 80B5     		push	{r7, lr}
 222              		.cfi_def_cfa_offset 8
 223              		.cfi_offset 7, -8
 224              		.cfi_offset 14, -4
 225 0002 86B0     		sub	sp, sp, #24
 226              		.cfi_def_cfa_offset 32
 227 0004 00AF     		add	r7, sp, #0
 228              		.cfi_def_cfa_register 7
 229 0006 F860     		str	r0, [r7, #12]
 230 0008 B960     		str	r1, [r7, #8]
 231 000a 7A60     		str	r2, [r7, #4]
 232 000c 3B60     		str	r3, [r7]
 188:.\Generated_Source\PSoC4/I2C_MPU6050_I2C_MASTER.c ****     uint32 errStatus;
 189:.\Generated_Source\PSoC4/I2C_MPU6050_I2C_MASTER.c **** 
 190:.\Generated_Source\PSoC4/I2C_MPU6050_I2C_MASTER.c ****     errStatus = I2C_MPU6050_I2C_MSTR_NOT_READY;
 233              		.loc 1 190 0
 234 000e 0423     		mov	r3, #4
 235 0010 7B61     		str	r3, [r7, #20]
 191:.\Generated_Source\PSoC4/I2C_MPU6050_I2C_MASTER.c **** 
 192:.\Generated_Source\PSoC4/I2C_MPU6050_I2C_MASTER.c ****     if(NULL != rdData)
 236              		.loc 1 192 0
 237 0012 BB68     		ldr	r3, [r7, #8]
 238 0014 002B     		cmp	r3, #0
 239 0016 20D0     		beq	.L13
 193:.\Generated_Source\PSoC4/I2C_MPU6050_I2C_MASTER.c ****     {
 194:.\Generated_Source\PSoC4/I2C_MPU6050_I2C_MASTER.c ****         /* Check FSM state and bus before generating Start/ReStart condition */
 195:.\Generated_Source\PSoC4/I2C_MPU6050_I2C_MASTER.c ****         if(I2C_MPU6050_CHECK_I2C_FSM_IDLE)
 240              		.loc 1 195 0
 241 0018 374B     		ldr	r3, .L22
 242 001a 1B78     		ldrb	r3, [r3]
 243 001c DBB2     		uxtb	r3, r3
 244 001e 102B     		cmp	r3, #16
 245 0020 0CD1     		bne	.L14
 196:.\Generated_Source\PSoC4/I2C_MPU6050_I2C_MASTER.c ****         {
 197:.\Generated_Source\PSoC4/I2C_MPU6050_I2C_MASTER.c ****             I2C_MPU6050_DisableInt();  /* Lock from interruption */
 246              		.loc 1 197 0
 247 0022 0A20     		mov	r0, #10
 248 0024 FFF7FEFF 		bl	CyIntDisable
 198:.\Generated_Source\PSoC4/I2C_MPU6050_I2C_MASTER.c **** 
 199:.\Generated_Source\PSoC4/I2C_MPU6050_I2C_MASTER.c ****             /* Check bus state */
 200:.\Generated_Source\PSoC4/I2C_MPU6050_I2C_MASTER.c ****             errStatus = I2C_MPU6050_CHECK_I2C_STATUS(I2C_MPU6050_I2C_STATUS_BUS_BUSY) ?
 249              		.loc 1 200 0
 250 0028 344B     		ldr	r3, .L22+4
 251 002a 1B68     		ldr	r3, [r3]
 252 002c 0122     		mov	r2, #1
 253 002e 1340     		and	r3, r2
 254 0030 01D0     		beq	.L15
 255              		.loc 1 200 0 is_stmt 0 discriminator 1
 256 0032 0823     		mov	r3, #8
ARM GAS  C:\Users\CHRIST~1\AppData\Local\Temp\ccTEKiBa.s 			page 9


 257 0034 00E0     		b	.L16
 258              	.L15:
 259              		.loc 1 200 0 discriminator 2
 260 0036 0023     		mov	r3, #0
 261              	.L16:
 262              		.loc 1 200 0 discriminator 4
 263 0038 7B61     		str	r3, [r7, #20]
 264 003a 0EE0     		b	.L13
 265              	.L14:
 201:.\Generated_Source\PSoC4/I2C_MPU6050_I2C_MASTER.c ****                             I2C_MPU6050_I2C_MSTR_BUS_BUSY : I2C_MPU6050_I2C_MSTR_NO_ERROR;
 202:.\Generated_Source\PSoC4/I2C_MPU6050_I2C_MASTER.c ****         }
 203:.\Generated_Source\PSoC4/I2C_MPU6050_I2C_MASTER.c ****         else if(I2C_MPU6050_CHECK_I2C_FSM_HALT)
 266              		.loc 1 203 0 is_stmt 1
 267 003c 2E4B     		ldr	r3, .L22
 268 003e 1B78     		ldrb	r3, [r3]
 269 0040 DBB2     		uxtb	r3, r3
 270 0042 602B     		cmp	r3, #96
 271 0044 09D1     		bne	.L13
 204:.\Generated_Source\PSoC4/I2C_MPU6050_I2C_MASTER.c ****         {
 205:.\Generated_Source\PSoC4/I2C_MPU6050_I2C_MASTER.c ****             I2C_MPU6050_mstrStatus &= (uint16) ~I2C_MPU6050_I2C_MSTAT_XFER_HALT;
 272              		.loc 1 205 0
 273 0046 2E4B     		ldr	r3, .L22+8
 274 0048 1B88     		ldrh	r3, [r3]
 275 004a 9BB2     		uxth	r3, r3
 276 004c 0822     		mov	r2, #8
 277 004e 9343     		bic	r3, r2
 278 0050 9AB2     		uxth	r2, r3
 279 0052 2B4B     		ldr	r3, .L22+8
 280 0054 1A80     		strh	r2, [r3]
 206:.\Generated_Source\PSoC4/I2C_MPU6050_I2C_MASTER.c ****                               errStatus  =  I2C_MPU6050_I2C_MSTR_NO_ERROR;
 281              		.loc 1 206 0
 282 0056 0023     		mov	r3, #0
 283 0058 7B61     		str	r3, [r7, #20]
 284              	.L13:
 207:.\Generated_Source\PSoC4/I2C_MPU6050_I2C_MASTER.c ****         }
 208:.\Generated_Source\PSoC4/I2C_MPU6050_I2C_MASTER.c ****         else
 209:.\Generated_Source\PSoC4/I2C_MPU6050_I2C_MASTER.c ****         {
 210:.\Generated_Source\PSoC4/I2C_MPU6050_I2C_MASTER.c ****             /* Unexpected FSM state: exit */
 211:.\Generated_Source\PSoC4/I2C_MPU6050_I2C_MASTER.c ****         }
 212:.\Generated_Source\PSoC4/I2C_MPU6050_I2C_MASTER.c ****     }
 213:.\Generated_Source\PSoC4/I2C_MPU6050_I2C_MASTER.c **** 
 214:.\Generated_Source\PSoC4/I2C_MPU6050_I2C_MASTER.c ****     /* Check master ready to proceed */
 215:.\Generated_Source\PSoC4/I2C_MPU6050_I2C_MASTER.c ****     if(I2C_MPU6050_I2C_MSTR_NO_ERROR == errStatus) /* No error proceed */
 285              		.loc 1 215 0
 286 005a 7B69     		ldr	r3, [r7, #20]
 287 005c 002B     		cmp	r3, #0
 288 005e 43D1     		bne	.L17
 216:.\Generated_Source\PSoC4/I2C_MPU6050_I2C_MASTER.c ****     {
 217:.\Generated_Source\PSoC4/I2C_MPU6050_I2C_MASTER.c ****         #if (!I2C_MPU6050_CY_SCBIP_V0 && \
 218:.\Generated_Source\PSoC4/I2C_MPU6050_I2C_MASTER.c ****         I2C_MPU6050_I2C_MULTI_MASTER_SLAVE_CONST && I2C_MPU6050_I2C_WAKE_ENABLE_CONST)
 219:.\Generated_Source\PSoC4/I2C_MPU6050_I2C_MASTER.c ****             I2C_MPU6050_I2CMasterDisableEcAm();
 220:.\Generated_Source\PSoC4/I2C_MPU6050_I2C_MASTER.c ****         #endif /* (!I2C_MPU6050_CY_SCBIP_V0) */
 221:.\Generated_Source\PSoC4/I2C_MPU6050_I2C_MASTER.c **** 
 222:.\Generated_Source\PSoC4/I2C_MPU6050_I2C_MASTER.c ****         /* Set up read transaction */
 223:.\Generated_Source\PSoC4/I2C_MPU6050_I2C_MASTER.c ****         I2C_MPU6050_state = I2C_MPU6050_I2C_FSM_MSTR_RD_ADDR;
 289              		.loc 1 223 0
 290 0060 254B     		ldr	r3, .L22
ARM GAS  C:\Users\CHRIST~1\AppData\Local\Temp\ccTEKiBa.s 			page 10


 291 0062 2922     		mov	r2, #41
 292 0064 1A70     		strb	r2, [r3]
 224:.\Generated_Source\PSoC4/I2C_MPU6050_I2C_MASTER.c ****         I2C_MPU6050_mstrRdBufIndex = 0u;
 293              		.loc 1 224 0
 294 0066 274B     		ldr	r3, .L22+12
 295 0068 0022     		mov	r2, #0
 296 006a 1A60     		str	r2, [r3]
 225:.\Generated_Source\PSoC4/I2C_MPU6050_I2C_MASTER.c ****         I2C_MPU6050_mstrRdBufSize  = cnt;
 297              		.loc 1 225 0
 298 006c 264B     		ldr	r3, .L22+16
 299 006e 7A68     		ldr	r2, [r7, #4]
 300 0070 1A60     		str	r2, [r3]
 226:.\Generated_Source\PSoC4/I2C_MPU6050_I2C_MASTER.c ****         I2C_MPU6050_mstrRdBufPtr   = (volatile uint8 *) rdData;
 301              		.loc 1 226 0
 302 0072 264B     		ldr	r3, .L22+20
 303 0074 BA68     		ldr	r2, [r7, #8]
 304 0076 1A60     		str	r2, [r3]
 227:.\Generated_Source\PSoC4/I2C_MPU6050_I2C_MASTER.c ****         I2C_MPU6050_mstrControl    = (uint8) mode;
 305              		.loc 1 227 0
 306 0078 3B68     		ldr	r3, [r7]
 307 007a DAB2     		uxtb	r2, r3
 308 007c 244B     		ldr	r3, .L22+24
 309 007e 1A70     		strb	r2, [r3]
 228:.\Generated_Source\PSoC4/I2C_MPU6050_I2C_MASTER.c **** 
 229:.\Generated_Source\PSoC4/I2C_MPU6050_I2C_MASTER.c ****         slaveAddress = (I2C_MPU6050_GET_I2C_8BIT_ADDRESS(slaveAddress) | I2C_MPU6050_I2C_READ_FLAG)
 310              		.loc 1 229 0
 311 0080 FB68     		ldr	r3, [r7, #12]
 312 0082 5B00     		lsl	r3, r3, #1
 313 0084 FF22     		mov	r2, #255
 314 0086 1340     		and	r3, r2
 315 0088 0122     		mov	r2, #1
 316 008a 1343     		orr	r3, r2
 317 008c FB60     		str	r3, [r7, #12]
 230:.\Generated_Source\PSoC4/I2C_MPU6050_I2C_MASTER.c **** 
 231:.\Generated_Source\PSoC4/I2C_MPU6050_I2C_MASTER.c ****         I2C_MPU6050_mstrStatus &= (uint16) ~I2C_MPU6050_I2C_MSTAT_RD_CMPLT;
 318              		.loc 1 231 0
 319 008e 1C4B     		ldr	r3, .L22+8
 320 0090 1B88     		ldrh	r3, [r3]
 321 0092 9BB2     		uxth	r3, r3
 322 0094 0122     		mov	r2, #1
 323 0096 9343     		bic	r3, r2
 324 0098 9AB2     		uxth	r2, r3
 325 009a 194B     		ldr	r3, .L22+8
 326 009c 1A80     		strh	r2, [r3]
 232:.\Generated_Source\PSoC4/I2C_MPU6050_I2C_MASTER.c **** 
 233:.\Generated_Source\PSoC4/I2C_MPU6050_I2C_MASTER.c ****         I2C_MPU6050_ClearMasterInterruptSource(I2C_MPU6050_INTR_MASTER_ALL);
 327              		.loc 1 233 0
 328 009e 1D4B     		ldr	r3, .L22+28
 329 00a0 1D4A     		ldr	r2, .L22+32
 330 00a2 1A60     		str	r2, [r3]
 234:.\Generated_Source\PSoC4/I2C_MPU6050_I2C_MASTER.c **** 
 235:.\Generated_Source\PSoC4/I2C_MPU6050_I2C_MASTER.c ****         /* TX and RX FIFO have to be EMPTY */
 236:.\Generated_Source\PSoC4/I2C_MPU6050_I2C_MASTER.c **** 
 237:.\Generated_Source\PSoC4/I2C_MPU6050_I2C_MASTER.c ****         /* Generate Start or ReStart */
 238:.\Generated_Source\PSoC4/I2C_MPU6050_I2C_MASTER.c ****         if(I2C_MPU6050_CHECK_I2C_MODE_RESTART(mode))
 331              		.loc 1 238 0
 332 00a4 3B68     		ldr	r3, [r7]
ARM GAS  C:\Users\CHRIST~1\AppData\Local\Temp\ccTEKiBa.s 			page 11


 333 00a6 0122     		mov	r2, #1
 334 00a8 1340     		and	r3, r2
 335 00aa 05D0     		beq	.L18
 239:.\Generated_Source\PSoC4/I2C_MPU6050_I2C_MASTER.c ****         {
 240:.\Generated_Source\PSoC4/I2C_MPU6050_I2C_MASTER.c ****             I2C_MPU6050_I2C_MASTER_GENERATE_RESTART;
 336              		.loc 1 240 0
 337 00ac FFF7FEFF 		bl	I2C_MPU6050_I2CReStartGeneration
 241:.\Generated_Source\PSoC4/I2C_MPU6050_I2C_MASTER.c ****             I2C_MPU6050_TX_FIFO_WR_REG = (slaveAddress);
 338              		.loc 1 241 0
 339 00b0 1A4B     		ldr	r3, .L22+36
 340 00b2 FA68     		ldr	r2, [r7, #12]
 341 00b4 1A60     		str	r2, [r3]
 342 00b6 05E0     		b	.L19
 343              	.L18:
 242:.\Generated_Source\PSoC4/I2C_MPU6050_I2C_MASTER.c ****         }
 243:.\Generated_Source\PSoC4/I2C_MPU6050_I2C_MASTER.c ****         else
 244:.\Generated_Source\PSoC4/I2C_MPU6050_I2C_MASTER.c ****         {
 245:.\Generated_Source\PSoC4/I2C_MPU6050_I2C_MASTER.c ****             I2C_MPU6050_TX_FIFO_WR_REG = (slaveAddress);
 344              		.loc 1 245 0
 345 00b8 184B     		ldr	r3, .L22+36
 346 00ba FA68     		ldr	r2, [r7, #12]
 347 00bc 1A60     		str	r2, [r3]
 246:.\Generated_Source\PSoC4/I2C_MPU6050_I2C_MASTER.c ****             I2C_MPU6050_I2C_MASTER_GENERATE_START;
 348              		.loc 1 246 0
 349 00be 184B     		ldr	r3, .L22+40
 350 00c0 0222     		mov	r2, #2
 351 00c2 1A60     		str	r2, [r3]
 352              	.L19:
 247:.\Generated_Source\PSoC4/I2C_MPU6050_I2C_MASTER.c ****         }
 248:.\Generated_Source\PSoC4/I2C_MPU6050_I2C_MASTER.c **** 
 249:.\Generated_Source\PSoC4/I2C_MPU6050_I2C_MASTER.c ****         /* Prepare reading */
 250:.\Generated_Source\PSoC4/I2C_MPU6050_I2C_MASTER.c ****         if(I2C_MPU6050_mstrRdBufSize < I2C_MPU6050_I2C_FIFO_SIZE) /* Reading byte-by-byte */
 353              		.loc 1 250 0
 354 00c4 104B     		ldr	r3, .L22+16
 355 00c6 1B68     		ldr	r3, [r3]
 356 00c8 072B     		cmp	r3, #7
 357 00ca 03D8     		bhi	.L20
 251:.\Generated_Source\PSoC4/I2C_MPU6050_I2C_MASTER.c ****         {
 252:.\Generated_Source\PSoC4/I2C_MPU6050_I2C_MASTER.c ****             I2C_MPU6050_SetRxInterruptMode(I2C_MPU6050_INTR_RX_NOT_EMPTY);
 358              		.loc 1 252 0
 359 00cc 154B     		ldr	r3, .L22+44
 360 00ce 0422     		mov	r2, #4
 361 00d0 1A60     		str	r2, [r3]
 362 00d2 09E0     		b	.L17
 363              	.L20:
 253:.\Generated_Source\PSoC4/I2C_MPU6050_I2C_MASTER.c ****         }
 254:.\Generated_Source\PSoC4/I2C_MPU6050_I2C_MASTER.c ****         else /* Receive RX FIFO chunks */
 255:.\Generated_Source\PSoC4/I2C_MPU6050_I2C_MASTER.c ****         {
 256:.\Generated_Source\PSoC4/I2C_MPU6050_I2C_MASTER.c ****             I2C_MPU6050_ENABLE_MASTER_AUTO_DATA_ACK;
 364              		.loc 1 256 0
 365 00d4 144B     		ldr	r3, .L22+48
 366 00d6 144A     		ldr	r2, .L22+48
 367 00d8 1268     		ldr	r2, [r2]
 368 00da 8021     		mov	r1, #128
 369 00dc 4900     		lsl	r1, r1, #1
 370 00de 0A43     		orr	r2, r1
 371 00e0 1A60     		str	r2, [r3]
ARM GAS  C:\Users\CHRIST~1\AppData\Local\Temp\ccTEKiBa.s 			page 12


 257:.\Generated_Source\PSoC4/I2C_MPU6050_I2C_MASTER.c ****             I2C_MPU6050_SetRxInterruptMode(I2C_MPU6050_INTR_RX_FULL);
 372              		.loc 1 257 0
 373 00e2 104B     		ldr	r3, .L22+44
 374 00e4 0822     		mov	r2, #8
 375 00e6 1A60     		str	r2, [r3]
 376              	.L17:
 258:.\Generated_Source\PSoC4/I2C_MPU6050_I2C_MASTER.c ****         }
 259:.\Generated_Source\PSoC4/I2C_MPU6050_I2C_MASTER.c ****     }
 260:.\Generated_Source\PSoC4/I2C_MPU6050_I2C_MASTER.c **** 
 261:.\Generated_Source\PSoC4/I2C_MPU6050_I2C_MASTER.c ****     I2C_MPU6050_EnableInt();   /* Release lock */
 377              		.loc 1 261 0
 378 00e8 0A20     		mov	r0, #10
 379 00ea FFF7FEFF 		bl	CyIntEnable
 262:.\Generated_Source\PSoC4/I2C_MPU6050_I2C_MASTER.c **** 
 263:.\Generated_Source\PSoC4/I2C_MPU6050_I2C_MASTER.c ****     return(errStatus);
 380              		.loc 1 263 0
 381 00ee 7B69     		ldr	r3, [r7, #20]
 264:.\Generated_Source\PSoC4/I2C_MPU6050_I2C_MASTER.c **** }
 382              		.loc 1 264 0
 383 00f0 181C     		mov	r0, r3
 384 00f2 BD46     		mov	sp, r7
 385 00f4 06B0     		add	sp, sp, #24
 386              		@ sp needed
 387 00f6 80BD     		pop	{r7, pc}
 388              	.L23:
 389              		.align	2
 390              	.L22:
 391 00f8 00000000 		.word	I2C_MPU6050_state
 392 00fc 64002540 		.word	1076166756
 393 0100 00000000 		.word	I2C_MPU6050_mstrStatus
 394 0104 00000000 		.word	I2C_MPU6050_mstrRdBufIndex
 395 0108 00000000 		.word	I2C_MPU6050_mstrRdBufSize
 396 010c 00000000 		.word	I2C_MPU6050_mstrRdBufPtr
 397 0110 00000000 		.word	I2C_MPU6050_mstrControl
 398 0114 000F2540 		.word	1076170496
 399 0118 17030000 		.word	791
 400 011c 40022540 		.word	1076167232
 401 0120 68002540 		.word	1076166760
 402 0124 C80F2540 		.word	1076170696
 403 0128 60002540 		.word	1076166752
 404              		.cfi_endproc
 405              	.LFE3:
 406              		.size	I2C_MPU6050_I2CMasterReadBuf, .-I2C_MPU6050_I2CMasterReadBuf
 407              		.section	.text.I2C_MPU6050_I2CMasterSendStart,"ax",%progbits
 408              		.align	2
 409              		.global	I2C_MPU6050_I2CMasterSendStart
 410              		.code	16
 411              		.thumb_func
 412              		.type	I2C_MPU6050_I2CMasterSendStart, %function
 413              	I2C_MPU6050_I2CMasterSendStart:
 414              	.LFB4:
 265:.\Generated_Source\PSoC4/I2C_MPU6050_I2C_MASTER.c **** 
 266:.\Generated_Source\PSoC4/I2C_MPU6050_I2C_MASTER.c **** 
 267:.\Generated_Source\PSoC4/I2C_MPU6050_I2C_MASTER.c **** /*******************************************************************************
 268:.\Generated_Source\PSoC4/I2C_MPU6050_I2C_MASTER.c **** * Function Name: I2C_MPU6050_I2CMasterSendStart
 269:.\Generated_Source\PSoC4/I2C_MPU6050_I2C_MASTER.c **** ********************************************************************************
 270:.\Generated_Source\PSoC4/I2C_MPU6050_I2C_MASTER.c **** *
ARM GAS  C:\Users\CHRIST~1\AppData\Local\Temp\ccTEKiBa.s 			page 13


 271:.\Generated_Source\PSoC4/I2C_MPU6050_I2C_MASTER.c **** * Summary:
 272:.\Generated_Source\PSoC4/I2C_MPU6050_I2C_MASTER.c **** *  Generates Start condition and sends slave address with read/write bit.
 273:.\Generated_Source\PSoC4/I2C_MPU6050_I2C_MASTER.c **** *  Disables the I2C interrupt.
 274:.\Generated_Source\PSoC4/I2C_MPU6050_I2C_MASTER.c **** *  This function is blocking and does not return until start condition and
 275:.\Generated_Source\PSoC4/I2C_MPU6050_I2C_MASTER.c **** *  address byte are sent and ACK/NACK response is received or errors occurred.
 276:.\Generated_Source\PSoC4/I2C_MPU6050_I2C_MASTER.c **** *
 277:.\Generated_Source\PSoC4/I2C_MPU6050_I2C_MASTER.c **** * Parameters:
 278:.\Generated_Source\PSoC4/I2C_MPU6050_I2C_MASTER.c **** *  slaveAddress: Right justified 7-bit Slave address (valid range 8 to 120).
 279:.\Generated_Source\PSoC4/I2C_MPU6050_I2C_MASTER.c **** *  bitRnW:       Direction of the following transfer. It is defined by
 280:.\Generated_Source\PSoC4/I2C_MPU6050_I2C_MASTER.c **** *                read/write bit within address byte.
 281:.\Generated_Source\PSoC4/I2C_MPU6050_I2C_MASTER.c **** *
 282:.\Generated_Source\PSoC4/I2C_MPU6050_I2C_MASTER.c **** * Return:
 283:.\Generated_Source\PSoC4/I2C_MPU6050_I2C_MASTER.c **** *  Erorr status.
 284:.\Generated_Source\PSoC4/I2C_MPU6050_I2C_MASTER.c **** *
 285:.\Generated_Source\PSoC4/I2C_MPU6050_I2C_MASTER.c **** * Global variables:
 286:.\Generated_Source\PSoC4/I2C_MPU6050_I2C_MASTER.c **** *  I2C_MPU6050_state - used to store current state of software FSM.
 287:.\Generated_Source\PSoC4/I2C_MPU6050_I2C_MASTER.c **** *
 288:.\Generated_Source\PSoC4/I2C_MPU6050_I2C_MASTER.c **** *******************************************************************************/
 289:.\Generated_Source\PSoC4/I2C_MPU6050_I2C_MASTER.c **** uint32 I2C_MPU6050_I2CMasterSendStart(uint32 slaveAddress, uint32 bitRnW)
 290:.\Generated_Source\PSoC4/I2C_MPU6050_I2C_MASTER.c **** {
 415              		.loc 1 290 0
 416              		.cfi_startproc
 417 0000 80B5     		push	{r7, lr}
 418              		.cfi_def_cfa_offset 8
 419              		.cfi_offset 7, -8
 420              		.cfi_offset 14, -4
 421 0002 84B0     		sub	sp, sp, #16
 422              		.cfi_def_cfa_offset 24
 423 0004 00AF     		add	r7, sp, #0
 424              		.cfi_def_cfa_register 7
 425 0006 7860     		str	r0, [r7, #4]
 426 0008 3960     		str	r1, [r7]
 291:.\Generated_Source\PSoC4/I2C_MPU6050_I2C_MASTER.c ****     uint32  resetIp;
 292:.\Generated_Source\PSoC4/I2C_MPU6050_I2C_MASTER.c ****     uint32 errStatus;
 293:.\Generated_Source\PSoC4/I2C_MPU6050_I2C_MASTER.c **** 
 294:.\Generated_Source\PSoC4/I2C_MPU6050_I2C_MASTER.c ****     resetIp   = 0u;
 427              		.loc 1 294 0
 428 000a 0023     		mov	r3, #0
 429 000c FB60     		str	r3, [r7, #12]
 295:.\Generated_Source\PSoC4/I2C_MPU6050_I2C_MASTER.c ****     errStatus = I2C_MPU6050_I2C_MSTR_NOT_READY;
 430              		.loc 1 295 0
 431 000e 0423     		mov	r3, #4
 432 0010 BB60     		str	r3, [r7, #8]
 296:.\Generated_Source\PSoC4/I2C_MPU6050_I2C_MASTER.c **** 
 297:.\Generated_Source\PSoC4/I2C_MPU6050_I2C_MASTER.c ****     /* Check FSM state before generating Start condition */
 298:.\Generated_Source\PSoC4/I2C_MPU6050_I2C_MASTER.c ****     if(I2C_MPU6050_CHECK_I2C_FSM_IDLE)
 433              		.loc 1 298 0
 434 0012 384B     		ldr	r3, .L35
 435 0014 1B78     		ldrb	r3, [r3]
 436 0016 DBB2     		uxtb	r3, r3
 437 0018 102B     		cmp	r3, #16
 438 001a 66D1     		bne	.L25
 299:.\Generated_Source\PSoC4/I2C_MPU6050_I2C_MASTER.c ****     {
 300:.\Generated_Source\PSoC4/I2C_MPU6050_I2C_MASTER.c ****         /* If bus is free, generate Start condition */
 301:.\Generated_Source\PSoC4/I2C_MPU6050_I2C_MASTER.c ****         if(I2C_MPU6050_CHECK_I2C_STATUS(I2C_MPU6050_I2C_STATUS_BUS_BUSY))
 439              		.loc 1 301 0
 440 001c 364B     		ldr	r3, .L35+4
ARM GAS  C:\Users\CHRIST~1\AppData\Local\Temp\ccTEKiBa.s 			page 14


 441 001e 1B68     		ldr	r3, [r3]
 442 0020 0122     		mov	r2, #1
 443 0022 1340     		and	r3, r2
 444 0024 02D0     		beq	.L26
 302:.\Generated_Source\PSoC4/I2C_MPU6050_I2C_MASTER.c ****         {
 303:.\Generated_Source\PSoC4/I2C_MPU6050_I2C_MASTER.c ****             errStatus = I2C_MPU6050_I2C_MSTR_BUS_BUSY;
 445              		.loc 1 303 0
 446 0026 0823     		mov	r3, #8
 447 0028 BB60     		str	r3, [r7, #8]
 448 002a 5EE0     		b	.L25
 449              	.L26:
 304:.\Generated_Source\PSoC4/I2C_MPU6050_I2C_MASTER.c ****         }
 305:.\Generated_Source\PSoC4/I2C_MPU6050_I2C_MASTER.c ****         else
 306:.\Generated_Source\PSoC4/I2C_MPU6050_I2C_MASTER.c ****         {
 307:.\Generated_Source\PSoC4/I2C_MPU6050_I2C_MASTER.c ****             I2C_MPU6050_DisableInt();  /* Lock from interruption */
 450              		.loc 1 307 0
 451 002c 0A20     		mov	r0, #10
 452 002e FFF7FEFF 		bl	CyIntDisable
 308:.\Generated_Source\PSoC4/I2C_MPU6050_I2C_MASTER.c **** 
 309:.\Generated_Source\PSoC4/I2C_MPU6050_I2C_MASTER.c ****         #if (!I2C_MPU6050_CY_SCBIP_V0 && \
 310:.\Generated_Source\PSoC4/I2C_MPU6050_I2C_MASTER.c ****             I2C_MPU6050_I2C_MULTI_MASTER_SLAVE_CONST && I2C_MPU6050_I2C_WAKE_ENABLE_CONST)
 311:.\Generated_Source\PSoC4/I2C_MPU6050_I2C_MASTER.c ****             I2C_MPU6050_I2CMasterDisableEcAm();
 312:.\Generated_Source\PSoC4/I2C_MPU6050_I2C_MASTER.c ****         #endif /* (!I2C_MPU6050_CY_SCBIP_V0) */
 313:.\Generated_Source\PSoC4/I2C_MPU6050_I2C_MASTER.c **** 
 314:.\Generated_Source\PSoC4/I2C_MPU6050_I2C_MASTER.c ****             slaveAddress = I2C_MPU6050_GET_I2C_8BIT_ADDRESS(slaveAddress);
 453              		.loc 1 314 0
 454 0032 7B68     		ldr	r3, [r7, #4]
 455 0034 5B00     		lsl	r3, r3, #1
 456 0036 FF22     		mov	r2, #255
 457 0038 1340     		and	r3, r2
 458 003a 7B60     		str	r3, [r7, #4]
 315:.\Generated_Source\PSoC4/I2C_MPU6050_I2C_MASTER.c **** 
 316:.\Generated_Source\PSoC4/I2C_MPU6050_I2C_MASTER.c ****             if(0u == bitRnW) /* Write direction */
 459              		.loc 1 316 0
 460 003c 3B68     		ldr	r3, [r7]
 461 003e 002B     		cmp	r3, #0
 462 0040 03D1     		bne	.L27
 317:.\Generated_Source\PSoC4/I2C_MPU6050_I2C_MASTER.c ****             {
 318:.\Generated_Source\PSoC4/I2C_MPU6050_I2C_MASTER.c ****                 I2C_MPU6050_state = I2C_MPU6050_I2C_FSM_MSTR_WR_DATA;
 463              		.loc 1 318 0
 464 0042 2C4B     		ldr	r3, .L35
 465 0044 2422     		mov	r2, #36
 466 0046 1A70     		strb	r2, [r3]
 467 0048 06E0     		b	.L28
 468              	.L27:
 319:.\Generated_Source\PSoC4/I2C_MPU6050_I2C_MASTER.c ****             }
 320:.\Generated_Source\PSoC4/I2C_MPU6050_I2C_MASTER.c ****             else /* Read direction */
 321:.\Generated_Source\PSoC4/I2C_MPU6050_I2C_MASTER.c ****             {
 322:.\Generated_Source\PSoC4/I2C_MPU6050_I2C_MASTER.c ****                 I2C_MPU6050_state = I2C_MPU6050_I2C_FSM_MSTR_RD_DATA;
 469              		.loc 1 322 0
 470 004a 2A4B     		ldr	r3, .L35
 471 004c 2522     		mov	r2, #37
 472 004e 1A70     		strb	r2, [r3]
 323:.\Generated_Source\PSoC4/I2C_MPU6050_I2C_MASTER.c ****                          slaveAddress |= I2C_MPU6050_I2C_READ_FLAG;
 473              		.loc 1 323 0
 474 0050 7B68     		ldr	r3, [r7, #4]
 475 0052 0122     		mov	r2, #1
ARM GAS  C:\Users\CHRIST~1\AppData\Local\Temp\ccTEKiBa.s 			page 15


 476 0054 1343     		orr	r3, r2
 477 0056 7B60     		str	r3, [r7, #4]
 478              	.L28:
 324:.\Generated_Source\PSoC4/I2C_MPU6050_I2C_MASTER.c ****             }
 325:.\Generated_Source\PSoC4/I2C_MPU6050_I2C_MASTER.c **** 
 326:.\Generated_Source\PSoC4/I2C_MPU6050_I2C_MASTER.c ****             /* TX and RX FIFO have to be EMPTY */
 327:.\Generated_Source\PSoC4/I2C_MPU6050_I2C_MASTER.c **** 
 328:.\Generated_Source\PSoC4/I2C_MPU6050_I2C_MASTER.c ****             I2C_MPU6050_TX_FIFO_WR_REG = slaveAddress; /* Put address in TX FIFO */
 479              		.loc 1 328 0
 480 0058 284B     		ldr	r3, .L35+8
 481 005a 7A68     		ldr	r2, [r7, #4]
 482 005c 1A60     		str	r2, [r3]
 329:.\Generated_Source\PSoC4/I2C_MPU6050_I2C_MASTER.c ****             I2C_MPU6050_ClearMasterInterruptSource(I2C_MPU6050_INTR_MASTER_ALL);
 483              		.loc 1 329 0
 484 005e 284B     		ldr	r3, .L35+12
 485 0060 284A     		ldr	r2, .L35+16
 486 0062 1A60     		str	r2, [r3]
 330:.\Generated_Source\PSoC4/I2C_MPU6050_I2C_MASTER.c **** 
 331:.\Generated_Source\PSoC4/I2C_MPU6050_I2C_MASTER.c ****             I2C_MPU6050_I2C_MASTER_GENERATE_START;
 487              		.loc 1 331 0
 488 0064 284B     		ldr	r3, .L35+20
 489 0066 0222     		mov	r2, #2
 490 0068 1A60     		str	r2, [r3]
 332:.\Generated_Source\PSoC4/I2C_MPU6050_I2C_MASTER.c **** 
 333:.\Generated_Source\PSoC4/I2C_MPU6050_I2C_MASTER.c **** 
 334:.\Generated_Source\PSoC4/I2C_MPU6050_I2C_MASTER.c ****             while(!I2C_MPU6050_CHECK_INTR_MASTER(I2C_MPU6050_INTR_MASTER_I2C_ACK      |
 491              		.loc 1 334 0
 492 006a C046     		mov	r8, r8
 493              	.L29:
 494              		.loc 1 334 0 is_stmt 0 discriminator 1
 495 006c 244B     		ldr	r3, .L35+12
 496 006e 1A68     		ldr	r2, [r3]
 497 0070 0823     		mov	r3, #8
 498 0072 FF33     		add	r3, r3, #255
 499 0074 1340     		and	r3, r2
 500 0076 F9D0     		beq	.L29
 335:.\Generated_Source\PSoC4/I2C_MPU6050_I2C_MASTER.c ****                                                       I2C_MPU6050_INTR_MASTER_I2C_NACK     |
 336:.\Generated_Source\PSoC4/I2C_MPU6050_I2C_MASTER.c ****                                                       I2C_MPU6050_INTR_MASTER_I2C_ARB_LOST |
 337:.\Generated_Source\PSoC4/I2C_MPU6050_I2C_MASTER.c ****                                                       I2C_MPU6050_INTR_MASTER_I2C_BUS_ERROR))
 338:.\Generated_Source\PSoC4/I2C_MPU6050_I2C_MASTER.c ****             {
 339:.\Generated_Source\PSoC4/I2C_MPU6050_I2C_MASTER.c ****                 /*
 340:.\Generated_Source\PSoC4/I2C_MPU6050_I2C_MASTER.c ****                 * Write: wait until address has been transferred
 341:.\Generated_Source\PSoC4/I2C_MPU6050_I2C_MASTER.c ****                 * Read : wait until address has been transferred, data byte is going to RX FIFO as 
 342:.\Generated_Source\PSoC4/I2C_MPU6050_I2C_MASTER.c ****                 */
 343:.\Generated_Source\PSoC4/I2C_MPU6050_I2C_MASTER.c ****             }
 344:.\Generated_Source\PSoC4/I2C_MPU6050_I2C_MASTER.c **** 
 345:.\Generated_Source\PSoC4/I2C_MPU6050_I2C_MASTER.c ****             /* Check the results of the address phase */
 346:.\Generated_Source\PSoC4/I2C_MPU6050_I2C_MASTER.c ****             if(I2C_MPU6050_CHECK_INTR_MASTER(I2C_MPU6050_INTR_MASTER_I2C_ACK))
 501              		.loc 1 346 0 is_stmt 1
 502 0078 214B     		ldr	r3, .L35+12
 503 007a 1B68     		ldr	r3, [r3]
 504 007c 0422     		mov	r2, #4
 505 007e 1340     		and	r3, r2
 506 0080 02D0     		beq	.L30
 347:.\Generated_Source\PSoC4/I2C_MPU6050_I2C_MASTER.c ****             {
 348:.\Generated_Source\PSoC4/I2C_MPU6050_I2C_MASTER.c ****                 errStatus = I2C_MPU6050_I2C_MSTR_NO_ERROR;
 507              		.loc 1 348 0
ARM GAS  C:\Users\CHRIST~1\AppData\Local\Temp\ccTEKiBa.s 			page 16


 508 0082 0023     		mov	r3, #0
 509 0084 BB60     		str	r3, [r7, #8]
 510 0086 1CE0     		b	.L31
 511              	.L30:
 349:.\Generated_Source\PSoC4/I2C_MPU6050_I2C_MASTER.c ****             }
 350:.\Generated_Source\PSoC4/I2C_MPU6050_I2C_MASTER.c ****             else if(I2C_MPU6050_CHECK_INTR_MASTER(I2C_MPU6050_INTR_MASTER_I2C_NACK))
 512              		.loc 1 350 0
 513 0088 1D4B     		ldr	r3, .L35+12
 514 008a 1B68     		ldr	r3, [r3]
 515 008c 0222     		mov	r2, #2
 516 008e 1340     		and	r3, r2
 517 0090 02D0     		beq	.L32
 351:.\Generated_Source\PSoC4/I2C_MPU6050_I2C_MASTER.c ****             {
 352:.\Generated_Source\PSoC4/I2C_MPU6050_I2C_MASTER.c ****                 errStatus = I2C_MPU6050_I2C_MSTR_ERR_LB_NAK;
 518              		.loc 1 352 0
 519 0092 0223     		mov	r3, #2
 520 0094 BB60     		str	r3, [r7, #8]
 521 0096 14E0     		b	.L31
 522              	.L32:
 353:.\Generated_Source\PSoC4/I2C_MPU6050_I2C_MASTER.c ****             }
 354:.\Generated_Source\PSoC4/I2C_MPU6050_I2C_MASTER.c ****             else if(I2C_MPU6050_CHECK_INTR_MASTER(I2C_MPU6050_INTR_MASTER_I2C_ARB_LOST))
 523              		.loc 1 354 0
 524 0098 194B     		ldr	r3, .L35+12
 525 009a 1B68     		ldr	r3, [r3]
 526 009c 0122     		mov	r2, #1
 527 009e 1340     		and	r3, r2
 528 00a0 07D0     		beq	.L33
 355:.\Generated_Source\PSoC4/I2C_MPU6050_I2C_MASTER.c ****             {
 356:.\Generated_Source\PSoC4/I2C_MPU6050_I2C_MASTER.c ****                 I2C_MPU6050_state = I2C_MPU6050_I2C_FSM_IDLE;
 529              		.loc 1 356 0
 530 00a2 144B     		ldr	r3, .L35
 531 00a4 1022     		mov	r2, #16
 532 00a6 1A70     		strb	r2, [r3]
 357:.\Generated_Source\PSoC4/I2C_MPU6050_I2C_MASTER.c ****                              errStatus = I2C_MPU6050_I2C_MSTR_ERR_ARB_LOST;
 533              		.loc 1 357 0
 534 00a8 0123     		mov	r3, #1
 535 00aa BB60     		str	r3, [r7, #8]
 358:.\Generated_Source\PSoC4/I2C_MPU6050_I2C_MASTER.c ****                              resetIp   = I2C_MPU6050_I2C_RESET_ERROR;
 536              		.loc 1 358 0
 537 00ac 0123     		mov	r3, #1
 538 00ae FB60     		str	r3, [r7, #12]
 539 00b0 07E0     		b	.L31
 540              	.L33:
 359:.\Generated_Source\PSoC4/I2C_MPU6050_I2C_MASTER.c ****             }
 360:.\Generated_Source\PSoC4/I2C_MPU6050_I2C_MASTER.c ****             else /* I2C_MPU6050_INTR_MASTER_I2C_BUS_ERROR set is else condition */
 361:.\Generated_Source\PSoC4/I2C_MPU6050_I2C_MASTER.c ****             {
 362:.\Generated_Source\PSoC4/I2C_MPU6050_I2C_MASTER.c ****                 I2C_MPU6050_state = I2C_MPU6050_I2C_FSM_IDLE;
 541              		.loc 1 362 0
 542 00b2 104B     		ldr	r3, .L35
 543 00b4 1022     		mov	r2, #16
 544 00b6 1A70     		strb	r2, [r3]
 363:.\Generated_Source\PSoC4/I2C_MPU6050_I2C_MASTER.c ****                              errStatus = I2C_MPU6050_I2C_MSTR_ERR_BUS_ERR;
 545              		.loc 1 363 0
 546 00b8 8023     		mov	r3, #128
 547 00ba 5B00     		lsl	r3, r3, #1
 548 00bc BB60     		str	r3, [r7, #8]
 364:.\Generated_Source\PSoC4/I2C_MPU6050_I2C_MASTER.c ****                              resetIp   = I2C_MPU6050_I2C_RESET_ERROR;
ARM GAS  C:\Users\CHRIST~1\AppData\Local\Temp\ccTEKiBa.s 			page 17


 549              		.loc 1 364 0
 550 00be 0123     		mov	r3, #1
 551 00c0 FB60     		str	r3, [r7, #12]
 552              	.L31:
 365:.\Generated_Source\PSoC4/I2C_MPU6050_I2C_MASTER.c ****             }
 366:.\Generated_Source\PSoC4/I2C_MPU6050_I2C_MASTER.c **** 
 367:.\Generated_Source\PSoC4/I2C_MPU6050_I2C_MASTER.c ****             I2C_MPU6050_ClearMasterInterruptSource(I2C_MPU6050_INTR_MASTER_I2C_ACK      |
 553              		.loc 1 367 0
 554 00c2 0F4B     		ldr	r3, .L35+12
 555 00c4 0822     		mov	r2, #8
 556 00c6 FF32     		add	r2, r2, #255
 557 00c8 1A60     		str	r2, [r3]
 368:.\Generated_Source\PSoC4/I2C_MPU6050_I2C_MASTER.c ****                                                         I2C_MPU6050_INTR_MASTER_I2C_NACK     |
 369:.\Generated_Source\PSoC4/I2C_MPU6050_I2C_MASTER.c ****                                                         I2C_MPU6050_INTR_MASTER_I2C_ARB_LOST |
 370:.\Generated_Source\PSoC4/I2C_MPU6050_I2C_MASTER.c ****                                                         I2C_MPU6050_INTR_MASTER_I2C_BUS_ERROR);
 371:.\Generated_Source\PSoC4/I2C_MPU6050_I2C_MASTER.c **** 
 372:.\Generated_Source\PSoC4/I2C_MPU6050_I2C_MASTER.c ****             /* Reset block in case of: LOST_ARB or BUS_ERR */
 373:.\Generated_Source\PSoC4/I2C_MPU6050_I2C_MASTER.c ****             if(0u != resetIp)
 558              		.loc 1 373 0
 559 00ca FB68     		ldr	r3, [r7, #12]
 560 00cc 002B     		cmp	r3, #0
 561 00ce 0CD0     		beq	.L25
 374:.\Generated_Source\PSoC4/I2C_MPU6050_I2C_MASTER.c ****             {
 375:.\Generated_Source\PSoC4/I2C_MPU6050_I2C_MASTER.c ****                 I2C_MPU6050_SCB_SW_RESET;
 562              		.loc 1 375 0
 563 00d0 0E4B     		ldr	r3, .L35+24
 564 00d2 0E4A     		ldr	r2, .L35+24
 565 00d4 1268     		ldr	r2, [r2]
 566 00d6 5200     		lsl	r2, r2, #1
 567 00d8 5208     		lsr	r2, r2, #1
 568 00da 1A60     		str	r2, [r3]
 569 00dc 0B4B     		ldr	r3, .L35+24
 570 00de 0B4A     		ldr	r2, .L35+24
 571 00e0 1268     		ldr	r2, [r2]
 572 00e2 8021     		mov	r1, #128
 573 00e4 0906     		lsl	r1, r1, #24
 574 00e6 0A43     		orr	r2, r1
 575 00e8 1A60     		str	r2, [r3]
 576              	.L25:
 376:.\Generated_Source\PSoC4/I2C_MPU6050_I2C_MASTER.c ****             }
 377:.\Generated_Source\PSoC4/I2C_MPU6050_I2C_MASTER.c ****         }
 378:.\Generated_Source\PSoC4/I2C_MPU6050_I2C_MASTER.c ****     }
 379:.\Generated_Source\PSoC4/I2C_MPU6050_I2C_MASTER.c **** 
 380:.\Generated_Source\PSoC4/I2C_MPU6050_I2C_MASTER.c ****     return(errStatus);
 577              		.loc 1 380 0
 578 00ea BB68     		ldr	r3, [r7, #8]
 381:.\Generated_Source\PSoC4/I2C_MPU6050_I2C_MASTER.c **** }
 579              		.loc 1 381 0
 580 00ec 181C     		mov	r0, r3
 581 00ee BD46     		mov	sp, r7
 582 00f0 04B0     		add	sp, sp, #16
 583              		@ sp needed
 584 00f2 80BD     		pop	{r7, pc}
 585              	.L36:
 586              		.align	2
 587              	.L35:
 588 00f4 00000000 		.word	I2C_MPU6050_state
ARM GAS  C:\Users\CHRIST~1\AppData\Local\Temp\ccTEKiBa.s 			page 18


 589 00f8 64002540 		.word	1076166756
 590 00fc 40022540 		.word	1076167232
 591 0100 000F2540 		.word	1076170496
 592 0104 17030000 		.word	791
 593 0108 68002540 		.word	1076166760
 594 010c 00002540 		.word	1076166656
 595              		.cfi_endproc
 596              	.LFE4:
 597              		.size	I2C_MPU6050_I2CMasterSendStart, .-I2C_MPU6050_I2CMasterSendStart
 598              		.section	.text.I2C_MPU6050_I2CMasterSendRestart,"ax",%progbits
 599              		.align	2
 600              		.global	I2C_MPU6050_I2CMasterSendRestart
 601              		.code	16
 602              		.thumb_func
 603              		.type	I2C_MPU6050_I2CMasterSendRestart, %function
 604              	I2C_MPU6050_I2CMasterSendRestart:
 605              	.LFB5:
 382:.\Generated_Source\PSoC4/I2C_MPU6050_I2C_MASTER.c **** 
 383:.\Generated_Source\PSoC4/I2C_MPU6050_I2C_MASTER.c **** 
 384:.\Generated_Source\PSoC4/I2C_MPU6050_I2C_MASTER.c **** /*******************************************************************************
 385:.\Generated_Source\PSoC4/I2C_MPU6050_I2C_MASTER.c **** * Function Name: I2C_MPU6050_I2CMasterSendRestart
 386:.\Generated_Source\PSoC4/I2C_MPU6050_I2C_MASTER.c **** ********************************************************************************
 387:.\Generated_Source\PSoC4/I2C_MPU6050_I2C_MASTER.c **** *
 388:.\Generated_Source\PSoC4/I2C_MPU6050_I2C_MASTER.c **** * Summary:
 389:.\Generated_Source\PSoC4/I2C_MPU6050_I2C_MASTER.c **** *  Generates Restart condition and sends slave address with read/write bit.
 390:.\Generated_Source\PSoC4/I2C_MPU6050_I2C_MASTER.c **** *  This function is blocking and does not return until start condition and
 391:.\Generated_Source\PSoC4/I2C_MPU6050_I2C_MASTER.c **** *  address are sent and ACK/NACK response is received or errors occurred.
 392:.\Generated_Source\PSoC4/I2C_MPU6050_I2C_MASTER.c **** *
 393:.\Generated_Source\PSoC4/I2C_MPU6050_I2C_MASTER.c **** * Parameters:
 394:.\Generated_Source\PSoC4/I2C_MPU6050_I2C_MASTER.c **** *  slaveAddress: Right justified 7-bit Slave address (valid range 8 to 120).
 395:.\Generated_Source\PSoC4/I2C_MPU6050_I2C_MASTER.c **** *  bitRnW:       Direction of the following transfer. It is defined by
 396:.\Generated_Source\PSoC4/I2C_MPU6050_I2C_MASTER.c **** *                read/write bit within address byte.
 397:.\Generated_Source\PSoC4/I2C_MPU6050_I2C_MASTER.c **** *
 398:.\Generated_Source\PSoC4/I2C_MPU6050_I2C_MASTER.c **** * Return:
 399:.\Generated_Source\PSoC4/I2C_MPU6050_I2C_MASTER.c **** *  Error status
 400:.\Generated_Source\PSoC4/I2C_MPU6050_I2C_MASTER.c **** *
 401:.\Generated_Source\PSoC4/I2C_MPU6050_I2C_MASTER.c **** *
 402:.\Generated_Source\PSoC4/I2C_MPU6050_I2C_MASTER.c **** * Global variables:
 403:.\Generated_Source\PSoC4/I2C_MPU6050_I2C_MASTER.c **** *  I2C_MPU6050_state - used to store current state of software FSM.
 404:.\Generated_Source\PSoC4/I2C_MPU6050_I2C_MASTER.c **** *
 405:.\Generated_Source\PSoC4/I2C_MPU6050_I2C_MASTER.c **** *******************************************************************************/
 406:.\Generated_Source\PSoC4/I2C_MPU6050_I2C_MASTER.c **** uint32 I2C_MPU6050_I2CMasterSendRestart(uint32 slaveAddress, uint32 bitRnW)
 407:.\Generated_Source\PSoC4/I2C_MPU6050_I2C_MASTER.c **** {
 606              		.loc 1 407 0
 607              		.cfi_startproc
 608 0000 80B5     		push	{r7, lr}
 609              		.cfi_def_cfa_offset 8
 610              		.cfi_offset 7, -8
 611              		.cfi_offset 14, -4
 612 0002 84B0     		sub	sp, sp, #16
 613              		.cfi_def_cfa_offset 24
 614 0004 00AF     		add	r7, sp, #0
 615              		.cfi_def_cfa_register 7
 616 0006 7860     		str	r0, [r7, #4]
 617 0008 3960     		str	r1, [r7]
 408:.\Generated_Source\PSoC4/I2C_MPU6050_I2C_MASTER.c ****     uint32 resetIp;
 409:.\Generated_Source\PSoC4/I2C_MPU6050_I2C_MASTER.c ****     uint32 errStatus;
ARM GAS  C:\Users\CHRIST~1\AppData\Local\Temp\ccTEKiBa.s 			page 19


 410:.\Generated_Source\PSoC4/I2C_MPU6050_I2C_MASTER.c **** 
 411:.\Generated_Source\PSoC4/I2C_MPU6050_I2C_MASTER.c ****     resetIp   = 0u;
 618              		.loc 1 411 0
 619 000a 0023     		mov	r3, #0
 620 000c FB60     		str	r3, [r7, #12]
 412:.\Generated_Source\PSoC4/I2C_MPU6050_I2C_MASTER.c ****     errStatus = I2C_MPU6050_I2C_MSTR_NOT_READY;
 621              		.loc 1 412 0
 622 000e 0423     		mov	r3, #4
 623 0010 BB60     		str	r3, [r7, #8]
 413:.\Generated_Source\PSoC4/I2C_MPU6050_I2C_MASTER.c **** 
 414:.\Generated_Source\PSoC4/I2C_MPU6050_I2C_MASTER.c ****     /* Check FSM state before generating ReStart condition */
 415:.\Generated_Source\PSoC4/I2C_MPU6050_I2C_MASTER.c ****     if(I2C_MPU6050_CHECK_I2C_MASTER_ACTIVE)
 624              		.loc 1 415 0
 625 0012 374B     		ldr	r3, .L48
 626 0014 1B78     		ldrb	r3, [r3]
 627 0016 DBB2     		uxtb	r3, r3
 628 0018 2022     		mov	r2, #32
 629 001a 1340     		and	r3, r2
 630 001c DBB2     		uxtb	r3, r3
 631 001e 002B     		cmp	r3, #0
 632 0020 60D0     		beq	.L38
 416:.\Generated_Source\PSoC4/I2C_MPU6050_I2C_MASTER.c ****     {
 417:.\Generated_Source\PSoC4/I2C_MPU6050_I2C_MASTER.c ****         slaveAddress = I2C_MPU6050_GET_I2C_8BIT_ADDRESS(slaveAddress);
 633              		.loc 1 417 0
 634 0022 7B68     		ldr	r3, [r7, #4]
 635 0024 5B00     		lsl	r3, r3, #1
 636 0026 FF22     		mov	r2, #255
 637 0028 1340     		and	r3, r2
 638 002a 7B60     		str	r3, [r7, #4]
 418:.\Generated_Source\PSoC4/I2C_MPU6050_I2C_MASTER.c **** 
 419:.\Generated_Source\PSoC4/I2C_MPU6050_I2C_MASTER.c ****         if(0u == bitRnW) /* Write direction */
 639              		.loc 1 419 0
 640 002c 3B68     		ldr	r3, [r7]
 641 002e 002B     		cmp	r3, #0
 642 0030 03D1     		bne	.L39
 420:.\Generated_Source\PSoC4/I2C_MPU6050_I2C_MASTER.c ****         {
 421:.\Generated_Source\PSoC4/I2C_MPU6050_I2C_MASTER.c ****             I2C_MPU6050_state = I2C_MPU6050_I2C_FSM_MSTR_WR_DATA;
 643              		.loc 1 421 0
 644 0032 2F4B     		ldr	r3, .L48
 645 0034 2422     		mov	r2, #36
 646 0036 1A70     		strb	r2, [r3]
 647 0038 06E0     		b	.L40
 648              	.L39:
 422:.\Generated_Source\PSoC4/I2C_MPU6050_I2C_MASTER.c ****         }
 423:.\Generated_Source\PSoC4/I2C_MPU6050_I2C_MASTER.c ****         else  /* Read direction */
 424:.\Generated_Source\PSoC4/I2C_MPU6050_I2C_MASTER.c ****         {
 425:.\Generated_Source\PSoC4/I2C_MPU6050_I2C_MASTER.c ****             I2C_MPU6050_state  = I2C_MPU6050_I2C_FSM_MSTR_RD_DATA;
 649              		.loc 1 425 0
 650 003a 2D4B     		ldr	r3, .L48
 651 003c 2522     		mov	r2, #37
 652 003e 1A70     		strb	r2, [r3]
 426:.\Generated_Source\PSoC4/I2C_MPU6050_I2C_MASTER.c ****                       slaveAddress |= I2C_MPU6050_I2C_READ_FLAG;
 653              		.loc 1 426 0
 654 0040 7B68     		ldr	r3, [r7, #4]
 655 0042 0122     		mov	r2, #1
 656 0044 1343     		orr	r3, r2
 657 0046 7B60     		str	r3, [r7, #4]
ARM GAS  C:\Users\CHRIST~1\AppData\Local\Temp\ccTEKiBa.s 			page 20


 658              	.L40:
 427:.\Generated_Source\PSoC4/I2C_MPU6050_I2C_MASTER.c ****         }
 428:.\Generated_Source\PSoC4/I2C_MPU6050_I2C_MASTER.c **** 
 429:.\Generated_Source\PSoC4/I2C_MPU6050_I2C_MASTER.c ****         /* TX and RX FIFO have to be EMPTY */
 430:.\Generated_Source\PSoC4/I2C_MPU6050_I2C_MASTER.c **** 
 431:.\Generated_Source\PSoC4/I2C_MPU6050_I2C_MASTER.c ****         /* Clean-up interrupt status */
 432:.\Generated_Source\PSoC4/I2C_MPU6050_I2C_MASTER.c ****         I2C_MPU6050_ClearMasterInterruptSource(I2C_MPU6050_INTR_MASTER_ALL);
 659              		.loc 1 432 0
 660 0048 2A4B     		ldr	r3, .L48+4
 661 004a 2B4A     		ldr	r2, .L48+8
 662 004c 1A60     		str	r2, [r3]
 433:.\Generated_Source\PSoC4/I2C_MPU6050_I2C_MASTER.c **** 
 434:.\Generated_Source\PSoC4/I2C_MPU6050_I2C_MASTER.c ****         /* A proper ReStart sequence is: generate ReStart, then put an address byte in the TX FIFO.
 435:.\Generated_Source\PSoC4/I2C_MPU6050_I2C_MASTER.c ****         * Otherwise the master treats the address in the TX FIFO as a data byte if a previous trans
 436:.\Generated_Source\PSoC4/I2C_MPU6050_I2C_MASTER.c ****         * The write transfer continues instead of ReStart.
 437:.\Generated_Source\PSoC4/I2C_MPU6050_I2C_MASTER.c ****         */
 438:.\Generated_Source\PSoC4/I2C_MPU6050_I2C_MASTER.c ****         I2C_MPU6050_I2C_MASTER_GENERATE_RESTART;
 663              		.loc 1 438 0
 664 004e FFF7FEFF 		bl	I2C_MPU6050_I2CReStartGeneration
 439:.\Generated_Source\PSoC4/I2C_MPU6050_I2C_MASTER.c **** 
 440:.\Generated_Source\PSoC4/I2C_MPU6050_I2C_MASTER.c ****         while(I2C_MPU6050_CHECK_I2C_MASTER_CMD(I2C_MPU6050_I2C_MASTER_CMD_M_START))
 665              		.loc 1 440 0
 666 0052 C046     		mov	r8, r8
 667              	.L41:
 668              		.loc 1 440 0 is_stmt 0 discriminator 1
 669 0054 294B     		ldr	r3, .L48+12
 670 0056 1B68     		ldr	r3, [r3]
 671 0058 0122     		mov	r2, #1
 672 005a 1340     		and	r3, r2
 673 005c FAD1     		bne	.L41
 441:.\Generated_Source\PSoC4/I2C_MPU6050_I2C_MASTER.c ****         {
 442:.\Generated_Source\PSoC4/I2C_MPU6050_I2C_MASTER.c ****             /* Wait until ReStart has been generated */
 443:.\Generated_Source\PSoC4/I2C_MPU6050_I2C_MASTER.c ****         }
 444:.\Generated_Source\PSoC4/I2C_MPU6050_I2C_MASTER.c **** 
 445:.\Generated_Source\PSoC4/I2C_MPU6050_I2C_MASTER.c ****         /* Put address into TX FIFO */
 446:.\Generated_Source\PSoC4/I2C_MPU6050_I2C_MASTER.c ****         I2C_MPU6050_TX_FIFO_WR_REG = slaveAddress;
 674              		.loc 1 446 0 is_stmt 1
 675 005e 284B     		ldr	r3, .L48+16
 676 0060 7A68     		ldr	r2, [r7, #4]
 677 0062 1A60     		str	r2, [r3]
 447:.\Generated_Source\PSoC4/I2C_MPU6050_I2C_MASTER.c **** 
 448:.\Generated_Source\PSoC4/I2C_MPU6050_I2C_MASTER.c ****         /* Wait for address to be transferred */
 449:.\Generated_Source\PSoC4/I2C_MPU6050_I2C_MASTER.c ****         while(!I2C_MPU6050_CHECK_INTR_MASTER(I2C_MPU6050_INTR_MASTER_I2C_ACK      |
 678              		.loc 1 449 0
 679 0064 C046     		mov	r8, r8
 680              	.L42:
 681              		.loc 1 449 0 is_stmt 0 discriminator 1
 682 0066 234B     		ldr	r3, .L48+4
 683 0068 1A68     		ldr	r2, [r3]
 684 006a 0823     		mov	r3, #8
 685 006c FF33     		add	r3, r3, #255
 686 006e 1340     		and	r3, r2
 687 0070 F9D0     		beq	.L42
 450:.\Generated_Source\PSoC4/I2C_MPU6050_I2C_MASTER.c ****                                                   I2C_MPU6050_INTR_MASTER_I2C_NACK     |
 451:.\Generated_Source\PSoC4/I2C_MPU6050_I2C_MASTER.c ****                                                   I2C_MPU6050_INTR_MASTER_I2C_ARB_LOST |
 452:.\Generated_Source\PSoC4/I2C_MPU6050_I2C_MASTER.c ****                                                   I2C_MPU6050_INTR_MASTER_I2C_BUS_ERROR))
 453:.\Generated_Source\PSoC4/I2C_MPU6050_I2C_MASTER.c ****         {
ARM GAS  C:\Users\CHRIST~1\AppData\Local\Temp\ccTEKiBa.s 			page 21


 454:.\Generated_Source\PSoC4/I2C_MPU6050_I2C_MASTER.c ****             /* Wait until address has been transferred */
 455:.\Generated_Source\PSoC4/I2C_MPU6050_I2C_MASTER.c ****         }
 456:.\Generated_Source\PSoC4/I2C_MPU6050_I2C_MASTER.c **** 
 457:.\Generated_Source\PSoC4/I2C_MPU6050_I2C_MASTER.c ****         /* Check results of address phase */
 458:.\Generated_Source\PSoC4/I2C_MPU6050_I2C_MASTER.c ****         if(I2C_MPU6050_CHECK_INTR_MASTER(I2C_MPU6050_INTR_MASTER_I2C_ACK))
 688              		.loc 1 458 0 is_stmt 1
 689 0072 204B     		ldr	r3, .L48+4
 690 0074 1B68     		ldr	r3, [r3]
 691 0076 0422     		mov	r2, #4
 692 0078 1340     		and	r3, r2
 693 007a 02D0     		beq	.L43
 459:.\Generated_Source\PSoC4/I2C_MPU6050_I2C_MASTER.c ****         {
 460:.\Generated_Source\PSoC4/I2C_MPU6050_I2C_MASTER.c ****             errStatus = I2C_MPU6050_I2C_MSTR_NO_ERROR;
 694              		.loc 1 460 0
 695 007c 0023     		mov	r3, #0
 696 007e BB60     		str	r3, [r7, #8]
 697 0080 1CE0     		b	.L44
 698              	.L43:
 461:.\Generated_Source\PSoC4/I2C_MPU6050_I2C_MASTER.c ****         }
 462:.\Generated_Source\PSoC4/I2C_MPU6050_I2C_MASTER.c ****         else if(I2C_MPU6050_CHECK_INTR_MASTER(I2C_MPU6050_INTR_MASTER_I2C_NACK))
 699              		.loc 1 462 0
 700 0082 1C4B     		ldr	r3, .L48+4
 701 0084 1B68     		ldr	r3, [r3]
 702 0086 0222     		mov	r2, #2
 703 0088 1340     		and	r3, r2
 704 008a 02D0     		beq	.L45
 463:.\Generated_Source\PSoC4/I2C_MPU6050_I2C_MASTER.c ****         {
 464:.\Generated_Source\PSoC4/I2C_MPU6050_I2C_MASTER.c ****              errStatus = I2C_MPU6050_I2C_MSTR_ERR_LB_NAK;
 705              		.loc 1 464 0
 706 008c 0223     		mov	r3, #2
 707 008e BB60     		str	r3, [r7, #8]
 708 0090 14E0     		b	.L44
 709              	.L45:
 465:.\Generated_Source\PSoC4/I2C_MPU6050_I2C_MASTER.c ****         }
 466:.\Generated_Source\PSoC4/I2C_MPU6050_I2C_MASTER.c ****         else if(I2C_MPU6050_CHECK_INTR_MASTER(I2C_MPU6050_INTR_MASTER_I2C_ARB_LOST))
 710              		.loc 1 466 0
 711 0092 184B     		ldr	r3, .L48+4
 712 0094 1B68     		ldr	r3, [r3]
 713 0096 0122     		mov	r2, #1
 714 0098 1340     		and	r3, r2
 715 009a 07D0     		beq	.L46
 467:.\Generated_Source\PSoC4/I2C_MPU6050_I2C_MASTER.c ****         {
 468:.\Generated_Source\PSoC4/I2C_MPU6050_I2C_MASTER.c ****             I2C_MPU6050_state = I2C_MPU6050_I2C_FSM_IDLE;
 716              		.loc 1 468 0
 717 009c 144B     		ldr	r3, .L48
 718 009e 1022     		mov	r2, #16
 719 00a0 1A70     		strb	r2, [r3]
 469:.\Generated_Source\PSoC4/I2C_MPU6050_I2C_MASTER.c ****                          errStatus = I2C_MPU6050_I2C_MSTR_ERR_ARB_LOST;
 720              		.loc 1 469 0
 721 00a2 0123     		mov	r3, #1
 722 00a4 BB60     		str	r3, [r7, #8]
 470:.\Generated_Source\PSoC4/I2C_MPU6050_I2C_MASTER.c ****                          resetIp   = I2C_MPU6050_I2C_RESET_ERROR;
 723              		.loc 1 470 0
 724 00a6 0123     		mov	r3, #1
 725 00a8 FB60     		str	r3, [r7, #12]
 726 00aa 07E0     		b	.L44
 727              	.L46:
ARM GAS  C:\Users\CHRIST~1\AppData\Local\Temp\ccTEKiBa.s 			page 22


 471:.\Generated_Source\PSoC4/I2C_MPU6050_I2C_MASTER.c ****         }
 472:.\Generated_Source\PSoC4/I2C_MPU6050_I2C_MASTER.c ****         else /* I2C_MPU6050_INTR_MASTER_I2C_BUS_ERROR set is else condition */
 473:.\Generated_Source\PSoC4/I2C_MPU6050_I2C_MASTER.c ****         {
 474:.\Generated_Source\PSoC4/I2C_MPU6050_I2C_MASTER.c ****             I2C_MPU6050_state = I2C_MPU6050_I2C_FSM_IDLE;
 728              		.loc 1 474 0
 729 00ac 104B     		ldr	r3, .L48
 730 00ae 1022     		mov	r2, #16
 731 00b0 1A70     		strb	r2, [r3]
 475:.\Generated_Source\PSoC4/I2C_MPU6050_I2C_MASTER.c ****                          errStatus = I2C_MPU6050_I2C_MSTR_ERR_BUS_ERR;
 732              		.loc 1 475 0
 733 00b2 8023     		mov	r3, #128
 734 00b4 5B00     		lsl	r3, r3, #1
 735 00b6 BB60     		str	r3, [r7, #8]
 476:.\Generated_Source\PSoC4/I2C_MPU6050_I2C_MASTER.c ****                          resetIp   = I2C_MPU6050_I2C_RESET_ERROR;
 736              		.loc 1 476 0
 737 00b8 0123     		mov	r3, #1
 738 00ba FB60     		str	r3, [r7, #12]
 739              	.L44:
 477:.\Generated_Source\PSoC4/I2C_MPU6050_I2C_MASTER.c ****         }
 478:.\Generated_Source\PSoC4/I2C_MPU6050_I2C_MASTER.c **** 
 479:.\Generated_Source\PSoC4/I2C_MPU6050_I2C_MASTER.c ****         I2C_MPU6050_ClearMasterInterruptSource(I2C_MPU6050_INTR_MASTER_I2C_ACK      |
 740              		.loc 1 479 0
 741 00bc 0D4B     		ldr	r3, .L48+4
 742 00be 0822     		mov	r2, #8
 743 00c0 FF32     		add	r2, r2, #255
 744 00c2 1A60     		str	r2, [r3]
 480:.\Generated_Source\PSoC4/I2C_MPU6050_I2C_MASTER.c ****                                                     I2C_MPU6050_INTR_MASTER_I2C_NACK     |
 481:.\Generated_Source\PSoC4/I2C_MPU6050_I2C_MASTER.c ****                                                     I2C_MPU6050_INTR_MASTER_I2C_ARB_LOST |
 482:.\Generated_Source\PSoC4/I2C_MPU6050_I2C_MASTER.c ****                                                     I2C_MPU6050_INTR_MASTER_I2C_BUS_ERROR);
 483:.\Generated_Source\PSoC4/I2C_MPU6050_I2C_MASTER.c **** 
 484:.\Generated_Source\PSoC4/I2C_MPU6050_I2C_MASTER.c ****         /* Reset block in case of: LOST_ARB or BUS_ERR */
 485:.\Generated_Source\PSoC4/I2C_MPU6050_I2C_MASTER.c ****         if(0u != resetIp)
 745              		.loc 1 485 0
 746 00c4 FB68     		ldr	r3, [r7, #12]
 747 00c6 002B     		cmp	r3, #0
 748 00c8 0CD0     		beq	.L38
 486:.\Generated_Source\PSoC4/I2C_MPU6050_I2C_MASTER.c ****         {
 487:.\Generated_Source\PSoC4/I2C_MPU6050_I2C_MASTER.c ****             I2C_MPU6050_SCB_SW_RESET;
 749              		.loc 1 487 0
 750 00ca 0E4B     		ldr	r3, .L48+20
 751 00cc 0D4A     		ldr	r2, .L48+20
 752 00ce 1268     		ldr	r2, [r2]
 753 00d0 5200     		lsl	r2, r2, #1
 754 00d2 5208     		lsr	r2, r2, #1
 755 00d4 1A60     		str	r2, [r3]
 756 00d6 0B4B     		ldr	r3, .L48+20
 757 00d8 0A4A     		ldr	r2, .L48+20
 758 00da 1268     		ldr	r2, [r2]
 759 00dc 8021     		mov	r1, #128
 760 00de 0906     		lsl	r1, r1, #24
 761 00e0 0A43     		orr	r2, r1
 762 00e2 1A60     		str	r2, [r3]
 763              	.L38:
 488:.\Generated_Source\PSoC4/I2C_MPU6050_I2C_MASTER.c ****         }
 489:.\Generated_Source\PSoC4/I2C_MPU6050_I2C_MASTER.c ****     }
 490:.\Generated_Source\PSoC4/I2C_MPU6050_I2C_MASTER.c **** 
 491:.\Generated_Source\PSoC4/I2C_MPU6050_I2C_MASTER.c ****     return(errStatus);
ARM GAS  C:\Users\CHRIST~1\AppData\Local\Temp\ccTEKiBa.s 			page 23


 764              		.loc 1 491 0
 765 00e4 BB68     		ldr	r3, [r7, #8]
 492:.\Generated_Source\PSoC4/I2C_MPU6050_I2C_MASTER.c **** }
 766              		.loc 1 492 0
 767 00e6 181C     		mov	r0, r3
 768 00e8 BD46     		mov	sp, r7
 769 00ea 04B0     		add	sp, sp, #16
 770              		@ sp needed
 771 00ec 80BD     		pop	{r7, pc}
 772              	.L49:
 773 00ee C046     		.align	2
 774              	.L48:
 775 00f0 00000000 		.word	I2C_MPU6050_state
 776 00f4 000F2540 		.word	1076170496
 777 00f8 17030000 		.word	791
 778 00fc 68002540 		.word	1076166760
 779 0100 40022540 		.word	1076167232
 780 0104 00002540 		.word	1076166656
 781              		.cfi_endproc
 782              	.LFE5:
 783              		.size	I2C_MPU6050_I2CMasterSendRestart, .-I2C_MPU6050_I2CMasterSendRestart
 784              		.section	.text.I2C_MPU6050_I2CMasterSendStop,"ax",%progbits
 785              		.align	2
 786              		.global	I2C_MPU6050_I2CMasterSendStop
 787              		.code	16
 788              		.thumb_func
 789              		.type	I2C_MPU6050_I2CMasterSendStop, %function
 790              	I2C_MPU6050_I2CMasterSendStop:
 791              	.LFB6:
 493:.\Generated_Source\PSoC4/I2C_MPU6050_I2C_MASTER.c **** 
 494:.\Generated_Source\PSoC4/I2C_MPU6050_I2C_MASTER.c **** 
 495:.\Generated_Source\PSoC4/I2C_MPU6050_I2C_MASTER.c **** /*******************************************************************************
 496:.\Generated_Source\PSoC4/I2C_MPU6050_I2C_MASTER.c **** * Function Name: I2C_MPU6050_I2CMasterSendStop
 497:.\Generated_Source\PSoC4/I2C_MPU6050_I2C_MASTER.c **** ********************************************************************************
 498:.\Generated_Source\PSoC4/I2C_MPU6050_I2C_MASTER.c **** *
 499:.\Generated_Source\PSoC4/I2C_MPU6050_I2C_MASTER.c **** * Summary:
 500:.\Generated_Source\PSoC4/I2C_MPU6050_I2C_MASTER.c **** *  Generates Stop condition on the bus.
 501:.\Generated_Source\PSoC4/I2C_MPU6050_I2C_MASTER.c **** *  At least one byte has to be read if start or restart condition with read
 502:.\Generated_Source\PSoC4/I2C_MPU6050_I2C_MASTER.c **** *  direction was generated before.
 503:.\Generated_Source\PSoC4/I2C_MPU6050_I2C_MASTER.c **** *  This function is blocking and does not return until a stop condition
 504:.\Generated_Source\PSoC4/I2C_MPU6050_I2C_MASTER.c **** *  is generated or error occurred.
 505:.\Generated_Source\PSoC4/I2C_MPU6050_I2C_MASTER.c **** *
 506:.\Generated_Source\PSoC4/I2C_MPU6050_I2C_MASTER.c **** * Parameters:
 507:.\Generated_Source\PSoC4/I2C_MPU6050_I2C_MASTER.c **** *  None
 508:.\Generated_Source\PSoC4/I2C_MPU6050_I2C_MASTER.c **** *
 509:.\Generated_Source\PSoC4/I2C_MPU6050_I2C_MASTER.c **** * Return:
 510:.\Generated_Source\PSoC4/I2C_MPU6050_I2C_MASTER.c **** *  Error status
 511:.\Generated_Source\PSoC4/I2C_MPU6050_I2C_MASTER.c **** *
 512:.\Generated_Source\PSoC4/I2C_MPU6050_I2C_MASTER.c **** * Side Effects:
 513:.\Generated_Source\PSoC4/I2C_MPU6050_I2C_MASTER.c **** *  A valid Start or ReStart condition must be generated before calling
 514:.\Generated_Source\PSoC4/I2C_MPU6050_I2C_MASTER.c **** *  this function. This function does nothing if Start or ReStart condition
 515:.\Generated_Source\PSoC4/I2C_MPU6050_I2C_MASTER.c **** *  failed before this function was called.
 516:.\Generated_Source\PSoC4/I2C_MPU6050_I2C_MASTER.c **** *  For read transfer, at least one byte has to be read before Stop generation.
 517:.\Generated_Source\PSoC4/I2C_MPU6050_I2C_MASTER.c **** *
 518:.\Generated_Source\PSoC4/I2C_MPU6050_I2C_MASTER.c **** * Global variables:
 519:.\Generated_Source\PSoC4/I2C_MPU6050_I2C_MASTER.c **** *  I2C_MPU6050_state - used to store current state of software FSM.
 520:.\Generated_Source\PSoC4/I2C_MPU6050_I2C_MASTER.c **** *
ARM GAS  C:\Users\CHRIST~1\AppData\Local\Temp\ccTEKiBa.s 			page 24


 521:.\Generated_Source\PSoC4/I2C_MPU6050_I2C_MASTER.c **** *******************************************************************************/
 522:.\Generated_Source\PSoC4/I2C_MPU6050_I2C_MASTER.c **** uint32 I2C_MPU6050_I2CMasterSendStop(void)
 523:.\Generated_Source\PSoC4/I2C_MPU6050_I2C_MASTER.c **** {
 792              		.loc 1 523 0
 793              		.cfi_startproc
 794 0000 80B5     		push	{r7, lr}
 795              		.cfi_def_cfa_offset 8
 796              		.cfi_offset 7, -8
 797              		.cfi_offset 14, -4
 798 0002 82B0     		sub	sp, sp, #8
 799              		.cfi_def_cfa_offset 16
 800 0004 00AF     		add	r7, sp, #0
 801              		.cfi_def_cfa_register 7
 524:.\Generated_Source\PSoC4/I2C_MPU6050_I2C_MASTER.c ****     uint32 resetIp;
 525:.\Generated_Source\PSoC4/I2C_MPU6050_I2C_MASTER.c ****     uint32 errStatus;
 526:.\Generated_Source\PSoC4/I2C_MPU6050_I2C_MASTER.c **** 
 527:.\Generated_Source\PSoC4/I2C_MPU6050_I2C_MASTER.c ****     resetIp   = 0u;
 802              		.loc 1 527 0
 803 0006 0023     		mov	r3, #0
 804 0008 7B60     		str	r3, [r7, #4]
 528:.\Generated_Source\PSoC4/I2C_MPU6050_I2C_MASTER.c ****     errStatus = I2C_MPU6050_I2C_MSTR_NOT_READY;
 805              		.loc 1 528 0
 806 000a 0423     		mov	r3, #4
 807 000c 3B60     		str	r3, [r7]
 529:.\Generated_Source\PSoC4/I2C_MPU6050_I2C_MASTER.c **** 
 530:.\Generated_Source\PSoC4/I2C_MPU6050_I2C_MASTER.c ****     /* Check FSM state before generating Stop condition */
 531:.\Generated_Source\PSoC4/I2C_MPU6050_I2C_MASTER.c ****     if(I2C_MPU6050_CHECK_I2C_MASTER_ACTIVE)
 808              		.loc 1 531 0
 809 000e 264B     		ldr	r3, .L59
 810 0010 1B78     		ldrb	r3, [r3]
 811 0012 DBB2     		uxtb	r3, r3
 812 0014 2022     		mov	r2, #32
 813 0016 1340     		and	r3, r2
 814 0018 DBB2     		uxtb	r3, r3
 815 001a 002B     		cmp	r3, #0
 816 001c 3ED0     		beq	.L51
 532:.\Generated_Source\PSoC4/I2C_MPU6050_I2C_MASTER.c ****     {
 533:.\Generated_Source\PSoC4/I2C_MPU6050_I2C_MASTER.c ****         /*
 534:.\Generated_Source\PSoC4/I2C_MPU6050_I2C_MASTER.c ****         * Write direction: generates Stop
 535:.\Generated_Source\PSoC4/I2C_MPU6050_I2C_MASTER.c ****         * Read  direction: generates NACK and Stop
 536:.\Generated_Source\PSoC4/I2C_MPU6050_I2C_MASTER.c ****         */
 537:.\Generated_Source\PSoC4/I2C_MPU6050_I2C_MASTER.c ****         I2C_MPU6050_I2C_MASTER_GENERATE_STOP;
 817              		.loc 1 537 0
 818 001e 234B     		ldr	r3, .L59+4
 819 0020 234A     		ldr	r2, .L59+8
 820 0022 1268     		ldr	r2, [r2]
 821 0024 2021     		mov	r1, #32
 822 0026 0A40     		and	r2, r1
 823 0028 01D0     		beq	.L52
 824              		.loc 1 537 0 is_stmt 0 discriminator 1
 825 002a 1822     		mov	r2, #24
 826 002c 00E0     		b	.L53
 827              	.L52:
 828              		.loc 1 537 0 discriminator 2
 829 002e 1022     		mov	r2, #16
 830              	.L53:
 831              		.loc 1 537 0 discriminator 4
ARM GAS  C:\Users\CHRIST~1\AppData\Local\Temp\ccTEKiBa.s 			page 25


 832 0030 1A60     		str	r2, [r3]
 538:.\Generated_Source\PSoC4/I2C_MPU6050_I2C_MASTER.c **** 
 539:.\Generated_Source\PSoC4/I2C_MPU6050_I2C_MASTER.c ****         while(!I2C_MPU6050_CHECK_INTR_MASTER(I2C_MPU6050_INTR_MASTER_I2C_STOP     |
 833              		.loc 1 539 0 is_stmt 1 discriminator 4
 834 0032 C046     		mov	r8, r8
 835              	.L54:
 836              		.loc 1 539 0 is_stmt 0 discriminator 1
 837 0034 1F4B     		ldr	r3, .L59+12
 838 0036 1A68     		ldr	r2, [r3]
 839 0038 1223     		mov	r3, #18
 840 003a FF33     		add	r3, r3, #255
 841 003c 1340     		and	r3, r2
 842 003e F9D0     		beq	.L54
 540:.\Generated_Source\PSoC4/I2C_MPU6050_I2C_MASTER.c ****                                                   I2C_MPU6050_INTR_MASTER_I2C_ARB_LOST |
 541:.\Generated_Source\PSoC4/I2C_MPU6050_I2C_MASTER.c ****                                                   I2C_MPU6050_INTR_MASTER_I2C_BUS_ERROR))
 542:.\Generated_Source\PSoC4/I2C_MPU6050_I2C_MASTER.c ****         {
 543:.\Generated_Source\PSoC4/I2C_MPU6050_I2C_MASTER.c ****             /* Wait until Stop has been generated */
 544:.\Generated_Source\PSoC4/I2C_MPU6050_I2C_MASTER.c ****         }
 545:.\Generated_Source\PSoC4/I2C_MPU6050_I2C_MASTER.c **** 
 546:.\Generated_Source\PSoC4/I2C_MPU6050_I2C_MASTER.c ****         /* Check Stop generation */
 547:.\Generated_Source\PSoC4/I2C_MPU6050_I2C_MASTER.c ****         if(I2C_MPU6050_CHECK_INTR_MASTER(I2C_MPU6050_INTR_MASTER_I2C_STOP))
 843              		.loc 1 547 0 is_stmt 1
 844 0040 1C4B     		ldr	r3, .L59+12
 845 0042 1B68     		ldr	r3, [r3]
 846 0044 1022     		mov	r2, #16
 847 0046 1340     		and	r3, r2
 848 0048 02D0     		beq	.L55
 548:.\Generated_Source\PSoC4/I2C_MPU6050_I2C_MASTER.c ****         {
 549:.\Generated_Source\PSoC4/I2C_MPU6050_I2C_MASTER.c ****             errStatus = I2C_MPU6050_I2C_MSTR_NO_ERROR;
 849              		.loc 1 549 0
 850 004a 0023     		mov	r3, #0
 851 004c 3B60     		str	r3, [r7]
 852 004e 0EE0     		b	.L56
 853              	.L55:
 550:.\Generated_Source\PSoC4/I2C_MPU6050_I2C_MASTER.c ****         }
 551:.\Generated_Source\PSoC4/I2C_MPU6050_I2C_MASTER.c ****         else if(I2C_MPU6050_CHECK_INTR_MASTER(I2C_MPU6050_INTR_MASTER_I2C_ARB_LOST))
 854              		.loc 1 551 0
 855 0050 184B     		ldr	r3, .L59+12
 856 0052 1B68     		ldr	r3, [r3]
 857 0054 0122     		mov	r2, #1
 858 0056 1340     		and	r3, r2
 859 0058 04D0     		beq	.L57
 552:.\Generated_Source\PSoC4/I2C_MPU6050_I2C_MASTER.c ****         {
 553:.\Generated_Source\PSoC4/I2C_MPU6050_I2C_MASTER.c ****             errStatus = I2C_MPU6050_I2C_MSTR_ERR_ARB_LOST;
 860              		.loc 1 553 0
 861 005a 0123     		mov	r3, #1
 862 005c 3B60     		str	r3, [r7]
 554:.\Generated_Source\PSoC4/I2C_MPU6050_I2C_MASTER.c ****             resetIp   = I2C_MPU6050_I2C_RESET_ERROR;
 863              		.loc 1 554 0
 864 005e 0123     		mov	r3, #1
 865 0060 7B60     		str	r3, [r7, #4]
 866 0062 04E0     		b	.L56
 867              	.L57:
 555:.\Generated_Source\PSoC4/I2C_MPU6050_I2C_MASTER.c ****         }
 556:.\Generated_Source\PSoC4/I2C_MPU6050_I2C_MASTER.c ****         else /* I2C_MPU6050_INTR_MASTER_I2C_BUS_ERROR is set */
 557:.\Generated_Source\PSoC4/I2C_MPU6050_I2C_MASTER.c ****         {
 558:.\Generated_Source\PSoC4/I2C_MPU6050_I2C_MASTER.c ****             errStatus = I2C_MPU6050_I2C_MSTR_ERR_BUS_ERR;
ARM GAS  C:\Users\CHRIST~1\AppData\Local\Temp\ccTEKiBa.s 			page 26


 868              		.loc 1 558 0
 869 0064 8023     		mov	r3, #128
 870 0066 5B00     		lsl	r3, r3, #1
 871 0068 3B60     		str	r3, [r7]
 559:.\Generated_Source\PSoC4/I2C_MPU6050_I2C_MASTER.c ****             resetIp   = I2C_MPU6050_I2C_RESET_ERROR;
 872              		.loc 1 559 0
 873 006a 0123     		mov	r3, #1
 874 006c 7B60     		str	r3, [r7, #4]
 875              	.L56:
 560:.\Generated_Source\PSoC4/I2C_MPU6050_I2C_MASTER.c ****         }
 561:.\Generated_Source\PSoC4/I2C_MPU6050_I2C_MASTER.c **** 
 562:.\Generated_Source\PSoC4/I2C_MPU6050_I2C_MASTER.c ****         I2C_MPU6050_ClearMasterInterruptSource(I2C_MPU6050_INTR_MASTER_I2C_STOP     |
 876              		.loc 1 562 0
 877 006e 114B     		ldr	r3, .L59+12
 878 0070 1222     		mov	r2, #18
 879 0072 FF32     		add	r2, r2, #255
 880 0074 1A60     		str	r2, [r3]
 563:.\Generated_Source\PSoC4/I2C_MPU6050_I2C_MASTER.c ****                                                     I2C_MPU6050_INTR_MASTER_I2C_ARB_LOST |
 564:.\Generated_Source\PSoC4/I2C_MPU6050_I2C_MASTER.c ****                                                     I2C_MPU6050_INTR_MASTER_I2C_BUS_ERROR);
 565:.\Generated_Source\PSoC4/I2C_MPU6050_I2C_MASTER.c **** 
 566:.\Generated_Source\PSoC4/I2C_MPU6050_I2C_MASTER.c ****         I2C_MPU6050_state = I2C_MPU6050_I2C_FSM_IDLE;
 881              		.loc 1 566 0
 882 0076 0C4B     		ldr	r3, .L59
 883 0078 1022     		mov	r2, #16
 884 007a 1A70     		strb	r2, [r3]
 567:.\Generated_Source\PSoC4/I2C_MPU6050_I2C_MASTER.c **** 
 568:.\Generated_Source\PSoC4/I2C_MPU6050_I2C_MASTER.c ****         /* Reset block in case of: LOST_ARB or BUS_ERR */
 569:.\Generated_Source\PSoC4/I2C_MPU6050_I2C_MASTER.c ****         if(0u != resetIp)
 885              		.loc 1 569 0
 886 007c 7B68     		ldr	r3, [r7, #4]
 887 007e 002B     		cmp	r3, #0
 888 0080 0CD0     		beq	.L51
 570:.\Generated_Source\PSoC4/I2C_MPU6050_I2C_MASTER.c ****         {
 571:.\Generated_Source\PSoC4/I2C_MPU6050_I2C_MASTER.c ****             I2C_MPU6050_SCB_SW_RESET;
 889              		.loc 1 571 0
 890 0082 0D4B     		ldr	r3, .L59+16
 891 0084 0C4A     		ldr	r2, .L59+16
 892 0086 1268     		ldr	r2, [r2]
 893 0088 5200     		lsl	r2, r2, #1
 894 008a 5208     		lsr	r2, r2, #1
 895 008c 1A60     		str	r2, [r3]
 896 008e 0A4B     		ldr	r3, .L59+16
 897 0090 094A     		ldr	r2, .L59+16
 898 0092 1268     		ldr	r2, [r2]
 899 0094 8021     		mov	r1, #128
 900 0096 0906     		lsl	r1, r1, #24
 901 0098 0A43     		orr	r2, r1
 902 009a 1A60     		str	r2, [r3]
 903              	.L51:
 572:.\Generated_Source\PSoC4/I2C_MPU6050_I2C_MASTER.c ****         }
 573:.\Generated_Source\PSoC4/I2C_MPU6050_I2C_MASTER.c ****     }
 574:.\Generated_Source\PSoC4/I2C_MPU6050_I2C_MASTER.c **** 
 575:.\Generated_Source\PSoC4/I2C_MPU6050_I2C_MASTER.c ****     return(errStatus);
 904              		.loc 1 575 0
 905 009c 3B68     		ldr	r3, [r7]
 576:.\Generated_Source\PSoC4/I2C_MPU6050_I2C_MASTER.c **** }
 906              		.loc 1 576 0
ARM GAS  C:\Users\CHRIST~1\AppData\Local\Temp\ccTEKiBa.s 			page 27


 907 009e 181C     		mov	r0, r3
 908 00a0 BD46     		mov	sp, r7
 909 00a2 02B0     		add	sp, sp, #8
 910              		@ sp needed
 911 00a4 80BD     		pop	{r7, pc}
 912              	.L60:
 913 00a6 C046     		.align	2
 914              	.L59:
 915 00a8 00000000 		.word	I2C_MPU6050_state
 916 00ac 68002540 		.word	1076166760
 917 00b0 64002540 		.word	1076166756
 918 00b4 000F2540 		.word	1076170496
 919 00b8 00002540 		.word	1076166656
 920              		.cfi_endproc
 921              	.LFE6:
 922              		.size	I2C_MPU6050_I2CMasterSendStop, .-I2C_MPU6050_I2CMasterSendStop
 923              		.section	.text.I2C_MPU6050_I2CMasterWriteByte,"ax",%progbits
 924              		.align	2
 925              		.global	I2C_MPU6050_I2CMasterWriteByte
 926              		.code	16
 927              		.thumb_func
 928              		.type	I2C_MPU6050_I2CMasterWriteByte, %function
 929              	I2C_MPU6050_I2CMasterWriteByte:
 930              	.LFB7:
 577:.\Generated_Source\PSoC4/I2C_MPU6050_I2C_MASTER.c **** 
 578:.\Generated_Source\PSoC4/I2C_MPU6050_I2C_MASTER.c **** 
 579:.\Generated_Source\PSoC4/I2C_MPU6050_I2C_MASTER.c **** /*******************************************************************************
 580:.\Generated_Source\PSoC4/I2C_MPU6050_I2C_MASTER.c **** * Function Name: I2C_MPU6050_I2CMasterWriteByte
 581:.\Generated_Source\PSoC4/I2C_MPU6050_I2C_MASTER.c **** ********************************************************************************
 582:.\Generated_Source\PSoC4/I2C_MPU6050_I2C_MASTER.c **** *
 583:.\Generated_Source\PSoC4/I2C_MPU6050_I2C_MASTER.c **** * Summary:
 584:.\Generated_Source\PSoC4/I2C_MPU6050_I2C_MASTER.c **** *  Sends one byte to a slave.
 585:.\Generated_Source\PSoC4/I2C_MPU6050_I2C_MASTER.c **** *  This function is blocking and does not return until byte is transmitted
 586:.\Generated_Source\PSoC4/I2C_MPU6050_I2C_MASTER.c **** *  or error occurred.
 587:.\Generated_Source\PSoC4/I2C_MPU6050_I2C_MASTER.c **** *
 588:.\Generated_Source\PSoC4/I2C_MPU6050_I2C_MASTER.c **** * Parameters:
 589:.\Generated_Source\PSoC4/I2C_MPU6050_I2C_MASTER.c **** *  data: The data byte to send to the slave.
 590:.\Generated_Source\PSoC4/I2C_MPU6050_I2C_MASTER.c **** *
 591:.\Generated_Source\PSoC4/I2C_MPU6050_I2C_MASTER.c **** * Return:
 592:.\Generated_Source\PSoC4/I2C_MPU6050_I2C_MASTER.c **** *  Error status
 593:.\Generated_Source\PSoC4/I2C_MPU6050_I2C_MASTER.c **** *
 594:.\Generated_Source\PSoC4/I2C_MPU6050_I2C_MASTER.c **** * Side Effects:
 595:.\Generated_Source\PSoC4/I2C_MPU6050_I2C_MASTER.c **** *  A valid Start or ReStart condition must be generated before calling
 596:.\Generated_Source\PSoC4/I2C_MPU6050_I2C_MASTER.c **** *  this function. This function does nothing if Start or ReStart condition
 597:.\Generated_Source\PSoC4/I2C_MPU6050_I2C_MASTER.c **** *  failed before this function was called.
 598:.\Generated_Source\PSoC4/I2C_MPU6050_I2C_MASTER.c **** *
 599:.\Generated_Source\PSoC4/I2C_MPU6050_I2C_MASTER.c **** * Global variables:
 600:.\Generated_Source\PSoC4/I2C_MPU6050_I2C_MASTER.c **** *  I2C_MPU6050_state - used to store current state of software FSM.
 601:.\Generated_Source\PSoC4/I2C_MPU6050_I2C_MASTER.c **** *
 602:.\Generated_Source\PSoC4/I2C_MPU6050_I2C_MASTER.c **** *******************************************************************************/
 603:.\Generated_Source\PSoC4/I2C_MPU6050_I2C_MASTER.c **** uint32 I2C_MPU6050_I2CMasterWriteByte(uint32 theByte)
 604:.\Generated_Source\PSoC4/I2C_MPU6050_I2C_MASTER.c **** {
 931              		.loc 1 604 0
 932              		.cfi_startproc
 933 0000 80B5     		push	{r7, lr}
 934              		.cfi_def_cfa_offset 8
 935              		.cfi_offset 7, -8
ARM GAS  C:\Users\CHRIST~1\AppData\Local\Temp\ccTEKiBa.s 			page 28


 936              		.cfi_offset 14, -4
 937 0002 84B0     		sub	sp, sp, #16
 938              		.cfi_def_cfa_offset 24
 939 0004 00AF     		add	r7, sp, #0
 940              		.cfi_def_cfa_register 7
 941 0006 7860     		str	r0, [r7, #4]
 605:.\Generated_Source\PSoC4/I2C_MPU6050_I2C_MASTER.c ****     uint32 resetIp;
 606:.\Generated_Source\PSoC4/I2C_MPU6050_I2C_MASTER.c ****     uint32 errStatus;
 607:.\Generated_Source\PSoC4/I2C_MPU6050_I2C_MASTER.c **** 
 608:.\Generated_Source\PSoC4/I2C_MPU6050_I2C_MASTER.c ****     resetIp   = 0u;
 942              		.loc 1 608 0
 943 0008 0023     		mov	r3, #0
 944 000a FB60     		str	r3, [r7, #12]
 609:.\Generated_Source\PSoC4/I2C_MPU6050_I2C_MASTER.c ****     errStatus = I2C_MPU6050_I2C_MSTR_NOT_READY;
 945              		.loc 1 609 0
 946 000c 0423     		mov	r3, #4
 947 000e BB60     		str	r3, [r7, #8]
 610:.\Generated_Source\PSoC4/I2C_MPU6050_I2C_MASTER.c **** 
 611:.\Generated_Source\PSoC4/I2C_MPU6050_I2C_MASTER.c ****     /* Check FSM state before write byte */
 612:.\Generated_Source\PSoC4/I2C_MPU6050_I2C_MASTER.c ****     if(I2C_MPU6050_CHECK_I2C_MASTER_ACTIVE)
 948              		.loc 1 612 0
 949 0010 2A4B     		ldr	r3, .L69
 950 0012 1B78     		ldrb	r3, [r3]
 951 0014 DBB2     		uxtb	r3, r3
 952 0016 2022     		mov	r2, #32
 953 0018 1340     		and	r3, r2
 954 001a DBB2     		uxtb	r3, r3
 955 001c 002B     		cmp	r3, #0
 956 001e 48D0     		beq	.L62
 613:.\Generated_Source\PSoC4/I2C_MPU6050_I2C_MASTER.c ****     {
 614:.\Generated_Source\PSoC4/I2C_MPU6050_I2C_MASTER.c ****         I2C_MPU6050_TX_FIFO_WR_REG = theByte;
 957              		.loc 1 614 0
 958 0020 274B     		ldr	r3, .L69+4
 959 0022 7A68     		ldr	r2, [r7, #4]
 960 0024 1A60     		str	r2, [r3]
 615:.\Generated_Source\PSoC4/I2C_MPU6050_I2C_MASTER.c **** 
 616:.\Generated_Source\PSoC4/I2C_MPU6050_I2C_MASTER.c ****         while(!I2C_MPU6050_CHECK_INTR_MASTER(I2C_MPU6050_INTR_MASTER_I2C_ACK      |
 961              		.loc 1 616 0
 962 0026 C046     		mov	r8, r8
 963              	.L63:
 964              		.loc 1 616 0 is_stmt 0 discriminator 1
 965 0028 264B     		ldr	r3, .L69+8
 966 002a 1A68     		ldr	r2, [r3]
 967 002c 0823     		mov	r3, #8
 968 002e FF33     		add	r3, r3, #255
 969 0030 1340     		and	r3, r2
 970 0032 F9D0     		beq	.L63
 617:.\Generated_Source\PSoC4/I2C_MPU6050_I2C_MASTER.c ****                                                   I2C_MPU6050_INTR_MASTER_I2C_NACK     |
 618:.\Generated_Source\PSoC4/I2C_MPU6050_I2C_MASTER.c ****                                                   I2C_MPU6050_INTR_MASTER_I2C_ARB_LOST |
 619:.\Generated_Source\PSoC4/I2C_MPU6050_I2C_MASTER.c ****                                                   I2C_MPU6050_INTR_MASTER_I2C_BUS_ERROR))
 620:.\Generated_Source\PSoC4/I2C_MPU6050_I2C_MASTER.c ****         {
 621:.\Generated_Source\PSoC4/I2C_MPU6050_I2C_MASTER.c ****             /* Wait until byte has been transferred */
 622:.\Generated_Source\PSoC4/I2C_MPU6050_I2C_MASTER.c ****         }
 623:.\Generated_Source\PSoC4/I2C_MPU6050_I2C_MASTER.c **** 
 624:.\Generated_Source\PSoC4/I2C_MPU6050_I2C_MASTER.c ****         /* Check results after byte was sent */
 625:.\Generated_Source\PSoC4/I2C_MPU6050_I2C_MASTER.c ****         if(I2C_MPU6050_CHECK_INTR_MASTER(I2C_MPU6050_INTR_MASTER_I2C_ACK))
 971              		.loc 1 625 0 is_stmt 1
ARM GAS  C:\Users\CHRIST~1\AppData\Local\Temp\ccTEKiBa.s 			page 29


 972 0034 234B     		ldr	r3, .L69+8
 973 0036 1B68     		ldr	r3, [r3]
 974 0038 0422     		mov	r2, #4
 975 003a 1340     		and	r3, r2
 976 003c 05D0     		beq	.L64
 626:.\Generated_Source\PSoC4/I2C_MPU6050_I2C_MASTER.c ****         {
 627:.\Generated_Source\PSoC4/I2C_MPU6050_I2C_MASTER.c ****             I2C_MPU6050_state = I2C_MPU6050_I2C_FSM_MSTR_HALT;
 977              		.loc 1 627 0
 978 003e 1F4B     		ldr	r3, .L69
 979 0040 6022     		mov	r2, #96
 980 0042 1A70     		strb	r2, [r3]
 628:.\Generated_Source\PSoC4/I2C_MPU6050_I2C_MASTER.c ****                          errStatus = I2C_MPU6050_I2C_MSTR_NO_ERROR;
 981              		.loc 1 628 0
 982 0044 0023     		mov	r3, #0
 983 0046 BB60     		str	r3, [r7, #8]
 984 0048 1FE0     		b	.L65
 985              	.L64:
 629:.\Generated_Source\PSoC4/I2C_MPU6050_I2C_MASTER.c ****         }
 630:.\Generated_Source\PSoC4/I2C_MPU6050_I2C_MASTER.c ****         else if(I2C_MPU6050_CHECK_INTR_MASTER(I2C_MPU6050_INTR_MASTER_I2C_NACK))
 986              		.loc 1 630 0
 987 004a 1E4B     		ldr	r3, .L69+8
 988 004c 1B68     		ldr	r3, [r3]
 989 004e 0222     		mov	r2, #2
 990 0050 1340     		and	r3, r2
 991 0052 05D0     		beq	.L66
 631:.\Generated_Source\PSoC4/I2C_MPU6050_I2C_MASTER.c ****         {
 632:.\Generated_Source\PSoC4/I2C_MPU6050_I2C_MASTER.c ****             I2C_MPU6050_state = I2C_MPU6050_I2C_FSM_MSTR_HALT;
 992              		.loc 1 632 0
 993 0054 194B     		ldr	r3, .L69
 994 0056 6022     		mov	r2, #96
 995 0058 1A70     		strb	r2, [r3]
 633:.\Generated_Source\PSoC4/I2C_MPU6050_I2C_MASTER.c ****                          errStatus = I2C_MPU6050_I2C_MSTR_ERR_LB_NAK;
 996              		.loc 1 633 0
 997 005a 0223     		mov	r3, #2
 998 005c BB60     		str	r3, [r7, #8]
 999 005e 14E0     		b	.L65
 1000              	.L66:
 634:.\Generated_Source\PSoC4/I2C_MPU6050_I2C_MASTER.c ****         }
 635:.\Generated_Source\PSoC4/I2C_MPU6050_I2C_MASTER.c ****         else if(I2C_MPU6050_CHECK_INTR_MASTER(I2C_MPU6050_INTR_MASTER_I2C_ARB_LOST))
 1001              		.loc 1 635 0
 1002 0060 184B     		ldr	r3, .L69+8
 1003 0062 1B68     		ldr	r3, [r3]
 1004 0064 0122     		mov	r2, #1
 1005 0066 1340     		and	r3, r2
 1006 0068 07D0     		beq	.L67
 636:.\Generated_Source\PSoC4/I2C_MPU6050_I2C_MASTER.c ****         {
 637:.\Generated_Source\PSoC4/I2C_MPU6050_I2C_MASTER.c ****             I2C_MPU6050_state = I2C_MPU6050_I2C_FSM_IDLE;
 1007              		.loc 1 637 0
 1008 006a 144B     		ldr	r3, .L69
 1009 006c 1022     		mov	r2, #16
 1010 006e 1A70     		strb	r2, [r3]
 638:.\Generated_Source\PSoC4/I2C_MPU6050_I2C_MASTER.c ****                          errStatus = I2C_MPU6050_I2C_MSTR_ERR_ARB_LOST;
 1011              		.loc 1 638 0
 1012 0070 0123     		mov	r3, #1
 1013 0072 BB60     		str	r3, [r7, #8]
 639:.\Generated_Source\PSoC4/I2C_MPU6050_I2C_MASTER.c ****                          resetIp   = I2C_MPU6050_I2C_RESET_ERROR;
 1014              		.loc 1 639 0
ARM GAS  C:\Users\CHRIST~1\AppData\Local\Temp\ccTEKiBa.s 			page 30


 1015 0074 0123     		mov	r3, #1
 1016 0076 FB60     		str	r3, [r7, #12]
 1017 0078 07E0     		b	.L65
 1018              	.L67:
 640:.\Generated_Source\PSoC4/I2C_MPU6050_I2C_MASTER.c ****         }
 641:.\Generated_Source\PSoC4/I2C_MPU6050_I2C_MASTER.c ****         else /* I2C_MPU6050_INTR_MASTER_I2C_BUS_ERROR set is */
 642:.\Generated_Source\PSoC4/I2C_MPU6050_I2C_MASTER.c ****         {
 643:.\Generated_Source\PSoC4/I2C_MPU6050_I2C_MASTER.c ****             I2C_MPU6050_state = I2C_MPU6050_I2C_FSM_IDLE;
 1019              		.loc 1 643 0
 1020 007a 104B     		ldr	r3, .L69
 1021 007c 1022     		mov	r2, #16
 1022 007e 1A70     		strb	r2, [r3]
 644:.\Generated_Source\PSoC4/I2C_MPU6050_I2C_MASTER.c ****                          errStatus = I2C_MPU6050_I2C_MSTR_ERR_BUS_ERR;
 1023              		.loc 1 644 0
 1024 0080 8023     		mov	r3, #128
 1025 0082 5B00     		lsl	r3, r3, #1
 1026 0084 BB60     		str	r3, [r7, #8]
 645:.\Generated_Source\PSoC4/I2C_MPU6050_I2C_MASTER.c ****                          resetIp   = I2C_MPU6050_I2C_RESET_ERROR;
 1027              		.loc 1 645 0
 1028 0086 0123     		mov	r3, #1
 1029 0088 FB60     		str	r3, [r7, #12]
 1030              	.L65:
 646:.\Generated_Source\PSoC4/I2C_MPU6050_I2C_MASTER.c ****         }
 647:.\Generated_Source\PSoC4/I2C_MPU6050_I2C_MASTER.c **** 
 648:.\Generated_Source\PSoC4/I2C_MPU6050_I2C_MASTER.c ****         I2C_MPU6050_ClearMasterInterruptSource(I2C_MPU6050_INTR_MASTER_I2C_ACK      |
 1031              		.loc 1 648 0
 1032 008a 0E4B     		ldr	r3, .L69+8
 1033 008c 0822     		mov	r2, #8
 1034 008e FF32     		add	r2, r2, #255
 1035 0090 1A60     		str	r2, [r3]
 649:.\Generated_Source\PSoC4/I2C_MPU6050_I2C_MASTER.c ****                                                     I2C_MPU6050_INTR_MASTER_I2C_NACK     |
 650:.\Generated_Source\PSoC4/I2C_MPU6050_I2C_MASTER.c ****                                                     I2C_MPU6050_INTR_MASTER_I2C_ARB_LOST |
 651:.\Generated_Source\PSoC4/I2C_MPU6050_I2C_MASTER.c ****                                                     I2C_MPU6050_INTR_MASTER_I2C_BUS_ERROR);
 652:.\Generated_Source\PSoC4/I2C_MPU6050_I2C_MASTER.c **** 
 653:.\Generated_Source\PSoC4/I2C_MPU6050_I2C_MASTER.c ****         /* Reset block in case of: LOST_ARB or BUS_ERR */
 654:.\Generated_Source\PSoC4/I2C_MPU6050_I2C_MASTER.c ****         if(0u != resetIp)
 1036              		.loc 1 654 0
 1037 0092 FB68     		ldr	r3, [r7, #12]
 1038 0094 002B     		cmp	r3, #0
 1039 0096 0CD0     		beq	.L62
 655:.\Generated_Source\PSoC4/I2C_MPU6050_I2C_MASTER.c ****         {
 656:.\Generated_Source\PSoC4/I2C_MPU6050_I2C_MASTER.c ****             I2C_MPU6050_SCB_SW_RESET;
 1040              		.loc 1 656 0
 1041 0098 0B4B     		ldr	r3, .L69+12
 1042 009a 0B4A     		ldr	r2, .L69+12
 1043 009c 1268     		ldr	r2, [r2]
 1044 009e 5200     		lsl	r2, r2, #1
 1045 00a0 5208     		lsr	r2, r2, #1
 1046 00a2 1A60     		str	r2, [r3]
 1047 00a4 084B     		ldr	r3, .L69+12
 1048 00a6 084A     		ldr	r2, .L69+12
 1049 00a8 1268     		ldr	r2, [r2]
 1050 00aa 8021     		mov	r1, #128
 1051 00ac 0906     		lsl	r1, r1, #24
 1052 00ae 0A43     		orr	r2, r1
 1053 00b0 1A60     		str	r2, [r3]
 1054              	.L62:
ARM GAS  C:\Users\CHRIST~1\AppData\Local\Temp\ccTEKiBa.s 			page 31


 657:.\Generated_Source\PSoC4/I2C_MPU6050_I2C_MASTER.c ****         }
 658:.\Generated_Source\PSoC4/I2C_MPU6050_I2C_MASTER.c ****     }
 659:.\Generated_Source\PSoC4/I2C_MPU6050_I2C_MASTER.c **** 
 660:.\Generated_Source\PSoC4/I2C_MPU6050_I2C_MASTER.c ****     return(errStatus);
 1055              		.loc 1 660 0
 1056 00b2 BB68     		ldr	r3, [r7, #8]
 661:.\Generated_Source\PSoC4/I2C_MPU6050_I2C_MASTER.c **** }
 1057              		.loc 1 661 0
 1058 00b4 181C     		mov	r0, r3
 1059 00b6 BD46     		mov	sp, r7
 1060 00b8 04B0     		add	sp, sp, #16
 1061              		@ sp needed
 1062 00ba 80BD     		pop	{r7, pc}
 1063              	.L70:
 1064              		.align	2
 1065              	.L69:
 1066 00bc 00000000 		.word	I2C_MPU6050_state
 1067 00c0 40022540 		.word	1076167232
 1068 00c4 000F2540 		.word	1076170496
 1069 00c8 00002540 		.word	1076166656
 1070              		.cfi_endproc
 1071              	.LFE7:
 1072              		.size	I2C_MPU6050_I2CMasterWriteByte, .-I2C_MPU6050_I2CMasterWriteByte
 1073              		.section	.text.I2C_MPU6050_I2CMasterReadByte,"ax",%progbits
 1074              		.align	2
 1075              		.global	I2C_MPU6050_I2CMasterReadByte
 1076              		.code	16
 1077              		.thumb_func
 1078              		.type	I2C_MPU6050_I2CMasterReadByte, %function
 1079              	I2C_MPU6050_I2CMasterReadByte:
 1080              	.LFB8:
 662:.\Generated_Source\PSoC4/I2C_MPU6050_I2C_MASTER.c **** 
 663:.\Generated_Source\PSoC4/I2C_MPU6050_I2C_MASTER.c **** 
 664:.\Generated_Source\PSoC4/I2C_MPU6050_I2C_MASTER.c **** /*******************************************************************************
 665:.\Generated_Source\PSoC4/I2C_MPU6050_I2C_MASTER.c **** * Function Name: I2C_MPU6050_I2CMasterReadByte
 666:.\Generated_Source\PSoC4/I2C_MPU6050_I2C_MASTER.c **** ********************************************************************************
 667:.\Generated_Source\PSoC4/I2C_MPU6050_I2C_MASTER.c **** *
 668:.\Generated_Source\PSoC4/I2C_MPU6050_I2C_MASTER.c **** * Summary:
 669:.\Generated_Source\PSoC4/I2C_MPU6050_I2C_MASTER.c **** *  Reads one byte from a slave and ACKs or NAKs received byte.
 670:.\Generated_Source\PSoC4/I2C_MPU6050_I2C_MASTER.c **** *  This function does not generate NAK explicitly. The following call
 671:.\Generated_Source\PSoC4/I2C_MPU6050_I2C_MASTER.c **** *  SCB_I2CMasterSendStop() or SCB_I2CMasterSendRestart() will generate NAK and
 672:.\Generated_Source\PSoC4/I2C_MPU6050_I2C_MASTER.c **** *  Stop or ReStart condition appropriately.
 673:.\Generated_Source\PSoC4/I2C_MPU6050_I2C_MASTER.c **** *  This function is blocking and does not return until byte is received
 674:.\Generated_Source\PSoC4/I2C_MPU6050_I2C_MASTER.c **** *  or error occurred.
 675:.\Generated_Source\PSoC4/I2C_MPU6050_I2C_MASTER.c **** *
 676:.\Generated_Source\PSoC4/I2C_MPU6050_I2C_MASTER.c **** * Parameters:
 677:.\Generated_Source\PSoC4/I2C_MPU6050_I2C_MASTER.c **** *  ackNack: Response to received byte.
 678:.\Generated_Source\PSoC4/I2C_MPU6050_I2C_MASTER.c **** *
 679:.\Generated_Source\PSoC4/I2C_MPU6050_I2C_MASTER.c **** * Return:
 680:.\Generated_Source\PSoC4/I2C_MPU6050_I2C_MASTER.c **** *  Byte read from the slave. In case of error the MSB of returned data
 681:.\Generated_Source\PSoC4/I2C_MPU6050_I2C_MASTER.c **** *  is set to 1.
 682:.\Generated_Source\PSoC4/I2C_MPU6050_I2C_MASTER.c **** *
 683:.\Generated_Source\PSoC4/I2C_MPU6050_I2C_MASTER.c **** * Side Effects:
 684:.\Generated_Source\PSoC4/I2C_MPU6050_I2C_MASTER.c **** *  A valid Start or ReStart condition must be generated before calling this
 685:.\Generated_Source\PSoC4/I2C_MPU6050_I2C_MASTER.c **** *  function. This function does nothing and returns invalid byte value
 686:.\Generated_Source\PSoC4/I2C_MPU6050_I2C_MASTER.c **** *  if Start or ReStart conditions failed before this function was called.
 687:.\Generated_Source\PSoC4/I2C_MPU6050_I2C_MASTER.c **** *
ARM GAS  C:\Users\CHRIST~1\AppData\Local\Temp\ccTEKiBa.s 			page 32


 688:.\Generated_Source\PSoC4/I2C_MPU6050_I2C_MASTER.c **** * Global variables:
 689:.\Generated_Source\PSoC4/I2C_MPU6050_I2C_MASTER.c **** *  I2C_MPU6050_state - used to store current state of software FSM.
 690:.\Generated_Source\PSoC4/I2C_MPU6050_I2C_MASTER.c **** *
 691:.\Generated_Source\PSoC4/I2C_MPU6050_I2C_MASTER.c **** *******************************************************************************/
 692:.\Generated_Source\PSoC4/I2C_MPU6050_I2C_MASTER.c **** uint32 I2C_MPU6050_I2CMasterReadByte(uint32 ackNack)
 693:.\Generated_Source\PSoC4/I2C_MPU6050_I2C_MASTER.c **** {
 1081              		.loc 1 693 0
 1082              		.cfi_startproc
 1083 0000 80B5     		push	{r7, lr}
 1084              		.cfi_def_cfa_offset 8
 1085              		.cfi_offset 7, -8
 1086              		.cfi_offset 14, -4
 1087 0002 84B0     		sub	sp, sp, #16
 1088              		.cfi_def_cfa_offset 24
 1089 0004 00AF     		add	r7, sp, #0
 1090              		.cfi_def_cfa_register 7
 1091 0006 7860     		str	r0, [r7, #4]
 694:.\Generated_Source\PSoC4/I2C_MPU6050_I2C_MASTER.c ****     uint32 theByte;
 695:.\Generated_Source\PSoC4/I2C_MPU6050_I2C_MASTER.c **** 
 696:.\Generated_Source\PSoC4/I2C_MPU6050_I2C_MASTER.c ****     /* Return invalid byte in case BUS_ERR happen during receiving */
 697:.\Generated_Source\PSoC4/I2C_MPU6050_I2C_MASTER.c ****     theByte = I2C_MPU6050_I2C_INVALID_BYTE;
 1092              		.loc 1 697 0
 1093 0008 0123     		mov	r3, #1
 1094 000a 5B42     		neg	r3, r3
 1095 000c FB60     		str	r3, [r7, #12]
 698:.\Generated_Source\PSoC4/I2C_MPU6050_I2C_MASTER.c **** 
 699:.\Generated_Source\PSoC4/I2C_MPU6050_I2C_MASTER.c ****     /* Check FSM state before read byte */
 700:.\Generated_Source\PSoC4/I2C_MPU6050_I2C_MASTER.c ****     if(I2C_MPU6050_CHECK_I2C_MASTER_ACTIVE)
 1096              		.loc 1 700 0
 1097 000e 1F4B     		ldr	r3, .L79
 1098 0010 1B78     		ldrb	r3, [r3]
 1099 0012 DBB2     		uxtb	r3, r3
 1100 0014 2022     		mov	r2, #32
 1101 0016 1340     		and	r3, r2
 1102 0018 DBB2     		uxtb	r3, r3
 1103 001a 002B     		cmp	r3, #0
 1104 001c 31D0     		beq	.L72
 701:.\Generated_Source\PSoC4/I2C_MPU6050_I2C_MASTER.c ****     {
 702:.\Generated_Source\PSoC4/I2C_MPU6050_I2C_MASTER.c ****         while((!I2C_MPU6050_CHECK_INTR_RX(I2C_MPU6050_INTR_RX_NOT_EMPTY)) &&
 1105              		.loc 1 702 0
 1106 001e C046     		mov	r8, r8
 1107              	.L74:
 1108              		.loc 1 702 0 is_stmt 0 discriminator 2
 1109 0020 1B4B     		ldr	r3, .L79+4
 1110 0022 1B68     		ldr	r3, [r3]
 1111 0024 0422     		mov	r2, #4
 1112 0026 1340     		and	r3, r2
 1113 0028 05D1     		bne	.L73
 703:.\Generated_Source\PSoC4/I2C_MPU6050_I2C_MASTER.c ****               (!I2C_MPU6050_CHECK_INTR_MASTER(I2C_MPU6050_INTR_MASTER_I2C_ARB_LOST |
 1114              		.loc 1 703 0 is_stmt 1 discriminator 1
 1115 002a 1A4B     		ldr	r3, .L79+8
 1116 002c 1A68     		ldr	r2, [r3]
 1117 002e 0223     		mov	r3, #2
 1118 0030 FF33     		add	r3, r3, #255
 1119 0032 1340     		and	r3, r2
 702:.\Generated_Source\PSoC4/I2C_MPU6050_I2C_MASTER.c ****               (!I2C_MPU6050_CHECK_INTR_MASTER(I2C_MPU6050_INTR_MASTER_I2C_ARB_LOST |
 1120              		.loc 1 702 0 discriminator 1
ARM GAS  C:\Users\CHRIST~1\AppData\Local\Temp\ccTEKiBa.s 			page 33


 1121 0034 F4D0     		beq	.L74
 1122              	.L73:
 704:.\Generated_Source\PSoC4/I2C_MPU6050_I2C_MASTER.c ****                                                   I2C_MPU6050_INTR_MASTER_I2C_BUS_ERROR)))
 705:.\Generated_Source\PSoC4/I2C_MPU6050_I2C_MASTER.c ****         {
 706:.\Generated_Source\PSoC4/I2C_MPU6050_I2C_MASTER.c ****             /* Wait until byte has been received */
 707:.\Generated_Source\PSoC4/I2C_MPU6050_I2C_MASTER.c ****         }
 708:.\Generated_Source\PSoC4/I2C_MPU6050_I2C_MASTER.c **** 
 709:.\Generated_Source\PSoC4/I2C_MPU6050_I2C_MASTER.c ****         /* Check the results after the byte was sent */
 710:.\Generated_Source\PSoC4/I2C_MPU6050_I2C_MASTER.c ****         if(I2C_MPU6050_CHECK_INTR_RX(I2C_MPU6050_INTR_RX_NOT_EMPTY))
 1123              		.loc 1 710 0
 1124 0036 164B     		ldr	r3, .L79+4
 1125 0038 1B68     		ldr	r3, [r3]
 1126 003a 0422     		mov	r2, #4
 1127 003c 1340     		and	r3, r2
 1128 003e 10D0     		beq	.L75
 711:.\Generated_Source\PSoC4/I2C_MPU6050_I2C_MASTER.c ****         {
 712:.\Generated_Source\PSoC4/I2C_MPU6050_I2C_MASTER.c ****             theByte = I2C_MPU6050_RX_FIFO_RD_REG;
 1129              		.loc 1 712 0
 1130 0040 154B     		ldr	r3, .L79+12
 1131 0042 1B68     		ldr	r3, [r3]
 1132 0044 FB60     		str	r3, [r7, #12]
 713:.\Generated_Source\PSoC4/I2C_MPU6050_I2C_MASTER.c **** 
 714:.\Generated_Source\PSoC4/I2C_MPU6050_I2C_MASTER.c ****             I2C_MPU6050_ClearRxInterruptSource(I2C_MPU6050_INTR_RX_NOT_EMPTY);
 1133              		.loc 1 714 0
 1134 0046 124B     		ldr	r3, .L79+4
 1135 0048 0422     		mov	r2, #4
 1136 004a 1A60     		str	r2, [r3]
 715:.\Generated_Source\PSoC4/I2C_MPU6050_I2C_MASTER.c **** 
 716:.\Generated_Source\PSoC4/I2C_MPU6050_I2C_MASTER.c ****             if(0u == ackNack)
 1137              		.loc 1 716 0
 1138 004c 7B68     		ldr	r3, [r7, #4]
 1139 004e 002B     		cmp	r3, #0
 1140 0050 03D1     		bne	.L76
 717:.\Generated_Source\PSoC4/I2C_MPU6050_I2C_MASTER.c ****             {
 718:.\Generated_Source\PSoC4/I2C_MPU6050_I2C_MASTER.c ****                 I2C_MPU6050_I2C_MASTER_GENERATE_ACK;
 1141              		.loc 1 718 0
 1142 0052 124B     		ldr	r3, .L79+16
 1143 0054 0422     		mov	r2, #4
 1144 0056 1A60     		str	r2, [r3]
 1145 0058 13E0     		b	.L72
 1146              	.L76:
 719:.\Generated_Source\PSoC4/I2C_MPU6050_I2C_MASTER.c ****             }
 720:.\Generated_Source\PSoC4/I2C_MPU6050_I2C_MASTER.c ****             else
 721:.\Generated_Source\PSoC4/I2C_MPU6050_I2C_MASTER.c ****             {
 722:.\Generated_Source\PSoC4/I2C_MPU6050_I2C_MASTER.c ****                 /* NACK is generated by Stop or ReStart command */
 723:.\Generated_Source\PSoC4/I2C_MPU6050_I2C_MASTER.c ****                 I2C_MPU6050_state = I2C_MPU6050_I2C_FSM_MSTR_HALT;
 1147              		.loc 1 723 0
 1148 005a 0C4B     		ldr	r3, .L79
 1149 005c 6022     		mov	r2, #96
 1150 005e 1A70     		strb	r2, [r3]
 1151 0060 0FE0     		b	.L72
 1152              	.L75:
 724:.\Generated_Source\PSoC4/I2C_MPU6050_I2C_MASTER.c ****             }
 725:.\Generated_Source\PSoC4/I2C_MPU6050_I2C_MASTER.c ****         }
 726:.\Generated_Source\PSoC4/I2C_MPU6050_I2C_MASTER.c ****         else
 727:.\Generated_Source\PSoC4/I2C_MPU6050_I2C_MASTER.c ****         {
 728:.\Generated_Source\PSoC4/I2C_MPU6050_I2C_MASTER.c ****             I2C_MPU6050_ClearMasterInterruptSource(I2C_MPU6050_INTR_MASTER_ALL);
ARM GAS  C:\Users\CHRIST~1\AppData\Local\Temp\ccTEKiBa.s 			page 34


 1153              		.loc 1 728 0
 1154 0062 0C4B     		ldr	r3, .L79+8
 1155 0064 0E4A     		ldr	r2, .L79+20
 1156 0066 1A60     		str	r2, [r3]
 729:.\Generated_Source\PSoC4/I2C_MPU6050_I2C_MASTER.c **** 
 730:.\Generated_Source\PSoC4/I2C_MPU6050_I2C_MASTER.c ****             /* Reset block in case of: LOST_ARB or BUS_ERR */
 731:.\Generated_Source\PSoC4/I2C_MPU6050_I2C_MASTER.c ****             I2C_MPU6050_SCB_SW_RESET;
 1157              		.loc 1 731 0
 1158 0068 0E4B     		ldr	r3, .L79+24
 1159 006a 0E4A     		ldr	r2, .L79+24
 1160 006c 1268     		ldr	r2, [r2]
 1161 006e 5200     		lsl	r2, r2, #1
 1162 0070 5208     		lsr	r2, r2, #1
 1163 0072 1A60     		str	r2, [r3]
 1164 0074 0B4B     		ldr	r3, .L79+24
 1165 0076 0B4A     		ldr	r2, .L79+24
 1166 0078 1268     		ldr	r2, [r2]
 1167 007a 8021     		mov	r1, #128
 1168 007c 0906     		lsl	r1, r1, #24
 1169 007e 0A43     		orr	r2, r1
 1170 0080 1A60     		str	r2, [r3]
 1171              	.L72:
 732:.\Generated_Source\PSoC4/I2C_MPU6050_I2C_MASTER.c ****         }
 733:.\Generated_Source\PSoC4/I2C_MPU6050_I2C_MASTER.c ****     }
 734:.\Generated_Source\PSoC4/I2C_MPU6050_I2C_MASTER.c **** 
 735:.\Generated_Source\PSoC4/I2C_MPU6050_I2C_MASTER.c ****     return(theByte);
 1172              		.loc 1 735 0
 1173 0082 FB68     		ldr	r3, [r7, #12]
 736:.\Generated_Source\PSoC4/I2C_MPU6050_I2C_MASTER.c **** }
 1174              		.loc 1 736 0
 1175 0084 181C     		mov	r0, r3
 1176 0086 BD46     		mov	sp, r7
 1177 0088 04B0     		add	sp, sp, #16
 1178              		@ sp needed
 1179 008a 80BD     		pop	{r7, pc}
 1180              	.L80:
 1181              		.align	2
 1182              	.L79:
 1183 008c 00000000 		.word	I2C_MPU6050_state
 1184 0090 C00F2540 		.word	1076170688
 1185 0094 000F2540 		.word	1076170496
 1186 0098 40032540 		.word	1076167488
 1187 009c 68002540 		.word	1076166760
 1188 00a0 17030000 		.word	791
 1189 00a4 00002540 		.word	1076166656
 1190              		.cfi_endproc
 1191              	.LFE8:
 1192              		.size	I2C_MPU6050_I2CMasterReadByte, .-I2C_MPU6050_I2CMasterReadByte
 1193              		.section	.text.I2C_MPU6050_I2CMasterGetReadBufSize,"ax",%progbits
 1194              		.align	2
 1195              		.global	I2C_MPU6050_I2CMasterGetReadBufSize
 1196              		.code	16
 1197              		.thumb_func
 1198              		.type	I2C_MPU6050_I2CMasterGetReadBufSize, %function
 1199              	I2C_MPU6050_I2CMasterGetReadBufSize:
 1200              	.LFB9:
 737:.\Generated_Source\PSoC4/I2C_MPU6050_I2C_MASTER.c **** 
ARM GAS  C:\Users\CHRIST~1\AppData\Local\Temp\ccTEKiBa.s 			page 35


 738:.\Generated_Source\PSoC4/I2C_MPU6050_I2C_MASTER.c **** 
 739:.\Generated_Source\PSoC4/I2C_MPU6050_I2C_MASTER.c **** /*******************************************************************************
 740:.\Generated_Source\PSoC4/I2C_MPU6050_I2C_MASTER.c **** * Function Name: I2C_MPU6050_I2CMasterGetReadBufSize
 741:.\Generated_Source\PSoC4/I2C_MPU6050_I2C_MASTER.c **** ********************************************************************************
 742:.\Generated_Source\PSoC4/I2C_MPU6050_I2C_MASTER.c **** *
 743:.\Generated_Source\PSoC4/I2C_MPU6050_I2C_MASTER.c **** * Summary:
 744:.\Generated_Source\PSoC4/I2C_MPU6050_I2C_MASTER.c **** *  Returns the number of bytes that has been transferred with an
 745:.\Generated_Source\PSoC4/I2C_MPU6050_I2C_MASTER.c **** *  SCB_I2CMasterReadBuf() function.
 746:.\Generated_Source\PSoC4/I2C_MPU6050_I2C_MASTER.c **** *
 747:.\Generated_Source\PSoC4/I2C_MPU6050_I2C_MASTER.c **** * Parameters:
 748:.\Generated_Source\PSoC4/I2C_MPU6050_I2C_MASTER.c **** *  None
 749:.\Generated_Source\PSoC4/I2C_MPU6050_I2C_MASTER.c **** *
 750:.\Generated_Source\PSoC4/I2C_MPU6050_I2C_MASTER.c **** * Return:
 751:.\Generated_Source\PSoC4/I2C_MPU6050_I2C_MASTER.c **** *  Byte count of transfer. If the transfer is not yet complete, it returns
 752:.\Generated_Source\PSoC4/I2C_MPU6050_I2C_MASTER.c **** *  the byte count transferred so far.
 753:.\Generated_Source\PSoC4/I2C_MPU6050_I2C_MASTER.c **** *
 754:.\Generated_Source\PSoC4/I2C_MPU6050_I2C_MASTER.c **** * Side Effects:
 755:.\Generated_Source\PSoC4/I2C_MPU6050_I2C_MASTER.c **** *  This function returns not valid value if SCB_I2C_MSTAT_ERR_ARB_LOST
 756:.\Generated_Source\PSoC4/I2C_MPU6050_I2C_MASTER.c **** *  or SCB_I2C_MSTAT_ERR_BUS_ERROR occurred while read transfer.
 757:.\Generated_Source\PSoC4/I2C_MPU6050_I2C_MASTER.c **** *
 758:.\Generated_Source\PSoC4/I2C_MPU6050_I2C_MASTER.c **** * Global variables:
 759:.\Generated_Source\PSoC4/I2C_MPU6050_I2C_MASTER.c **** *  I2C_MPU6050_mstrRdBufIndex - used to current index within master read
 760:.\Generated_Source\PSoC4/I2C_MPU6050_I2C_MASTER.c **** *  buffer.
 761:.\Generated_Source\PSoC4/I2C_MPU6050_I2C_MASTER.c **** *
 762:.\Generated_Source\PSoC4/I2C_MPU6050_I2C_MASTER.c **** *******************************************************************************/
 763:.\Generated_Source\PSoC4/I2C_MPU6050_I2C_MASTER.c **** uint32 I2C_MPU6050_I2CMasterGetReadBufSize(void)
 764:.\Generated_Source\PSoC4/I2C_MPU6050_I2C_MASTER.c **** {
 1201              		.loc 1 764 0
 1202              		.cfi_startproc
 1203 0000 80B5     		push	{r7, lr}
 1204              		.cfi_def_cfa_offset 8
 1205              		.cfi_offset 7, -8
 1206              		.cfi_offset 14, -4
 1207 0002 00AF     		add	r7, sp, #0
 1208              		.cfi_def_cfa_register 7
 765:.\Generated_Source\PSoC4/I2C_MPU6050_I2C_MASTER.c ****     return(I2C_MPU6050_mstrRdBufIndex);
 1209              		.loc 1 765 0
 1210 0004 024B     		ldr	r3, .L83
 1211 0006 1B68     		ldr	r3, [r3]
 766:.\Generated_Source\PSoC4/I2C_MPU6050_I2C_MASTER.c **** }
 1212              		.loc 1 766 0
 1213 0008 181C     		mov	r0, r3
 1214 000a BD46     		mov	sp, r7
 1215              		@ sp needed
 1216 000c 80BD     		pop	{r7, pc}
 1217              	.L84:
 1218 000e C046     		.align	2
 1219              	.L83:
 1220 0010 00000000 		.word	I2C_MPU6050_mstrRdBufIndex
 1221              		.cfi_endproc
 1222              	.LFE9:
 1223              		.size	I2C_MPU6050_I2CMasterGetReadBufSize, .-I2C_MPU6050_I2CMasterGetReadBufSize
 1224              		.section	.text.I2C_MPU6050_I2CMasterGetWriteBufSize,"ax",%progbits
 1225              		.align	2
 1226              		.global	I2C_MPU6050_I2CMasterGetWriteBufSize
 1227              		.code	16
 1228              		.thumb_func
ARM GAS  C:\Users\CHRIST~1\AppData\Local\Temp\ccTEKiBa.s 			page 36


 1229              		.type	I2C_MPU6050_I2CMasterGetWriteBufSize, %function
 1230              	I2C_MPU6050_I2CMasterGetWriteBufSize:
 1231              	.LFB10:
 767:.\Generated_Source\PSoC4/I2C_MPU6050_I2C_MASTER.c **** 
 768:.\Generated_Source\PSoC4/I2C_MPU6050_I2C_MASTER.c **** 
 769:.\Generated_Source\PSoC4/I2C_MPU6050_I2C_MASTER.c **** /*******************************************************************************
 770:.\Generated_Source\PSoC4/I2C_MPU6050_I2C_MASTER.c **** * Function Name: I2C_MPU6050_I2CMasterGetWriteBufSize
 771:.\Generated_Source\PSoC4/I2C_MPU6050_I2C_MASTER.c **** ********************************************************************************
 772:.\Generated_Source\PSoC4/I2C_MPU6050_I2C_MASTER.c **** *
 773:.\Generated_Source\PSoC4/I2C_MPU6050_I2C_MASTER.c **** * Summary:
 774:.\Generated_Source\PSoC4/I2C_MPU6050_I2C_MASTER.c **** *  Returns the number of bytes that have been transferred with an
 775:.\Generated_Source\PSoC4/I2C_MPU6050_I2C_MASTER.c **** *  SCB_I2CMasterWriteBuf() function.
 776:.\Generated_Source\PSoC4/I2C_MPU6050_I2C_MASTER.c **** *
 777:.\Generated_Source\PSoC4/I2C_MPU6050_I2C_MASTER.c **** * Parameters:
 778:.\Generated_Source\PSoC4/I2C_MPU6050_I2C_MASTER.c **** *  None
 779:.\Generated_Source\PSoC4/I2C_MPU6050_I2C_MASTER.c **** *
 780:.\Generated_Source\PSoC4/I2C_MPU6050_I2C_MASTER.c **** * Return:
 781:.\Generated_Source\PSoC4/I2C_MPU6050_I2C_MASTER.c **** *  Byte count of transfer. If the transfer is not yet complete, it returns
 782:.\Generated_Source\PSoC4/I2C_MPU6050_I2C_MASTER.c **** *  zero unit transfer completion.
 783:.\Generated_Source\PSoC4/I2C_MPU6050_I2C_MASTER.c **** *
 784:.\Generated_Source\PSoC4/I2C_MPU6050_I2C_MASTER.c **** * Side Effects:
 785:.\Generated_Source\PSoC4/I2C_MPU6050_I2C_MASTER.c **** *  This function returns not valid value if SCB_I2C_MSTAT_ERR_ARB_LOST
 786:.\Generated_Source\PSoC4/I2C_MPU6050_I2C_MASTER.c **** *  or SCB_I2C_MSTAT_ERR_BUS_ERROR occurred while read transfer.
 787:.\Generated_Source\PSoC4/I2C_MPU6050_I2C_MASTER.c **** *
 788:.\Generated_Source\PSoC4/I2C_MPU6050_I2C_MASTER.c **** * Global variables:
 789:.\Generated_Source\PSoC4/I2C_MPU6050_I2C_MASTER.c **** *  I2C_MPU6050_mstrWrBufIndex - used to current index within master write
 790:.\Generated_Source\PSoC4/I2C_MPU6050_I2C_MASTER.c **** *  buffer.
 791:.\Generated_Source\PSoC4/I2C_MPU6050_I2C_MASTER.c **** *
 792:.\Generated_Source\PSoC4/I2C_MPU6050_I2C_MASTER.c **** *******************************************************************************/
 793:.\Generated_Source\PSoC4/I2C_MPU6050_I2C_MASTER.c **** uint32 I2C_MPU6050_I2CMasterGetWriteBufSize(void)
 794:.\Generated_Source\PSoC4/I2C_MPU6050_I2C_MASTER.c **** {
 1232              		.loc 1 794 0
 1233              		.cfi_startproc
 1234 0000 80B5     		push	{r7, lr}
 1235              		.cfi_def_cfa_offset 8
 1236              		.cfi_offset 7, -8
 1237              		.cfi_offset 14, -4
 1238 0002 00AF     		add	r7, sp, #0
 1239              		.cfi_def_cfa_register 7
 795:.\Generated_Source\PSoC4/I2C_MPU6050_I2C_MASTER.c ****     return(I2C_MPU6050_mstrWrBufIndex);
 1240              		.loc 1 795 0
 1241 0004 024B     		ldr	r3, .L87
 1242 0006 1B68     		ldr	r3, [r3]
 796:.\Generated_Source\PSoC4/I2C_MPU6050_I2C_MASTER.c **** }
 1243              		.loc 1 796 0
 1244 0008 181C     		mov	r0, r3
 1245 000a BD46     		mov	sp, r7
 1246              		@ sp needed
 1247 000c 80BD     		pop	{r7, pc}
 1248              	.L88:
 1249 000e C046     		.align	2
 1250              	.L87:
 1251 0010 00000000 		.word	I2C_MPU6050_mstrWrBufIndex
 1252              		.cfi_endproc
 1253              	.LFE10:
 1254              		.size	I2C_MPU6050_I2CMasterGetWriteBufSize, .-I2C_MPU6050_I2CMasterGetWriteBufSize
 1255              		.section	.text.I2C_MPU6050_I2CMasterClearReadBuf,"ax",%progbits
ARM GAS  C:\Users\CHRIST~1\AppData\Local\Temp\ccTEKiBa.s 			page 37


 1256              		.align	2
 1257              		.global	I2C_MPU6050_I2CMasterClearReadBuf
 1258              		.code	16
 1259              		.thumb_func
 1260              		.type	I2C_MPU6050_I2CMasterClearReadBuf, %function
 1261              	I2C_MPU6050_I2CMasterClearReadBuf:
 1262              	.LFB11:
 797:.\Generated_Source\PSoC4/I2C_MPU6050_I2C_MASTER.c **** 
 798:.\Generated_Source\PSoC4/I2C_MPU6050_I2C_MASTER.c **** 
 799:.\Generated_Source\PSoC4/I2C_MPU6050_I2C_MASTER.c **** /*******************************************************************************
 800:.\Generated_Source\PSoC4/I2C_MPU6050_I2C_MASTER.c **** * Function Name: I2C_MPU6050_I2CMasterClearReadBuf
 801:.\Generated_Source\PSoC4/I2C_MPU6050_I2C_MASTER.c **** ********************************************************************************
 802:.\Generated_Source\PSoC4/I2C_MPU6050_I2C_MASTER.c **** *
 803:.\Generated_Source\PSoC4/I2C_MPU6050_I2C_MASTER.c **** * Summary:
 804:.\Generated_Source\PSoC4/I2C_MPU6050_I2C_MASTER.c **** *  Resets the read buffer pointer back to the first byte in the buffer.
 805:.\Generated_Source\PSoC4/I2C_MPU6050_I2C_MASTER.c **** *
 806:.\Generated_Source\PSoC4/I2C_MPU6050_I2C_MASTER.c **** * Parameters:
 807:.\Generated_Source\PSoC4/I2C_MPU6050_I2C_MASTER.c **** *  None
 808:.\Generated_Source\PSoC4/I2C_MPU6050_I2C_MASTER.c **** *
 809:.\Generated_Source\PSoC4/I2C_MPU6050_I2C_MASTER.c **** * Return:
 810:.\Generated_Source\PSoC4/I2C_MPU6050_I2C_MASTER.c **** *  None
 811:.\Generated_Source\PSoC4/I2C_MPU6050_I2C_MASTER.c **** *
 812:.\Generated_Source\PSoC4/I2C_MPU6050_I2C_MASTER.c **** * Global variables:
 813:.\Generated_Source\PSoC4/I2C_MPU6050_I2C_MASTER.c **** *  I2C_MPU6050_mstrRdBufIndex - used to current index within master read
 814:.\Generated_Source\PSoC4/I2C_MPU6050_I2C_MASTER.c **** *   buffer.
 815:.\Generated_Source\PSoC4/I2C_MPU6050_I2C_MASTER.c **** *  I2C_MPU6050_mstrStatus - used to store current status of I2C Master.
 816:.\Generated_Source\PSoC4/I2C_MPU6050_I2C_MASTER.c **** *
 817:.\Generated_Source\PSoC4/I2C_MPU6050_I2C_MASTER.c **** *******************************************************************************/
 818:.\Generated_Source\PSoC4/I2C_MPU6050_I2C_MASTER.c **** void I2C_MPU6050_I2CMasterClearReadBuf(void)
 819:.\Generated_Source\PSoC4/I2C_MPU6050_I2C_MASTER.c **** {
 1263              		.loc 1 819 0
 1264              		.cfi_startproc
 1265 0000 80B5     		push	{r7, lr}
 1266              		.cfi_def_cfa_offset 8
 1267              		.cfi_offset 7, -8
 1268              		.cfi_offset 14, -4
 1269 0002 00AF     		add	r7, sp, #0
 1270              		.cfi_def_cfa_register 7
 820:.\Generated_Source\PSoC4/I2C_MPU6050_I2C_MASTER.c ****     I2C_MPU6050_DisableInt();  /* Lock from interruption */
 1271              		.loc 1 820 0
 1272 0004 0A20     		mov	r0, #10
 1273 0006 FFF7FEFF 		bl	CyIntDisable
 821:.\Generated_Source\PSoC4/I2C_MPU6050_I2C_MASTER.c **** 
 822:.\Generated_Source\PSoC4/I2C_MPU6050_I2C_MASTER.c ****     I2C_MPU6050_mstrRdBufIndex = 0u;
 1274              		.loc 1 822 0
 1275 000a 084B     		ldr	r3, .L90
 1276 000c 0022     		mov	r2, #0
 1277 000e 1A60     		str	r2, [r3]
 823:.\Generated_Source\PSoC4/I2C_MPU6050_I2C_MASTER.c ****     I2C_MPU6050_mstrStatus    &= (uint16) ~I2C_MPU6050_I2C_MSTAT_RD_CMPLT;
 1278              		.loc 1 823 0
 1279 0010 074B     		ldr	r3, .L90+4
 1280 0012 1B88     		ldrh	r3, [r3]
 1281 0014 9BB2     		uxth	r3, r3
 1282 0016 0122     		mov	r2, #1
 1283 0018 9343     		bic	r3, r2
 1284 001a 9AB2     		uxth	r2, r3
 1285 001c 044B     		ldr	r3, .L90+4
ARM GAS  C:\Users\CHRIST~1\AppData\Local\Temp\ccTEKiBa.s 			page 38


 1286 001e 1A80     		strh	r2, [r3]
 824:.\Generated_Source\PSoC4/I2C_MPU6050_I2C_MASTER.c **** 
 825:.\Generated_Source\PSoC4/I2C_MPU6050_I2C_MASTER.c ****     I2C_MPU6050_EnableInt();   /* Release lock */
 1287              		.loc 1 825 0
 1288 0020 0A20     		mov	r0, #10
 1289 0022 FFF7FEFF 		bl	CyIntEnable
 826:.\Generated_Source\PSoC4/I2C_MPU6050_I2C_MASTER.c **** }
 1290              		.loc 1 826 0
 1291 0026 BD46     		mov	sp, r7
 1292              		@ sp needed
 1293 0028 80BD     		pop	{r7, pc}
 1294              	.L91:
 1295 002a C046     		.align	2
 1296              	.L90:
 1297 002c 00000000 		.word	I2C_MPU6050_mstrRdBufIndex
 1298 0030 00000000 		.word	I2C_MPU6050_mstrStatus
 1299              		.cfi_endproc
 1300              	.LFE11:
 1301              		.size	I2C_MPU6050_I2CMasterClearReadBuf, .-I2C_MPU6050_I2CMasterClearReadBuf
 1302              		.section	.text.I2C_MPU6050_I2CMasterClearWriteBuf,"ax",%progbits
 1303              		.align	2
 1304              		.global	I2C_MPU6050_I2CMasterClearWriteBuf
 1305              		.code	16
 1306              		.thumb_func
 1307              		.type	I2C_MPU6050_I2CMasterClearWriteBuf, %function
 1308              	I2C_MPU6050_I2CMasterClearWriteBuf:
 1309              	.LFB12:
 827:.\Generated_Source\PSoC4/I2C_MPU6050_I2C_MASTER.c **** 
 828:.\Generated_Source\PSoC4/I2C_MPU6050_I2C_MASTER.c **** 
 829:.\Generated_Source\PSoC4/I2C_MPU6050_I2C_MASTER.c **** /*******************************************************************************
 830:.\Generated_Source\PSoC4/I2C_MPU6050_I2C_MASTER.c **** * Function Name: I2C_MPU6050_I2CMasterClearWriteBuf
 831:.\Generated_Source\PSoC4/I2C_MPU6050_I2C_MASTER.c **** ********************************************************************************
 832:.\Generated_Source\PSoC4/I2C_MPU6050_I2C_MASTER.c **** *
 833:.\Generated_Source\PSoC4/I2C_MPU6050_I2C_MASTER.c **** * Summary:
 834:.\Generated_Source\PSoC4/I2C_MPU6050_I2C_MASTER.c **** *  Resets the write buffer pointer back to the first byte in the buffer.
 835:.\Generated_Source\PSoC4/I2C_MPU6050_I2C_MASTER.c **** *
 836:.\Generated_Source\PSoC4/I2C_MPU6050_I2C_MASTER.c **** * Parameters:
 837:.\Generated_Source\PSoC4/I2C_MPU6050_I2C_MASTER.c **** *  None
 838:.\Generated_Source\PSoC4/I2C_MPU6050_I2C_MASTER.c **** *
 839:.\Generated_Source\PSoC4/I2C_MPU6050_I2C_MASTER.c **** * Return:
 840:.\Generated_Source\PSoC4/I2C_MPU6050_I2C_MASTER.c **** *  None
 841:.\Generated_Source\PSoC4/I2C_MPU6050_I2C_MASTER.c **** *
 842:.\Generated_Source\PSoC4/I2C_MPU6050_I2C_MASTER.c **** * Global variables:
 843:.\Generated_Source\PSoC4/I2C_MPU6050_I2C_MASTER.c **** *  I2C_MPU6050_mstrRdBufIndex - used to current index within master read
 844:.\Generated_Source\PSoC4/I2C_MPU6050_I2C_MASTER.c **** *   buffer.
 845:.\Generated_Source\PSoC4/I2C_MPU6050_I2C_MASTER.c **** *  I2C_MPU6050_mstrStatus - used to store current status of I2C Master.
 846:.\Generated_Source\PSoC4/I2C_MPU6050_I2C_MASTER.c **** *
 847:.\Generated_Source\PSoC4/I2C_MPU6050_I2C_MASTER.c **** *******************************************************************************/
 848:.\Generated_Source\PSoC4/I2C_MPU6050_I2C_MASTER.c **** void I2C_MPU6050_I2CMasterClearWriteBuf(void)
 849:.\Generated_Source\PSoC4/I2C_MPU6050_I2C_MASTER.c **** {
 1310              		.loc 1 849 0
 1311              		.cfi_startproc
 1312 0000 80B5     		push	{r7, lr}
 1313              		.cfi_def_cfa_offset 8
 1314              		.cfi_offset 7, -8
 1315              		.cfi_offset 14, -4
 1316 0002 00AF     		add	r7, sp, #0
ARM GAS  C:\Users\CHRIST~1\AppData\Local\Temp\ccTEKiBa.s 			page 39


 1317              		.cfi_def_cfa_register 7
 850:.\Generated_Source\PSoC4/I2C_MPU6050_I2C_MASTER.c ****     I2C_MPU6050_DisableInt();  /* Lock from interruption */
 1318              		.loc 1 850 0
 1319 0004 0A20     		mov	r0, #10
 1320 0006 FFF7FEFF 		bl	CyIntDisable
 851:.\Generated_Source\PSoC4/I2C_MPU6050_I2C_MASTER.c **** 
 852:.\Generated_Source\PSoC4/I2C_MPU6050_I2C_MASTER.c ****     I2C_MPU6050_mstrWrBufIndex = 0u;
 1321              		.loc 1 852 0
 1322 000a 084B     		ldr	r3, .L93
 1323 000c 0022     		mov	r2, #0
 1324 000e 1A60     		str	r2, [r3]
 853:.\Generated_Source\PSoC4/I2C_MPU6050_I2C_MASTER.c ****     I2C_MPU6050_mstrStatus    &= (uint16) ~I2C_MPU6050_I2C_MSTAT_WR_CMPLT;
 1325              		.loc 1 853 0
 1326 0010 074B     		ldr	r3, .L93+4
 1327 0012 1B88     		ldrh	r3, [r3]
 1328 0014 9BB2     		uxth	r3, r3
 1329 0016 0222     		mov	r2, #2
 1330 0018 9343     		bic	r3, r2
 1331 001a 9AB2     		uxth	r2, r3
 1332 001c 044B     		ldr	r3, .L93+4
 1333 001e 1A80     		strh	r2, [r3]
 854:.\Generated_Source\PSoC4/I2C_MPU6050_I2C_MASTER.c **** 
 855:.\Generated_Source\PSoC4/I2C_MPU6050_I2C_MASTER.c ****     I2C_MPU6050_EnableInt();   /* Release lock */
 1334              		.loc 1 855 0
 1335 0020 0A20     		mov	r0, #10
 1336 0022 FFF7FEFF 		bl	CyIntEnable
 856:.\Generated_Source\PSoC4/I2C_MPU6050_I2C_MASTER.c **** }
 1337              		.loc 1 856 0
 1338 0026 BD46     		mov	sp, r7
 1339              		@ sp needed
 1340 0028 80BD     		pop	{r7, pc}
 1341              	.L94:
 1342 002a C046     		.align	2
 1343              	.L93:
 1344 002c 00000000 		.word	I2C_MPU6050_mstrWrBufIndex
 1345 0030 00000000 		.word	I2C_MPU6050_mstrStatus
 1346              		.cfi_endproc
 1347              	.LFE12:
 1348              		.size	I2C_MPU6050_I2CMasterClearWriteBuf, .-I2C_MPU6050_I2CMasterClearWriteBuf
 1349              		.section	.text.I2C_MPU6050_I2CMasterStatus,"ax",%progbits
 1350              		.align	2
 1351              		.global	I2C_MPU6050_I2CMasterStatus
 1352              		.code	16
 1353              		.thumb_func
 1354              		.type	I2C_MPU6050_I2CMasterStatus, %function
 1355              	I2C_MPU6050_I2CMasterStatus:
 1356              	.LFB13:
 857:.\Generated_Source\PSoC4/I2C_MPU6050_I2C_MASTER.c **** 
 858:.\Generated_Source\PSoC4/I2C_MPU6050_I2C_MASTER.c **** 
 859:.\Generated_Source\PSoC4/I2C_MPU6050_I2C_MASTER.c **** /*******************************************************************************
 860:.\Generated_Source\PSoC4/I2C_MPU6050_I2C_MASTER.c **** * Function Name: I2C_MPU6050_I2CMasterStatus
 861:.\Generated_Source\PSoC4/I2C_MPU6050_I2C_MASTER.c **** ********************************************************************************
 862:.\Generated_Source\PSoC4/I2C_MPU6050_I2C_MASTER.c **** *
 863:.\Generated_Source\PSoC4/I2C_MPU6050_I2C_MASTER.c **** * Summary:
 864:.\Generated_Source\PSoC4/I2C_MPU6050_I2C_MASTER.c **** *  Returns the master's communication status.
 865:.\Generated_Source\PSoC4/I2C_MPU6050_I2C_MASTER.c **** *
 866:.\Generated_Source\PSoC4/I2C_MPU6050_I2C_MASTER.c **** * Parameters:
ARM GAS  C:\Users\CHRIST~1\AppData\Local\Temp\ccTEKiBa.s 			page 40


 867:.\Generated_Source\PSoC4/I2C_MPU6050_I2C_MASTER.c **** *  None
 868:.\Generated_Source\PSoC4/I2C_MPU6050_I2C_MASTER.c **** *
 869:.\Generated_Source\PSoC4/I2C_MPU6050_I2C_MASTER.c **** * Return:
 870:.\Generated_Source\PSoC4/I2C_MPU6050_I2C_MASTER.c **** *  Current status of I2C master.
 871:.\Generated_Source\PSoC4/I2C_MPU6050_I2C_MASTER.c **** *
 872:.\Generated_Source\PSoC4/I2C_MPU6050_I2C_MASTER.c **** * Global variables:
 873:.\Generated_Source\PSoC4/I2C_MPU6050_I2C_MASTER.c **** *  I2C_MPU6050_mstrStatus - used to store current status of I2C Master.
 874:.\Generated_Source\PSoC4/I2C_MPU6050_I2C_MASTER.c **** *
 875:.\Generated_Source\PSoC4/I2C_MPU6050_I2C_MASTER.c **** *******************************************************************************/
 876:.\Generated_Source\PSoC4/I2C_MPU6050_I2C_MASTER.c **** uint32 I2C_MPU6050_I2CMasterStatus(void)
 877:.\Generated_Source\PSoC4/I2C_MPU6050_I2C_MASTER.c **** {
 1357              		.loc 1 877 0
 1358              		.cfi_startproc
 1359 0000 80B5     		push	{r7, lr}
 1360              		.cfi_def_cfa_offset 8
 1361              		.cfi_offset 7, -8
 1362              		.cfi_offset 14, -4
 1363 0002 82B0     		sub	sp, sp, #8
 1364              		.cfi_def_cfa_offset 16
 1365 0004 00AF     		add	r7, sp, #0
 1366              		.cfi_def_cfa_register 7
 878:.\Generated_Source\PSoC4/I2C_MPU6050_I2C_MASTER.c ****     uint32 status;
 879:.\Generated_Source\PSoC4/I2C_MPU6050_I2C_MASTER.c **** 
 880:.\Generated_Source\PSoC4/I2C_MPU6050_I2C_MASTER.c ****     I2C_MPU6050_DisableInt();  /* Lock from interruption */
 1367              		.loc 1 880 0
 1368 0006 0A20     		mov	r0, #10
 1369 0008 FFF7FEFF 		bl	CyIntDisable
 881:.\Generated_Source\PSoC4/I2C_MPU6050_I2C_MASTER.c **** 
 882:.\Generated_Source\PSoC4/I2C_MPU6050_I2C_MASTER.c ****     status = (uint32) I2C_MPU6050_mstrStatus;
 1370              		.loc 1 882 0
 1371 000c 0B4B     		ldr	r3, .L98
 1372 000e 1B88     		ldrh	r3, [r3]
 1373 0010 9BB2     		uxth	r3, r3
 1374 0012 7B60     		str	r3, [r7, #4]
 883:.\Generated_Source\PSoC4/I2C_MPU6050_I2C_MASTER.c **** 
 884:.\Generated_Source\PSoC4/I2C_MPU6050_I2C_MASTER.c ****     if (I2C_MPU6050_CHECK_I2C_MASTER_ACTIVE)
 1375              		.loc 1 884 0
 1376 0014 0A4B     		ldr	r3, .L98+4
 1377 0016 1B78     		ldrb	r3, [r3]
 1378 0018 DBB2     		uxtb	r3, r3
 1379 001a 2022     		mov	r2, #32
 1380 001c 1340     		and	r3, r2
 1381 001e DBB2     		uxtb	r3, r3
 1382 0020 002B     		cmp	r3, #0
 1383 0022 03D0     		beq	.L96
 885:.\Generated_Source\PSoC4/I2C_MPU6050_I2C_MASTER.c ****     {
 886:.\Generated_Source\PSoC4/I2C_MPU6050_I2C_MASTER.c ****         /* Add status of master pending transaction: MSTAT_XFER_INP */
 887:.\Generated_Source\PSoC4/I2C_MPU6050_I2C_MASTER.c ****         status |= (uint32) I2C_MPU6050_I2C_MSTAT_XFER_INP;
 1384              		.loc 1 887 0
 1385 0024 7B68     		ldr	r3, [r7, #4]
 1386 0026 0422     		mov	r2, #4
 1387 0028 1343     		orr	r3, r2
 1388 002a 7B60     		str	r3, [r7, #4]
 1389              	.L96:
 888:.\Generated_Source\PSoC4/I2C_MPU6050_I2C_MASTER.c ****     }
 889:.\Generated_Source\PSoC4/I2C_MPU6050_I2C_MASTER.c **** 
 890:.\Generated_Source\PSoC4/I2C_MPU6050_I2C_MASTER.c ****     I2C_MPU6050_EnableInt();   /* Release lock */
ARM GAS  C:\Users\CHRIST~1\AppData\Local\Temp\ccTEKiBa.s 			page 41


 1390              		.loc 1 890 0
 1391 002c 0A20     		mov	r0, #10
 1392 002e FFF7FEFF 		bl	CyIntEnable
 891:.\Generated_Source\PSoC4/I2C_MPU6050_I2C_MASTER.c **** 
 892:.\Generated_Source\PSoC4/I2C_MPU6050_I2C_MASTER.c ****     return(status);
 1393              		.loc 1 892 0
 1394 0032 7B68     		ldr	r3, [r7, #4]
 893:.\Generated_Source\PSoC4/I2C_MPU6050_I2C_MASTER.c **** }
 1395              		.loc 1 893 0
 1396 0034 181C     		mov	r0, r3
 1397 0036 BD46     		mov	sp, r7
 1398 0038 02B0     		add	sp, sp, #8
 1399              		@ sp needed
 1400 003a 80BD     		pop	{r7, pc}
 1401              	.L99:
 1402              		.align	2
 1403              	.L98:
 1404 003c 00000000 		.word	I2C_MPU6050_mstrStatus
 1405 0040 00000000 		.word	I2C_MPU6050_state
 1406              		.cfi_endproc
 1407              	.LFE13:
 1408              		.size	I2C_MPU6050_I2CMasterStatus, .-I2C_MPU6050_I2CMasterStatus
 1409              		.section	.text.I2C_MPU6050_I2CMasterClearStatus,"ax",%progbits
 1410              		.align	2
 1411              		.global	I2C_MPU6050_I2CMasterClearStatus
 1412              		.code	16
 1413              		.thumb_func
 1414              		.type	I2C_MPU6050_I2CMasterClearStatus, %function
 1415              	I2C_MPU6050_I2CMasterClearStatus:
 1416              	.LFB14:
 894:.\Generated_Source\PSoC4/I2C_MPU6050_I2C_MASTER.c **** 
 895:.\Generated_Source\PSoC4/I2C_MPU6050_I2C_MASTER.c **** 
 896:.\Generated_Source\PSoC4/I2C_MPU6050_I2C_MASTER.c **** /*******************************************************************************
 897:.\Generated_Source\PSoC4/I2C_MPU6050_I2C_MASTER.c **** * Function Name: I2C_MPU6050_I2CMasterClearStatus
 898:.\Generated_Source\PSoC4/I2C_MPU6050_I2C_MASTER.c **** ********************************************************************************
 899:.\Generated_Source\PSoC4/I2C_MPU6050_I2C_MASTER.c **** *
 900:.\Generated_Source\PSoC4/I2C_MPU6050_I2C_MASTER.c **** * Summary:
 901:.\Generated_Source\PSoC4/I2C_MPU6050_I2C_MASTER.c **** *  Clears all status flags and returns the master status.
 902:.\Generated_Source\PSoC4/I2C_MPU6050_I2C_MASTER.c **** *
 903:.\Generated_Source\PSoC4/I2C_MPU6050_I2C_MASTER.c **** * Parameters:
 904:.\Generated_Source\PSoC4/I2C_MPU6050_I2C_MASTER.c **** *  None
 905:.\Generated_Source\PSoC4/I2C_MPU6050_I2C_MASTER.c **** *
 906:.\Generated_Source\PSoC4/I2C_MPU6050_I2C_MASTER.c **** * Return:
 907:.\Generated_Source\PSoC4/I2C_MPU6050_I2C_MASTER.c **** *  Current status of I2C master.
 908:.\Generated_Source\PSoC4/I2C_MPU6050_I2C_MASTER.c **** *
 909:.\Generated_Source\PSoC4/I2C_MPU6050_I2C_MASTER.c **** * Global variables:
 910:.\Generated_Source\PSoC4/I2C_MPU6050_I2C_MASTER.c **** *  I2C_MPU6050_mstrStatus - used to store current status of I2C Master.
 911:.\Generated_Source\PSoC4/I2C_MPU6050_I2C_MASTER.c **** *
 912:.\Generated_Source\PSoC4/I2C_MPU6050_I2C_MASTER.c **** *******************************************************************************/
 913:.\Generated_Source\PSoC4/I2C_MPU6050_I2C_MASTER.c **** uint32 I2C_MPU6050_I2CMasterClearStatus(void)
 914:.\Generated_Source\PSoC4/I2C_MPU6050_I2C_MASTER.c **** {
 1417              		.loc 1 914 0
 1418              		.cfi_startproc
 1419 0000 80B5     		push	{r7, lr}
 1420              		.cfi_def_cfa_offset 8
 1421              		.cfi_offset 7, -8
 1422              		.cfi_offset 14, -4
ARM GAS  C:\Users\CHRIST~1\AppData\Local\Temp\ccTEKiBa.s 			page 42


 1423 0002 82B0     		sub	sp, sp, #8
 1424              		.cfi_def_cfa_offset 16
 1425 0004 00AF     		add	r7, sp, #0
 1426              		.cfi_def_cfa_register 7
 915:.\Generated_Source\PSoC4/I2C_MPU6050_I2C_MASTER.c ****     uint32 status;
 916:.\Generated_Source\PSoC4/I2C_MPU6050_I2C_MASTER.c **** 
 917:.\Generated_Source\PSoC4/I2C_MPU6050_I2C_MASTER.c ****     I2C_MPU6050_DisableInt();  /* Lock from interruption */
 1427              		.loc 1 917 0
 1428 0006 0A20     		mov	r0, #10
 1429 0008 FFF7FEFF 		bl	CyIntDisable
 918:.\Generated_Source\PSoC4/I2C_MPU6050_I2C_MASTER.c **** 
 919:.\Generated_Source\PSoC4/I2C_MPU6050_I2C_MASTER.c ****     /* Read and clear master status */
 920:.\Generated_Source\PSoC4/I2C_MPU6050_I2C_MASTER.c ****     status = (uint32) I2C_MPU6050_mstrStatus;
 1430              		.loc 1 920 0
 1431 000c 074B     		ldr	r3, .L102
 1432 000e 1B88     		ldrh	r3, [r3]
 1433 0010 9BB2     		uxth	r3, r3
 1434 0012 7B60     		str	r3, [r7, #4]
 921:.\Generated_Source\PSoC4/I2C_MPU6050_I2C_MASTER.c ****     I2C_MPU6050_mstrStatus = I2C_MPU6050_I2C_MSTAT_CLEAR;
 1435              		.loc 1 921 0
 1436 0014 054B     		ldr	r3, .L102
 1437 0016 0022     		mov	r2, #0
 1438 0018 1A80     		strh	r2, [r3]
 922:.\Generated_Source\PSoC4/I2C_MPU6050_I2C_MASTER.c **** 
 923:.\Generated_Source\PSoC4/I2C_MPU6050_I2C_MASTER.c ****     I2C_MPU6050_EnableInt();   /* Release lock */
 1439              		.loc 1 923 0
 1440 001a 0A20     		mov	r0, #10
 1441 001c FFF7FEFF 		bl	CyIntEnable
 924:.\Generated_Source\PSoC4/I2C_MPU6050_I2C_MASTER.c **** 
 925:.\Generated_Source\PSoC4/I2C_MPU6050_I2C_MASTER.c ****     return(status);
 1442              		.loc 1 925 0
 1443 0020 7B68     		ldr	r3, [r7, #4]
 926:.\Generated_Source\PSoC4/I2C_MPU6050_I2C_MASTER.c **** }
 1444              		.loc 1 926 0
 1445 0022 181C     		mov	r0, r3
 1446 0024 BD46     		mov	sp, r7
 1447 0026 02B0     		add	sp, sp, #8
 1448              		@ sp needed
 1449 0028 80BD     		pop	{r7, pc}
 1450              	.L103:
 1451 002a C046     		.align	2
 1452              	.L102:
 1453 002c 00000000 		.word	I2C_MPU6050_mstrStatus
 1454              		.cfi_endproc
 1455              	.LFE14:
 1456              		.size	I2C_MPU6050_I2CMasterClearStatus, .-I2C_MPU6050_I2CMasterClearStatus
 1457              		.section	.text.I2C_MPU6050_I2CReStartGeneration,"ax",%progbits
 1458              		.align	2
 1459              		.global	I2C_MPU6050_I2CReStartGeneration
 1460              		.code	16
 1461              		.thumb_func
 1462              		.type	I2C_MPU6050_I2CReStartGeneration, %function
 1463              	I2C_MPU6050_I2CReStartGeneration:
 1464              	.LFB15:
 927:.\Generated_Source\PSoC4/I2C_MPU6050_I2C_MASTER.c **** 
 928:.\Generated_Source\PSoC4/I2C_MPU6050_I2C_MASTER.c **** 
 929:.\Generated_Source\PSoC4/I2C_MPU6050_I2C_MASTER.c **** /*******************************************************************************
ARM GAS  C:\Users\CHRIST~1\AppData\Local\Temp\ccTEKiBa.s 			page 43


 930:.\Generated_Source\PSoC4/I2C_MPU6050_I2C_MASTER.c **** * Function Name: I2C_MPU6050_I2CReStartGeneration
 931:.\Generated_Source\PSoC4/I2C_MPU6050_I2C_MASTER.c **** ********************************************************************************
 932:.\Generated_Source\PSoC4/I2C_MPU6050_I2C_MASTER.c **** *
 933:.\Generated_Source\PSoC4/I2C_MPU6050_I2C_MASTER.c **** * Summary:
 934:.\Generated_Source\PSoC4/I2C_MPU6050_I2C_MASTER.c **** *  Generates a ReStart condition:
 935:.\Generated_Source\PSoC4/I2C_MPU6050_I2C_MASTER.c **** *  SCB IP V1 and later: Generates ReStart using the scb IP functionality
 936:.\Generated_Source\PSoC4/I2C_MPU6050_I2C_MASTER.c **** *    Sets the I2C_MASTER_CMD_M_START and I2C_MASTER_CMD_M_NACK (if the previous
 937:.\Generated_Source\PSoC4/I2C_MPU6050_I2C_MASTER.c **** *    transaction was read) bits in the SCB.I2C_MASTER_CMD register.
 938:.\Generated_Source\PSoC4/I2C_MPU6050_I2C_MASTER.c **** *    This combination forces the master to generate ReStart.
 939:.\Generated_Source\PSoC4/I2C_MPU6050_I2C_MASTER.c **** *
 940:.\Generated_Source\PSoC4/I2C_MPU6050_I2C_MASTER.c **** *  SCB IP V0: Generates Restart using the GPIO and scb IP functionality.
 941:.\Generated_Source\PSoC4/I2C_MPU6050_I2C_MASTER.c **** *   After the master completes write or read, the SCL is stretched.
 942:.\Generated_Source\PSoC4/I2C_MPU6050_I2C_MASTER.c **** *   The master waits until SDA line is released by the slave. Then the GPIO
 943:.\Generated_Source\PSoC4/I2C_MPU6050_I2C_MASTER.c **** *   function is enabled and the scb IP disabled as it already does not drive
 944:.\Generated_Source\PSoC4/I2C_MPU6050_I2C_MASTER.c **** *   the bus. In case of the previous transfer was read, the NACK is generated
 945:.\Generated_Source\PSoC4/I2C_MPU6050_I2C_MASTER.c **** *   by the GPIO. The delay of tLOW is added to manage the hold time.
 946:.\Generated_Source\PSoC4/I2C_MPU6050_I2C_MASTER.c **** *   Set I2C_M_CMD.START and enable the scb IP. The ReStart generation
 947:.\Generated_Source\PSoC4/I2C_MPU6050_I2C_MASTER.c **** *   is started after the I2C function is enabled for the SCL.
 948:.\Generated_Source\PSoC4/I2C_MPU6050_I2C_MASTER.c **** *   Note1: the scb IP due re-enable generates Start but on the I2C bus it
 949:.\Generated_Source\PSoC4/I2C_MPU6050_I2C_MASTER.c **** *          appears as ReStart.
 950:.\Generated_Source\PSoC4/I2C_MPU6050_I2C_MASTER.c **** *   Note2: the I2C_M_CMD.START is queued if scb IP is disabled.
 951:.\Generated_Source\PSoC4/I2C_MPU6050_I2C_MASTER.c **** *   Note3: the I2C_STATUS_M_READ is cleared is address was NACKed before.
 952:.\Generated_Source\PSoC4/I2C_MPU6050_I2C_MASTER.c **** *
 953:.\Generated_Source\PSoC4/I2C_MPU6050_I2C_MASTER.c **** * Parameters:
 954:.\Generated_Source\PSoC4/I2C_MPU6050_I2C_MASTER.c **** *  None
 955:.\Generated_Source\PSoC4/I2C_MPU6050_I2C_MASTER.c **** *
 956:.\Generated_Source\PSoC4/I2C_MPU6050_I2C_MASTER.c **** * Return:
 957:.\Generated_Source\PSoC4/I2C_MPU6050_I2C_MASTER.c **** *  None
 958:.\Generated_Source\PSoC4/I2C_MPU6050_I2C_MASTER.c **** *
 959:.\Generated_Source\PSoC4/I2C_MPU6050_I2C_MASTER.c **** * Side Effects:
 960:.\Generated_Source\PSoC4/I2C_MPU6050_I2C_MASTER.c **** *  SCB IP V0: The NACK generation by the GPIO may cause a greater SCL period
 961:.\Generated_Source\PSoC4/I2C_MPU6050_I2C_MASTER.c **** *             than expected for the selected master data rate.
 962:.\Generated_Source\PSoC4/I2C_MPU6050_I2C_MASTER.c **** *
 963:.\Generated_Source\PSoC4/I2C_MPU6050_I2C_MASTER.c **** *******************************************************************************/
 964:.\Generated_Source\PSoC4/I2C_MPU6050_I2C_MASTER.c **** void I2C_MPU6050_I2CReStartGeneration(void)
 965:.\Generated_Source\PSoC4/I2C_MPU6050_I2C_MASTER.c **** {
 1465              		.loc 1 965 0
 1466              		.cfi_startproc
 1467 0000 80B5     		push	{r7, lr}
 1468              		.cfi_def_cfa_offset 8
 1469              		.cfi_offset 7, -8
 1470              		.cfi_offset 14, -4
 1471 0002 82B0     		sub	sp, sp, #8
 1472              		.cfi_def_cfa_offset 16
 1473 0004 00AF     		add	r7, sp, #0
 1474              		.cfi_def_cfa_register 7
 966:.\Generated_Source\PSoC4/I2C_MPU6050_I2C_MASTER.c **** #if(I2C_MPU6050_CY_SCBIP_V0)
 967:.\Generated_Source\PSoC4/I2C_MPU6050_I2C_MASTER.c ****     /* Generates Restart use GPIO and scb IP functionality. Ticket ID#143715,
 968:.\Generated_Source\PSoC4/I2C_MPU6050_I2C_MASTER.c ****     ID#145238 and ID#173656 */
 969:.\Generated_Source\PSoC4/I2C_MPU6050_I2C_MASTER.c ****     uint32 status = I2C_MPU6050_I2C_STATUS_REG;
 970:.\Generated_Source\PSoC4/I2C_MPU6050_I2C_MASTER.c **** 
 971:.\Generated_Source\PSoC4/I2C_MPU6050_I2C_MASTER.c ****     while(I2C_MPU6050_WAIT_SDA_SET_HIGH)
 972:.\Generated_Source\PSoC4/I2C_MPU6050_I2C_MASTER.c ****     {
 973:.\Generated_Source\PSoC4/I2C_MPU6050_I2C_MASTER.c ****         /* Wait when slave release SDA line: SCL tHIGH is complete */
 974:.\Generated_Source\PSoC4/I2C_MPU6050_I2C_MASTER.c ****     }
 975:.\Generated_Source\PSoC4/I2C_MPU6050_I2C_MASTER.c **** 
 976:.\Generated_Source\PSoC4/I2C_MPU6050_I2C_MASTER.c ****     /* Prepare DR register to drive SCL line */
ARM GAS  C:\Users\CHRIST~1\AppData\Local\Temp\ccTEKiBa.s 			page 44


 977:.\Generated_Source\PSoC4/I2C_MPU6050_I2C_MASTER.c ****     I2C_MPU6050_SET_I2C_SCL_DR(I2C_MPU6050_I2C_SCL_LOW);
 978:.\Generated_Source\PSoC4/I2C_MPU6050_I2C_MASTER.c **** 
 979:.\Generated_Source\PSoC4/I2C_MPU6050_I2C_MASTER.c ****     /* Switch HSIOM to GPIO: SCL goes low */
 980:.\Generated_Source\PSoC4/I2C_MPU6050_I2C_MASTER.c ****     I2C_MPU6050_SET_I2C_SCL_HSIOM_SEL(I2C_MPU6050_HSIOM_GPIO_SEL);
 981:.\Generated_Source\PSoC4/I2C_MPU6050_I2C_MASTER.c **** 
 982:.\Generated_Source\PSoC4/I2C_MPU6050_I2C_MASTER.c ****     /* Disable SCB block */
 983:.\Generated_Source\PSoC4/I2C_MPU6050_I2C_MASTER.c ****     I2C_MPU6050_CTRL_REG &= (uint32) ~I2C_MPU6050_CTRL_ENABLED;
 984:.\Generated_Source\PSoC4/I2C_MPU6050_I2C_MASTER.c **** 
 985:.\Generated_Source\PSoC4/I2C_MPU6050_I2C_MASTER.c ****     if(0u != (status & I2C_MPU6050_I2C_STATUS_M_READ))
 986:.\Generated_Source\PSoC4/I2C_MPU6050_I2C_MASTER.c ****     {
 987:.\Generated_Source\PSoC4/I2C_MPU6050_I2C_MASTER.c ****         /* Generate NACK use GPIO functionality */
 988:.\Generated_Source\PSoC4/I2C_MPU6050_I2C_MASTER.c ****         I2C_MPU6050_SET_I2C_SCL_DR(I2C_MPU6050_I2C_SCL_LOW);
 989:.\Generated_Source\PSoC4/I2C_MPU6050_I2C_MASTER.c ****         CyDelayUs(I2C_MPU6050_I2C_TLOW_TIME); /* Count tLOW */
 990:.\Generated_Source\PSoC4/I2C_MPU6050_I2C_MASTER.c **** 
 991:.\Generated_Source\PSoC4/I2C_MPU6050_I2C_MASTER.c ****         I2C_MPU6050_SET_I2C_SCL_DR(I2C_MPU6050_I2C_SCL_HIGH);
 992:.\Generated_Source\PSoC4/I2C_MPU6050_I2C_MASTER.c ****         while(I2C_MPU6050_WAIT_SCL_SET_HIGH)
 993:.\Generated_Source\PSoC4/I2C_MPU6050_I2C_MASTER.c ****         {
 994:.\Generated_Source\PSoC4/I2C_MPU6050_I2C_MASTER.c ****             /* Wait until slave releases SCL in case if it stretches */
 995:.\Generated_Source\PSoC4/I2C_MPU6050_I2C_MASTER.c ****         }
 996:.\Generated_Source\PSoC4/I2C_MPU6050_I2C_MASTER.c ****         CyDelayUs(I2C_MPU6050_I2C_THIGH_TIME); /* Count tHIGH */
 997:.\Generated_Source\PSoC4/I2C_MPU6050_I2C_MASTER.c ****     }
 998:.\Generated_Source\PSoC4/I2C_MPU6050_I2C_MASTER.c **** 
 999:.\Generated_Source\PSoC4/I2C_MPU6050_I2C_MASTER.c ****     /* Count tLOW as hold time for write and read */
1000:.\Generated_Source\PSoC4/I2C_MPU6050_I2C_MASTER.c ****     I2C_MPU6050_SET_I2C_SCL_DR(I2C_MPU6050_I2C_SCL_LOW);
1001:.\Generated_Source\PSoC4/I2C_MPU6050_I2C_MASTER.c ****     CyDelayUs(I2C_MPU6050_I2C_TLOW_TIME); /* Count tLOW */
1002:.\Generated_Source\PSoC4/I2C_MPU6050_I2C_MASTER.c **** 
1003:.\Generated_Source\PSoC4/I2C_MPU6050_I2C_MASTER.c ****     /* Set command for Start generation: it will appear */
1004:.\Generated_Source\PSoC4/I2C_MPU6050_I2C_MASTER.c ****     I2C_MPU6050_I2C_MASTER_CMD_REG = I2C_MPU6050_I2C_MASTER_CMD_M_START;
1005:.\Generated_Source\PSoC4/I2C_MPU6050_I2C_MASTER.c **** 
1006:.\Generated_Source\PSoC4/I2C_MPU6050_I2C_MASTER.c ****     /* Enable SCB block */
1007:.\Generated_Source\PSoC4/I2C_MPU6050_I2C_MASTER.c ****     I2C_MPU6050_CTRL_REG |= (uint32) I2C_MPU6050_CTRL_ENABLED;
1008:.\Generated_Source\PSoC4/I2C_MPU6050_I2C_MASTER.c **** 
1009:.\Generated_Source\PSoC4/I2C_MPU6050_I2C_MASTER.c ****     /* Switch HSIOM to I2C: */
1010:.\Generated_Source\PSoC4/I2C_MPU6050_I2C_MASTER.c ****     I2C_MPU6050_SET_I2C_SCL_HSIOM_SEL(I2C_MPU6050_HSIOM_I2C_SEL);
1011:.\Generated_Source\PSoC4/I2C_MPU6050_I2C_MASTER.c **** 
1012:.\Generated_Source\PSoC4/I2C_MPU6050_I2C_MASTER.c ****     /* Revert SCL DR register */
1013:.\Generated_Source\PSoC4/I2C_MPU6050_I2C_MASTER.c ****     I2C_MPU6050_SET_I2C_SCL_DR(I2C_MPU6050_I2C_SCL_HIGH);
1014:.\Generated_Source\PSoC4/I2C_MPU6050_I2C_MASTER.c **** #else
1015:.\Generated_Source\PSoC4/I2C_MPU6050_I2C_MASTER.c ****     uint32 cmd;
1016:.\Generated_Source\PSoC4/I2C_MPU6050_I2C_MASTER.c **** 
1017:.\Generated_Source\PSoC4/I2C_MPU6050_I2C_MASTER.c ****     /* Generates ReStart use scb IP functionality */
1018:.\Generated_Source\PSoC4/I2C_MPU6050_I2C_MASTER.c ****     cmd  = I2C_MPU6050_I2C_MASTER_CMD_M_START;
 1475              		.loc 1 1018 0
 1476 0006 0123     		mov	r3, #1
 1477 0008 7B60     		str	r3, [r7, #4]
1019:.\Generated_Source\PSoC4/I2C_MPU6050_I2C_MASTER.c ****     cmd |= I2C_MPU6050_CHECK_I2C_STATUS(I2C_MPU6050_I2C_STATUS_M_READ) ?
 1478              		.loc 1 1019 0
 1479 000a 084B     		ldr	r3, .L107
 1480 000c 1B68     		ldr	r3, [r3]
 1481 000e 2022     		mov	r2, #32
 1482 0010 1340     		and	r3, r2
1020:.\Generated_Source\PSoC4/I2C_MPU6050_I2C_MASTER.c ****                 (I2C_MPU6050_I2C_MASTER_CMD_M_NACK) : (0u);
 1483              		.loc 1 1020 0
 1484 0012 01D0     		beq	.L105
 1485              		.loc 1 1020 0 is_stmt 0 discriminator 1
 1486 0014 0823     		mov	r3, #8
 1487 0016 00E0     		b	.L106
ARM GAS  C:\Users\CHRIST~1\AppData\Local\Temp\ccTEKiBa.s 			page 45


 1488              	.L105:
 1489              		.loc 1 1020 0 discriminator 2
 1490 0018 0023     		mov	r3, #0
 1491              	.L106:
1019:.\Generated_Source\PSoC4/I2C_MPU6050_I2C_MASTER.c ****     cmd |= I2C_MPU6050_CHECK_I2C_STATUS(I2C_MPU6050_I2C_STATUS_M_READ) ?
 1492              		.loc 1 1019 0 is_stmt 1 discriminator 4
 1493 001a 7A68     		ldr	r2, [r7, #4]
 1494 001c 1343     		orr	r3, r2
 1495 001e 7B60     		str	r3, [r7, #4]
1021:.\Generated_Source\PSoC4/I2C_MPU6050_I2C_MASTER.c **** 
1022:.\Generated_Source\PSoC4/I2C_MPU6050_I2C_MASTER.c ****     I2C_MPU6050_I2C_MASTER_CMD_REG = cmd;
 1496              		.loc 1 1022 0 discriminator 4
 1497 0020 034B     		ldr	r3, .L107+4
 1498 0022 7A68     		ldr	r2, [r7, #4]
 1499 0024 1A60     		str	r2, [r3]
1023:.\Generated_Source\PSoC4/I2C_MPU6050_I2C_MASTER.c **** #endif /* (I2C_MPU6050_CY_SCBIP_V1) */
1024:.\Generated_Source\PSoC4/I2C_MPU6050_I2C_MASTER.c **** }
 1500              		.loc 1 1024 0 discriminator 4
 1501 0026 BD46     		mov	sp, r7
 1502 0028 02B0     		add	sp, sp, #8
 1503              		@ sp needed
 1504 002a 80BD     		pop	{r7, pc}
 1505              	.L108:
 1506              		.align	2
 1507              	.L107:
 1508 002c 64002540 		.word	1076166756
 1509 0030 68002540 		.word	1076166760
 1510              		.cfi_endproc
 1511              	.LFE15:
 1512              		.size	I2C_MPU6050_I2CReStartGeneration, .-I2C_MPU6050_I2CReStartGeneration
 1513              		.text
 1514              	.Letext0:
 1515              		.file 2 "Generated_Source\\PSoC4/cytypes.h"
 1516              		.file 3 ".\\Generated_Source\\PSoC4\\I2C_MPU6050_I2C_PVT.h"
 1517              		.section	.debug_info,"",%progbits
 1518              	.Ldebug_info0:
 1519 0000 62040000 		.4byte	0x462
 1520 0004 0400     		.2byte	0x4
 1521 0006 00000000 		.4byte	.Ldebug_abbrev0
 1522 000a 04       		.byte	0x4
 1523 000b 01       		.uleb128 0x1
 1524 000c BB020000 		.4byte	.LASF50
 1525 0010 01       		.byte	0x1
 1526 0011 F2030000 		.4byte	.LASF51
 1527 0015 4F020000 		.4byte	.LASF52
 1528 0019 00000000 		.4byte	.Ldebug_ranges0+0
 1529 001d 00000000 		.4byte	0
 1530 0021 00000000 		.4byte	.Ldebug_line0
 1531 0025 02       		.uleb128 0x2
 1532 0026 01       		.byte	0x1
 1533 0027 06       		.byte	0x6
 1534 0028 C1040000 		.4byte	.LASF0
 1535 002c 02       		.uleb128 0x2
 1536 002d 01       		.byte	0x1
 1537 002e 08       		.byte	0x8
 1538 002f 1E020000 		.4byte	.LASF1
 1539 0033 02       		.uleb128 0x2
ARM GAS  C:\Users\CHRIST~1\AppData\Local\Temp\ccTEKiBa.s 			page 46


 1540 0034 02       		.byte	0x2
 1541 0035 05       		.byte	0x5
 1542 0036 88040000 		.4byte	.LASF2
 1543 003a 02       		.uleb128 0x2
 1544 003b 02       		.byte	0x2
 1545 003c 07       		.byte	0x7
 1546 003d CD000000 		.4byte	.LASF3
 1547 0041 02       		.uleb128 0x2
 1548 0042 04       		.byte	0x4
 1549 0043 05       		.byte	0x5
 1550 0044 B8040000 		.4byte	.LASF4
 1551 0048 02       		.uleb128 0x2
 1552 0049 04       		.byte	0x4
 1553 004a 07       		.byte	0x7
 1554 004b DA010000 		.4byte	.LASF5
 1555 004f 02       		.uleb128 0x2
 1556 0050 08       		.byte	0x8
 1557 0051 05       		.byte	0x5
 1558 0052 46040000 		.4byte	.LASF6
 1559 0056 02       		.uleb128 0x2
 1560 0057 08       		.byte	0x8
 1561 0058 07       		.byte	0x7
 1562 0059 8F030000 		.4byte	.LASF7
 1563 005d 03       		.uleb128 0x3
 1564 005e 04       		.byte	0x4
 1565 005f 05       		.byte	0x5
 1566 0060 696E7400 		.ascii	"int\000"
 1567 0064 02       		.uleb128 0x2
 1568 0065 04       		.byte	0x4
 1569 0066 07       		.byte	0x7
 1570 0067 5E030000 		.4byte	.LASF8
 1571 006b 04       		.uleb128 0x4
 1572 006c EC010000 		.4byte	.LASF9
 1573 0070 02       		.byte	0x2
 1574 0071 A1       		.byte	0xa1
 1575 0072 2C000000 		.4byte	0x2c
 1576 0076 04       		.uleb128 0x4
 1577 0077 49030000 		.4byte	.LASF10
 1578 007b 02       		.byte	0x2
 1579 007c A2       		.byte	0xa2
 1580 007d 3A000000 		.4byte	0x3a
 1581 0081 04       		.uleb128 0x4
 1582 0082 57030000 		.4byte	.LASF11
 1583 0086 02       		.byte	0x2
 1584 0087 A3       		.byte	0xa3
 1585 0088 48000000 		.4byte	0x48
 1586 008c 02       		.uleb128 0x2
 1587 008d 04       		.byte	0x4
 1588 008e 04       		.byte	0x4
 1589 008f 79010000 		.4byte	.LASF12
 1590 0093 02       		.uleb128 0x2
 1591 0094 08       		.byte	0x8
 1592 0095 04       		.byte	0x4
 1593 0096 25010000 		.4byte	.LASF13
 1594 009a 02       		.uleb128 0x2
 1595 009b 01       		.byte	0x1
 1596 009c 08       		.byte	0x8
ARM GAS  C:\Users\CHRIST~1\AppData\Local\Temp\ccTEKiBa.s 			page 47


 1597 009d 66040000 		.4byte	.LASF14
 1598 00a1 05       		.uleb128 0x5
 1599 00a2 6B000000 		.4byte	0x6b
 1600 00a6 05       		.uleb128 0x5
 1601 00a7 76000000 		.4byte	0x76
 1602 00ab 06       		.uleb128 0x6
 1603 00ac 00000000 		.4byte	.LASF15
 1604 00b0 02       		.byte	0x2
 1605 00b1 4D01     		.2byte	0x14d
 1606 00b3 B7000000 		.4byte	0xb7
 1607 00b7 05       		.uleb128 0x5
 1608 00b8 81000000 		.4byte	0x81
 1609 00bc 02       		.uleb128 0x2
 1610 00bd 04       		.byte	0x4
 1611 00be 07       		.byte	0x7
 1612 00bf 24040000 		.4byte	.LASF16
 1613 00c3 07       		.uleb128 0x7
 1614 00c4 C7030000 		.4byte	.LASF20
 1615 00c8 01       		.byte	0x1
 1616 00c9 50       		.byte	0x50
 1617 00ca 81000000 		.4byte	0x81
 1618 00ce 00000000 		.4byte	.LFB2
 1619 00d2 1C010000 		.4byte	.LFE2-.LFB2
 1620 00d6 01       		.uleb128 0x1
 1621 00d7 9C       		.byte	0x9c
 1622 00d8 23010000 		.4byte	0x123
 1623 00dc 08       		.uleb128 0x8
 1624 00dd E5030000 		.4byte	.LASF17
 1625 00e1 01       		.byte	0x1
 1626 00e2 50       		.byte	0x50
 1627 00e3 81000000 		.4byte	0x81
 1628 00e7 02       		.uleb128 0x2
 1629 00e8 91       		.byte	0x91
 1630 00e9 6C       		.sleb128 -20
 1631 00ea 08       		.uleb128 0x8
 1632 00eb 88030000 		.4byte	.LASF18
 1633 00ef 01       		.byte	0x1
 1634 00f0 50       		.byte	0x50
 1635 00f1 23010000 		.4byte	0x123
 1636 00f5 02       		.uleb128 0x2
 1637 00f6 91       		.byte	0x91
 1638 00f7 68       		.sleb128 -24
 1639 00f8 09       		.uleb128 0x9
 1640 00f9 636E7400 		.ascii	"cnt\000"
 1641 00fd 01       		.byte	0x1
 1642 00fe 50       		.byte	0x50
 1643 00ff 81000000 		.4byte	0x81
 1644 0103 02       		.uleb128 0x2
 1645 0104 91       		.byte	0x91
 1646 0105 64       		.sleb128 -28
 1647 0106 08       		.uleb128 0x8
 1648 0107 83040000 		.4byte	.LASF19
 1649 010b 01       		.byte	0x1
 1650 010c 50       		.byte	0x50
 1651 010d 81000000 		.4byte	0x81
 1652 0111 02       		.uleb128 0x2
 1653 0112 91       		.byte	0x91
ARM GAS  C:\Users\CHRIST~1\AppData\Local\Temp\ccTEKiBa.s 			page 48


 1654 0113 60       		.sleb128 -32
 1655 0114 0A       		.uleb128 0xa
 1656 0115 14020000 		.4byte	.LASF23
 1657 0119 01       		.byte	0x1
 1658 011a 52       		.byte	0x52
 1659 011b 81000000 		.4byte	0x81
 1660 011f 02       		.uleb128 0x2
 1661 0120 91       		.byte	0x91
 1662 0121 74       		.sleb128 -12
 1663 0122 00       		.byte	0
 1664 0123 0B       		.uleb128 0xb
 1665 0124 04       		.byte	0x4
 1666 0125 6B000000 		.4byte	0x6b
 1667 0129 07       		.uleb128 0x7
 1668 012a 6B030000 		.4byte	.LASF21
 1669 012e 01       		.byte	0x1
 1670 012f BA       		.byte	0xba
 1671 0130 81000000 		.4byte	0x81
 1672 0134 00000000 		.4byte	.LFB3
 1673 0138 2C010000 		.4byte	.LFE3-.LFB3
 1674 013c 01       		.uleb128 0x1
 1675 013d 9C       		.byte	0x9c
 1676 013e 89010000 		.4byte	0x189
 1677 0142 08       		.uleb128 0x8
 1678 0143 E5030000 		.4byte	.LASF17
 1679 0147 01       		.byte	0x1
 1680 0148 BA       		.byte	0xba
 1681 0149 81000000 		.4byte	0x81
 1682 014d 02       		.uleb128 0x2
 1683 014e 91       		.byte	0x91
 1684 014f 6C       		.sleb128 -20
 1685 0150 08       		.uleb128 0x8
 1686 0151 50030000 		.4byte	.LASF22
 1687 0155 01       		.byte	0x1
 1688 0156 BA       		.byte	0xba
 1689 0157 23010000 		.4byte	0x123
 1690 015b 02       		.uleb128 0x2
 1691 015c 91       		.byte	0x91
 1692 015d 68       		.sleb128 -24
 1693 015e 09       		.uleb128 0x9
 1694 015f 636E7400 		.ascii	"cnt\000"
 1695 0163 01       		.byte	0x1
 1696 0164 BA       		.byte	0xba
 1697 0165 81000000 		.4byte	0x81
 1698 0169 02       		.uleb128 0x2
 1699 016a 91       		.byte	0x91
 1700 016b 64       		.sleb128 -28
 1701 016c 08       		.uleb128 0x8
 1702 016d 83040000 		.4byte	.LASF19
 1703 0171 01       		.byte	0x1
 1704 0172 BA       		.byte	0xba
 1705 0173 81000000 		.4byte	0x81
 1706 0177 02       		.uleb128 0x2
 1707 0178 91       		.byte	0x91
 1708 0179 60       		.sleb128 -32
 1709 017a 0A       		.uleb128 0xa
 1710 017b 14020000 		.4byte	.LASF23
ARM GAS  C:\Users\CHRIST~1\AppData\Local\Temp\ccTEKiBa.s 			page 49


 1711 017f 01       		.byte	0x1
 1712 0180 BC       		.byte	0xbc
 1713 0181 81000000 		.4byte	0x81
 1714 0185 02       		.uleb128 0x2
 1715 0186 91       		.byte	0x91
 1716 0187 74       		.sleb128 -12
 1717 0188 00       		.byte	0
 1718 0189 0C       		.uleb128 0xc
 1719 018a 7F010000 		.4byte	.LASF24
 1720 018e 01       		.byte	0x1
 1721 018f 2101     		.2byte	0x121
 1722 0191 81000000 		.4byte	0x81
 1723 0195 00000000 		.4byte	.LFB4
 1724 0199 10010000 		.4byte	.LFE4-.LFB4
 1725 019d 01       		.uleb128 0x1
 1726 019e 9C       		.byte	0x9c
 1727 019f E0010000 		.4byte	0x1e0
 1728 01a3 0D       		.uleb128 0xd
 1729 01a4 E5030000 		.4byte	.LASF17
 1730 01a8 01       		.byte	0x1
 1731 01a9 2101     		.2byte	0x121
 1732 01ab 81000000 		.4byte	0x81
 1733 01af 02       		.uleb128 0x2
 1734 01b0 91       		.byte	0x91
 1735 01b1 6C       		.sleb128 -20
 1736 01b2 0D       		.uleb128 0xd
 1737 01b3 B4020000 		.4byte	.LASF25
 1738 01b7 01       		.byte	0x1
 1739 01b8 2101     		.2byte	0x121
 1740 01ba 81000000 		.4byte	0x81
 1741 01be 02       		.uleb128 0x2
 1742 01bf 91       		.byte	0x91
 1743 01c0 68       		.sleb128 -24
 1744 01c1 0E       		.uleb128 0xe
 1745 01c2 33010000 		.4byte	.LASF26
 1746 01c6 01       		.byte	0x1
 1747 01c7 2301     		.2byte	0x123
 1748 01c9 81000000 		.4byte	0x81
 1749 01cd 02       		.uleb128 0x2
 1750 01ce 91       		.byte	0x91
 1751 01cf 74       		.sleb128 -12
 1752 01d0 0E       		.uleb128 0xe
 1753 01d1 14020000 		.4byte	.LASF23
 1754 01d5 01       		.byte	0x1
 1755 01d6 2401     		.2byte	0x124
 1756 01d8 81000000 		.4byte	0x81
 1757 01dc 02       		.uleb128 0x2
 1758 01dd 91       		.byte	0x91
 1759 01de 70       		.sleb128 -16
 1760 01df 00       		.byte	0
 1761 01e0 0C       		.uleb128 0xc
 1762 01e1 A6030000 		.4byte	.LASF27
 1763 01e5 01       		.byte	0x1
 1764 01e6 9601     		.2byte	0x196
 1765 01e8 81000000 		.4byte	0x81
 1766 01ec 00000000 		.4byte	.LFB5
 1767 01f0 08010000 		.4byte	.LFE5-.LFB5
ARM GAS  C:\Users\CHRIST~1\AppData\Local\Temp\ccTEKiBa.s 			page 50


 1768 01f4 01       		.uleb128 0x1
 1769 01f5 9C       		.byte	0x9c
 1770 01f6 37020000 		.4byte	0x237
 1771 01fa 0D       		.uleb128 0xd
 1772 01fb E5030000 		.4byte	.LASF17
 1773 01ff 01       		.byte	0x1
 1774 0200 9601     		.2byte	0x196
 1775 0202 81000000 		.4byte	0x81
 1776 0206 02       		.uleb128 0x2
 1777 0207 91       		.byte	0x91
 1778 0208 6C       		.sleb128 -20
 1779 0209 0D       		.uleb128 0xd
 1780 020a B4020000 		.4byte	.LASF25
 1781 020e 01       		.byte	0x1
 1782 020f 9601     		.2byte	0x196
 1783 0211 81000000 		.4byte	0x81
 1784 0215 02       		.uleb128 0x2
 1785 0216 91       		.byte	0x91
 1786 0217 68       		.sleb128 -24
 1787 0218 0E       		.uleb128 0xe
 1788 0219 33010000 		.4byte	.LASF26
 1789 021d 01       		.byte	0x1
 1790 021e 9801     		.2byte	0x198
 1791 0220 81000000 		.4byte	0x81
 1792 0224 02       		.uleb128 0x2
 1793 0225 91       		.byte	0x91
 1794 0226 74       		.sleb128 -12
 1795 0227 0E       		.uleb128 0xe
 1796 0228 14020000 		.4byte	.LASF23
 1797 022c 01       		.byte	0x1
 1798 022d 9901     		.2byte	0x199
 1799 022f 81000000 		.4byte	0x81
 1800 0233 02       		.uleb128 0x2
 1801 0234 91       		.byte	0x91
 1802 0235 70       		.sleb128 -16
 1803 0236 00       		.byte	0
 1804 0237 0F       		.uleb128 0xf
 1805 0238 5C000000 		.4byte	.LASF28
 1806 023c 01       		.byte	0x1
 1807 023d 0A02     		.2byte	0x20a
 1808 023f 81000000 		.4byte	0x81
 1809 0243 00000000 		.4byte	.LFB6
 1810 0247 BC000000 		.4byte	.LFE6-.LFB6
 1811 024b 01       		.uleb128 0x1
 1812 024c 9C       		.byte	0x9c
 1813 024d 70020000 		.4byte	0x270
 1814 0251 0E       		.uleb128 0xe
 1815 0252 33010000 		.4byte	.LASF26
 1816 0256 01       		.byte	0x1
 1817 0257 0C02     		.2byte	0x20c
 1818 0259 81000000 		.4byte	0x81
 1819 025d 02       		.uleb128 0x2
 1820 025e 91       		.byte	0x91
 1821 025f 74       		.sleb128 -12
 1822 0260 0E       		.uleb128 0xe
 1823 0261 14020000 		.4byte	.LASF23
 1824 0265 01       		.byte	0x1
ARM GAS  C:\Users\CHRIST~1\AppData\Local\Temp\ccTEKiBa.s 			page 51


 1825 0266 0D02     		.2byte	0x20d
 1826 0268 81000000 		.4byte	0x81
 1827 026c 02       		.uleb128 0x2
 1828 026d 91       		.byte	0x91
 1829 026e 70       		.sleb128 -16
 1830 026f 00       		.byte	0
 1831 0270 0F       		.uleb128 0xf
 1832 0271 06000000 		.4byte	.LASF29
 1833 0275 01       		.byte	0x1
 1834 0276 5B02     		.2byte	0x25b
 1835 0278 81000000 		.4byte	0x81
 1836 027c 00000000 		.4byte	.LFB7
 1837 0280 CC000000 		.4byte	.LFE7-.LFB7
 1838 0284 01       		.uleb128 0x1
 1839 0285 9C       		.byte	0x9c
 1840 0286 B8020000 		.4byte	0x2b8
 1841 028a 0D       		.uleb128 0xd
 1842 028b 92040000 		.4byte	.LASF30
 1843 028f 01       		.byte	0x1
 1844 0290 5B02     		.2byte	0x25b
 1845 0292 81000000 		.4byte	0x81
 1846 0296 02       		.uleb128 0x2
 1847 0297 91       		.byte	0x91
 1848 0298 6C       		.sleb128 -20
 1849 0299 0E       		.uleb128 0xe
 1850 029a 33010000 		.4byte	.LASF26
 1851 029e 01       		.byte	0x1
 1852 029f 5D02     		.2byte	0x25d
 1853 02a1 81000000 		.4byte	0x81
 1854 02a5 02       		.uleb128 0x2
 1855 02a6 91       		.byte	0x91
 1856 02a7 74       		.sleb128 -12
 1857 02a8 0E       		.uleb128 0xe
 1858 02a9 14020000 		.4byte	.LASF23
 1859 02ad 01       		.byte	0x1
 1860 02ae 5E02     		.2byte	0x25e
 1861 02b0 81000000 		.4byte	0x81
 1862 02b4 02       		.uleb128 0x2
 1863 02b5 91       		.byte	0x91
 1864 02b6 70       		.sleb128 -16
 1865 02b7 00       		.byte	0
 1866 02b8 0F       		.uleb128 0xf
 1867 02b9 9A040000 		.4byte	.LASF31
 1868 02bd 01       		.byte	0x1
 1869 02be B402     		.2byte	0x2b4
 1870 02c0 81000000 		.4byte	0x81
 1871 02c4 00000000 		.4byte	.LFB8
 1872 02c8 A8000000 		.4byte	.LFE8-.LFB8
 1873 02cc 01       		.uleb128 0x1
 1874 02cd 9C       		.byte	0x9c
 1875 02ce F1020000 		.4byte	0x2f1
 1876 02d2 0D       		.uleb128 0xd
 1877 02d3 0C020000 		.4byte	.LASF32
 1878 02d7 01       		.byte	0x1
 1879 02d8 B402     		.2byte	0x2b4
 1880 02da 81000000 		.4byte	0x81
 1881 02de 02       		.uleb128 0x2
ARM GAS  C:\Users\CHRIST~1\AppData\Local\Temp\ccTEKiBa.s 			page 52


 1882 02df 91       		.byte	0x91
 1883 02e0 6C       		.sleb128 -20
 1884 02e1 0E       		.uleb128 0xe
 1885 02e2 92040000 		.4byte	.LASF30
 1886 02e6 01       		.byte	0x1
 1887 02e7 B602     		.2byte	0x2b6
 1888 02e9 81000000 		.4byte	0x81
 1889 02ed 02       		.uleb128 0x2
 1890 02ee 91       		.byte	0x91
 1891 02ef 74       		.sleb128 -12
 1892 02f0 00       		.byte	0
 1893 02f1 10       		.uleb128 0x10
 1894 02f2 E0000000 		.4byte	.LASF33
 1895 02f6 01       		.byte	0x1
 1896 02f7 FB02     		.2byte	0x2fb
 1897 02f9 81000000 		.4byte	0x81
 1898 02fd 00000000 		.4byte	.LFB9
 1899 0301 14000000 		.4byte	.LFE9-.LFB9
 1900 0305 01       		.uleb128 0x1
 1901 0306 9C       		.byte	0x9c
 1902 0307 10       		.uleb128 0x10
 1903 0308 54010000 		.4byte	.LASF34
 1904 030c 01       		.byte	0x1
 1905 030d 1903     		.2byte	0x319
 1906 030f 81000000 		.4byte	0x81
 1907 0313 00000000 		.4byte	.LFB10
 1908 0317 14000000 		.4byte	.LFE10-.LFB10
 1909 031b 01       		.uleb128 0x1
 1910 031c 9C       		.byte	0x9c
 1911 031d 11       		.uleb128 0x11
 1912 031e 7A000000 		.4byte	.LASF35
 1913 0322 01       		.byte	0x1
 1914 0323 3203     		.2byte	0x332
 1915 0325 00000000 		.4byte	.LFB11
 1916 0329 34000000 		.4byte	.LFE11-.LFB11
 1917 032d 01       		.uleb128 0x1
 1918 032e 9C       		.byte	0x9c
 1919 032f 11       		.uleb128 0x11
 1920 0330 2C020000 		.4byte	.LASF36
 1921 0334 01       		.byte	0x1
 1922 0335 5003     		.2byte	0x350
 1923 0337 00000000 		.4byte	.LFB12
 1924 033b 34000000 		.4byte	.LFE12-.LFB12
 1925 033f 01       		.uleb128 0x1
 1926 0340 9C       		.byte	0x9c
 1927 0341 0C       		.uleb128 0xc
 1928 0342 25000000 		.4byte	.LASF37
 1929 0346 01       		.byte	0x1
 1930 0347 6C03     		.2byte	0x36c
 1931 0349 81000000 		.4byte	0x81
 1932 034d 00000000 		.4byte	.LFB13
 1933 0351 44000000 		.4byte	.LFE13-.LFB13
 1934 0355 01       		.uleb128 0x1
 1935 0356 9C       		.byte	0x9c
 1936 0357 6B030000 		.4byte	0x36b
 1937 035b 0E       		.uleb128 0xe
 1938 035c 2C010000 		.4byte	.LASF38
ARM GAS  C:\Users\CHRIST~1\AppData\Local\Temp\ccTEKiBa.s 			page 53


 1939 0360 01       		.byte	0x1
 1940 0361 6E03     		.2byte	0x36e
 1941 0363 81000000 		.4byte	0x81
 1942 0367 02       		.uleb128 0x2
 1943 0368 91       		.byte	0x91
 1944 0369 74       		.sleb128 -12
 1945 036a 00       		.byte	0
 1946 036b 0C       		.uleb128 0xc
 1947 036c 04010000 		.4byte	.LASF39
 1948 0370 01       		.byte	0x1
 1949 0371 9103     		.2byte	0x391
 1950 0373 81000000 		.4byte	0x81
 1951 0377 00000000 		.4byte	.LFB14
 1952 037b 30000000 		.4byte	.LFE14-.LFB14
 1953 037f 01       		.uleb128 0x1
 1954 0380 9C       		.byte	0x9c
 1955 0381 95030000 		.4byte	0x395
 1956 0385 0E       		.uleb128 0xe
 1957 0386 2C010000 		.4byte	.LASF38
 1958 038a 01       		.byte	0x1
 1959 038b 9303     		.2byte	0x393
 1960 038d 81000000 		.4byte	0x81
 1961 0391 02       		.uleb128 0x2
 1962 0392 91       		.byte	0x91
 1963 0393 74       		.sleb128 -12
 1964 0394 00       		.byte	0
 1965 0395 12       		.uleb128 0x12
 1966 0396 9E010000 		.4byte	.LASF53
 1967 039a 01       		.byte	0x1
 1968 039b C403     		.2byte	0x3c4
 1969 039d 00000000 		.4byte	.LFB15
 1970 03a1 34000000 		.4byte	.LFE15-.LFB15
 1971 03a5 01       		.uleb128 0x1
 1972 03a6 9C       		.byte	0x9c
 1973 03a7 BB030000 		.4byte	0x3bb
 1974 03ab 13       		.uleb128 0x13
 1975 03ac 636D6400 		.ascii	"cmd\000"
 1976 03b0 01       		.byte	0x1
 1977 03b1 F703     		.2byte	0x3f7
 1978 03b3 81000000 		.4byte	0x81
 1979 03b7 02       		.uleb128 0x2
 1980 03b8 91       		.byte	0x91
 1981 03b9 74       		.sleb128 -12
 1982 03ba 00       		.byte	0
 1983 03bb 14       		.uleb128 0x14
 1984 03bc 54040000 		.4byte	.LASF40
 1985 03c0 03       		.byte	0x3
 1986 03c1 1D       		.byte	0x1d
 1987 03c2 A1000000 		.4byte	0xa1
 1988 03c6 15       		.uleb128 0x15
 1989 03c7 B6000000 		.4byte	.LASF41
 1990 03cb 01       		.byte	0x1
 1991 03cc 1C       		.byte	0x1c
 1992 03cd A6000000 		.4byte	0xa6
 1993 03d1 05       		.uleb128 0x5
 1994 03d2 03       		.byte	0x3
 1995 03d3 00000000 		.4byte	I2C_MPU6050_mstrStatus
ARM GAS  C:\Users\CHRIST~1\AppData\Local\Temp\ccTEKiBa.s 			page 54


 1996 03d7 15       		.uleb128 0x15
 1997 03d8 6B040000 		.4byte	.LASF42
 1998 03dc 01       		.byte	0x1
 1999 03dd 1D       		.byte	0x1d
 2000 03de A1000000 		.4byte	0xa1
 2001 03e2 05       		.uleb128 0x5
 2002 03e3 03       		.byte	0x3
 2003 03e4 00000000 		.4byte	I2C_MPU6050_mstrControl
 2004 03e8 15       		.uleb128 0x15
 2005 03e9 2D040000 		.4byte	.LASF43
 2006 03ed 01       		.byte	0x1
 2007 03ee 20       		.byte	0x20
 2008 03ef F9030000 		.4byte	0x3f9
 2009 03f3 05       		.uleb128 0x5
 2010 03f4 03       		.byte	0x3
 2011 03f5 00000000 		.4byte	I2C_MPU6050_mstrRdBufPtr
 2012 03f9 0B       		.uleb128 0xb
 2013 03fa 04       		.byte	0x4
 2014 03fb A1000000 		.4byte	0xa1
 2015 03ff 15       		.uleb128 0x15
 2016 0400 9C000000 		.4byte	.LASF44
 2017 0404 01       		.byte	0x1
 2018 0405 21       		.byte	0x21
 2019 0406 B7000000 		.4byte	0xb7
 2020 040a 05       		.uleb128 0x5
 2021 040b 03       		.byte	0x3
 2022 040c 00000000 		.4byte	I2C_MPU6050_mstrRdBufSize
 2023 0410 15       		.uleb128 0x15
 2024 0411 BF010000 		.4byte	.LASF45
 2025 0415 01       		.byte	0x1
 2026 0416 22       		.byte	0x22
 2027 0417 B7000000 		.4byte	0xb7
 2028 041b 05       		.uleb128 0x5
 2029 041c 03       		.byte	0x3
 2030 041d 00000000 		.4byte	I2C_MPU6050_mstrRdBufIndex
 2031 0421 15       		.uleb128 0x15
 2032 0422 3B010000 		.4byte	.LASF46
 2033 0426 01       		.byte	0x1
 2034 0427 25       		.byte	0x25
 2035 0428 F9030000 		.4byte	0x3f9
 2036 042c 05       		.uleb128 0x5
 2037 042d 03       		.byte	0x3
 2038 042e 00000000 		.4byte	I2C_MPU6050_mstrWrBufPtr
 2039 0432 15       		.uleb128 0x15
 2040 0433 F2010000 		.4byte	.LASF47
 2041 0437 01       		.byte	0x1
 2042 0438 26       		.byte	0x26
 2043 0439 B7000000 		.4byte	0xb7
 2044 043d 05       		.uleb128 0x5
 2045 043e 03       		.byte	0x3
 2046 043f 00000000 		.4byte	I2C_MPU6050_mstrWrBufSize
 2047 0443 15       		.uleb128 0x15
 2048 0444 41000000 		.4byte	.LASF48
 2049 0448 01       		.byte	0x1
 2050 0449 27       		.byte	0x27
 2051 044a B7000000 		.4byte	0xb7
 2052 044e 05       		.uleb128 0x5
ARM GAS  C:\Users\CHRIST~1\AppData\Local\Temp\ccTEKiBa.s 			page 55


 2053 044f 03       		.byte	0x3
 2054 0450 00000000 		.4byte	I2C_MPU6050_mstrWrBufIndex
 2055 0454 15       		.uleb128 0x15
 2056 0455 CD040000 		.4byte	.LASF49
 2057 0459 01       		.byte	0x1
 2058 045a 28       		.byte	0x28
 2059 045b B7000000 		.4byte	0xb7
 2060 045f 05       		.uleb128 0x5
 2061 0460 03       		.byte	0x3
 2062 0461 00000000 		.4byte	I2C_MPU6050_mstrWrBufIndexTmp
 2063 0465 00       		.byte	0
 2064              		.section	.debug_abbrev,"",%progbits
 2065              	.Ldebug_abbrev0:
 2066 0000 01       		.uleb128 0x1
 2067 0001 11       		.uleb128 0x11
 2068 0002 01       		.byte	0x1
 2069 0003 25       		.uleb128 0x25
 2070 0004 0E       		.uleb128 0xe
 2071 0005 13       		.uleb128 0x13
 2072 0006 0B       		.uleb128 0xb
 2073 0007 03       		.uleb128 0x3
 2074 0008 0E       		.uleb128 0xe
 2075 0009 1B       		.uleb128 0x1b
 2076 000a 0E       		.uleb128 0xe
 2077 000b 55       		.uleb128 0x55
 2078 000c 17       		.uleb128 0x17
 2079 000d 11       		.uleb128 0x11
 2080 000e 01       		.uleb128 0x1
 2081 000f 10       		.uleb128 0x10
 2082 0010 17       		.uleb128 0x17
 2083 0011 00       		.byte	0
 2084 0012 00       		.byte	0
 2085 0013 02       		.uleb128 0x2
 2086 0014 24       		.uleb128 0x24
 2087 0015 00       		.byte	0
 2088 0016 0B       		.uleb128 0xb
 2089 0017 0B       		.uleb128 0xb
 2090 0018 3E       		.uleb128 0x3e
 2091 0019 0B       		.uleb128 0xb
 2092 001a 03       		.uleb128 0x3
 2093 001b 0E       		.uleb128 0xe
 2094 001c 00       		.byte	0
 2095 001d 00       		.byte	0
 2096 001e 03       		.uleb128 0x3
 2097 001f 24       		.uleb128 0x24
 2098 0020 00       		.byte	0
 2099 0021 0B       		.uleb128 0xb
 2100 0022 0B       		.uleb128 0xb
 2101 0023 3E       		.uleb128 0x3e
 2102 0024 0B       		.uleb128 0xb
 2103 0025 03       		.uleb128 0x3
 2104 0026 08       		.uleb128 0x8
 2105 0027 00       		.byte	0
 2106 0028 00       		.byte	0
 2107 0029 04       		.uleb128 0x4
 2108 002a 16       		.uleb128 0x16
 2109 002b 00       		.byte	0
ARM GAS  C:\Users\CHRIST~1\AppData\Local\Temp\ccTEKiBa.s 			page 56


 2110 002c 03       		.uleb128 0x3
 2111 002d 0E       		.uleb128 0xe
 2112 002e 3A       		.uleb128 0x3a
 2113 002f 0B       		.uleb128 0xb
 2114 0030 3B       		.uleb128 0x3b
 2115 0031 0B       		.uleb128 0xb
 2116 0032 49       		.uleb128 0x49
 2117 0033 13       		.uleb128 0x13
 2118 0034 00       		.byte	0
 2119 0035 00       		.byte	0
 2120 0036 05       		.uleb128 0x5
 2121 0037 35       		.uleb128 0x35
 2122 0038 00       		.byte	0
 2123 0039 49       		.uleb128 0x49
 2124 003a 13       		.uleb128 0x13
 2125 003b 00       		.byte	0
 2126 003c 00       		.byte	0
 2127 003d 06       		.uleb128 0x6
 2128 003e 16       		.uleb128 0x16
 2129 003f 00       		.byte	0
 2130 0040 03       		.uleb128 0x3
 2131 0041 0E       		.uleb128 0xe
 2132 0042 3A       		.uleb128 0x3a
 2133 0043 0B       		.uleb128 0xb
 2134 0044 3B       		.uleb128 0x3b
 2135 0045 05       		.uleb128 0x5
 2136 0046 49       		.uleb128 0x49
 2137 0047 13       		.uleb128 0x13
 2138 0048 00       		.byte	0
 2139 0049 00       		.byte	0
 2140 004a 07       		.uleb128 0x7
 2141 004b 2E       		.uleb128 0x2e
 2142 004c 01       		.byte	0x1
 2143 004d 3F       		.uleb128 0x3f
 2144 004e 19       		.uleb128 0x19
 2145 004f 03       		.uleb128 0x3
 2146 0050 0E       		.uleb128 0xe
 2147 0051 3A       		.uleb128 0x3a
 2148 0052 0B       		.uleb128 0xb
 2149 0053 3B       		.uleb128 0x3b
 2150 0054 0B       		.uleb128 0xb
 2151 0055 27       		.uleb128 0x27
 2152 0056 19       		.uleb128 0x19
 2153 0057 49       		.uleb128 0x49
 2154 0058 13       		.uleb128 0x13
 2155 0059 11       		.uleb128 0x11
 2156 005a 01       		.uleb128 0x1
 2157 005b 12       		.uleb128 0x12
 2158 005c 06       		.uleb128 0x6
 2159 005d 40       		.uleb128 0x40
 2160 005e 18       		.uleb128 0x18
 2161 005f 9642     		.uleb128 0x2116
 2162 0061 19       		.uleb128 0x19
 2163 0062 01       		.uleb128 0x1
 2164 0063 13       		.uleb128 0x13
 2165 0064 00       		.byte	0
 2166 0065 00       		.byte	0
ARM GAS  C:\Users\CHRIST~1\AppData\Local\Temp\ccTEKiBa.s 			page 57


 2167 0066 08       		.uleb128 0x8
 2168 0067 05       		.uleb128 0x5
 2169 0068 00       		.byte	0
 2170 0069 03       		.uleb128 0x3
 2171 006a 0E       		.uleb128 0xe
 2172 006b 3A       		.uleb128 0x3a
 2173 006c 0B       		.uleb128 0xb
 2174 006d 3B       		.uleb128 0x3b
 2175 006e 0B       		.uleb128 0xb
 2176 006f 49       		.uleb128 0x49
 2177 0070 13       		.uleb128 0x13
 2178 0071 02       		.uleb128 0x2
 2179 0072 18       		.uleb128 0x18
 2180 0073 00       		.byte	0
 2181 0074 00       		.byte	0
 2182 0075 09       		.uleb128 0x9
 2183 0076 05       		.uleb128 0x5
 2184 0077 00       		.byte	0
 2185 0078 03       		.uleb128 0x3
 2186 0079 08       		.uleb128 0x8
 2187 007a 3A       		.uleb128 0x3a
 2188 007b 0B       		.uleb128 0xb
 2189 007c 3B       		.uleb128 0x3b
 2190 007d 0B       		.uleb128 0xb
 2191 007e 49       		.uleb128 0x49
 2192 007f 13       		.uleb128 0x13
 2193 0080 02       		.uleb128 0x2
 2194 0081 18       		.uleb128 0x18
 2195 0082 00       		.byte	0
 2196 0083 00       		.byte	0
 2197 0084 0A       		.uleb128 0xa
 2198 0085 34       		.uleb128 0x34
 2199 0086 00       		.byte	0
 2200 0087 03       		.uleb128 0x3
 2201 0088 0E       		.uleb128 0xe
 2202 0089 3A       		.uleb128 0x3a
 2203 008a 0B       		.uleb128 0xb
 2204 008b 3B       		.uleb128 0x3b
 2205 008c 0B       		.uleb128 0xb
 2206 008d 49       		.uleb128 0x49
 2207 008e 13       		.uleb128 0x13
 2208 008f 02       		.uleb128 0x2
 2209 0090 18       		.uleb128 0x18
 2210 0091 00       		.byte	0
 2211 0092 00       		.byte	0
 2212 0093 0B       		.uleb128 0xb
 2213 0094 0F       		.uleb128 0xf
 2214 0095 00       		.byte	0
 2215 0096 0B       		.uleb128 0xb
 2216 0097 0B       		.uleb128 0xb
 2217 0098 49       		.uleb128 0x49
 2218 0099 13       		.uleb128 0x13
 2219 009a 00       		.byte	0
 2220 009b 00       		.byte	0
 2221 009c 0C       		.uleb128 0xc
 2222 009d 2E       		.uleb128 0x2e
 2223 009e 01       		.byte	0x1
ARM GAS  C:\Users\CHRIST~1\AppData\Local\Temp\ccTEKiBa.s 			page 58


 2224 009f 3F       		.uleb128 0x3f
 2225 00a0 19       		.uleb128 0x19
 2226 00a1 03       		.uleb128 0x3
 2227 00a2 0E       		.uleb128 0xe
 2228 00a3 3A       		.uleb128 0x3a
 2229 00a4 0B       		.uleb128 0xb
 2230 00a5 3B       		.uleb128 0x3b
 2231 00a6 05       		.uleb128 0x5
 2232 00a7 27       		.uleb128 0x27
 2233 00a8 19       		.uleb128 0x19
 2234 00a9 49       		.uleb128 0x49
 2235 00aa 13       		.uleb128 0x13
 2236 00ab 11       		.uleb128 0x11
 2237 00ac 01       		.uleb128 0x1
 2238 00ad 12       		.uleb128 0x12
 2239 00ae 06       		.uleb128 0x6
 2240 00af 40       		.uleb128 0x40
 2241 00b0 18       		.uleb128 0x18
 2242 00b1 9642     		.uleb128 0x2116
 2243 00b3 19       		.uleb128 0x19
 2244 00b4 01       		.uleb128 0x1
 2245 00b5 13       		.uleb128 0x13
 2246 00b6 00       		.byte	0
 2247 00b7 00       		.byte	0
 2248 00b8 0D       		.uleb128 0xd
 2249 00b9 05       		.uleb128 0x5
 2250 00ba 00       		.byte	0
 2251 00bb 03       		.uleb128 0x3
 2252 00bc 0E       		.uleb128 0xe
 2253 00bd 3A       		.uleb128 0x3a
 2254 00be 0B       		.uleb128 0xb
 2255 00bf 3B       		.uleb128 0x3b
 2256 00c0 05       		.uleb128 0x5
 2257 00c1 49       		.uleb128 0x49
 2258 00c2 13       		.uleb128 0x13
 2259 00c3 02       		.uleb128 0x2
 2260 00c4 18       		.uleb128 0x18
 2261 00c5 00       		.byte	0
 2262 00c6 00       		.byte	0
 2263 00c7 0E       		.uleb128 0xe
 2264 00c8 34       		.uleb128 0x34
 2265 00c9 00       		.byte	0
 2266 00ca 03       		.uleb128 0x3
 2267 00cb 0E       		.uleb128 0xe
 2268 00cc 3A       		.uleb128 0x3a
 2269 00cd 0B       		.uleb128 0xb
 2270 00ce 3B       		.uleb128 0x3b
 2271 00cf 05       		.uleb128 0x5
 2272 00d0 49       		.uleb128 0x49
 2273 00d1 13       		.uleb128 0x13
 2274 00d2 02       		.uleb128 0x2
 2275 00d3 18       		.uleb128 0x18
 2276 00d4 00       		.byte	0
 2277 00d5 00       		.byte	0
 2278 00d6 0F       		.uleb128 0xf
 2279 00d7 2E       		.uleb128 0x2e
 2280 00d8 01       		.byte	0x1
ARM GAS  C:\Users\CHRIST~1\AppData\Local\Temp\ccTEKiBa.s 			page 59


 2281 00d9 3F       		.uleb128 0x3f
 2282 00da 19       		.uleb128 0x19
 2283 00db 03       		.uleb128 0x3
 2284 00dc 0E       		.uleb128 0xe
 2285 00dd 3A       		.uleb128 0x3a
 2286 00de 0B       		.uleb128 0xb
 2287 00df 3B       		.uleb128 0x3b
 2288 00e0 05       		.uleb128 0x5
 2289 00e1 27       		.uleb128 0x27
 2290 00e2 19       		.uleb128 0x19
 2291 00e3 49       		.uleb128 0x49
 2292 00e4 13       		.uleb128 0x13
 2293 00e5 11       		.uleb128 0x11
 2294 00e6 01       		.uleb128 0x1
 2295 00e7 12       		.uleb128 0x12
 2296 00e8 06       		.uleb128 0x6
 2297 00e9 40       		.uleb128 0x40
 2298 00ea 18       		.uleb128 0x18
 2299 00eb 9742     		.uleb128 0x2117
 2300 00ed 19       		.uleb128 0x19
 2301 00ee 01       		.uleb128 0x1
 2302 00ef 13       		.uleb128 0x13
 2303 00f0 00       		.byte	0
 2304 00f1 00       		.byte	0
 2305 00f2 10       		.uleb128 0x10
 2306 00f3 2E       		.uleb128 0x2e
 2307 00f4 00       		.byte	0
 2308 00f5 3F       		.uleb128 0x3f
 2309 00f6 19       		.uleb128 0x19
 2310 00f7 03       		.uleb128 0x3
 2311 00f8 0E       		.uleb128 0xe
 2312 00f9 3A       		.uleb128 0x3a
 2313 00fa 0B       		.uleb128 0xb
 2314 00fb 3B       		.uleb128 0x3b
 2315 00fc 05       		.uleb128 0x5
 2316 00fd 27       		.uleb128 0x27
 2317 00fe 19       		.uleb128 0x19
 2318 00ff 49       		.uleb128 0x49
 2319 0100 13       		.uleb128 0x13
 2320 0101 11       		.uleb128 0x11
 2321 0102 01       		.uleb128 0x1
 2322 0103 12       		.uleb128 0x12
 2323 0104 06       		.uleb128 0x6
 2324 0105 40       		.uleb128 0x40
 2325 0106 18       		.uleb128 0x18
 2326 0107 9742     		.uleb128 0x2117
 2327 0109 19       		.uleb128 0x19
 2328 010a 00       		.byte	0
 2329 010b 00       		.byte	0
 2330 010c 11       		.uleb128 0x11
 2331 010d 2E       		.uleb128 0x2e
 2332 010e 00       		.byte	0
 2333 010f 3F       		.uleb128 0x3f
 2334 0110 19       		.uleb128 0x19
 2335 0111 03       		.uleb128 0x3
 2336 0112 0E       		.uleb128 0xe
 2337 0113 3A       		.uleb128 0x3a
ARM GAS  C:\Users\CHRIST~1\AppData\Local\Temp\ccTEKiBa.s 			page 60


 2338 0114 0B       		.uleb128 0xb
 2339 0115 3B       		.uleb128 0x3b
 2340 0116 05       		.uleb128 0x5
 2341 0117 27       		.uleb128 0x27
 2342 0118 19       		.uleb128 0x19
 2343 0119 11       		.uleb128 0x11
 2344 011a 01       		.uleb128 0x1
 2345 011b 12       		.uleb128 0x12
 2346 011c 06       		.uleb128 0x6
 2347 011d 40       		.uleb128 0x40
 2348 011e 18       		.uleb128 0x18
 2349 011f 9642     		.uleb128 0x2116
 2350 0121 19       		.uleb128 0x19
 2351 0122 00       		.byte	0
 2352 0123 00       		.byte	0
 2353 0124 12       		.uleb128 0x12
 2354 0125 2E       		.uleb128 0x2e
 2355 0126 01       		.byte	0x1
 2356 0127 3F       		.uleb128 0x3f
 2357 0128 19       		.uleb128 0x19
 2358 0129 03       		.uleb128 0x3
 2359 012a 0E       		.uleb128 0xe
 2360 012b 3A       		.uleb128 0x3a
 2361 012c 0B       		.uleb128 0xb
 2362 012d 3B       		.uleb128 0x3b
 2363 012e 05       		.uleb128 0x5
 2364 012f 27       		.uleb128 0x27
 2365 0130 19       		.uleb128 0x19
 2366 0131 11       		.uleb128 0x11
 2367 0132 01       		.uleb128 0x1
 2368 0133 12       		.uleb128 0x12
 2369 0134 06       		.uleb128 0x6
 2370 0135 40       		.uleb128 0x40
 2371 0136 18       		.uleb128 0x18
 2372 0137 9742     		.uleb128 0x2117
 2373 0139 19       		.uleb128 0x19
 2374 013a 01       		.uleb128 0x1
 2375 013b 13       		.uleb128 0x13
 2376 013c 00       		.byte	0
 2377 013d 00       		.byte	0
 2378 013e 13       		.uleb128 0x13
 2379 013f 34       		.uleb128 0x34
 2380 0140 00       		.byte	0
 2381 0141 03       		.uleb128 0x3
 2382 0142 08       		.uleb128 0x8
 2383 0143 3A       		.uleb128 0x3a
 2384 0144 0B       		.uleb128 0xb
 2385 0145 3B       		.uleb128 0x3b
 2386 0146 05       		.uleb128 0x5
 2387 0147 49       		.uleb128 0x49
 2388 0148 13       		.uleb128 0x13
 2389 0149 02       		.uleb128 0x2
 2390 014a 18       		.uleb128 0x18
 2391 014b 00       		.byte	0
 2392 014c 00       		.byte	0
 2393 014d 14       		.uleb128 0x14
 2394 014e 34       		.uleb128 0x34
ARM GAS  C:\Users\CHRIST~1\AppData\Local\Temp\ccTEKiBa.s 			page 61


 2395 014f 00       		.byte	0
 2396 0150 03       		.uleb128 0x3
 2397 0151 0E       		.uleb128 0xe
 2398 0152 3A       		.uleb128 0x3a
 2399 0153 0B       		.uleb128 0xb
 2400 0154 3B       		.uleb128 0x3b
 2401 0155 0B       		.uleb128 0xb
 2402 0156 49       		.uleb128 0x49
 2403 0157 13       		.uleb128 0x13
 2404 0158 3F       		.uleb128 0x3f
 2405 0159 19       		.uleb128 0x19
 2406 015a 3C       		.uleb128 0x3c
 2407 015b 19       		.uleb128 0x19
 2408 015c 00       		.byte	0
 2409 015d 00       		.byte	0
 2410 015e 15       		.uleb128 0x15
 2411 015f 34       		.uleb128 0x34
 2412 0160 00       		.byte	0
 2413 0161 03       		.uleb128 0x3
 2414 0162 0E       		.uleb128 0xe
 2415 0163 3A       		.uleb128 0x3a
 2416 0164 0B       		.uleb128 0xb
 2417 0165 3B       		.uleb128 0x3b
 2418 0166 0B       		.uleb128 0xb
 2419 0167 49       		.uleb128 0x49
 2420 0168 13       		.uleb128 0x13
 2421 0169 3F       		.uleb128 0x3f
 2422 016a 19       		.uleb128 0x19
 2423 016b 02       		.uleb128 0x2
 2424 016c 18       		.uleb128 0x18
 2425 016d 00       		.byte	0
 2426 016e 00       		.byte	0
 2427 016f 00       		.byte	0
 2428              		.section	.debug_aranges,"",%progbits
 2429 0000 84000000 		.4byte	0x84
 2430 0004 0200     		.2byte	0x2
 2431 0006 00000000 		.4byte	.Ldebug_info0
 2432 000a 04       		.byte	0x4
 2433 000b 00       		.byte	0
 2434 000c 0000     		.2byte	0
 2435 000e 0000     		.2byte	0
 2436 0010 00000000 		.4byte	.LFB2
 2437 0014 1C010000 		.4byte	.LFE2-.LFB2
 2438 0018 00000000 		.4byte	.LFB3
 2439 001c 2C010000 		.4byte	.LFE3-.LFB3
 2440 0020 00000000 		.4byte	.LFB4
 2441 0024 10010000 		.4byte	.LFE4-.LFB4
 2442 0028 00000000 		.4byte	.LFB5
 2443 002c 08010000 		.4byte	.LFE5-.LFB5
 2444 0030 00000000 		.4byte	.LFB6
 2445 0034 BC000000 		.4byte	.LFE6-.LFB6
 2446 0038 00000000 		.4byte	.LFB7
 2447 003c CC000000 		.4byte	.LFE7-.LFB7
 2448 0040 00000000 		.4byte	.LFB8
 2449 0044 A8000000 		.4byte	.LFE8-.LFB8
 2450 0048 00000000 		.4byte	.LFB9
 2451 004c 14000000 		.4byte	.LFE9-.LFB9
ARM GAS  C:\Users\CHRIST~1\AppData\Local\Temp\ccTEKiBa.s 			page 62


 2452 0050 00000000 		.4byte	.LFB10
 2453 0054 14000000 		.4byte	.LFE10-.LFB10
 2454 0058 00000000 		.4byte	.LFB11
 2455 005c 34000000 		.4byte	.LFE11-.LFB11
 2456 0060 00000000 		.4byte	.LFB12
 2457 0064 34000000 		.4byte	.LFE12-.LFB12
 2458 0068 00000000 		.4byte	.LFB13
 2459 006c 44000000 		.4byte	.LFE13-.LFB13
 2460 0070 00000000 		.4byte	.LFB14
 2461 0074 30000000 		.4byte	.LFE14-.LFB14
 2462 0078 00000000 		.4byte	.LFB15
 2463 007c 34000000 		.4byte	.LFE15-.LFB15
 2464 0080 00000000 		.4byte	0
 2465 0084 00000000 		.4byte	0
 2466              		.section	.debug_ranges,"",%progbits
 2467              	.Ldebug_ranges0:
 2468 0000 00000000 		.4byte	.LFB2
 2469 0004 1C010000 		.4byte	.LFE2
 2470 0008 00000000 		.4byte	.LFB3
 2471 000c 2C010000 		.4byte	.LFE3
 2472 0010 00000000 		.4byte	.LFB4
 2473 0014 10010000 		.4byte	.LFE4
 2474 0018 00000000 		.4byte	.LFB5
 2475 001c 08010000 		.4byte	.LFE5
 2476 0020 00000000 		.4byte	.LFB6
 2477 0024 BC000000 		.4byte	.LFE6
 2478 0028 00000000 		.4byte	.LFB7
 2479 002c CC000000 		.4byte	.LFE7
 2480 0030 00000000 		.4byte	.LFB8
 2481 0034 A8000000 		.4byte	.LFE8
 2482 0038 00000000 		.4byte	.LFB9
 2483 003c 14000000 		.4byte	.LFE9
 2484 0040 00000000 		.4byte	.LFB10
 2485 0044 14000000 		.4byte	.LFE10
 2486 0048 00000000 		.4byte	.LFB11
 2487 004c 34000000 		.4byte	.LFE11
 2488 0050 00000000 		.4byte	.LFB12
 2489 0054 34000000 		.4byte	.LFE12
 2490 0058 00000000 		.4byte	.LFB13
 2491 005c 44000000 		.4byte	.LFE13
 2492 0060 00000000 		.4byte	.LFB14
 2493 0064 30000000 		.4byte	.LFE14
 2494 0068 00000000 		.4byte	.LFB15
 2495 006c 34000000 		.4byte	.LFE15
 2496 0070 00000000 		.4byte	0
 2497 0074 00000000 		.4byte	0
 2498              		.section	.debug_line,"",%progbits
 2499              	.Ldebug_line0:
 2500 0000 C5020000 		.section	.debug_str,"MS",%progbits,1
 2500      02008500 
 2500      00000201 
 2500      FB0E0D00 
 2500      01010101 
 2501              	.LASF15:
 2502 0000 72656733 		.ascii	"reg32\000"
 2502      3200
 2503              	.LASF29:
ARM GAS  C:\Users\CHRIST~1\AppData\Local\Temp\ccTEKiBa.s 			page 63


 2504 0006 4932435F 		.ascii	"I2C_MPU6050_I2CMasterWriteByte\000"
 2504      4D505536 
 2504      3035305F 
 2504      4932434D 
 2504      61737465 
 2505              	.LASF37:
 2506 0025 4932435F 		.ascii	"I2C_MPU6050_I2CMasterStatus\000"
 2506      4D505536 
 2506      3035305F 
 2506      4932434D 
 2506      61737465 
 2507              	.LASF48:
 2508 0041 4932435F 		.ascii	"I2C_MPU6050_mstrWrBufIndex\000"
 2508      4D505536 
 2508      3035305F 
 2508      6D737472 
 2508      57724275 
 2509              	.LASF28:
 2510 005c 4932435F 		.ascii	"I2C_MPU6050_I2CMasterSendStop\000"
 2510      4D505536 
 2510      3035305F 
 2510      4932434D 
 2510      61737465 
 2511              	.LASF35:
 2512 007a 4932435F 		.ascii	"I2C_MPU6050_I2CMasterClearReadBuf\000"
 2512      4D505536 
 2512      3035305F 
 2512      4932434D 
 2512      61737465 
 2513              	.LASF44:
 2514 009c 4932435F 		.ascii	"I2C_MPU6050_mstrRdBufSize\000"
 2514      4D505536 
 2514      3035305F 
 2514      6D737472 
 2514      52644275 
 2515              	.LASF41:
 2516 00b6 4932435F 		.ascii	"I2C_MPU6050_mstrStatus\000"
 2516      4D505536 
 2516      3035305F 
 2516      6D737472 
 2516      53746174 
 2517              	.LASF3:
 2518 00cd 73686F72 		.ascii	"short unsigned int\000"
 2518      7420756E 
 2518      7369676E 
 2518      65642069 
 2518      6E7400
 2519              	.LASF33:
 2520 00e0 4932435F 		.ascii	"I2C_MPU6050_I2CMasterGetReadBufSize\000"
 2520      4D505536 
 2520      3035305F 
 2520      4932434D 
 2520      61737465 
 2521              	.LASF39:
 2522 0104 4932435F 		.ascii	"I2C_MPU6050_I2CMasterClearStatus\000"
 2522      4D505536 
 2522      3035305F 
ARM GAS  C:\Users\CHRIST~1\AppData\Local\Temp\ccTEKiBa.s 			page 64


 2522      4932434D 
 2522      61737465 
 2523              	.LASF13:
 2524 0125 646F7562 		.ascii	"double\000"
 2524      6C6500
 2525              	.LASF38:
 2526 012c 73746174 		.ascii	"status\000"
 2526      757300
 2527              	.LASF26:
 2528 0133 72657365 		.ascii	"resetIp\000"
 2528      74497000 
 2529              	.LASF46:
 2530 013b 4932435F 		.ascii	"I2C_MPU6050_mstrWrBufPtr\000"
 2530      4D505536 
 2530      3035305F 
 2530      6D737472 
 2530      57724275 
 2531              	.LASF34:
 2532 0154 4932435F 		.ascii	"I2C_MPU6050_I2CMasterGetWriteBufSize\000"
 2532      4D505536 
 2532      3035305F 
 2532      4932434D 
 2532      61737465 
 2533              	.LASF12:
 2534 0179 666C6F61 		.ascii	"float\000"
 2534      7400
 2535              	.LASF24:
 2536 017f 4932435F 		.ascii	"I2C_MPU6050_I2CMasterSendStart\000"
 2536      4D505536 
 2536      3035305F 
 2536      4932434D 
 2536      61737465 
 2537              	.LASF53:
 2538 019e 4932435F 		.ascii	"I2C_MPU6050_I2CReStartGeneration\000"
 2538      4D505536 
 2538      3035305F 
 2538      49324352 
 2538      65537461 
 2539              	.LASF45:
 2540 01bf 4932435F 		.ascii	"I2C_MPU6050_mstrRdBufIndex\000"
 2540      4D505536 
 2540      3035305F 
 2540      6D737472 
 2540      52644275 
 2541              	.LASF5:
 2542 01da 6C6F6E67 		.ascii	"long unsigned int\000"
 2542      20756E73 
 2542      69676E65 
 2542      6420696E 
 2542      7400
 2543              	.LASF9:
 2544 01ec 75696E74 		.ascii	"uint8\000"
 2544      3800
 2545              	.LASF47:
 2546 01f2 4932435F 		.ascii	"I2C_MPU6050_mstrWrBufSize\000"
 2546      4D505536 
 2546      3035305F 
ARM GAS  C:\Users\CHRIST~1\AppData\Local\Temp\ccTEKiBa.s 			page 65


 2546      6D737472 
 2546      57724275 
 2547              	.LASF32:
 2548 020c 61636B4E 		.ascii	"ackNack\000"
 2548      61636B00 
 2549              	.LASF23:
 2550 0214 65727253 		.ascii	"errStatus\000"
 2550      74617475 
 2550      7300
 2551              	.LASF1:
 2552 021e 756E7369 		.ascii	"unsigned char\000"
 2552      676E6564 
 2552      20636861 
 2552      7200
 2553              	.LASF36:
 2554 022c 4932435F 		.ascii	"I2C_MPU6050_I2CMasterClearWriteBuf\000"
 2554      4D505536 
 2554      3035305F 
 2554      4932434D 
 2554      61737465 
 2555              	.LASF52:
 2556 024f 433A5C55 		.ascii	"C:\\Users\\Christina\\Documents\\For_fun\\GitHub\\D"
 2556      73657273 
 2556      5C436872 
 2556      69737469 
 2556      6E615C44 
 2557 027c 65707265 		.ascii	"eprecated\\Corner-Module\\CornerModule\\CornerModul"
 2557      63617465 
 2557      645C436F 
 2557      726E6572 
 2557      2D4D6F64 
 2558 02ac 652E6379 		.ascii	"e.cydsn\000"
 2558      64736E00 
 2559              	.LASF25:
 2560 02b4 62697452 		.ascii	"bitRnW\000"
 2560      6E5700
 2561              	.LASF50:
 2562 02bb 474E5520 		.ascii	"GNU C 4.9.3 20150303 (release) [ARM/embedded-4_9-br"
 2562      4320342E 
 2562      392E3320 
 2562      32303135 
 2562      30333033 
 2563 02ee 616E6368 		.ascii	"anch revision 221220] -mcpu=cortex-m0 -mthumb -g -O"
 2563      20726576 
 2563      6973696F 
 2563      6E203232 
 2563      31323230 
 2564 0321 30202D66 		.ascii	"0 -ffunction-sections -ffat-lto-objects\000"
 2564      66756E63 
 2564      74696F6E 
 2564      2D736563 
 2564      74696F6E 
 2565              	.LASF10:
 2566 0349 75696E74 		.ascii	"uint16\000"
 2566      313600
 2567              	.LASF22:
 2568 0350 72644461 		.ascii	"rdData\000"
ARM GAS  C:\Users\CHRIST~1\AppData\Local\Temp\ccTEKiBa.s 			page 66


 2568      746100
 2569              	.LASF11:
 2570 0357 75696E74 		.ascii	"uint32\000"
 2570      333200
 2571              	.LASF8:
 2572 035e 756E7369 		.ascii	"unsigned int\000"
 2572      676E6564 
 2572      20696E74 
 2572      00
 2573              	.LASF21:
 2574 036b 4932435F 		.ascii	"I2C_MPU6050_I2CMasterReadBuf\000"
 2574      4D505536 
 2574      3035305F 
 2574      4932434D 
 2574      61737465 
 2575              	.LASF18:
 2576 0388 77724461 		.ascii	"wrData\000"
 2576      746100
 2577              	.LASF7:
 2578 038f 6C6F6E67 		.ascii	"long long unsigned int\000"
 2578      206C6F6E 
 2578      6720756E 
 2578      7369676E 
 2578      65642069 
 2579              	.LASF27:
 2580 03a6 4932435F 		.ascii	"I2C_MPU6050_I2CMasterSendRestart\000"
 2580      4D505536 
 2580      3035305F 
 2580      4932434D 
 2580      61737465 
 2581              	.LASF20:
 2582 03c7 4932435F 		.ascii	"I2C_MPU6050_I2CMasterWriteBuf\000"
 2582      4D505536 
 2582      3035305F 
 2582      4932434D 
 2582      61737465 
 2583              	.LASF17:
 2584 03e5 736C6176 		.ascii	"slaveAddress\000"
 2584      65416464 
 2584      72657373 
 2584      00
 2585              	.LASF51:
 2586 03f2 2E5C4765 		.ascii	".\\Generated_Source\\PSoC4\\I2C_MPU6050_I2C_MASTER."
 2586      6E657261 
 2586      7465645F 
 2586      536F7572 
 2586      63655C50 
 2587 0422 6300     		.ascii	"c\000"
 2588              	.LASF16:
 2589 0424 73697A65 		.ascii	"sizetype\000"
 2589      74797065 
 2589      00
 2590              	.LASF43:
 2591 042d 4932435F 		.ascii	"I2C_MPU6050_mstrRdBufPtr\000"
 2591      4D505536 
 2591      3035305F 
 2591      6D737472 
ARM GAS  C:\Users\CHRIST~1\AppData\Local\Temp\ccTEKiBa.s 			page 67


 2591      52644275 
 2592              	.LASF6:
 2593 0446 6C6F6E67 		.ascii	"long long int\000"
 2593      206C6F6E 
 2593      6720696E 
 2593      7400
 2594              	.LASF40:
 2595 0454 4932435F 		.ascii	"I2C_MPU6050_state\000"
 2595      4D505536 
 2595      3035305F 
 2595      73746174 
 2595      6500
 2596              	.LASF14:
 2597 0466 63686172 		.ascii	"char\000"
 2597      00
 2598              	.LASF42:
 2599 046b 4932435F 		.ascii	"I2C_MPU6050_mstrControl\000"
 2599      4D505536 
 2599      3035305F 
 2599      6D737472 
 2599      436F6E74 
 2600              	.LASF19:
 2601 0483 6D6F6465 		.ascii	"mode\000"
 2601      00
 2602              	.LASF2:
 2603 0488 73686F72 		.ascii	"short int\000"
 2603      7420696E 
 2603      7400
 2604              	.LASF30:
 2605 0492 74686542 		.ascii	"theByte\000"
 2605      79746500 
 2606              	.LASF31:
 2607 049a 4932435F 		.ascii	"I2C_MPU6050_I2CMasterReadByte\000"
 2607      4D505536 
 2607      3035305F 
 2607      4932434D 
 2607      61737465 
 2608              	.LASF4:
 2609 04b8 6C6F6E67 		.ascii	"long int\000"
 2609      20696E74 
 2609      00
 2610              	.LASF0:
 2611 04c1 7369676E 		.ascii	"signed char\000"
 2611      65642063 
 2611      68617200 
 2612              	.LASF49:
 2613 04cd 4932435F 		.ascii	"I2C_MPU6050_mstrWrBufIndexTmp\000"
 2613      4D505536 
 2613      3035305F 
 2613      6D737472 
 2613      57724275 
 2614              		.ident	"GCC: (GNU Tools for ARM Embedded Processors) 4.9.3 20150303 (release) [ARM/embedded-4_9-br
