ARM GAS  C:\Users\CHRIST~1\AppData\Local\Temp\cczFAFgJ.s 			page 1


   1              		.cpu cortex-m0
   2              		.fpu softvfp
   3              		.eabi_attribute 20, 1
   4              		.eabi_attribute 21, 1
   5              		.eabi_attribute 23, 3
   6              		.eabi_attribute 24, 1
   7              		.eabi_attribute 25, 1
   8              		.eabi_attribute 26, 1
   9              		.eabi_attribute 30, 6
  10              		.eabi_attribute 34, 0
  11              		.eabi_attribute 18, 4
  12              		.code	16
  13              		.file	"main.c"
  14              		.text
  15              	.Ltext0:
  16              		.cfi_sections	.debug_frame
  17              		.comm	devAddr,1,1
  18              		.comm	buffer,22,4
  19              		.section	.text.I2CReadBytes,"ax",%progbits
  20              		.align	2
  21              		.global	I2CReadBytes
  22              		.code	16
  23              		.thumb_func
  24              		.type	I2CReadBytes, %function
  25              	I2CReadBytes:
  26              	.LFB35:
  27              		.file 1 ".\\main.c"
   1:.\main.c      **** /* ========================================
   2:.\main.c      ****  *
   3:.\main.c      ****  * Copyright YOUR COMPANY, THE YEAR
   4:.\main.c      ****  * All Rights Reserved
   5:.\main.c      ****  * UNPUBLISHED, LICENSED SOFTWARE.
   6:.\main.c      ****  *
   7:.\main.c      ****  * CONFIDENTIAL AND PROPRIETARY INFORMATION
   8:.\main.c      ****  * WHICH IS THE PROPERTY OF your company.
   9:.\main.c      ****  *
  10:.\main.c      ****  * ========================================
  11:.\main.c      **** */
  12:.\main.c      **** #include <project.h>
  13:.\main.c      **** #include <stdio.h>
  14:.\main.c      **** #include "mpu6050.h"
  15:.\main.c      **** 
  16:.\main.c      **** void I2CReadBytes(uint8_t devAddr, uint8_t regAddr, uint8_t length, uint8_t *value) {
  28              		.loc 1 16 0
  29              		.cfi_startproc
  30 0000 90B5     		push	{r4, r7, lr}
  31              		.cfi_def_cfa_offset 12
  32              		.cfi_offset 4, -12
  33              		.cfi_offset 7, -8
  34              		.cfi_offset 14, -4
  35 0002 85B0     		sub	sp, sp, #20
  36              		.cfi_def_cfa_offset 32
  37 0004 00AF     		add	r7, sp, #0
  38              		.cfi_def_cfa_register 7
  39 0006 041C     		mov	r4, r0
  40 0008 081C     		mov	r0, r1
  41 000a 111C     		mov	r1, r2
ARM GAS  C:\Users\CHRIST~1\AppData\Local\Temp\cczFAFgJ.s 			page 2


  42 000c 3B60     		str	r3, [r7]
  43 000e FB1D     		add	r3, r7, #7
  44 0010 221C     		add	r2, r4, #0
  45 0012 1A70     		strb	r2, [r3]
  46 0014 BB1D     		add	r3, r7, #6
  47 0016 021C     		add	r2, r0, #0
  48 0018 1A70     		strb	r2, [r3]
  49 001a 7B1D     		add	r3, r7, #5
  50 001c 0A1C     		add	r2, r1, #0
  51 001e 1A70     		strb	r2, [r3]
  17:.\main.c      **** 	uint8_t i=0;
  52              		.loc 1 17 0
  53 0020 0F23     		mov	r3, #15
  54 0022 FB18     		add	r3, r7, r3
  55 0024 0022     		mov	r2, #0
  56 0026 1A70     		strb	r2, [r3]
  18:.\main.c      **** 	I2C_MPU6050_I2CMasterSendStart(devAddr, I2C_MPU6050_I2C_WRITE_XFER_MODE);
  57              		.loc 1 18 0
  58 0028 FB1D     		add	r3, r7, #7
  59 002a 1B78     		ldrb	r3, [r3]
  60 002c 181C     		mov	r0, r3
  61 002e 0021     		mov	r1, #0
  62 0030 FFF7FEFF 		bl	I2C_MPU6050_I2CMasterSendStart
  19:.\main.c      **** 	I2C_MPU6050_I2CMasterWriteByte(regAddr);
  63              		.loc 1 19 0
  64 0034 BB1D     		add	r3, r7, #6
  65 0036 1B78     		ldrb	r3, [r3]
  66 0038 181C     		mov	r0, r3
  67 003a FFF7FEFF 		bl	I2C_MPU6050_I2CMasterWriteByte
  20:.\main.c      **** 	I2C_MPU6050_I2CMasterSendRestart(devAddr, I2C_MPU6050_I2C_READ_XFER_MODE);
  68              		.loc 1 20 0
  69 003e FB1D     		add	r3, r7, #7
  70 0040 1B78     		ldrb	r3, [r3]
  71 0042 181C     		mov	r0, r3
  72 0044 0121     		mov	r1, #1
  73 0046 FFF7FEFF 		bl	I2C_MPU6050_I2CMasterSendRestart
  21:.\main.c      **** 	while (i++ < (length-1)) {
  74              		.loc 1 21 0
  75 004a 08E0     		b	.L2
  76              	.L3:
  22:.\main.c      **** 		*value++ = I2C_MPU6050_I2CMasterReadByte(I2C_MPU6050_I2C_ACK_DATA);
  77              		.loc 1 22 0
  78 004c 3C68     		ldr	r4, [r7]
  79 004e 631C     		add	r3, r4, #1
  80 0050 3B60     		str	r3, [r7]
  81 0052 0020     		mov	r0, #0
  82 0054 FFF7FEFF 		bl	I2C_MPU6050_I2CMasterReadByte
  83 0058 031C     		mov	r3, r0
  84 005a DBB2     		uxtb	r3, r3
  85 005c 2370     		strb	r3, [r4]
  86              	.L2:
  21:.\main.c      **** 	while (i++ < (length-1)) {
  87              		.loc 1 21 0
  88 005e 0F23     		mov	r3, #15
  89 0060 FB18     		add	r3, r7, r3
  90 0062 1B78     		ldrb	r3, [r3]
  91 0064 0F22     		mov	r2, #15
ARM GAS  C:\Users\CHRIST~1\AppData\Local\Temp\cczFAFgJ.s 			page 3


  92 0066 BA18     		add	r2, r7, r2
  93 0068 591C     		add	r1, r3, #1
  94 006a 1170     		strb	r1, [r2]
  95 006c 1A1C     		mov	r2, r3
  96 006e 7B1D     		add	r3, r7, #5
  97 0070 1B78     		ldrb	r3, [r3]
  98 0072 013B     		sub	r3, r3, #1
  99 0074 9A42     		cmp	r2, r3
 100 0076 E9DB     		blt	.L3
  23:.\main.c      **** 	}
  24:.\main.c      **** 	*value = I2C_MPU6050_I2CMasterReadByte(I2C_MPU6050_I2C_NAK_DATA);
 101              		.loc 1 24 0
 102 0078 0120     		mov	r0, #1
 103 007a FFF7FEFF 		bl	I2C_MPU6050_I2CMasterReadByte
 104 007e 031C     		mov	r3, r0
 105 0080 DAB2     		uxtb	r2, r3
 106 0082 3B68     		ldr	r3, [r7]
 107 0084 1A70     		strb	r2, [r3]
  25:.\main.c      **** 	I2C_MPU6050_I2CMasterSendStop();	
 108              		.loc 1 25 0
 109 0086 FFF7FEFF 		bl	I2C_MPU6050_I2CMasterSendStop
  26:.\main.c      **** }
 110              		.loc 1 26 0
 111 008a BD46     		mov	sp, r7
 112 008c 05B0     		add	sp, sp, #20
 113              		@ sp needed
 114 008e 90BD     		pop	{r4, r7, pc}
 115              		.cfi_endproc
 116              	.LFE35:
 117              		.size	I2CReadBytes, .-I2CReadBytes
 118              		.section	.text.I2CReadByte,"ax",%progbits
 119              		.align	2
 120              		.global	I2CReadByte
 121              		.code	16
 122              		.thumb_func
 123              		.type	I2CReadByte, %function
 124              	I2CReadByte:
 125              	.LFB36:
  27:.\main.c      **** 
  28:.\main.c      **** void I2CReadByte(uint8_t devAddr, uint8_t regAddr, uint8_t *value) {
 126              		.loc 1 28 0
 127              		.cfi_startproc
 128 0000 80B5     		push	{r7, lr}
 129              		.cfi_def_cfa_offset 8
 130              		.cfi_offset 7, -8
 131              		.cfi_offset 14, -4
 132 0002 82B0     		sub	sp, sp, #8
 133              		.cfi_def_cfa_offset 16
 134 0004 00AF     		add	r7, sp, #0
 135              		.cfi_def_cfa_register 7
 136 0006 3A60     		str	r2, [r7]
 137 0008 FB1D     		add	r3, r7, #7
 138 000a 021C     		add	r2, r0, #0
 139 000c 1A70     		strb	r2, [r3]
 140 000e BB1D     		add	r3, r7, #6
 141 0010 0A1C     		add	r2, r1, #0
 142 0012 1A70     		strb	r2, [r3]
ARM GAS  C:\Users\CHRIST~1\AppData\Local\Temp\cczFAFgJ.s 			page 4


  29:.\main.c      **** 	I2CReadBytes(devAddr, regAddr, 1, value);
 143              		.loc 1 29 0
 144 0014 FB1D     		add	r3, r7, #7
 145 0016 1978     		ldrb	r1, [r3]
 146 0018 BB1D     		add	r3, r7, #6
 147 001a 1A78     		ldrb	r2, [r3]
 148 001c 3B68     		ldr	r3, [r7]
 149 001e 081C     		mov	r0, r1
 150 0020 111C     		mov	r1, r2
 151 0022 0122     		mov	r2, #1
 152 0024 FFF7FEFF 		bl	I2CReadBytes
  30:.\main.c      **** }
 153              		.loc 1 30 0
 154 0028 BD46     		mov	sp, r7
 155 002a 02B0     		add	sp, sp, #8
 156              		@ sp needed
 157 002c 80BD     		pop	{r7, pc}
 158              		.cfi_endproc
 159              	.LFE36:
 160              		.size	I2CReadByte, .-I2CReadByte
 161 002e C046     		.section	.text.I2CReadBits,"ax",%progbits
 162              		.align	2
 163              		.global	I2CReadBits
 164              		.code	16
 165              		.thumb_func
 166              		.type	I2CReadBits, %function
 167              	I2CReadBits:
 168              	.LFB37:
  31:.\main.c      **** 
  32:.\main.c      **** void I2CReadBits(uint8_t devAddr, uint8_t regAddr, uint8_t bitStart, uint8_t length, uint8_t *value
 169              		.loc 1 32 0
 170              		.cfi_startproc
 171 0000 B0B5     		push	{r4, r5, r7, lr}
 172              		.cfi_def_cfa_offset 16
 173              		.cfi_offset 4, -16
 174              		.cfi_offset 5, -12
 175              		.cfi_offset 7, -8
 176              		.cfi_offset 14, -4
 177 0002 84B0     		sub	sp, sp, #16
 178              		.cfi_def_cfa_offset 32
 179 0004 00AF     		add	r7, sp, #0
 180              		.cfi_def_cfa_register 7
 181 0006 051C     		mov	r5, r0
 182 0008 0C1C     		mov	r4, r1
 183 000a 101C     		mov	r0, r2
 184 000c 191C     		mov	r1, r3
 185 000e FB1D     		add	r3, r7, #7
 186 0010 2A1C     		add	r2, r5, #0
 187 0012 1A70     		strb	r2, [r3]
 188 0014 BB1D     		add	r3, r7, #6
 189 0016 221C     		add	r2, r4, #0
 190 0018 1A70     		strb	r2, [r3]
 191 001a 7B1D     		add	r3, r7, #5
 192 001c 021C     		add	r2, r0, #0
 193 001e 1A70     		strb	r2, [r3]
 194 0020 3B1D     		add	r3, r7, #4
 195 0022 0A1C     		add	r2, r1, #0
ARM GAS  C:\Users\CHRIST~1\AppData\Local\Temp\cczFAFgJ.s 			page 5


 196 0024 1A70     		strb	r2, [r3]
  33:.\main.c      ****    	uint8_t mask = ((1 << length) - 1) << (bitStart - length + 1);
 197              		.loc 1 33 0
 198 0026 3B1D     		add	r3, r7, #4
 199 0028 1B78     		ldrb	r3, [r3]
 200 002a 0122     		mov	r2, #1
 201 002c 9A40     		lsl	r2, r2, r3
 202 002e 131C     		mov	r3, r2
 203 0030 5A1E     		sub	r2, r3, #1
 204 0032 7B1D     		add	r3, r7, #5
 205 0034 1978     		ldrb	r1, [r3]
 206 0036 3B1D     		add	r3, r7, #4
 207 0038 1B78     		ldrb	r3, [r3]
 208 003a CB1A     		sub	r3, r1, r3
 209 003c 0133     		add	r3, r3, #1
 210 003e 9A40     		lsl	r2, r2, r3
 211 0040 0F23     		mov	r3, #15
 212 0042 FB18     		add	r3, r7, r3
 213 0044 1A70     		strb	r2, [r3]
  34:.\main.c      ****     I2CReadByte(devAddr, regAddr, value);
 214              		.loc 1 34 0
 215 0046 FB1D     		add	r3, r7, #7
 216 0048 1978     		ldrb	r1, [r3]
 217 004a BB1D     		add	r3, r7, #6
 218 004c 1A78     		ldrb	r2, [r3]
 219 004e 3B6A     		ldr	r3, [r7, #32]
 220 0050 081C     		mov	r0, r1
 221 0052 111C     		mov	r1, r2
 222 0054 1A1C     		mov	r2, r3
 223 0056 FFF7FEFF 		bl	I2CReadByte
  35:.\main.c      ****     *value &= mask;
 224              		.loc 1 35 0
 225 005a 3B6A     		ldr	r3, [r7, #32]
 226 005c 1B78     		ldrb	r3, [r3]
 227 005e 0F22     		mov	r2, #15
 228 0060 BA18     		add	r2, r7, r2
 229 0062 1278     		ldrb	r2, [r2]
 230 0064 1340     		and	r3, r2
 231 0066 DAB2     		uxtb	r2, r3
 232 0068 3B6A     		ldr	r3, [r7, #32]
 233 006a 1A70     		strb	r2, [r3]
  36:.\main.c      ****     *value >>= (bitStart - length + 1);
 234              		.loc 1 36 0
 235 006c 3B6A     		ldr	r3, [r7, #32]
 236 006e 1B78     		ldrb	r3, [r3]
 237 0070 191C     		mov	r1, r3
 238 0072 7B1D     		add	r3, r7, #5
 239 0074 1A78     		ldrb	r2, [r3]
 240 0076 3B1D     		add	r3, r7, #4
 241 0078 1B78     		ldrb	r3, [r3]
 242 007a D31A     		sub	r3, r2, r3
 243 007c 0133     		add	r3, r3, #1
 244 007e 1941     		asr	r1, r1, r3
 245 0080 0B1C     		mov	r3, r1
 246 0082 DAB2     		uxtb	r2, r3
 247 0084 3B6A     		ldr	r3, [r7, #32]
 248 0086 1A70     		strb	r2, [r3]
ARM GAS  C:\Users\CHRIST~1\AppData\Local\Temp\cczFAFgJ.s 			page 6


  37:.\main.c      **** }
 249              		.loc 1 37 0
 250 0088 BD46     		mov	sp, r7
 251 008a 04B0     		add	sp, sp, #16
 252              		@ sp needed
 253 008c B0BD     		pop	{r4, r5, r7, pc}
 254              		.cfi_endproc
 255              	.LFE37:
 256              		.size	I2CReadBits, .-I2CReadBits
 257 008e C046     		.section	.text.I2CReadBit,"ax",%progbits
 258              		.align	2
 259              		.global	I2CReadBit
 260              		.code	16
 261              		.thumb_func
 262              		.type	I2CReadBit, %function
 263              	I2CReadBit:
 264              	.LFB38:
  38:.\main.c      **** 
  39:.\main.c      **** void I2CReadBit(uint8_t devAddr, uint8_t regAddr, uint8_t bitNum, uint8_t *value) {
 265              		.loc 1 39 0
 266              		.cfi_startproc
 267 0000 90B5     		push	{r4, r7, lr}
 268              		.cfi_def_cfa_offset 12
 269              		.cfi_offset 4, -12
 270              		.cfi_offset 7, -8
 271              		.cfi_offset 14, -4
 272 0002 83B0     		sub	sp, sp, #12
 273              		.cfi_def_cfa_offset 24
 274 0004 00AF     		add	r7, sp, #0
 275              		.cfi_def_cfa_register 7
 276 0006 041C     		mov	r4, r0
 277 0008 081C     		mov	r0, r1
 278 000a 111C     		mov	r1, r2
 279 000c 3B60     		str	r3, [r7]
 280 000e FB1D     		add	r3, r7, #7
 281 0010 221C     		add	r2, r4, #0
 282 0012 1A70     		strb	r2, [r3]
 283 0014 BB1D     		add	r3, r7, #6
 284 0016 021C     		add	r2, r0, #0
 285 0018 1A70     		strb	r2, [r3]
 286 001a 7B1D     		add	r3, r7, #5
 287 001c 0A1C     		add	r2, r1, #0
 288 001e 1A70     		strb	r2, [r3]
  40:.\main.c      **** 	I2CReadByte(devAddr, regAddr, value);
 289              		.loc 1 40 0
 290 0020 FB1D     		add	r3, r7, #7
 291 0022 1978     		ldrb	r1, [r3]
 292 0024 BB1D     		add	r3, r7, #6
 293 0026 1A78     		ldrb	r2, [r3]
 294 0028 3B68     		ldr	r3, [r7]
 295 002a 081C     		mov	r0, r1
 296 002c 111C     		mov	r1, r2
 297 002e 1A1C     		mov	r2, r3
 298 0030 FFF7FEFF 		bl	I2CReadByte
  41:.\main.c      **** 	*value = *value & (1 << bitNum);
 299              		.loc 1 41 0
 300 0034 3B68     		ldr	r3, [r7]
ARM GAS  C:\Users\CHRIST~1\AppData\Local\Temp\cczFAFgJ.s 			page 7


 301 0036 1B78     		ldrb	r3, [r3]
 302 0038 D9B2     		uxtb	r1, r3
 303 003a 7B1D     		add	r3, r7, #5
 304 003c 1B78     		ldrb	r3, [r3]
 305 003e 0122     		mov	r2, #1
 306 0040 9A40     		lsl	r2, r2, r3
 307 0042 131C     		mov	r3, r2
 308 0044 DAB2     		uxtb	r2, r3
 309 0046 0B1C     		add	r3, r1, #0
 310 0048 1340     		and	r3, r2
 311 004a DBB2     		uxtb	r3, r3
 312 004c DAB2     		uxtb	r2, r3
 313 004e 3B68     		ldr	r3, [r7]
 314 0050 1A70     		strb	r2, [r3]
  42:.\main.c      **** }
 315              		.loc 1 42 0
 316 0052 BD46     		mov	sp, r7
 317 0054 03B0     		add	sp, sp, #12
 318              		@ sp needed
 319 0056 90BD     		pop	{r4, r7, pc}
 320              		.cfi_endproc
 321              	.LFE38:
 322              		.size	I2CReadBit, .-I2CReadBit
 323              		.section	.text.I2CWriteBytes,"ax",%progbits
 324              		.align	2
 325              		.global	I2CWriteBytes
 326              		.code	16
 327              		.thumb_func
 328              		.type	I2CWriteBytes, %function
 329              	I2CWriteBytes:
 330              	.LFB39:
  43:.\main.c      **** 	
  44:.\main.c      **** void I2CWriteBytes(uint8_t devAddr, uint8_t regAddr, uint8_t length, uint8_t *value) {
 331              		.loc 1 44 0
 332              		.cfi_startproc
 333 0000 90B5     		push	{r4, r7, lr}
 334              		.cfi_def_cfa_offset 12
 335              		.cfi_offset 4, -12
 336              		.cfi_offset 7, -8
 337              		.cfi_offset 14, -4
 338 0002 85B0     		sub	sp, sp, #20
 339              		.cfi_def_cfa_offset 32
 340 0004 00AF     		add	r7, sp, #0
 341              		.cfi_def_cfa_register 7
 342 0006 041C     		mov	r4, r0
 343 0008 081C     		mov	r0, r1
 344 000a 111C     		mov	r1, r2
 345 000c 3B60     		str	r3, [r7]
 346 000e FB1D     		add	r3, r7, #7
 347 0010 221C     		add	r2, r4, #0
 348 0012 1A70     		strb	r2, [r3]
 349 0014 BB1D     		add	r3, r7, #6
 350 0016 021C     		add	r2, r0, #0
 351 0018 1A70     		strb	r2, [r3]
 352 001a 7B1D     		add	r3, r7, #5
 353 001c 0A1C     		add	r2, r1, #0
 354 001e 1A70     		strb	r2, [r3]
ARM GAS  C:\Users\CHRIST~1\AppData\Local\Temp\cczFAFgJ.s 			page 8


  45:.\main.c      **** 	uint8_t i=0;
 355              		.loc 1 45 0
 356 0020 0F23     		mov	r3, #15
 357 0022 FB18     		add	r3, r7, r3
 358 0024 0022     		mov	r2, #0
 359 0026 1A70     		strb	r2, [r3]
  46:.\main.c      **** 	I2C_MPU6050_I2CMasterSendStart(devAddr, I2C_MPU6050_I2C_WRITE_XFER_MODE);
 360              		.loc 1 46 0
 361 0028 FB1D     		add	r3, r7, #7
 362 002a 1B78     		ldrb	r3, [r3]
 363 002c 181C     		mov	r0, r3
 364 002e 0021     		mov	r1, #0
 365 0030 FFF7FEFF 		bl	I2C_MPU6050_I2CMasterSendStart
  47:.\main.c      **** 	I2C_MPU6050_I2CMasterWriteByte(regAddr);
 366              		.loc 1 47 0
 367 0034 BB1D     		add	r3, r7, #6
 368 0036 1B78     		ldrb	r3, [r3]
 369 0038 181C     		mov	r0, r3
 370 003a FFF7FEFF 		bl	I2C_MPU6050_I2CMasterWriteByte
  48:.\main.c      **** 	while (i++ < length) {
 371              		.loc 1 48 0
 372 003e 06E0     		b	.L8
 373              	.L9:
  49:.\main.c      **** 		I2C_MPU6050_I2CMasterWriteByte(*value++);
 374              		.loc 1 49 0
 375 0040 3B68     		ldr	r3, [r7]
 376 0042 5A1C     		add	r2, r3, #1
 377 0044 3A60     		str	r2, [r7]
 378 0046 1B78     		ldrb	r3, [r3]
 379 0048 181C     		mov	r0, r3
 380 004a FFF7FEFF 		bl	I2C_MPU6050_I2CMasterWriteByte
 381              	.L8:
  48:.\main.c      **** 	while (i++ < length) {
 382              		.loc 1 48 0
 383 004e 0F23     		mov	r3, #15
 384 0050 FB18     		add	r3, r7, r3
 385 0052 1B78     		ldrb	r3, [r3]
 386 0054 0F22     		mov	r2, #15
 387 0056 BA18     		add	r2, r7, r2
 388 0058 591C     		add	r1, r3, #1
 389 005a 1170     		strb	r1, [r2]
 390 005c 7A1D     		add	r2, r7, #5
 391 005e 1278     		ldrb	r2, [r2]
 392 0060 9A42     		cmp	r2, r3
 393 0062 EDD8     		bhi	.L9
  50:.\main.c      **** 	}
  51:.\main.c      **** 	I2C_MPU6050_I2CMasterSendStop();	
 394              		.loc 1 51 0
 395 0064 FFF7FEFF 		bl	I2C_MPU6050_I2CMasterSendStop
  52:.\main.c      **** }
 396              		.loc 1 52 0
 397 0068 BD46     		mov	sp, r7
 398 006a 05B0     		add	sp, sp, #20
 399              		@ sp needed
 400 006c 90BD     		pop	{r4, r7, pc}
 401              		.cfi_endproc
 402              	.LFE39:
ARM GAS  C:\Users\CHRIST~1\AppData\Local\Temp\cczFAFgJ.s 			page 9


 403              		.size	I2CWriteBytes, .-I2CWriteBytes
 404 006e C046     		.section	.text.I2CWriteByte,"ax",%progbits
 405              		.align	2
 406              		.global	I2CWriteByte
 407              		.code	16
 408              		.thumb_func
 409              		.type	I2CWriteByte, %function
 410              	I2CWriteByte:
 411              	.LFB40:
  53:.\main.c      **** 
  54:.\main.c      **** void I2CWriteByte(uint8_t devAddr, uint8_t regAddr, uint8_t value) {
 412              		.loc 1 54 0
 413              		.cfi_startproc
 414 0000 90B5     		push	{r4, r7, lr}
 415              		.cfi_def_cfa_offset 12
 416              		.cfi_offset 4, -12
 417              		.cfi_offset 7, -8
 418              		.cfi_offset 14, -4
 419 0002 83B0     		sub	sp, sp, #12
 420              		.cfi_def_cfa_offset 24
 421 0004 00AF     		add	r7, sp, #0
 422              		.cfi_def_cfa_register 7
 423 0006 041C     		mov	r4, r0
 424 0008 081C     		mov	r0, r1
 425 000a 111C     		mov	r1, r2
 426 000c FB1D     		add	r3, r7, #7
 427 000e 221C     		add	r2, r4, #0
 428 0010 1A70     		strb	r2, [r3]
 429 0012 BB1D     		add	r3, r7, #6
 430 0014 021C     		add	r2, r0, #0
 431 0016 1A70     		strb	r2, [r3]
 432 0018 7B1D     		add	r3, r7, #5
 433 001a 0A1C     		add	r2, r1, #0
 434 001c 1A70     		strb	r2, [r3]
  55:.\main.c      **** 	I2CWriteBytes(devAddr, regAddr, 1, &value);
 435              		.loc 1 55 0
 436 001e FB1D     		add	r3, r7, #7
 437 0020 1978     		ldrb	r1, [r3]
 438 0022 BB1D     		add	r3, r7, #6
 439 0024 1A78     		ldrb	r2, [r3]
 440 0026 7B1D     		add	r3, r7, #5
 441 0028 081C     		mov	r0, r1
 442 002a 111C     		mov	r1, r2
 443 002c 0122     		mov	r2, #1
 444 002e FFF7FEFF 		bl	I2CWriteBytes
  56:.\main.c      **** }
 445              		.loc 1 56 0
 446 0032 BD46     		mov	sp, r7
 447 0034 03B0     		add	sp, sp, #12
 448              		@ sp needed
 449 0036 90BD     		pop	{r4, r7, pc}
 450              		.cfi_endproc
 451              	.LFE40:
 452              		.size	I2CWriteByte, .-I2CWriteByte
 453              		.section	.text.I2CWriteBits,"ax",%progbits
 454              		.align	2
 455              		.global	I2CWriteBits
ARM GAS  C:\Users\CHRIST~1\AppData\Local\Temp\cczFAFgJ.s 			page 10


 456              		.code	16
 457              		.thumb_func
 458              		.type	I2CWriteBits, %function
 459              	I2CWriteBits:
 460              	.LFB41:
  57:.\main.c      **** 
  58:.\main.c      **** void I2CWriteBits(uint8_t devAddr, uint8_t regAddr, uint8_t bitStart, uint8_t length, uint8_t value
 461              		.loc 1 58 0
 462              		.cfi_startproc
 463 0000 B0B5     		push	{r4, r5, r7, lr}
 464              		.cfi_def_cfa_offset 16
 465              		.cfi_offset 4, -16
 466              		.cfi_offset 5, -12
 467              		.cfi_offset 7, -8
 468              		.cfi_offset 14, -4
 469 0002 84B0     		sub	sp, sp, #16
 470              		.cfi_def_cfa_offset 32
 471 0004 00AF     		add	r7, sp, #0
 472              		.cfi_def_cfa_register 7
 473 0006 051C     		mov	r5, r0
 474 0008 0C1C     		mov	r4, r1
 475 000a 101C     		mov	r0, r2
 476 000c 191C     		mov	r1, r3
 477 000e FB1D     		add	r3, r7, #7
 478 0010 2A1C     		add	r2, r5, #0
 479 0012 1A70     		strb	r2, [r3]
 480 0014 BB1D     		add	r3, r7, #6
 481 0016 221C     		add	r2, r4, #0
 482 0018 1A70     		strb	r2, [r3]
 483 001a 7B1D     		add	r3, r7, #5
 484 001c 021C     		add	r2, r0, #0
 485 001e 1A70     		strb	r2, [r3]
 486 0020 3B1D     		add	r3, r7, #4
 487 0022 0A1C     		add	r2, r1, #0
 488 0024 1A70     		strb	r2, [r3]
  59:.\main.c      **** 	uint8_t b;
  60:.\main.c      **** 	uint8_t mask = ((1 << length) - 1) << (bitStart - length + 1);
 489              		.loc 1 60 0
 490 0026 3B1D     		add	r3, r7, #4
 491 0028 1B78     		ldrb	r3, [r3]
 492 002a 0122     		mov	r2, #1
 493 002c 9A40     		lsl	r2, r2, r3
 494 002e 131C     		mov	r3, r2
 495 0030 5A1E     		sub	r2, r3, #1
 496 0032 7B1D     		add	r3, r7, #5
 497 0034 1978     		ldrb	r1, [r3]
 498 0036 3B1D     		add	r3, r7, #4
 499 0038 1B78     		ldrb	r3, [r3]
 500 003a CB1A     		sub	r3, r1, r3
 501 003c 0133     		add	r3, r3, #1
 502 003e 9A40     		lsl	r2, r2, r3
 503 0040 0F23     		mov	r3, #15
 504 0042 FB18     		add	r3, r7, r3
 505 0044 1A70     		strb	r2, [r3]
  61:.\main.c      **** 	I2CReadByte(devAddr, regAddr, &b);
 506              		.loc 1 61 0
 507 0046 FB1D     		add	r3, r7, #7
ARM GAS  C:\Users\CHRIST~1\AppData\Local\Temp\cczFAFgJ.s 			page 11


 508 0048 1978     		ldrb	r1, [r3]
 509 004a BB1D     		add	r3, r7, #6
 510 004c 1A78     		ldrb	r2, [r3]
 511 004e 0E23     		mov	r3, #14
 512 0050 FB18     		add	r3, r7, r3
 513 0052 081C     		mov	r0, r1
 514 0054 111C     		mov	r1, r2
 515 0056 1A1C     		mov	r2, r3
 516 0058 FFF7FEFF 		bl	I2CReadByte
  62:.\main.c      **** 	value <<= (bitStart - length + 1);
 517              		.loc 1 62 0
 518 005c 2023     		mov	r3, #32
 519 005e FB18     		add	r3, r7, r3
 520 0060 1A78     		ldrb	r2, [r3]
 521 0062 7B1D     		add	r3, r7, #5
 522 0064 1978     		ldrb	r1, [r3]
 523 0066 3B1D     		add	r3, r7, #4
 524 0068 1B78     		ldrb	r3, [r3]
 525 006a CB1A     		sub	r3, r1, r3
 526 006c 0133     		add	r3, r3, #1
 527 006e 9A40     		lsl	r2, r2, r3
 528 0070 2023     		mov	r3, #32
 529 0072 FB18     		add	r3, r7, r3
 530 0074 1A70     		strb	r2, [r3]
  63:.\main.c      **** 	value &= mask;
 531              		.loc 1 63 0
 532 0076 2023     		mov	r3, #32
 533 0078 F918     		add	r1, r7, r3
 534 007a 2023     		mov	r3, #32
 535 007c FB18     		add	r3, r7, r3
 536 007e 0F22     		mov	r2, #15
 537 0080 BA18     		add	r2, r7, r2
 538 0082 1B78     		ldrb	r3, [r3]
 539 0084 1278     		ldrb	r2, [r2]
 540 0086 1340     		and	r3, r2
 541 0088 0B70     		strb	r3, [r1]
  64:.\main.c      **** 	b &= ~(mask);
 542              		.loc 1 64 0
 543 008a 0F23     		mov	r3, #15
 544 008c FB18     		add	r3, r7, r3
 545 008e 1B78     		ldrb	r3, [r3]
 546 0090 DB43     		mvn	r3, r3
 547 0092 D9B2     		uxtb	r1, r3
 548 0094 0E23     		mov	r3, #14
 549 0096 FB18     		add	r3, r7, r3
 550 0098 1B78     		ldrb	r3, [r3]
 551 009a DAB2     		uxtb	r2, r3
 552 009c 0B1C     		add	r3, r1, #0
 553 009e 1340     		and	r3, r2
 554 00a0 DBB2     		uxtb	r3, r3
 555 00a2 DAB2     		uxtb	r2, r3
 556 00a4 0E23     		mov	r3, #14
 557 00a6 FB18     		add	r3, r7, r3
 558 00a8 1A70     		strb	r2, [r3]
  65:.\main.c      **** 	b |= value;
 559              		.loc 1 65 0
 560 00aa 0E23     		mov	r3, #14
ARM GAS  C:\Users\CHRIST~1\AppData\Local\Temp\cczFAFgJ.s 			page 12


 561 00ac FB18     		add	r3, r7, r3
 562 00ae 1A78     		ldrb	r2, [r3]
 563 00b0 2023     		mov	r3, #32
 564 00b2 FB18     		add	r3, r7, r3
 565 00b4 1B78     		ldrb	r3, [r3]
 566 00b6 1343     		orr	r3, r2
 567 00b8 DAB2     		uxtb	r2, r3
 568 00ba 0E23     		mov	r3, #14
 569 00bc FB18     		add	r3, r7, r3
 570 00be 1A70     		strb	r2, [r3]
  66:.\main.c      **** 	I2CWriteByte(devAddr, regAddr, b);	
 571              		.loc 1 66 0
 572 00c0 0E23     		mov	r3, #14
 573 00c2 FB18     		add	r3, r7, r3
 574 00c4 1A78     		ldrb	r2, [r3]
 575 00c6 FB1D     		add	r3, r7, #7
 576 00c8 1978     		ldrb	r1, [r3]
 577 00ca BB1D     		add	r3, r7, #6
 578 00cc 1B78     		ldrb	r3, [r3]
 579 00ce 081C     		mov	r0, r1
 580 00d0 191C     		mov	r1, r3
 581 00d2 FFF7FEFF 		bl	I2CWriteByte
  67:.\main.c      **** }
 582              		.loc 1 67 0
 583 00d6 BD46     		mov	sp, r7
 584 00d8 04B0     		add	sp, sp, #16
 585              		@ sp needed
 586 00da B0BD     		pop	{r4, r5, r7, pc}
 587              		.cfi_endproc
 588              	.LFE41:
 589              		.size	I2CWriteBits, .-I2CWriteBits
 590              		.section	.text.I2CWriteBit,"ax",%progbits
 591              		.align	2
 592              		.global	I2CWriteBit
 593              		.code	16
 594              		.thumb_func
 595              		.type	I2CWriteBit, %function
 596              	I2CWriteBit:
 597              	.LFB42:
  68:.\main.c      **** 
  69:.\main.c      **** void I2CWriteBit(uint8_t devAddr, uint8_t regAddr, uint8_t bitNum, uint8_t value) {
 598              		.loc 1 69 0
 599              		.cfi_startproc
 600 0000 B0B5     		push	{r4, r5, r7, lr}
 601              		.cfi_def_cfa_offset 16
 602              		.cfi_offset 4, -16
 603              		.cfi_offset 5, -12
 604              		.cfi_offset 7, -8
 605              		.cfi_offset 14, -4
 606 0002 84B0     		sub	sp, sp, #16
 607              		.cfi_def_cfa_offset 32
 608 0004 00AF     		add	r7, sp, #0
 609              		.cfi_def_cfa_register 7
 610 0006 051C     		mov	r5, r0
 611 0008 0C1C     		mov	r4, r1
 612 000a 101C     		mov	r0, r2
 613 000c 191C     		mov	r1, r3
ARM GAS  C:\Users\CHRIST~1\AppData\Local\Temp\cczFAFgJ.s 			page 13


 614 000e FB1D     		add	r3, r7, #7
 615 0010 2A1C     		add	r2, r5, #0
 616 0012 1A70     		strb	r2, [r3]
 617 0014 BB1D     		add	r3, r7, #6
 618 0016 221C     		add	r2, r4, #0
 619 0018 1A70     		strb	r2, [r3]
 620 001a 7B1D     		add	r3, r7, #5
 621 001c 021C     		add	r2, r0, #0
 622 001e 1A70     		strb	r2, [r3]
 623 0020 3B1D     		add	r3, r7, #4
 624 0022 0A1C     		add	r2, r1, #0
 625 0024 1A70     		strb	r2, [r3]
  70:.\main.c      **** 	uint8_t b;
  71:.\main.c      **** 	I2CReadByte(devAddr, regAddr, &b);
 626              		.loc 1 71 0
 627 0026 FB1D     		add	r3, r7, #7
 628 0028 1978     		ldrb	r1, [r3]
 629 002a BB1D     		add	r3, r7, #6
 630 002c 1A78     		ldrb	r2, [r3]
 631 002e 0F23     		mov	r3, #15
 632 0030 FB18     		add	r3, r7, r3
 633 0032 081C     		mov	r0, r1
 634 0034 111C     		mov	r1, r2
 635 0036 1A1C     		mov	r2, r3
 636 0038 FFF7FEFF 		bl	I2CReadByte
  72:.\main.c      **** 	b = (value != 0) ? (b | (1 << bitNum)) : (b & ~(1 << bitNum));
 637              		.loc 1 72 0
 638 003c 3B1D     		add	r3, r7, #4
 639 003e 1B78     		ldrb	r3, [r3]
 640 0040 002B     		cmp	r3, #0
 641 0042 0DD0     		beq	.L13
 642              		.loc 1 72 0 is_stmt 0 discriminator 1
 643 0044 7B1D     		add	r3, r7, #5
 644 0046 1B78     		ldrb	r3, [r3]
 645 0048 0122     		mov	r2, #1
 646 004a 9A40     		lsl	r2, r2, r3
 647 004c 131C     		mov	r3, r2
 648 004e DAB2     		uxtb	r2, r3
 649 0050 0F23     		mov	r3, #15
 650 0052 FB18     		add	r3, r7, r3
 651 0054 1B78     		ldrb	r3, [r3]
 652 0056 DBB2     		uxtb	r3, r3
 653 0058 1343     		orr	r3, r2
 654 005a DBB2     		uxtb	r3, r3
 655 005c DBB2     		uxtb	r3, r3
 656 005e 0FE0     		b	.L14
 657              	.L13:
 658              		.loc 1 72 0 discriminator 2
 659 0060 7B1D     		add	r3, r7, #5
 660 0062 1B78     		ldrb	r3, [r3]
 661 0064 0122     		mov	r2, #1
 662 0066 9A40     		lsl	r2, r2, r3
 663 0068 131C     		mov	r3, r2
 664 006a DBB2     		uxtb	r3, r3
 665 006c DB43     		mvn	r3, r3
 666 006e D9B2     		uxtb	r1, r3
 667 0070 0F23     		mov	r3, #15
ARM GAS  C:\Users\CHRIST~1\AppData\Local\Temp\cczFAFgJ.s 			page 14


 668 0072 FB18     		add	r3, r7, r3
 669 0074 1B78     		ldrb	r3, [r3]
 670 0076 DAB2     		uxtb	r2, r3
 671 0078 0B1C     		add	r3, r1, #0
 672 007a 1340     		and	r3, r2
 673 007c DBB2     		uxtb	r3, r3
 674 007e DBB2     		uxtb	r3, r3
 675              	.L14:
 676              		.loc 1 72 0 discriminator 4
 677 0080 0F22     		mov	r2, #15
 678 0082 BA18     		add	r2, r7, r2
 679 0084 1370     		strb	r3, [r2]
  73:.\main.c      **** 	I2CWriteByte(devAddr, regAddr, b);
 680              		.loc 1 73 0 is_stmt 1 discriminator 4
 681 0086 0F23     		mov	r3, #15
 682 0088 FB18     		add	r3, r7, r3
 683 008a 1A78     		ldrb	r2, [r3]
 684 008c FB1D     		add	r3, r7, #7
 685 008e 1978     		ldrb	r1, [r3]
 686 0090 BB1D     		add	r3, r7, #6
 687 0092 1B78     		ldrb	r3, [r3]
 688 0094 081C     		mov	r0, r1
 689 0096 191C     		mov	r1, r3
 690 0098 FFF7FEFF 		bl	I2CWriteByte
  74:.\main.c      **** }
 691              		.loc 1 74 0 discriminator 4
 692 009c BD46     		mov	sp, r7
 693 009e 04B0     		add	sp, sp, #16
 694              		@ sp needed
 695 00a0 B0BD     		pop	{r4, r5, r7, pc}
 696              		.cfi_endproc
 697              	.LFE42:
 698              		.size	I2CWriteBit, .-I2CWriteBit
 699 00a2 C046     		.section	.text.I2CWriteWords,"ax",%progbits
 700              		.align	2
 701              		.global	I2CWriteWords
 702              		.code	16
 703              		.thumb_func
 704              		.type	I2CWriteWords, %function
 705              	I2CWriteWords:
 706              	.LFB43:
  75:.\main.c      **** 
  76:.\main.c      **** void I2CWriteWords(uint8_t devAddr, uint8_t regAddr, uint8_t length, uint16_t *value) {
 707              		.loc 1 76 0
 708              		.cfi_startproc
 709 0000 90B5     		push	{r4, r7, lr}
 710              		.cfi_def_cfa_offset 12
 711              		.cfi_offset 4, -12
 712              		.cfi_offset 7, -8
 713              		.cfi_offset 14, -4
 714 0002 85B0     		sub	sp, sp, #20
 715              		.cfi_def_cfa_offset 32
 716 0004 00AF     		add	r7, sp, #0
 717              		.cfi_def_cfa_register 7
 718 0006 041C     		mov	r4, r0
 719 0008 081C     		mov	r0, r1
 720 000a 111C     		mov	r1, r2
ARM GAS  C:\Users\CHRIST~1\AppData\Local\Temp\cczFAFgJ.s 			page 15


 721 000c 3B60     		str	r3, [r7]
 722 000e FB1D     		add	r3, r7, #7
 723 0010 221C     		add	r2, r4, #0
 724 0012 1A70     		strb	r2, [r3]
 725 0014 BB1D     		add	r3, r7, #6
 726 0016 021C     		add	r2, r0, #0
 727 0018 1A70     		strb	r2, [r3]
 728 001a 7B1D     		add	r3, r7, #5
 729 001c 0A1C     		add	r2, r1, #0
 730 001e 1A70     		strb	r2, [r3]
  77:.\main.c      **** 	uint8_t i=0;
 731              		.loc 1 77 0
 732 0020 0F23     		mov	r3, #15
 733 0022 FB18     		add	r3, r7, r3
 734 0024 0022     		mov	r2, #0
 735 0026 1A70     		strb	r2, [r3]
  78:.\main.c      **** 	I2C_MPU6050_I2CMasterSendStart(devAddr, I2C_MPU6050_I2C_WRITE_XFER_MODE);
 736              		.loc 1 78 0
 737 0028 FB1D     		add	r3, r7, #7
 738 002a 1B78     		ldrb	r3, [r3]
 739 002c 181C     		mov	r0, r3
 740 002e 0021     		mov	r1, #0
 741 0030 FFF7FEFF 		bl	I2C_MPU6050_I2CMasterSendStart
  79:.\main.c      **** 	I2C_MPU6050_I2CMasterWriteByte(regAddr);
 742              		.loc 1 79 0
 743 0034 BB1D     		add	r3, r7, #6
 744 0036 1B78     		ldrb	r3, [r3]
 745 0038 181C     		mov	r0, r3
 746 003a FFF7FEFF 		bl	I2C_MPU6050_I2CMasterWriteByte
  80:.\main.c      **** 	while (i++ < length) {
 747              		.loc 1 80 0
 748 003e 0EE0     		b	.L16
 749              	.L17:
  81:.\main.c      **** 		I2C_MPU6050_I2CMasterWriteByte(((uint8_t)*value) >> 8);
 750              		.loc 1 81 0
 751 0040 3B68     		ldr	r3, [r7]
 752 0042 1B88     		ldrh	r3, [r3]
 753 0044 DBB2     		uxtb	r3, r3
 754 0046 1B12     		asr	r3, r3, #8
 755 0048 181C     		mov	r0, r3
 756 004a FFF7FEFF 		bl	I2C_MPU6050_I2CMasterWriteByte
  82:.\main.c      **** 		I2C_MPU6050_I2CMasterWriteByte((uint8_t)*value++);
 757              		.loc 1 82 0
 758 004e 3B68     		ldr	r3, [r7]
 759 0050 9A1C     		add	r2, r3, #2
 760 0052 3A60     		str	r2, [r7]
 761 0054 1B88     		ldrh	r3, [r3]
 762 0056 DBB2     		uxtb	r3, r3
 763 0058 181C     		mov	r0, r3
 764 005a FFF7FEFF 		bl	I2C_MPU6050_I2CMasterWriteByte
 765              	.L16:
  80:.\main.c      **** 	while (i++ < length) {
 766              		.loc 1 80 0
 767 005e 0F23     		mov	r3, #15
 768 0060 FB18     		add	r3, r7, r3
 769 0062 1B78     		ldrb	r3, [r3]
 770 0064 0F22     		mov	r2, #15
ARM GAS  C:\Users\CHRIST~1\AppData\Local\Temp\cczFAFgJ.s 			page 16


 771 0066 BA18     		add	r2, r7, r2
 772 0068 591C     		add	r1, r3, #1
 773 006a 1170     		strb	r1, [r2]
 774 006c 7A1D     		add	r2, r7, #5
 775 006e 1278     		ldrb	r2, [r2]
 776 0070 9A42     		cmp	r2, r3
 777 0072 E5D8     		bhi	.L17
  83:.\main.c      **** 	}
  84:.\main.c      **** 	I2C_MPU6050_I2CMasterSendStop();		
 778              		.loc 1 84 0
 779 0074 FFF7FEFF 		bl	I2C_MPU6050_I2CMasterSendStop
  85:.\main.c      **** }
 780              		.loc 1 85 0
 781 0078 BD46     		mov	sp, r7
 782 007a 05B0     		add	sp, sp, #20
 783              		@ sp needed
 784 007c 90BD     		pop	{r4, r7, pc}
 785              		.cfi_endproc
 786              	.LFE43:
 787              		.size	I2CWriteWords, .-I2CWriteWords
 788 007e C046     		.section	.text.I2CWriteWord,"ax",%progbits
 789              		.align	2
 790              		.global	I2CWriteWord
 791              		.code	16
 792              		.thumb_func
 793              		.type	I2CWriteWord, %function
 794              	I2CWriteWord:
 795              	.LFB44:
  86:.\main.c      **** 
  87:.\main.c      **** void I2CWriteWord(uint8_t devAddr, uint8_t regAddr, uint16_t value) {
 796              		.loc 1 87 0
 797              		.cfi_startproc
 798 0000 90B5     		push	{r4, r7, lr}
 799              		.cfi_def_cfa_offset 12
 800              		.cfi_offset 4, -12
 801              		.cfi_offset 7, -8
 802              		.cfi_offset 14, -4
 803 0002 83B0     		sub	sp, sp, #12
 804              		.cfi_def_cfa_offset 24
 805 0004 00AF     		add	r7, sp, #0
 806              		.cfi_def_cfa_register 7
 807 0006 041C     		mov	r4, r0
 808 0008 081C     		mov	r0, r1
 809 000a 111C     		mov	r1, r2
 810 000c FB1D     		add	r3, r7, #7
 811 000e 221C     		add	r2, r4, #0
 812 0010 1A70     		strb	r2, [r3]
 813 0012 BB1D     		add	r3, r7, #6
 814 0014 021C     		add	r2, r0, #0
 815 0016 1A70     		strb	r2, [r3]
 816 0018 3B1D     		add	r3, r7, #4
 817 001a 0A1C     		add	r2, r1, #0
 818 001c 1A80     		strh	r2, [r3]
  88:.\main.c      **** 	I2CWriteWords(devAddr, regAddr, 1, &value);
 819              		.loc 1 88 0
 820 001e FB1D     		add	r3, r7, #7
 821 0020 1978     		ldrb	r1, [r3]
ARM GAS  C:\Users\CHRIST~1\AppData\Local\Temp\cczFAFgJ.s 			page 17


 822 0022 BB1D     		add	r3, r7, #6
 823 0024 1A78     		ldrb	r2, [r3]
 824 0026 3B1D     		add	r3, r7, #4
 825 0028 081C     		mov	r0, r1
 826 002a 111C     		mov	r1, r2
 827 002c 0122     		mov	r2, #1
 828 002e FFF7FEFF 		bl	I2CWriteWords
  89:.\main.c      **** }
 829              		.loc 1 89 0
 830 0032 BD46     		mov	sp, r7
 831 0034 03B0     		add	sp, sp, #12
 832              		@ sp needed
 833 0036 90BD     		pop	{r4, r7, pc}
 834              		.cfi_endproc
 835              	.LFE44:
 836              		.size	I2CWriteWord, .-I2CWriteWord
 837              		.comm	sendData,28,4
 838              		.section	.text.main,"ax",%progbits
 839              		.align	2
 840              		.global	main
 841              		.code	16
 842              		.thumb_func
 843              		.type	main, %function
 844              	main:
 845              	.LFB45:
  90:.\main.c      **** 
  91:.\main.c      **** 
  92:.\main.c      **** 
  93:.\main.c      **** union data
  94:.\main.c      **** {
  95:.\main.c      ****     struct sensorDataInternals
  96:.\main.c      ****     {
  97:.\main.c      ****         char beginPad[5];
  98:.\main.c      ****         int16_t ax;
  99:.\main.c      ****         char pad0;
 100:.\main.c      ****         int16_t ay;
 101:.\main.c      ****         char pad1;
 102:.\main.c      ****         int16_t az;
 103:.\main.c      ****         char pad2;
 104:.\main.c      ****         int16_t gx;
 105:.\main.c      ****         char pad3;
 106:.\main.c      ****         int16_t gy;
 107:.\main.c      ****         char pad4;
 108:.\main.c      ****         int16_t gz;
 109:.\main.c      ****     } sensorData;
 110:.\main.c      ****     unsigned char buffer[sizeof(struct sensorDataInternals)];
 111:.\main.c      **** } sendData;
 112:.\main.c      **** 
 113:.\main.c      **** int main()
 114:.\main.c      **** {
 846              		.loc 1 114 0
 847              		.cfi_startproc
 848 0000 90B5     		push	{r4, r7, lr}
 849              		.cfi_def_cfa_offset 12
 850              		.cfi_offset 4, -12
 851              		.cfi_offset 7, -8
 852              		.cfi_offset 14, -4
ARM GAS  C:\Users\CHRIST~1\AppData\Local\Temp\cczFAFgJ.s 			page 18


 853 0002 83B0     		sub	sp, sp, #12
 854              		.cfi_def_cfa_offset 24
 855 0004 02AF     		add	r7, sp, #8
 856              		.cfi_def_cfa 7, 16
 115:.\main.c      ****     CyGlobalIntEnable;
 857              		.loc 1 115 0
 858              	@ 115 ".\main.c" 1
 859 0006 62B6     		CPSIE   i
 860              	@ 0 "" 2
 116:.\main.c      ****     static char temp[5] = {0, 1, 2, 3, 4};
 117:.\main.c      ****     memcpy(sendData.sensorData.beginPad, temp, 5);
 861              		.loc 1 117 0
 862              		.code	16
 863 0008 1A4A     		ldr	r2, .L21
 864 000a 1B4B     		ldr	r3, .L21+4
 865 000c 111C     		mov	r1, r2
 866 000e 1A1C     		mov	r2, r3
 867 0010 0523     		mov	r3, #5
 868 0012 081C     		mov	r0, r1
 869 0014 111C     		mov	r1, r2
 870 0016 1A1C     		mov	r2, r3
 871 0018 FFF7FEFF 		bl	memcpy
 118:.\main.c      ****     sendData.sensorData.pad0 = 0;
 872              		.loc 1 118 0
 873 001c 154B     		ldr	r3, .L21
 874 001e 0022     		mov	r2, #0
 875 0020 1A72     		strb	r2, [r3, #8]
 119:.\main.c      ****     sendData.sensorData.pad1 = 0;
 876              		.loc 1 119 0
 877 0022 144B     		ldr	r3, .L21
 878 0024 0022     		mov	r2, #0
 879 0026 1A73     		strb	r2, [r3, #12]
 120:.\main.c      ****     sendData.sensorData.pad2 = 0;
 880              		.loc 1 120 0
 881 0028 124B     		ldr	r3, .L21
 882 002a 0022     		mov	r2, #0
 883 002c 1A74     		strb	r2, [r3, #16]
 121:.\main.c      ****     sendData.sensorData.pad3 = 0;
 884              		.loc 1 121 0
 885 002e 114B     		ldr	r3, .L21
 886 0030 0022     		mov	r2, #0
 887 0032 1A75     		strb	r2, [r3, #20]
 122:.\main.c      ****     sendData.sensorData.pad4 = 0;
 888              		.loc 1 122 0
 889 0034 0F4B     		ldr	r3, .L21
 890 0036 0022     		mov	r2, #0
 891 0038 1A76     		strb	r2, [r3, #24]
 123:.\main.c      ****     CyDelay(10);
 892              		.loc 1 123 0
 893 003a 0A20     		mov	r0, #10
 894 003c FFF7FEFF 		bl	CyDelay
 124:.\main.c      **** 	I2C_MPU6050_Start();
 895              		.loc 1 124 0
 896 0040 FFF7FEFF 		bl	I2C_MPU6050_Start
 125:.\main.c      ****     UART_1_Start();
 897              		.loc 1 125 0
 898 0044 FFF7FEFF 		bl	UART_1_Start
ARM GAS  C:\Users\CHRIST~1\AppData\Local\Temp\cczFAFgJ.s 			page 19


 126:.\main.c      **** 	
 127:.\main.c      ****     
 128:.\main.c      **** 
 129:.\main.c      **** 	MPU6050_init();
 899              		.loc 1 129 0
 900 0048 FFF7FEFF 		bl	MPU6050_init
 130:.\main.c      **** 	MPU6050_initialize();
 901              		.loc 1 130 0
 902 004c FFF7FEFF 		bl	MPU6050_initialize
 903              	.L20:
 131:.\main.c      **** 	
 132:.\main.c      ****     for(;;)
 133:.\main.c      ****     {
 134:.\main.c      **** 	  MPU6050_getMotion6(&sendData.sensorData.ax, &sendData.sensorData.ay, &sendData.sensorData.az, &s
 904              		.loc 1 134 0 discriminator 1
 905 0050 0A48     		ldr	r0, .L21+8
 906 0052 0B49     		ldr	r1, .L21+12
 907 0054 0B4A     		ldr	r2, .L21+16
 908 0056 0C4C     		ldr	r4, .L21+20
 909 0058 0C4B     		ldr	r3, .L21+24
 910 005a 0093     		str	r3, [sp]
 911 005c 0C4B     		ldr	r3, .L21+28
 912 005e 0193     		str	r3, [sp, #4]
 913 0060 231C     		mov	r3, r4
 914 0062 FFF7FEFF 		bl	MPU6050_getMotion6
 135:.\main.c      ****       UART_1_PutArray(sendData.buffer, sizeof(sendData.buffer));
 915              		.loc 1 135 0 discriminator 1
 916 0066 034B     		ldr	r3, .L21
 917 0068 181C     		mov	r0, r3
 918 006a 1C21     		mov	r1, #28
 919 006c FFF7FEFF 		bl	UART_1_PutArray
 136:.\main.c      ****       //UART_1_PutString("/n/r");
 137:.\main.c      **** 	}
 920              		.loc 1 137 0 discriminator 1
 921 0070 EEE7     		b	.L20
 922              	.L22:
 923 0072 C046     		.align	2
 924              	.L21:
 925 0074 00000000 		.word	sendData
 926 0078 00000000 		.word	temp.6483
 927 007c 06000000 		.word	sendData+6
 928 0080 0A000000 		.word	sendData+10
 929 0084 0E000000 		.word	sendData+14
 930 0088 12000000 		.word	sendData+18
 931 008c 16000000 		.word	sendData+22
 932 0090 1A000000 		.word	sendData+26
 933              		.cfi_endproc
 934              	.LFE45:
 935              		.size	main, .-main
 936              		.data
 937              		.align	2
 938              		.type	temp.6483, %object
 939              		.size	temp.6483, 5
 940              	temp.6483:
 941 0000 00       		.byte	0
 942 0001 01       		.byte	1
 943 0002 02       		.byte	2
ARM GAS  C:\Users\CHRIST~1\AppData\Local\Temp\cczFAFgJ.s 			page 20


 944 0003 03       		.byte	3
 945 0004 04       		.byte	4
 946 0005 000000   		.text
 947              	.Letext0:
 948              		.file 2 "c:\\program files (x86)\\cypress\\psoc creator\\3.3\\psoc creator\\import\\gnu\\arm\\4.9.
 949              		.file 3 "c:\\program files (x86)\\cypress\\psoc creator\\3.3\\psoc creator\\import\\gnu\\arm\\4.9.
 950              		.file 4 ".\\mpu6050.h"