ARM GAS  C:\Users\Eric\AppData\Local\Temp\ccKoOTIj.s 			page 1


   1              		.cpu cortex-m0
   2              		.fpu softvfp
   3              		.eabi_attribute 20, 1
   4              		.eabi_attribute 21, 1
   5              		.eabi_attribute 23, 3
   6              		.eabi_attribute 24, 1
   7              		.eabi_attribute 25, 1
   8              		.eabi_attribute 26, 1
   9              		.eabi_attribute 30, 6
  10              		.eabi_attribute 34, 0
  11              		.eabi_attribute 18, 4
  12              		.code	16
  13              		.file	"main.c"
  14              		.text
  15              	.Ltext0:
  16              		.cfi_sections	.debug_frame
  17              		.section	.text.bytecombine,"ax",%progbits
  18              		.align	2
  19              		.global	bytecombine
  20              		.code	16
  21              		.thumb_func
  22              		.type	bytecombine, %function
  23              	bytecombine:
  24              	.LFB33:
  25              		.file 1 ".\\main.c"
   1:.\main.c      **** /* ========================================
   2:.\main.c      ****  *
   3:.\main.c      ****  * Copyright YOUR COMPANY, THE YEAR
   4:.\main.c      ****  * All Rights Reserved
   5:.\main.c      ****  * UNPUBLISHED, LICENSED SOFTWARE.
   6:.\main.c      ****  *
   7:.\main.c      ****  * CONFIDENTIAL AND PROPRIETARY INFORMATION
   8:.\main.c      ****  * WHICH IS THE PROPERTY OF your company.
   9:.\main.c      ****  *
  10:.\main.c      ****  * ========================================
  11:.\main.c      **** */
  12:.\main.c      **** #include <project.h>
  13:.\main.c      **** //#include <stdio.h>
  14:.\main.c      **** #define MPU 0b1101000
  15:.\main.c      **** 
  16:.\main.c      **** 
  17:.\main.c      **** int16 bytecombine(uint8,uint8); //Combines high and low bytes to form a 16 bit int
  18:.\main.c      **** int16 readacc(int16); //Reads from the accelerometer and returns a 16 bit int
  19:.\main.c      **** void I2CInit(); //Initializes the accelerometer with the range,etc.
  20:.\main.c      **** 
  21:.\main.c      **** int16 bytecombine(uint8 msb, uint8 lsb) //Used for combining the high and low bytes from the accele
  22:.\main.c      **** {
  26              		.loc 1 22 0
  27              		.cfi_startproc
  28 0000 80B5     		push	{r7, lr}
  29              	.LCFI0:
  30              		.cfi_def_cfa_offset 8
  31              		.cfi_offset 7, -8
  32              		.cfi_offset 14, -4
  33 0002 84B0     		sub	sp, sp, #16
  34              	.LCFI1:
  35              		.cfi_def_cfa_offset 24
ARM GAS  C:\Users\Eric\AppData\Local\Temp\ccKoOTIj.s 			page 2


  36 0004 00AF     		add	r7, sp, #0
  37              	.LCFI2:
  38              		.cfi_def_cfa_register 7
  39 0006 0A1C     		mov	r2, r1
  40 0008 FB1D     		add	r3, r7, #7
  41 000a 011C     		add	r1, r0, #0
  42 000c 1970     		strb	r1, [r3]
  43 000e BB1D     		add	r3, r7, #6
  44 0010 1A70     		strb	r2, [r3]
  23:.\main.c      ****     //Takes a msbyte and lsbyte, msb 8 bits with sign bit, lsb 4 bits with last 4 zero.
  24:.\main.c      ****     int16 temp = msb;
  45              		.loc 1 24 0
  46 0012 3B1C     		mov	r3, r7
  47 0014 0E33     		add	r3, r3, #14
  48 0016 FA1D     		add	r2, r7, #7
  49 0018 1278     		ldrb	r2, [r2]
  50 001a 1A80     		strh	r2, [r3]
  25:.\main.c      ****     temp <<= 8; //shift 8 most significant bits into high byte
  51              		.loc 1 25 0
  52 001c 3B1C     		mov	r3, r7
  53 001e 0E33     		add	r3, r3, #14
  54 0020 0022     		mov	r2, #0
  55 0022 9B5E     		ldrsh	r3, [r3, r2]
  56 0024 1A02     		lsl	r2, r3, #8
  57 0026 3B1C     		mov	r3, r7
  58 0028 0E33     		add	r3, r3, #14
  59 002a 1A80     		strh	r2, [r3]
  26:.\main.c      ****     temp = temp | lsb; //add lower 8 bits 
  60              		.loc 1 26 0
  61 002c BB1D     		add	r3, r7, #6
  62 002e 1B78     		ldrb	r3, [r3]
  63 0030 99B2     		uxth	r1, r3
  64 0032 3B1C     		mov	r3, r7
  65 0034 0E33     		add	r3, r3, #14
  66 0036 3A1C     		mov	r2, r7
  67 0038 0E32     		add	r2, r2, #14
  68 003a 1288     		ldrh	r2, [r2]
  69 003c 0A43     		orr	r2, r1
  70 003e 1A80     		strh	r2, [r3]
  27:.\main.c      ****     return temp;
  71              		.loc 1 27 0
  72 0040 3B1C     		mov	r3, r7
  73 0042 0E33     		add	r3, r3, #14
  74 0044 1B88     		ldrh	r3, [r3]
  75 0046 1BB2     		sxth	r3, r3
  28:.\main.c      **** }
  76              		.loc 1 28 0
  77 0048 181C     		mov	r0, r3
  78 004a BD46     		mov	sp, r7
  79 004c 04B0     		add	sp, sp, #16
  80              		@ sp needed for prologue
  81 004e 80BD     		pop	{r7, pc}
  82              		.cfi_endproc
  83              	.LFE33:
  84              		.size	bytecombine, .-bytecombine
  85              		.section	.text.readacc,"ax",%progbits
  86              		.align	2
ARM GAS  C:\Users\Eric\AppData\Local\Temp\ccKoOTIj.s 			page 3


  87              		.global	readacc
  88              		.code	16
  89              		.thumb_func
  90              		.type	readacc, %function
  91              	readacc:
  92              	.LFB34:
  29:.\main.c      **** 
  30:.\main.c      **** int16 readacc(int16 address) //address is the address of the first register for the axis you want t
  31:.\main.c      **** {
  93              		.loc 1 31 0
  94              		.cfi_startproc
  95 0000 80B5     		push	{r7, lr}
  96              	.LCFI3:
  97              		.cfi_def_cfa_offset 8
  98              		.cfi_offset 7, -8
  99              		.cfi_offset 14, -4
 100 0002 84B0     		sub	sp, sp, #16
 101              	.LCFI4:
 102              		.cfi_def_cfa_offset 24
 103 0004 00AF     		add	r7, sp, #0
 104              	.LCFI5:
 105              		.cfi_def_cfa_register 7
 106 0006 021C     		mov	r2, r0
 107 0008 BB1D     		add	r3, r7, #6
 108 000a 1A80     		strh	r2, [r3]
  32:.\main.c      ****     //address = 3B for X axis
  33:.\main.c      ****     //        = 3D for Y axis
  34:.\main.c      ****     //        = 3F for Z axis
  35:.\main.c      ****     I2C_1_I2CMasterSendStart(MPU,0); //2nd parameter: 0 for write, 1 for reading
 109              		.loc 1 35 0
 110 000c 6820     		mov	r0, #104
 111 000e 0021     		mov	r1, #0
 112 0010 FFF7FEFF 		bl	I2C_1_I2CMasterSendStart
  36:.\main.c      ****     I2C_1_I2CMasterWriteByte(address); //Select which register to read from
 113              		.loc 1 36 0
 114 0014 BB1D     		add	r3, r7, #6
 115 0016 0022     		mov	r2, #0
 116 0018 9B5E     		ldrsh	r3, [r3, r2]
 117 001a 181C     		mov	r0, r3
 118 001c FFF7FEFF 		bl	I2C_1_I2CMasterWriteByte
  37:.\main.c      ****     I2C_1_I2CMasterSendRestart(MPU,1);
 119              		.loc 1 37 0
 120 0020 6820     		mov	r0, #104
 121 0022 0121     		mov	r1, #1
 122 0024 FFF7FEFF 		bl	I2C_1_I2CMasterSendRestart
  38:.\main.c      ****     uint8 msb = I2C_1_I2CMasterReadByte(1);
 123              		.loc 1 38 0
 124 0028 0120     		mov	r0, #1
 125 002a FFF7FEFF 		bl	I2C_1_I2CMasterReadByte
 126 002e 021C     		mov	r2, r0
 127 0030 3B1C     		mov	r3, r7
 128 0032 0F33     		add	r3, r3, #15
 129 0034 1A70     		strb	r2, [r3]
  39:.\main.c      ****     I2C_1_I2CMasterSendRestart(MPU,1);
 130              		.loc 1 39 0
 131 0036 6820     		mov	r0, #104
 132 0038 0121     		mov	r1, #1
ARM GAS  C:\Users\Eric\AppData\Local\Temp\ccKoOTIj.s 			page 4


 133 003a FFF7FEFF 		bl	I2C_1_I2CMasterSendRestart
  40:.\main.c      ****     uint8 lsb = I2C_1_I2CMasterReadByte(1);
 134              		.loc 1 40 0
 135 003e 0120     		mov	r0, #1
 136 0040 FFF7FEFF 		bl	I2C_1_I2CMasterReadByte
 137 0044 021C     		mov	r2, r0
 138 0046 3B1C     		mov	r3, r7
 139 0048 0E33     		add	r3, r3, #14
 140 004a 1A70     		strb	r2, [r3]
  41:.\main.c      ****     I2C_1_I2CMasterSendStop();
 141              		.loc 1 41 0
 142 004c FFF7FEFF 		bl	I2C_1_I2CMasterSendStop
  42:.\main.c      ****     return bytecombine(msb,lsb);
 143              		.loc 1 42 0
 144 0050 3B1C     		mov	r3, r7
 145 0052 0F33     		add	r3, r3, #15
 146 0054 1A78     		ldrb	r2, [r3]
 147 0056 3B1C     		mov	r3, r7
 148 0058 0E33     		add	r3, r3, #14
 149 005a 1B78     		ldrb	r3, [r3]
 150 005c 101C     		mov	r0, r2
 151 005e 191C     		mov	r1, r3
 152 0060 FFF7FEFF 		bl	bytecombine
 153 0064 031C     		mov	r3, r0
  43:.\main.c      **** }
 154              		.loc 1 43 0
 155 0066 181C     		mov	r0, r3
 156 0068 BD46     		mov	sp, r7
 157 006a 04B0     		add	sp, sp, #16
 158              		@ sp needed for prologue
 159 006c 80BD     		pop	{r7, pc}
 160              		.cfi_endproc
 161              	.LFE34:
 162              		.size	readacc, .-readacc
 163 006e C046     		.section	.text.I2CInit,"ax",%progbits
 164              		.align	2
 165              		.global	I2CInit
 166              		.code	16
 167              		.thumb_func
 168              		.type	I2CInit, %function
 169              	I2CInit:
 170              	.LFB35:
  44:.\main.c      **** 
  45:.\main.c      **** void I2CInit()
  46:.\main.c      **** {
 171              		.loc 1 46 0
 172              		.cfi_startproc
 173 0000 80B5     		push	{r7, lr}
 174              	.LCFI6:
 175              		.cfi_def_cfa_offset 8
 176              		.cfi_offset 7, -8
 177              		.cfi_offset 14, -4
 178 0002 00AF     		add	r7, sp, #0
 179              	.LCFI7:
 180              		.cfi_def_cfa_register 7
  47:.\main.c      ****     I2C_1_Start(); //Turn on the I2c component first
 181              		.loc 1 47 0
ARM GAS  C:\Users\Eric\AppData\Local\Temp\ccKoOTIj.s 			page 5


 182 0004 FFF7FEFF 		bl	I2C_1_Start
  48:.\main.c      ****     //Sets the configuration of the accelerometer
  49:.\main.c      ****     I2C_1_I2CMasterSendStart(MPU,I2C_1_I2C_WRITE_XFER_MODE);
 183              		.loc 1 49 0
 184 0008 6820     		mov	r0, #104
 185 000a 0021     		mov	r1, #0
 186 000c FFF7FEFF 		bl	I2C_1_I2CMasterSendStart
  50:.\main.c      ****     I2C_1_I2CMasterWriteByte(0x1C);
 187              		.loc 1 50 0
 188 0010 1C20     		mov	r0, #28
 189 0012 FFF7FEFF 		bl	I2C_1_I2CMasterWriteByte
  51:.\main.c      ****     I2C_1_I2CMasterSendStop();
 190              		.loc 1 51 0
 191 0016 FFF7FEFF 		bl	I2C_1_I2CMasterSendStop
  52:.\main.c      **** }
 192              		.loc 1 52 0
 193 001a BD46     		mov	sp, r7
 194              		@ sp needed for prologue
 195 001c 80BD     		pop	{r7, pc}
 196              		.cfi_endproc
 197              	.LFE35:
 198              		.size	I2CInit, .-I2CInit
 199 001e C046     		.section	.text.main,"ax",%progbits
 200              		.align	2
 201              		.global	main
 202              		.code	16
 203              		.thumb_func
 204              		.type	main, %function
 205              	main:
 206              	.LFB36:
  53:.\main.c      **** 
  54:.\main.c      **** int main()
  55:.\main.c      **** {
 207              		.loc 1 55 0
 208              		.cfi_startproc
 209 0000 80B5     		push	{r7, lr}
 210              	.LCFI8:
 211              		.cfi_def_cfa_offset 8
 212              		.cfi_offset 7, -8
 213              		.cfi_offset 14, -4
 214 0002 82B0     		sub	sp, sp, #8
 215              	.LCFI9:
 216              		.cfi_def_cfa_offset 16
 217 0004 00AF     		add	r7, sp, #0
 218              	.LCFI10:
 219              		.cfi_def_cfa_register 7
  56:.\main.c      ****     /* Place your initialization/startup code here (e.g. MyInst_Start()) */
  57:.\main.c      ****     CyGlobalIntEnable;
 220              		.loc 1 57 0
 221              	@ 57 ".\main.c" 1
 222 0006 62B6     		CPSIE   i
 223              	@ 0 "" 2
  58:.\main.c      **** 
  59:.\main.c      ****     CyDelay(1);
 224              		.loc 1 59 0
 225              		.code	16
 226 0008 0120     		mov	r0, #1
ARM GAS  C:\Users\Eric\AppData\Local\Temp\ccKoOTIj.s 			page 6


 227 000a FFF7FEFF 		bl	CyDelay
  60:.\main.c      ****     I2CInit();
 228              		.loc 1 60 0
 229 000e FFF7FEFF 		bl	I2CInit
 230              	.L7:
 231              	.LBB2:
  61:.\main.c      ****     /* CyGlobalIntEnable; */ /* Uncomment this line to enable global interrupts. */
  62:.\main.c      ****     for(;;)
  63:.\main.c      ****     {
  64:.\main.c      ****         /* Place your application code here. */
  65:.\main.c      ****         uint16 accx = readacc(0x3B); //3B for x axis
 232              		.loc 1 65 0 discriminator 1
 233 0012 3B20     		mov	r0, #59
 234 0014 FFF7FEFF 		bl	readacc
 235 0018 031C     		mov	r3, r0
 236 001a 1A1C     		mov	r2, r3
 237 001c BB1D     		add	r3, r7, #6
 238 001e 1A80     		strh	r2, [r3]
  66:.\main.c      ****        // char string[15];
  67:.\main.c      ****        // sprintf(string,"%d",accx);
  68:.\main.c      ****         CyDelay(10);
 239              		.loc 1 68 0 discriminator 1
 240 0020 0A20     		mov	r0, #10
 241 0022 FFF7FEFF 		bl	CyDelay
 242              	.LBE2:
  69:.\main.c      ****     }
 243              		.loc 1 69 0 discriminator 1
 244 0026 F4E7     		b	.L7
 245              		.cfi_endproc
 246              	.LFE36:
 247              		.size	main, .-main
 248              		.text
 249              	.Letext0:
 250              		.file 2 "./Generated_Source/PSoC4/cytypes.h"