ARM GAS  C:\Users\Eric\AppData\Local\Temp\ccvbEFxh.s 			page 1


   1              		.cpu cortex-m0
   2              		.fpu softvfp
   3              		.eabi_attribute 20, 1
   4              		.eabi_attribute 21, 1
   5              		.eabi_attribute 23, 3
   6              		.eabi_attribute 24, 1
   7              		.eabi_attribute 25, 1
   8              		.eabi_attribute 26, 1
   9              		.eabi_attribute 30, 6
  10              		.eabi_attribute 34, 0
  11              		.eabi_attribute 18, 4
  12              		.code	16
  13              		.file	"main.c"
  14              		.text
  15              	.Ltext0:
  16              		.cfi_sections	.debug_frame
  17              		.global	msg_count
  18              		.bss
  19              		.align	2
  20              		.type	msg_count, %object
  21              		.size	msg_count, 4
  22              	msg_count:
  23 0000 00000000 		.space	4
  24              		.comm	sendData,16,4
  25              		.section	.text.ReadSerial,"ax",%progbits
  26              		.align	2
  27              		.global	ReadSerial
  28              		.code	16
  29              		.thumb_func
  30              		.type	ReadSerial, %function
  31              	ReadSerial:
  32              	.LFB33:
  33              		.file 1 ".\\main.c"
   1:.\main.c      **** /* ========================================
   2:.\main.c      ****  *
   3:.\main.c      ****  * Copyright YOUR COMPANY, THE YEAR
   4:.\main.c      ****  * All Rights Reserved
   5:.\main.c      ****  * UNPUBLISHED, LICENSED SOFTWARE.
   6:.\main.c      ****  *
   7:.\main.c      ****  * CONFIDENTIAL AND PROPRIETARY INFORMATION
   8:.\main.c      ****  * WHICH IS THE PROPERTY OF your company.
   9:.\main.c      ****  *
  10:.\main.c      ****  * ========================================
  11:.\main.c      **** */
  12:.\main.c      **** #include <project.h>
  13:.\main.c      **** 
  14:.\main.c      **** #define BEGIN_PAD_SIZE 5
  15:.\main.c      **** 
  16:.\main.c      **** int msg_count = 0;
  17:.\main.c      **** 
  18:.\main.c      **** union data
  19:.\main.c      **** {
  20:.\main.c      ****     struct serialDataInternals
  21:.\main.c      ****     {
  22:.\main.c      ****         char beginPad[BEGIN_PAD_SIZE];
  23:.\main.c      ****         char shift;
  24:.\main.c      ****         char pad0;
ARM GAS  C:\Users\Eric\AppData\Local\Temp\ccvbEFxh.s 			page 2


  25:.\main.c      ****         int16_t tach;
  26:.\main.c      ****         char pad1;
  27:.\main.c      ****         int16_t wheel_speed;
  28:.\main.c      ****         char pad2;
  29:.\main.c      ****     } serialData;
  30:.\main.c      ****     char buffer[sizeof(struct serialDataInternals)];
  31:.\main.c      **** } sendData;
  32:.\main.c      **** 
  33:.\main.c      **** void ReadSerial() {
  34              		.loc 1 33 0
  35              		.cfi_startproc
  36 0000 90B5     		push	{r4, r7, lr}
  37              		.cfi_def_cfa_offset 12
  38              		.cfi_offset 4, -12
  39              		.cfi_offset 7, -8
  40              		.cfi_offset 14, -4
  41 0002 83B0     		sub	sp, sp, #12
  42              		.cfi_def_cfa_offset 24
  43 0004 00AF     		add	r7, sp, #0
  44              		.cfi_def_cfa_register 7
  34:.\main.c      ****     char rxData;
  35:.\main.c      ****     while (UART_1_GetRxBufferSize() != 0) {
  45              		.loc 1 35 0
  46 0006 34E0     		b	.L2
  47              	.L6:
  36:.\main.c      ****         rxData = UART_1_GetChar();
  48              		.loc 1 36 0
  49 0008 FC1D     		add	r4, r7, #7
  50 000a FFF7FEFF 		bl	UART_1_GetChar
  51 000e 031C     		mov	r3, r0
  52 0010 2370     		strb	r3, [r4]
  37:.\main.c      ****         if (msg_count == sizeof(sendData)) msg_count = 0;
  53              		.loc 1 37 0
  54 0012 1C4B     		ldr	r3, .L7
  55 0014 1B68     		ldr	r3, [r3]
  56 0016 102B     		cmp	r3, #16
  57 0018 02D1     		bne	.L3
  58              		.loc 1 37 0 is_stmt 0 discriminator 1
  59 001a 1A4B     		ldr	r3, .L7
  60 001c 0022     		mov	r2, #0
  61 001e 1A60     		str	r2, [r3]
  62              	.L3:
  38:.\main.c      ****         if (msg_count < BEGIN_PAD_SIZE && rxData == msg_count) msg_count++;
  63              		.loc 1 38 0 is_stmt 1
  64 0020 184B     		ldr	r3, .L7
  65 0022 1B68     		ldr	r3, [r3]
  66 0024 042B     		cmp	r3, #4
  67 0026 0BDC     		bgt	.L4
  68              		.loc 1 38 0 is_stmt 0 discriminator 1
  69 0028 FB1D     		add	r3, r7, #7
  70 002a 1A78     		ldrb	r2, [r3]
  71 002c 154B     		ldr	r3, .L7
  72 002e 1B68     		ldr	r3, [r3]
  73 0030 9A42     		cmp	r2, r3
  74 0032 05D1     		bne	.L4
  75 0034 134B     		ldr	r3, .L7
  76 0036 1B68     		ldr	r3, [r3]
ARM GAS  C:\Users\Eric\AppData\Local\Temp\ccvbEFxh.s 			page 3


  77 0038 5A1C     		add	r2, r3, #1
  78 003a 124B     		ldr	r3, .L7
  79 003c 1A60     		str	r2, [r3]
  80 003e 18E0     		b	.L2
  81              	.L4:
  39:.\main.c      ****         else if (msg_count < BEGIN_PAD_SIZE && rxData != msg_count) msg_count = 0;
  82              		.loc 1 39 0 is_stmt 1
  83 0040 104B     		ldr	r3, .L7
  84 0042 1B68     		ldr	r3, [r3]
  85 0044 042B     		cmp	r3, #4
  86 0046 09DC     		bgt	.L5
  87              		.loc 1 39 0 is_stmt 0 discriminator 1
  88 0048 FB1D     		add	r3, r7, #7
  89 004a 1A78     		ldrb	r2, [r3]
  90 004c 0D4B     		ldr	r3, .L7
  91 004e 1B68     		ldr	r3, [r3]
  92 0050 9A42     		cmp	r2, r3
  93 0052 03D0     		beq	.L5
  94 0054 0B4B     		ldr	r3, .L7
  95 0056 0022     		mov	r2, #0
  96 0058 1A60     		str	r2, [r3]
  97 005a 0AE0     		b	.L2
  98              	.L5:
  40:.\main.c      ****         else {
  41:.\main.c      ****             sendData.buffer[msg_count] = rxData;
  99              		.loc 1 41 0 is_stmt 1
 100 005c 094B     		ldr	r3, .L7
 101 005e 1B68     		ldr	r3, [r3]
 102 0060 094A     		ldr	r2, .L7+4
 103 0062 F91D     		add	r1, r7, #7
 104 0064 0978     		ldrb	r1, [r1]
 105 0066 D154     		strb	r1, [r2, r3]
  42:.\main.c      ****             msg_count++;
 106              		.loc 1 42 0
 107 0068 064B     		ldr	r3, .L7
 108 006a 1B68     		ldr	r3, [r3]
 109 006c 5A1C     		add	r2, r3, #1
 110 006e 054B     		ldr	r3, .L7
 111 0070 1A60     		str	r2, [r3]
 112              	.L2:
  35:.\main.c      ****     while (UART_1_GetRxBufferSize() != 0) {
 113              		.loc 1 35 0 discriminator 1
 114 0072 FFF7FEFF 		bl	UART_1_GetRxBufferSize
 115 0076 031C     		mov	r3, r0
 116 0078 002B     		cmp	r3, #0
 117 007a C5D1     		bne	.L6
  43:.\main.c      ****         }
  44:.\main.c      ****     }
  45:.\main.c      **** }
 118              		.loc 1 45 0
 119 007c BD46     		mov	sp, r7
 120 007e 03B0     		add	sp, sp, #12
 121              		@ sp needed
 122 0080 90BD     		pop	{r4, r7, pc}
 123              	.L8:
 124 0082 C046     		.align	2
 125              	.L7:
ARM GAS  C:\Users\Eric\AppData\Local\Temp\ccvbEFxh.s 			page 4


 126 0084 00000000 		.word	msg_count
 127 0088 00000000 		.word	sendData
 128              		.cfi_endproc
 129              	.LFE33:
 130              		.size	ReadSerial, .-ReadSerial
 131              		.section	.text.main,"ax",%progbits
 132              		.align	2
 133              		.global	main
 134              		.code	16
 135              		.thumb_func
 136              		.type	main, %function
 137              	main:
 138              	.LFB34:
  46:.\main.c      **** 
  47:.\main.c      **** int main()
  48:.\main.c      **** {
 139              		.loc 1 48 0
 140              		.cfi_startproc
 141 0000 80B5     		push	{r7, lr}
 142              		.cfi_def_cfa_offset 8
 143              		.cfi_offset 7, -8
 144              		.cfi_offset 14, -4
 145 0002 00AF     		add	r7, sp, #0
 146              		.cfi_def_cfa_register 7
  49:.\main.c      ****     /* Place your initialization/startup code here (e.g. MyInst_Start()) */
  50:.\main.c      ****     UART_1_Start();
 147              		.loc 1 50 0
 148 0004 FFF7FEFF 		bl	UART_1_Start
  51:.\main.c      ****     isr_1_StartEx(*ReadSerial);
 149              		.loc 1 51 0
 150 0008 024B     		ldr	r3, .L11
 151 000a 181C     		mov	r0, r3
 152 000c FFF7FEFF 		bl	isr_1_StartEx
  52:.\main.c      **** 
  53:.\main.c      ****     CyGlobalIntEnable; /* Uncomment this line to enable global interrupts. */
 153              		.loc 1 53 0
 154              	@ 53 ".\main.c" 1
 155 0010 62B6     		CPSIE   i
 156              	@ 0 "" 2
 157              		.code	16
 158              	.L10:
  54:.\main.c      ****     for(;;)
  55:.\main.c      ****     {
  56:.\main.c      ****         /* Place your application code here. */
  57:.\main.c      ****         // UART_1_PutChar('a');
  58:.\main.c      ****     }
 159              		.loc 1 58 0 discriminator 1
 160 0012 FEE7     		b	.L10
 161              	.L12:
 162              		.align	2
 163              	.L11:
 164 0014 00000000 		.word	ReadSerial
 165              		.cfi_endproc
 166              	.LFE34:
 167              		.size	main, .-main
 168              		.text
 169              	.Letext0:
ARM GAS  C:\Users\Eric\AppData\Local\Temp\ccvbEFxh.s 			page 5


 170              		.file 2 "e:\\program files (x86)\\cypress\\psoc creator\\3.1\\psoc creator\\import\\gnu_cs\\arm\\4
 171              		.file 3 "e:\\program files (x86)\\cypress\\psoc creator\\3.1\\psoc creator\\import\\gnu_cs\\arm\\4